# command-line-arguments
command-line-arguments.SliceClear<1> STEXT size=118 args=0x18 locals=0x20 funcid=0x0 align=0x0
	0x0000 00000 (/bigdata/qiuhan/codet5/usage/goroot/test/codegen/slices.go:20)	TEXT	command-line-arguments.SliceClear(SB), ABIInternal, $32-24
	0x0000 00000 (/bigdata/qiuhan/codet5/usage/goroot/test/codegen/slices.go:20)	CMPQ	SP, 16(R14)
	0x0004 00004 (/bigdata/qiuhan/codet5/usage/goroot/test/codegen/slices.go:20)	PCDATA	$0, $-2
	0x0004 00004 (/bigdata/qiuhan/codet5/usage/goroot/test/codegen/slices.go:20)	JLS	79
	0x0006 00006 (/bigdata/qiuhan/codet5/usage/goroot/test/codegen/slices.go:20)	PCDATA	$0, $-1
	0x0006 00006 (/bigdata/qiuhan/codet5/usage/goroot/test/codegen/slices.go:20)	SUBQ	$32, SP
	0x000a 00010 (/bigdata/qiuhan/codet5/usage/goroot/test/codegen/slices.go:20)	MOVQ	BP, 24(SP)
	0x000f 00015 (/bigdata/qiuhan/codet5/usage/goroot/test/codegen/slices.go:20)	LEAQ	24(SP), BP
	0x0014 00020 (/bigdata/qiuhan/codet5/usage/goroot/test/codegen/slices.go:20)	MOVQ	AX, command-line-arguments.s+40(FP)
	0x0019 00025 (/bigdata/qiuhan/codet5/usage/goroot/test/codegen/slices.go:20)	FUNCDATA	$0, gclocals·m/6RUmNv6NBhMUL8eleFFA==(SB)
	0x0019 00025 (/bigdata/qiuhan/codet5/usage/goroot/test/codegen/slices.go:20)	FUNCDATA	$1, gclocals·VtCL4RdUwCqwXEPeyJllRA==(SB)
	0x0019 00025 (/bigdata/qiuhan/codet5/usage/goroot/test/codegen/slices.go:20)	FUNCDATA	$5, command-line-arguments.SliceClear.arginfo1(SB)
	0x0019 00025 (/bigdata/qiuhan/codet5/usage/goroot/test/codegen/slices.go:20)	FUNCDATA	$6, command-line-arguments.SliceClear.argliveinfo(SB)
	0x0019 00025 (/bigdata/qiuhan/codet5/usage/goroot/test/codegen/slices.go:20)	PCDATA	$3, $1
	0x0019 00025 (/bigdata/qiuhan/codet5/usage/goroot/test/codegen/slices.go:24)	TESTQ	BX, BX
	0x001c 00028 (/bigdata/qiuhan/codet5/usage/goroot/test/codegen/slices.go:24)	JEQ	69
	0x001e 00030 (/bigdata/qiuhan/codet5/usage/goroot/test/codegen/slices.go:20)	MOVQ	CX, command-line-arguments.s+56(SP)
	0x0023 00035 (/bigdata/qiuhan/codet5/usage/goroot/test/codegen/slices.go:20)	MOVQ	AX, command-line-arguments..autotmp_5+16(SP)
	0x0028 00040 (/bigdata/qiuhan/codet5/usage/goroot/test/codegen/slices.go:20)	MOVQ	BX, command-line-arguments.s+48(SP)
	0x002d 00045 (/bigdata/qiuhan/codet5/usage/goroot/test/codegen/slices.go:20)	PCDATA	$3, $2
	0x002d 00045 (/bigdata/qiuhan/codet5/usage/goroot/test/codegen/slices.go:24)	SHLQ	$3, BX
	0x0031 00049 (/bigdata/qiuhan/codet5/usage/goroot/test/codegen/slices.go:24)	PCDATA	$1, $1
	0x0031 00049 (/bigdata/qiuhan/codet5/usage/goroot/test/codegen/slices.go:24)	CALL	runtime.memclrNoHeapPointers(SB)
	0x0036 00054 (/bigdata/qiuhan/codet5/usage/goroot/test/codegen/slices.go:27)	MOVQ	command-line-arguments..autotmp_5+16(SP), AX
	0x003b 00059 (/bigdata/qiuhan/codet5/usage/goroot/test/codegen/slices.go:27)	MOVQ	command-line-arguments.s+56(SP), CX
	0x0040 00064 (/bigdata/qiuhan/codet5/usage/goroot/test/codegen/slices.go:27)	MOVQ	command-line-arguments.s+48(SP), BX
	0x0045 00069 (/bigdata/qiuhan/codet5/usage/goroot/test/codegen/slices.go:24)	PCDATA	$1, $-1
	0x0045 00069 (/bigdata/qiuhan/codet5/usage/goroot/test/codegen/slices.go:24)	PCDATA	$3, $1
	0x0045 00069 (/bigdata/qiuhan/codet5/usage/goroot/test/codegen/slices.go:27)	MOVQ	24(SP), BP
	0x004a 00074 (/bigdata/qiuhan/codet5/usage/goroot/test/codegen/slices.go:27)	ADDQ	$32, SP
	0x004e 00078 (/bigdata/qiuhan/codet5/usage/goroot/test/codegen/slices.go:27)	RET
	0x004f 00079 (/bigdata/qiuhan/codet5/usage/goroot/test/codegen/slices.go:27)	NOP
	0x004f 00079 (/bigdata/qiuhan/codet5/usage/goroot/test/codegen/slices.go:20)	PCDATA	$1, $-1
	0x004f 00079 (/bigdata/qiuhan/codet5/usage/goroot/test/codegen/slices.go:20)	PCDATA	$0, $-2
	0x004f 00079 (/bigdata/qiuhan/codet5/usage/goroot/test/codegen/slices.go:20)	MOVQ	AX, 8(SP)
	0x0054 00084 (/bigdata/qiuhan/codet5/usage/goroot/test/codegen/slices.go:20)	MOVQ	BX, 16(SP)
	0x0059 00089 (/bigdata/qiuhan/codet5/usage/goroot/test/codegen/slices.go:20)	MOVQ	CX, 24(SP)
	0x005e 00094 (/bigdata/qiuhan/codet5/usage/goroot/test/codegen/slices.go:20)	NOP
	0x0060 00096 (/bigdata/qiuhan/codet5/usage/goroot/test/codegen/slices.go:20)	CALL	runtime.morestack_noctxt(SB)
	0x0065 00101 (/bigdata/qiuhan/codet5/usage/goroot/test/codegen/slices.go:20)	MOVQ	8(SP), AX
	0x006a 00106 (/bigdata/qiuhan/codet5/usage/goroot/test/codegen/slices.go:20)	MOVQ	16(SP), BX
	0x006f 00111 (/bigdata/qiuhan/codet5/usage/goroot/test/codegen/slices.go:20)	MOVQ	24(SP), CX
	0x0074 00116 (/bigdata/qiuhan/codet5/usage/goroot/test/codegen/slices.go:20)	PCDATA	$0, $-1
	0x0074 00116 (/bigdata/qiuhan/codet5/usage/goroot/test/codegen/slices.go:20)	JMP	0
	0x0000 49 3b 66 10 76 49 48 83 ec 20 48 89 6c 24 18 48  I;f.vIH.. H.l$.H
	0x0010 8d 6c 24 18 48 89 44 24 28 48 85 db 74 27 48 89  .l$.H.D$(H..t'H.
	0x0020 4c 24 38 48 89 44 24 10 48 89 5c 24 30 48 c1 e3  L$8H.D$.H.\$0H..
	0x0030 03 e8 00 00 00 00 48 8b 44 24 10 48 8b 4c 24 38  ......H.D$.H.L$8
	0x0040 48 8b 5c 24 30 48 8b 6c 24 18 48 83 c4 20 c3 48  H.\$0H.l$.H.. .H
	0x0050 89 44 24 08 48 89 5c 24 10 48 89 4c 24 18 66 90  .D$.H.\$.H.L$.f.
	0x0060 e8 00 00 00 00 48 8b 44 24 08 48 8b 5c 24 10 48  .....H.D$.H.\$.H
	0x0070 8b 4c 24 18 eb 8a                                .L$...
	rel 50+4 t=7 runtime.memclrNoHeapPointers<1>+0
	rel 97+4 t=7 runtime.morestack_noctxt<0>+0
command-line-arguments.SliceClearPointers<1> STEXT size=118 args=0x18 locals=0x20 funcid=0x0 align=0x0
	0x0000 00000 (/bigdata/qiuhan/codet5/usage/goroot/test/codegen/slices.go:30)	TEXT	command-line-arguments.SliceClearPointers(SB), ABIInternal, $32-24
	0x0000 00000 (/bigdata/qiuhan/codet5/usage/goroot/test/codegen/slices.go:30)	CMPQ	SP, 16(R14)
	0x0004 00004 (/bigdata/qiuhan/codet5/usage/goroot/test/codegen/slices.go:30)	PCDATA	$0, $-2
	0x0004 00004 (/bigdata/qiuhan/codet5/usage/goroot/test/codegen/slices.go:30)	JLS	79
	0x0006 00006 (/bigdata/qiuhan/codet5/usage/goroot/test/codegen/slices.go:30)	PCDATA	$0, $-1
	0x0006 00006 (/bigdata/qiuhan/codet5/usage/goroot/test/codegen/slices.go:30)	SUBQ	$32, SP
	0x000a 00010 (/bigdata/qiuhan/codet5/usage/goroot/test/codegen/slices.go:30)	MOVQ	BP, 24(SP)
	0x000f 00015 (/bigdata/qiuhan/codet5/usage/goroot/test/codegen/slices.go:30)	LEAQ	24(SP), BP
	0x0014 00020 (/bigdata/qiuhan/codet5/usage/goroot/test/codegen/slices.go:30)	MOVQ	AX, command-line-arguments.s+40(FP)
	0x0019 00025 (/bigdata/qiuhan/codet5/usage/goroot/test/codegen/slices.go:30)	FUNCDATA	$0, gclocals·m/6RUmNv6NBhMUL8eleFFA==(SB)
	0x0019 00025 (/bigdata/qiuhan/codet5/usage/goroot/test/codegen/slices.go:30)	FUNCDATA	$1, gclocals·VtCL4RdUwCqwXEPeyJllRA==(SB)
	0x0019 00025 (/bigdata/qiuhan/codet5/usage/goroot/test/codegen/slices.go:30)	FUNCDATA	$5, command-line-arguments.SliceClearPointers.arginfo1(SB)
	0x0019 00025 (/bigdata/qiuhan/codet5/usage/goroot/test/codegen/slices.go:30)	FUNCDATA	$6, command-line-arguments.SliceClearPointers.argliveinfo(SB)
	0x0019 00025 (/bigdata/qiuhan/codet5/usage/goroot/test/codegen/slices.go:30)	PCDATA	$3, $1
	0x0019 00025 (/bigdata/qiuhan/codet5/usage/goroot/test/codegen/slices.go:34)	TESTQ	BX, BX
	0x001c 00028 (/bigdata/qiuhan/codet5/usage/goroot/test/codegen/slices.go:34)	JEQ	69
	0x001e 00030 (/bigdata/qiuhan/codet5/usage/goroot/test/codegen/slices.go:30)	MOVQ	CX, command-line-arguments.s+56(SP)
	0x0023 00035 (/bigdata/qiuhan/codet5/usage/goroot/test/codegen/slices.go:30)	MOVQ	AX, command-line-arguments..autotmp_5+16(SP)
	0x0028 00040 (/bigdata/qiuhan/codet5/usage/goroot/test/codegen/slices.go:30)	MOVQ	BX, command-line-arguments.s+48(SP)
	0x002d 00045 (/bigdata/qiuhan/codet5/usage/goroot/test/codegen/slices.go:30)	PCDATA	$3, $2
	0x002d 00045 (/bigdata/qiuhan/codet5/usage/goroot/test/codegen/slices.go:34)	SHLQ	$3, BX
	0x0031 00049 (/bigdata/qiuhan/codet5/usage/goroot/test/codegen/slices.go:34)	PCDATA	$1, $1
	0x0031 00049 (/bigdata/qiuhan/codet5/usage/goroot/test/codegen/slices.go:34)	CALL	runtime.memclrHasPointers(SB)
	0x0036 00054 (/bigdata/qiuhan/codet5/usage/goroot/test/codegen/slices.go:37)	MOVQ	command-line-arguments..autotmp_5+16(SP), AX
	0x003b 00059 (/bigdata/qiuhan/codet5/usage/goroot/test/codegen/slices.go:37)	MOVQ	command-line-arguments.s+56(SP), CX
	0x0040 00064 (/bigdata/qiuhan/codet5/usage/goroot/test/codegen/slices.go:37)	MOVQ	command-line-arguments.s+48(SP), BX
	0x0045 00069 (/bigdata/qiuhan/codet5/usage/goroot/test/codegen/slices.go:34)	PCDATA	$1, $-1
	0x0045 00069 (/bigdata/qiuhan/codet5/usage/goroot/test/codegen/slices.go:34)	PCDATA	$3, $1
	0x0045 00069 (/bigdata/qiuhan/codet5/usage/goroot/test/codegen/slices.go:37)	MOVQ	24(SP), BP
	0x004a 00074 (/bigdata/qiuhan/codet5/usage/goroot/test/codegen/slices.go:37)	ADDQ	$32, SP
	0x004e 00078 (/bigdata/qiuhan/codet5/usage/goroot/test/codegen/slices.go:37)	RET
	0x004f 00079 (/bigdata/qiuhan/codet5/usage/goroot/test/codegen/slices.go:37)	NOP
	0x004f 00079 (/bigdata/qiuhan/codet5/usage/goroot/test/codegen/slices.go:30)	PCDATA	$1, $-1
	0x004f 00079 (/bigdata/qiuhan/codet5/usage/goroot/test/codegen/slices.go:30)	PCDATA	$0, $-2
	0x004f 00079 (/bigdata/qiuhan/codet5/usage/goroot/test/codegen/slices.go:30)	MOVQ	AX, 8(SP)
	0x0054 00084 (/bigdata/qiuhan/codet5/usage/goroot/test/codegen/slices.go:30)	MOVQ	BX, 16(SP)
	0x0059 00089 (/bigdata/qiuhan/codet5/usage/goroot/test/codegen/slices.go:30)	MOVQ	CX, 24(SP)
	0x005e 00094 (/bigdata/qiuhan/codet5/usage/goroot/test/codegen/slices.go:30)	NOP
	0x0060 00096 (/bigdata/qiuhan/codet5/usage/goroot/test/codegen/slices.go:30)	CALL	runtime.morestack_noctxt(SB)
	0x0065 00101 (/bigdata/qiuhan/codet5/usage/goroot/test/codegen/slices.go:30)	MOVQ	8(SP), AX
	0x006a 00106 (/bigdata/qiuhan/codet5/usage/goroot/test/codegen/slices.go:30)	MOVQ	16(SP), BX
	0x006f 00111 (/bigdata/qiuhan/codet5/usage/goroot/test/codegen/slices.go:30)	MOVQ	24(SP), CX
	0x0074 00116 (/bigdata/qiuhan/codet5/usage/goroot/test/codegen/slices.go:30)	PCDATA	$0, $-1
	0x0074 00116 (/bigdata/qiuhan/codet5/usage/goroot/test/codegen/slices.go:30)	JMP	0
	0x0000 49 3b 66 10 76 49 48 83 ec 20 48 89 6c 24 18 48  I;f.vIH.. H.l$.H
	0x0010 8d 6c 24 18 48 89 44 24 28 48 85 db 74 27 48 89  .l$.H.D$(H..t'H.
	0x0020 4c 24 38 48 89 44 24 10 48 89 5c 24 30 48 c1 e3  L$8H.D$.H.\$0H..
	0x0030 03 e8 00 00 00 00 48 8b 44 24 10 48 8b 4c 24 38  ......H.D$.H.L$8
	0x0040 48 8b 5c 24 30 48 8b 6c 24 18 48 83 c4 20 c3 48  H.\$0H.l$.H.. .H
	0x0050 89 44 24 08 48 89 5c 24 10 48 89 4c 24 18 66 90  .D$.H.\$.H.L$.f.
	0x0060 e8 00 00 00 00 48 8b 44 24 08 48 8b 5c 24 10 48  .....H.D$.H.\$.H
	0x0070 8b 4c 24 18 eb 8a                                .L$...
	rel 50+4 t=7 runtime.memclrHasPointers<1>+0
	rel 97+4 t=7 runtime.morestack_noctxt<0>+0
command-line-arguments.SliceExtensionConst<1> STEXT size=155 args=0x18 locals=0x48 funcid=0x0 align=0x0
	0x0000 00000 (/bigdata/qiuhan/codet5/usage/goroot/test/codegen/slices.go:46)	TEXT	command-line-arguments.SliceExtensionConst(SB), ABIInternal, $72-24
	0x0000 00000 (/bigdata/qiuhan/codet5/usage/goroot/test/codegen/slices.go:46)	CMPQ	SP, 16(R14)
	0x0004 00004 (/bigdata/qiuhan/codet5/usage/goroot/test/codegen/slices.go:46)	PCDATA	$0, $-2
	0x0004 00004 (/bigdata/qiuhan/codet5/usage/goroot/test/codegen/slices.go:46)	JLS	115
	0x0006 00006 (/bigdata/qiuhan/codet5/usage/goroot/test/codegen/slices.go:46)	PCDATA	$0, $-1
	0x0006 00006 (/bigdata/qiuhan/codet5/usage/goroot/test/codegen/slices.go:46)	SUBQ	$72, SP
	0x000a 00010 (/bigdata/qiuhan/codet5/usage/goroot/test/codegen/slices.go:46)	MOVQ	BP, 64(SP)
	0x000f 00015 (/bigdata/qiuhan/codet5/usage/goroot/test/codegen/slices.go:46)	LEAQ	64(SP), BP
	0x0014 00020 (/bigdata/qiuhan/codet5/usage/goroot/test/codegen/slices.go:46)	MOVQ	AX, command-line-arguments.s+80(FP)
	0x0019 00025 (/bigdata/qiuhan/codet5/usage/goroot/test/codegen/slices.go:46)	FUNCDATA	$0, gclocals·ZzMiPAiVBg7DJ6dh/CjSag==(SB)
	0x0019 00025 (/bigdata/qiuhan/codet5/usage/goroot/test/codegen/slices.go:46)	FUNCDATA	$1, gclocals·dGrMWTWIngKGfVYjHi0adA==(SB)
	0x0019 00025 (/bigdata/qiuhan/codet5/usage/goroot/test/codegen/slices.go:46)	FUNCDATA	$5, command-line-arguments.SliceExtensionConst.arginfo1(SB)
	0x0019 00025 (/bigdata/qiuhan/codet5/usage/goroot/test/codegen/slices.go:46)	FUNCDATA	$6, command-line-arguments.SliceExtensionConst.argliveinfo(SB)
	0x0019 00025 (/bigdata/qiuhan/codet5/usage/goroot/test/codegen/slices.go:46)	PCDATA	$3, $1
	0x0019 00025 (/bigdata/qiuhan/codet5/usage/goroot/test/codegen/slices.go:56)	ADDQ	$4, BX
	0x001d 00029 (/bigdata/qiuhan/codet5/usage/goroot/test/codegen/slices.go:56)	NOP
	0x0020 00032 (/bigdata/qiuhan/codet5/usage/goroot/test/codegen/slices.go:56)	CMPQ	CX, BX
	0x0023 00035 (/bigdata/qiuhan/codet5/usage/goroot/test/codegen/slices.go:56)	JCC	54
	0x0025 00037 (/bigdata/qiuhan/codet5/usage/goroot/test/codegen/slices.go:56)	MOVL	$4, DI
	0x002a 00042 (/bigdata/qiuhan/codet5/usage/goroot/test/codegen/slices.go:56)	LEAQ	type:int(SB), SI
	0x0031 00049 (/bigdata/qiuhan/codet5/usage/goroot/test/codegen/slices.go:56)	PCDATA	$1, $1
	0x0031 00049 (/bigdata/qiuhan/codet5/usage/goroot/test/codegen/slices.go:56)	CALL	runtime.growslice(SB)
	0x0036 00054 (/bigdata/qiuhan/codet5/usage/goroot/test/codegen/slices.go:56)	MOVQ	BX, command-line-arguments..autotmp_6+48(SP)
	0x003b 00059 (/bigdata/qiuhan/codet5/usage/goroot/test/codegen/slices.go:56)	MOVQ	CX, command-line-arguments..autotmp_7+40(SP)
	0x0040 00064 (/bigdata/qiuhan/codet5/usage/goroot/test/codegen/slices.go:56)	MOVQ	AX, command-line-arguments..autotmp_8+56(SP)
	0x0045 00069 (/bigdata/qiuhan/codet5/usage/goroot/test/codegen/slices.go:56)	LEAQ	(AX)(BX*8), DX
	0x0049 00073 (/bigdata/qiuhan/codet5/usage/goroot/test/codegen/slices.go:56)	LEAQ	-32(DX), DX
	0x004d 00077 (/bigdata/qiuhan/codet5/usage/goroot/test/codegen/slices.go:56)	MOVQ	DX, AX
	0x0050 00080 (/bigdata/qiuhan/codet5/usage/goroot/test/codegen/slices.go:56)	MOVL	$32, BX
	0x0055 00085 (/bigdata/qiuhan/codet5/usage/goroot/test/codegen/slices.go:56)	PCDATA	$1, $2
	0x0055 00085 (/bigdata/qiuhan/codet5/usage/goroot/test/codegen/slices.go:56)	CALL	runtime.memclrNoHeapPointers(SB)
	0x005a 00090 (/bigdata/qiuhan/codet5/usage/goroot/test/codegen/slices.go:56)	MOVQ	command-line-arguments..autotmp_8+56(SP), AX
	0x005f 00095 (/bigdata/qiuhan/codet5/usage/goroot/test/codegen/slices.go:56)	MOVQ	command-line-arguments..autotmp_6+48(SP), BX
	0x0064 00100 (/bigdata/qiuhan/codet5/usage/goroot/test/codegen/slices.go:56)	MOVQ	command-line-arguments..autotmp_7+40(SP), CX
	0x0069 00105 (/bigdata/qiuhan/codet5/usage/goroot/test/codegen/slices.go:56)	MOVQ	64(SP), BP
	0x006e 00110 (/bigdata/qiuhan/codet5/usage/goroot/test/codegen/slices.go:56)	ADDQ	$72, SP
	0x0072 00114 (/bigdata/qiuhan/codet5/usage/goroot/test/codegen/slices.go:56)	RET
	0x0073 00115 (/bigdata/qiuhan/codet5/usage/goroot/test/codegen/slices.go:56)	NOP
	0x0073 00115 (/bigdata/qiuhan/codet5/usage/goroot/test/codegen/slices.go:46)	PCDATA	$1, $-1
	0x0073 00115 (/bigdata/qiuhan/codet5/usage/goroot/test/codegen/slices.go:46)	PCDATA	$0, $-2
	0x0073 00115 (/bigdata/qiuhan/codet5/usage/goroot/test/codegen/slices.go:46)	MOVQ	AX, 8(SP)
	0x0078 00120 (/bigdata/qiuhan/codet5/usage/goroot/test/codegen/slices.go:46)	MOVQ	BX, 16(SP)
	0x007d 00125 (/bigdata/qiuhan/codet5/usage/goroot/test/codegen/slices.go:46)	MOVQ	CX, 24(SP)
	0x0082 00130 (/bigdata/qiuhan/codet5/usage/goroot/test/codegen/slices.go:46)	CALL	runtime.morestack_noctxt(SB)
	0x0087 00135 (/bigdata/qiuhan/codet5/usage/goroot/test/codegen/slices.go:46)	MOVQ	8(SP), AX
	0x008c 00140 (/bigdata/qiuhan/codet5/usage/goroot/test/codegen/slices.go:46)	MOVQ	16(SP), BX
	0x0091 00145 (/bigdata/qiuhan/codet5/usage/goroot/test/codegen/slices.go:46)	MOVQ	24(SP), CX
	0x0096 00150 (/bigdata/qiuhan/codet5/usage/goroot/test/codegen/slices.go:46)	PCDATA	$0, $-1
	0x0096 00150 (/bigdata/qiuhan/codet5/usage/goroot/test/codegen/slices.go:46)	JMP	0
	0x0000 49 3b 66 10 76 6d 48 83 ec 48 48 89 6c 24 40 48  I;f.vmH..HH.l$@H
	0x0010 8d 6c 24 40 48 89 44 24 50 48 83 c3 04 0f 1f 00  .l$@H.D$PH......
	0x0020 48 39 d9 73 11 bf 04 00 00 00 48 8d 35 00 00 00  H9.s......H.5...
	0x0030 00 e8 00 00 00 00 48 89 5c 24 30 48 89 4c 24 28  ......H.\$0H.L$(
	0x0040 48 89 44 24 38 48 8d 14 d8 48 8d 52 e0 48 89 d0  H.D$8H...H.R.H..
	0x0050 bb 20 00 00 00 e8 00 00 00 00 48 8b 44 24 38 48  . ........H.D$8H
	0x0060 8b 5c 24 30 48 8b 4c 24 28 48 8b 6c 24 40 48 83  .\$0H.L$(H.l$@H.
	0x0070 c4 48 c3 48 89 44 24 08 48 89 5c 24 10 48 89 4c  .H.H.D$.H.\$.H.L
	0x0080 24 18 e8 00 00 00 00 48 8b 44 24 08 48 8b 5c 24  $......H.D$.H.\$
	0x0090 10 48 8b 4c 24 18 e9 65 ff ff ff                 .H.L$..e...
	rel 45+4 t=14 type:int<0>+0
	rel 50+4 t=7 runtime.growslice<1>+0
	rel 86+4 t=7 runtime.memclrNoHeapPointers<1>+0
	rel 131+4 t=7 runtime.morestack_noctxt<0>+0
command-line-arguments.SliceExtensionConstInt64<1> STEXT size=155 args=0x18 locals=0x48 funcid=0x0 align=0x0
	0x0000 00000 (/bigdata/qiuhan/codet5/usage/goroot/test/codegen/slices.go:59)	TEXT	command-line-arguments.SliceExtensionConstInt64(SB), ABIInternal, $72-24
	0x0000 00000 (/bigdata/qiuhan/codet5/usage/goroot/test/codegen/slices.go:59)	CMPQ	SP, 16(R14)
	0x0004 00004 (/bigdata/qiuhan/codet5/usage/goroot/test/codegen/slices.go:59)	PCDATA	$0, $-2
	0x0004 00004 (/bigdata/qiuhan/codet5/usage/goroot/test/codegen/slices.go:59)	JLS	115
	0x0006 00006 (/bigdata/qiuhan/codet5/usage/goroot/test/codegen/slices.go:59)	PCDATA	$0, $-1
	0x0006 00006 (/bigdata/qiuhan/codet5/usage/goroot/test/codegen/slices.go:59)	SUBQ	$72, SP
	0x000a 00010 (/bigdata/qiuhan/codet5/usage/goroot/test/codegen/slices.go:59)	MOVQ	BP, 64(SP)
	0x000f 00015 (/bigdata/qiuhan/codet5/usage/goroot/test/codegen/slices.go:59)	LEAQ	64(SP), BP
	0x0014 00020 (/bigdata/qiuhan/codet5/usage/goroot/test/codegen/slices.go:59)	MOVQ	AX, command-line-arguments.s+80(FP)
	0x0019 00025 (/bigdata/qiuhan/codet5/usage/goroot/test/codegen/slices.go:59)	FUNCDATA	$0, gclocals·ZzMiPAiVBg7DJ6dh/CjSag==(SB)
	0x0019 00025 (/bigdata/qiuhan/codet5/usage/goroot/test/codegen/slices.go:59)	FUNCDATA	$1, gclocals·dGrMWTWIngKGfVYjHi0adA==(SB)
	0x0019 00025 (/bigdata/qiuhan/codet5/usage/goroot/test/codegen/slices.go:59)	FUNCDATA	$5, command-line-arguments.SliceExtensionConstInt64.arginfo1(SB)
	0x0019 00025 (/bigdata/qiuhan/codet5/usage/goroot/test/codegen/slices.go:59)	FUNCDATA	$6, command-line-arguments.SliceExtensionConstInt64.argliveinfo(SB)
	0x0019 00025 (/bigdata/qiuhan/codet5/usage/goroot/test/codegen/slices.go:59)	PCDATA	$3, $1
	0x0019 00025 (/bigdata/qiuhan/codet5/usage/goroot/test/codegen/slices.go:69)	ADDQ	$4, BX
	0x001d 00029 (/bigdata/qiuhan/codet5/usage/goroot/test/codegen/slices.go:69)	NOP
	0x0020 00032 (/bigdata/qiuhan/codet5/usage/goroot/test/codegen/slices.go:69)	CMPQ	CX, BX
	0x0023 00035 (/bigdata/qiuhan/codet5/usage/goroot/test/codegen/slices.go:69)	JCC	54
	0x0025 00037 (/bigdata/qiuhan/codet5/usage/goroot/test/codegen/slices.go:69)	MOVL	$4, DI
	0x002a 00042 (/bigdata/qiuhan/codet5/usage/goroot/test/codegen/slices.go:69)	LEAQ	type:int(SB), SI
	0x0031 00049 (/bigdata/qiuhan/codet5/usage/goroot/test/codegen/slices.go:69)	PCDATA	$1, $1
	0x0031 00049 (/bigdata/qiuhan/codet5/usage/goroot/test/codegen/slices.go:69)	CALL	runtime.growslice(SB)
	0x0036 00054 (/bigdata/qiuhan/codet5/usage/goroot/test/codegen/slices.go:69)	MOVQ	BX, command-line-arguments..autotmp_6+48(SP)
	0x003b 00059 (/bigdata/qiuhan/codet5/usage/goroot/test/codegen/slices.go:69)	MOVQ	CX, command-line-arguments..autotmp_7+40(SP)
	0x0040 00064 (/bigdata/qiuhan/codet5/usage/goroot/test/codegen/slices.go:69)	MOVQ	AX, command-line-arguments..autotmp_8+56(SP)
	0x0045 00069 (/bigdata/qiuhan/codet5/usage/goroot/test/codegen/slices.go:69)	LEAQ	(AX)(BX*8), DX
	0x0049 00073 (/bigdata/qiuhan/codet5/usage/goroot/test/codegen/slices.go:69)	LEAQ	-32(DX), DX
	0x004d 00077 (/bigdata/qiuhan/codet5/usage/goroot/test/codegen/slices.go:69)	MOVQ	DX, AX
	0x0050 00080 (/bigdata/qiuhan/codet5/usage/goroot/test/codegen/slices.go:69)	MOVL	$32, BX
	0x0055 00085 (/bigdata/qiuhan/codet5/usage/goroot/test/codegen/slices.go:69)	PCDATA	$1, $2
	0x0055 00085 (/bigdata/qiuhan/codet5/usage/goroot/test/codegen/slices.go:69)	CALL	runtime.memclrNoHeapPointers(SB)
	0x005a 00090 (/bigdata/qiuhan/codet5/usage/goroot/test/codegen/slices.go:69)	MOVQ	command-line-arguments..autotmp_8+56(SP), AX
	0x005f 00095 (/bigdata/qiuhan/codet5/usage/goroot/test/codegen/slices.go:69)	MOVQ	command-line-arguments..autotmp_6+48(SP), BX
	0x0064 00100 (/bigdata/qiuhan/codet5/usage/goroot/test/codegen/slices.go:69)	MOVQ	command-line-arguments..autotmp_7+40(SP), CX
	0x0069 00105 (/bigdata/qiuhan/codet5/usage/goroot/test/codegen/slices.go:69)	MOVQ	64(SP), BP
	0x006e 00110 (/bigdata/qiuhan/codet5/usage/goroot/test/codegen/slices.go:69)	ADDQ	$72, SP
	0x0072 00114 (/bigdata/qiuhan/codet5/usage/goroot/test/codegen/slices.go:69)	RET
	0x0073 00115 (/bigdata/qiuhan/codet5/usage/goroot/test/codegen/slices.go:69)	NOP
	0x0073 00115 (/bigdata/qiuhan/codet5/usage/goroot/test/codegen/slices.go:59)	PCDATA	$1, $-1
	0x0073 00115 (/bigdata/qiuhan/codet5/usage/goroot/test/codegen/slices.go:59)	PCDATA	$0, $-2
	0x0073 00115 (/bigdata/qiuhan/codet5/usage/goroot/test/codegen/slices.go:59)	MOVQ	AX, 8(SP)
	0x0078 00120 (/bigdata/qiuhan/codet5/usage/goroot/test/codegen/slices.go:59)	MOVQ	BX, 16(SP)
	0x007d 00125 (/bigdata/qiuhan/codet5/usage/goroot/test/codegen/slices.go:59)	MOVQ	CX, 24(SP)
	0x0082 00130 (/bigdata/qiuhan/codet5/usage/goroot/test/codegen/slices.go:59)	CALL	runtime.morestack_noctxt(SB)
	0x0087 00135 (/bigdata/qiuhan/codet5/usage/goroot/test/codegen/slices.go:59)	MOVQ	8(SP), AX
	0x008c 00140 (/bigdata/qiuhan/codet5/usage/goroot/test/codegen/slices.go:59)	MOVQ	16(SP), BX
	0x0091 00145 (/bigdata/qiuhan/codet5/usage/goroot/test/codegen/slices.go:59)	MOVQ	24(SP), CX
	0x0096 00150 (/bigdata/qiuhan/codet5/usage/goroot/test/codegen/slices.go:59)	PCDATA	$0, $-1
	0x0096 00150 (/bigdata/qiuhan/codet5/usage/goroot/test/codegen/slices.go:59)	JMP	0
	0x0000 49 3b 66 10 76 6d 48 83 ec 48 48 89 6c 24 40 48  I;f.vmH..HH.l$@H
	0x0010 8d 6c 24 40 48 89 44 24 50 48 83 c3 04 0f 1f 00  .l$@H.D$PH......
	0x0020 48 39 d9 73 11 bf 04 00 00 00 48 8d 35 00 00 00  H9.s......H.5...
	0x0030 00 e8 00 00 00 00 48 89 5c 24 30 48 89 4c 24 28  ......H.\$0H.L$(
	0x0040 48 89 44 24 38 48 8d 14 d8 48 8d 52 e0 48 89 d0  H.D$8H...H.R.H..
	0x0050 bb 20 00 00 00 e8 00 00 00 00 48 8b 44 24 38 48  . ........H.D$8H
	0x0060 8b 5c 24 30 48 8b 4c 24 28 48 8b 6c 24 40 48 83  .\$0H.L$(H.l$@H.
	0x0070 c4 48 c3 48 89 44 24 08 48 89 5c 24 10 48 89 4c  .H.H.D$.H.\$.H.L
	0x0080 24 18 e8 00 00 00 00 48 8b 44 24 08 48 8b 5c 24  $......H.D$.H.\$
	0x0090 10 48 8b 4c 24 18 e9 65 ff ff ff                 .H.L$..e...
	rel 45+4 t=14 type:int<0>+0
	rel 50+4 t=7 runtime.growslice<1>+0
	rel 86+4 t=7 runtime.memclrNoHeapPointers<1>+0
	rel 131+4 t=7 runtime.morestack_noctxt<0>+0
command-line-arguments.SliceExtensionConstUint64<1> STEXT size=155 args=0x18 locals=0x48 funcid=0x0 align=0x0
	0x0000 00000 (/bigdata/qiuhan/codet5/usage/goroot/test/codegen/slices.go:72)	TEXT	command-line-arguments.SliceExtensionConstUint64(SB), ABIInternal, $72-24
	0x0000 00000 (/bigdata/qiuhan/codet5/usage/goroot/test/codegen/slices.go:72)	CMPQ	SP, 16(R14)
	0x0004 00004 (/bigdata/qiuhan/codet5/usage/goroot/test/codegen/slices.go:72)	PCDATA	$0, $-2
	0x0004 00004 (/bigdata/qiuhan/codet5/usage/goroot/test/codegen/slices.go:72)	JLS	115
	0x0006 00006 (/bigdata/qiuhan/codet5/usage/goroot/test/codegen/slices.go:72)	PCDATA	$0, $-1
	0x0006 00006 (/bigdata/qiuhan/codet5/usage/goroot/test/codegen/slices.go:72)	SUBQ	$72, SP
	0x000a 00010 (/bigdata/qiuhan/codet5/usage/goroot/test/codegen/slices.go:72)	MOVQ	BP, 64(SP)
	0x000f 00015 (/bigdata/qiuhan/codet5/usage/goroot/test/codegen/slices.go:72)	LEAQ	64(SP), BP
	0x0014 00020 (/bigdata/qiuhan/codet5/usage/goroot/test/codegen/slices.go:72)	MOVQ	AX, command-line-arguments.s+80(FP)
	0x0019 00025 (/bigdata/qiuhan/codet5/usage/goroot/test/codegen/slices.go:72)	FUNCDATA	$0, gclocals·ZzMiPAiVBg7DJ6dh/CjSag==(SB)
	0x0019 00025 (/bigdata/qiuhan/codet5/usage/goroot/test/codegen/slices.go:72)	FUNCDATA	$1, gclocals·dGrMWTWIngKGfVYjHi0adA==(SB)
	0x0019 00025 (/bigdata/qiuhan/codet5/usage/goroot/test/codegen/slices.go:72)	FUNCDATA	$5, command-line-arguments.SliceExtensionConstUint64.arginfo1(SB)
	0x0019 00025 (/bigdata/qiuhan/codet5/usage/goroot/test/codegen/slices.go:72)	FUNCDATA	$6, command-line-arguments.SliceExtensionConstUint64.argliveinfo(SB)
	0x0019 00025 (/bigdata/qiuhan/codet5/usage/goroot/test/codegen/slices.go:72)	PCDATA	$3, $1
	0x0019 00025 (/bigdata/qiuhan/codet5/usage/goroot/test/codegen/slices.go:82)	ADDQ	$4, BX
	0x001d 00029 (/bigdata/qiuhan/codet5/usage/goroot/test/codegen/slices.go:82)	NOP
	0x0020 00032 (/bigdata/qiuhan/codet5/usage/goroot/test/codegen/slices.go:82)	CMPQ	CX, BX
	0x0023 00035 (/bigdata/qiuhan/codet5/usage/goroot/test/codegen/slices.go:82)	JCC	54
	0x0025 00037 (/bigdata/qiuhan/codet5/usage/goroot/test/codegen/slices.go:82)	MOVL	$4, DI
	0x002a 00042 (/bigdata/qiuhan/codet5/usage/goroot/test/codegen/slices.go:82)	LEAQ	type:int(SB), SI
	0x0031 00049 (/bigdata/qiuhan/codet5/usage/goroot/test/codegen/slices.go:82)	PCDATA	$1, $1
	0x0031 00049 (/bigdata/qiuhan/codet5/usage/goroot/test/codegen/slices.go:82)	CALL	runtime.growslice(SB)
	0x0036 00054 (/bigdata/qiuhan/codet5/usage/goroot/test/codegen/slices.go:82)	MOVQ	BX, command-line-arguments..autotmp_6+48(SP)
	0x003b 00059 (/bigdata/qiuhan/codet5/usage/goroot/test/codegen/slices.go:82)	MOVQ	CX, command-line-arguments..autotmp_7+40(SP)
	0x0040 00064 (/bigdata/qiuhan/codet5/usage/goroot/test/codegen/slices.go:82)	MOVQ	AX, command-line-arguments..autotmp_8+56(SP)
	0x0045 00069 (/bigdata/qiuhan/codet5/usage/goroot/test/codegen/slices.go:82)	LEAQ	(AX)(BX*8), DX
	0x0049 00073 (/bigdata/qiuhan/codet5/usage/goroot/test/codegen/slices.go:82)	LEAQ	-32(DX), DX
	0x004d 00077 (/bigdata/qiuhan/codet5/usage/goroot/test/codegen/slices.go:82)	MOVQ	DX, AX
	0x0050 00080 (/bigdata/qiuhan/codet5/usage/goroot/test/codegen/slices.go:82)	MOVL	$32, BX
	0x0055 00085 (/bigdata/qiuhan/codet5/usage/goroot/test/codegen/slices.go:82)	PCDATA	$1, $2
	0x0055 00085 (/bigdata/qiuhan/codet5/usage/goroot/test/codegen/slices.go:82)	CALL	runtime.memclrNoHeapPointers(SB)
	0x005a 00090 (/bigdata/qiuhan/codet5/usage/goroot/test/codegen/slices.go:82)	MOVQ	command-line-arguments..autotmp_8+56(SP), AX
	0x005f 00095 (/bigdata/qiuhan/codet5/usage/goroot/test/codegen/slices.go:82)	MOVQ	command-line-arguments..autotmp_6+48(SP), BX
	0x0064 00100 (/bigdata/qiuhan/codet5/usage/goroot/test/codegen/slices.go:82)	MOVQ	command-line-arguments..autotmp_7+40(SP), CX
	0x0069 00105 (/bigdata/qiuhan/codet5/usage/goroot/test/codegen/slices.go:82)	MOVQ	64(SP), BP
	0x006e 00110 (/bigdata/qiuhan/codet5/usage/goroot/test/codegen/slices.go:82)	ADDQ	$72, SP
	0x0072 00114 (/bigdata/qiuhan/codet5/usage/goroot/test/codegen/slices.go:82)	RET
	0x0073 00115 (/bigdata/qiuhan/codet5/usage/goroot/test/codegen/slices.go:82)	NOP
	0x0073 00115 (/bigdata/qiuhan/codet5/usage/goroot/test/codegen/slices.go:72)	PCDATA	$1, $-1
	0x0073 00115 (/bigdata/qiuhan/codet5/usage/goroot/test/codegen/slices.go:72)	PCDATA	$0, $-2
	0x0073 00115 (/bigdata/qiuhan/codet5/usage/goroot/test/codegen/slices.go:72)	MOVQ	AX, 8(SP)
	0x0078 00120 (/bigdata/qiuhan/codet5/usage/goroot/test/codegen/slices.go:72)	MOVQ	BX, 16(SP)
	0x007d 00125 (/bigdata/qiuhan/codet5/usage/goroot/test/codegen/slices.go:72)	MOVQ	CX, 24(SP)
	0x0082 00130 (/bigdata/qiuhan/codet5/usage/goroot/test/codegen/slices.go:72)	CALL	runtime.morestack_noctxt(SB)
	0x0087 00135 (/bigdata/qiuhan/codet5/usage/goroot/test/codegen/slices.go:72)	MOVQ	8(SP), AX
	0x008c 00140 (/bigdata/qiuhan/codet5/usage/goroot/test/codegen/slices.go:72)	MOVQ	16(SP), BX
	0x0091 00145 (/bigdata/qiuhan/codet5/usage/goroot/test/codegen/slices.go:72)	MOVQ	24(SP), CX
	0x0096 00150 (/bigdata/qiuhan/codet5/usage/goroot/test/codegen/slices.go:72)	PCDATA	$0, $-1
	0x0096 00150 (/bigdata/qiuhan/codet5/usage/goroot/test/codegen/slices.go:72)	JMP	0
	0x0000 49 3b 66 10 76 6d 48 83 ec 48 48 89 6c 24 40 48  I;f.vmH..HH.l$@H
	0x0010 8d 6c 24 40 48 89 44 24 50 48 83 c3 04 0f 1f 00  .l$@H.D$PH......
	0x0020 48 39 d9 73 11 bf 04 00 00 00 48 8d 35 00 00 00  H9.s......H.5...
	0x0030 00 e8 00 00 00 00 48 89 5c 24 30 48 89 4c 24 28  ......H.\$0H.L$(
	0x0040 48 89 44 24 38 48 8d 14 d8 48 8d 52 e0 48 89 d0  H.D$8H...H.R.H..
	0x0050 bb 20 00 00 00 e8 00 00 00 00 48 8b 44 24 38 48  . ........H.D$8H
	0x0060 8b 5c 24 30 48 8b 4c 24 28 48 8b 6c 24 40 48 83  .\$0H.L$(H.l$@H.
	0x0070 c4 48 c3 48 89 44 24 08 48 89 5c 24 10 48 89 4c  .H.H.D$.H.\$.H.L
	0x0080 24 18 e8 00 00 00 00 48 8b 44 24 08 48 8b 5c 24  $......H.D$.H.\$
	0x0090 10 48 8b 4c 24 18 e9 65 ff ff ff                 .H.L$..e...
	rel 45+4 t=14 type:int<0>+0
	rel 50+4 t=7 runtime.growslice<1>+0
	rel 86+4 t=7 runtime.memclrNoHeapPointers<1>+0
	rel 131+4 t=7 runtime.morestack_noctxt<0>+0
command-line-arguments.SliceExtensionConstUint<1> STEXT size=155 args=0x18 locals=0x48 funcid=0x0 align=0x0
	0x0000 00000 (/bigdata/qiuhan/codet5/usage/goroot/test/codegen/slices.go:85)	TEXT	command-line-arguments.SliceExtensionConstUint(SB), ABIInternal, $72-24
	0x0000 00000 (/bigdata/qiuhan/codet5/usage/goroot/test/codegen/slices.go:85)	CMPQ	SP, 16(R14)
	0x0004 00004 (/bigdata/qiuhan/codet5/usage/goroot/test/codegen/slices.go:85)	PCDATA	$0, $-2
	0x0004 00004 (/bigdata/qiuhan/codet5/usage/goroot/test/codegen/slices.go:85)	JLS	115
	0x0006 00006 (/bigdata/qiuhan/codet5/usage/goroot/test/codegen/slices.go:85)	PCDATA	$0, $-1
	0x0006 00006 (/bigdata/qiuhan/codet5/usage/goroot/test/codegen/slices.go:85)	SUBQ	$72, SP
	0x000a 00010 (/bigdata/qiuhan/codet5/usage/goroot/test/codegen/slices.go:85)	MOVQ	BP, 64(SP)
	0x000f 00015 (/bigdata/qiuhan/codet5/usage/goroot/test/codegen/slices.go:85)	LEAQ	64(SP), BP
	0x0014 00020 (/bigdata/qiuhan/codet5/usage/goroot/test/codegen/slices.go:85)	MOVQ	AX, command-line-arguments.s+80(FP)
	0x0019 00025 (/bigdata/qiuhan/codet5/usage/goroot/test/codegen/slices.go:85)	FUNCDATA	$0, gclocals·ZzMiPAiVBg7DJ6dh/CjSag==(SB)
	0x0019 00025 (/bigdata/qiuhan/codet5/usage/goroot/test/codegen/slices.go:85)	FUNCDATA	$1, gclocals·dGrMWTWIngKGfVYjHi0adA==(SB)
	0x0019 00025 (/bigdata/qiuhan/codet5/usage/goroot/test/codegen/slices.go:85)	FUNCDATA	$5, command-line-arguments.SliceExtensionConstUint.arginfo1(SB)
	0x0019 00025 (/bigdata/qiuhan/codet5/usage/goroot/test/codegen/slices.go:85)	FUNCDATA	$6, command-line-arguments.SliceExtensionConstUint.argliveinfo(SB)
	0x0019 00025 (/bigdata/qiuhan/codet5/usage/goroot/test/codegen/slices.go:85)	PCDATA	$3, $1
	0x0019 00025 (/bigdata/qiuhan/codet5/usage/goroot/test/codegen/slices.go:95)	ADDQ	$4, BX
	0x001d 00029 (/bigdata/qiuhan/codet5/usage/goroot/test/codegen/slices.go:95)	NOP
	0x0020 00032 (/bigdata/qiuhan/codet5/usage/goroot/test/codegen/slices.go:95)	CMPQ	CX, BX
	0x0023 00035 (/bigdata/qiuhan/codet5/usage/goroot/test/codegen/slices.go:95)	JCC	54
	0x0025 00037 (/bigdata/qiuhan/codet5/usage/goroot/test/codegen/slices.go:95)	MOVL	$4, DI
	0x002a 00042 (/bigdata/qiuhan/codet5/usage/goroot/test/codegen/slices.go:95)	LEAQ	type:int(SB), SI
	0x0031 00049 (/bigdata/qiuhan/codet5/usage/goroot/test/codegen/slices.go:95)	PCDATA	$1, $1
	0x0031 00049 (/bigdata/qiuhan/codet5/usage/goroot/test/codegen/slices.go:95)	CALL	runtime.growslice(SB)
	0x0036 00054 (/bigdata/qiuhan/codet5/usage/goroot/test/codegen/slices.go:95)	MOVQ	BX, command-line-arguments..autotmp_6+48(SP)
	0x003b 00059 (/bigdata/qiuhan/codet5/usage/goroot/test/codegen/slices.go:95)	MOVQ	CX, command-line-arguments..autotmp_7+40(SP)
	0x0040 00064 (/bigdata/qiuhan/codet5/usage/goroot/test/codegen/slices.go:95)	MOVQ	AX, command-line-arguments..autotmp_8+56(SP)
	0x0045 00069 (/bigdata/qiuhan/codet5/usage/goroot/test/codegen/slices.go:95)	LEAQ	(AX)(BX*8), DX
	0x0049 00073 (/bigdata/qiuhan/codet5/usage/goroot/test/codegen/slices.go:95)	LEAQ	-32(DX), DX
	0x004d 00077 (/bigdata/qiuhan/codet5/usage/goroot/test/codegen/slices.go:95)	MOVQ	DX, AX
	0x0050 00080 (/bigdata/qiuhan/codet5/usage/goroot/test/codegen/slices.go:95)	MOVL	$32, BX
	0x0055 00085 (/bigdata/qiuhan/codet5/usage/goroot/test/codegen/slices.go:95)	PCDATA	$1, $2
	0x0055 00085 (/bigdata/qiuhan/codet5/usage/goroot/test/codegen/slices.go:95)	CALL	runtime.memclrNoHeapPointers(SB)
	0x005a 00090 (/bigdata/qiuhan/codet5/usage/goroot/test/codegen/slices.go:95)	MOVQ	command-line-arguments..autotmp_8+56(SP), AX
	0x005f 00095 (/bigdata/qiuhan/codet5/usage/goroot/test/codegen/slices.go:95)	MOVQ	command-line-arguments..autotmp_6+48(SP), BX
	0x0064 00100 (/bigdata/qiuhan/codet5/usage/goroot/test/codegen/slices.go:95)	MOVQ	command-line-arguments..autotmp_7+40(SP), CX
	0x0069 00105 (/bigdata/qiuhan/codet5/usage/goroot/test/codegen/slices.go:95)	MOVQ	64(SP), BP
	0x006e 00110 (/bigdata/qiuhan/codet5/usage/goroot/test/codegen/slices.go:95)	ADDQ	$72, SP
	0x0072 00114 (/bigdata/qiuhan/codet5/usage/goroot/test/codegen/slices.go:95)	RET
	0x0073 00115 (/bigdata/qiuhan/codet5/usage/goroot/test/codegen/slices.go:95)	NOP
	0x0073 00115 (/bigdata/qiuhan/codet5/usage/goroot/test/codegen/slices.go:85)	PCDATA	$1, $-1
	0x0073 00115 (/bigdata/qiuhan/codet5/usage/goroot/test/codegen/slices.go:85)	PCDATA	$0, $-2
	0x0073 00115 (/bigdata/qiuhan/codet5/usage/goroot/test/codegen/slices.go:85)	MOVQ	AX, 8(SP)
	0x0078 00120 (/bigdata/qiuhan/codet5/usage/goroot/test/codegen/slices.go:85)	MOVQ	BX, 16(SP)
	0x007d 00125 (/bigdata/qiuhan/codet5/usage/goroot/test/codegen/slices.go:85)	MOVQ	CX, 24(SP)
	0x0082 00130 (/bigdata/qiuhan/codet5/usage/goroot/test/codegen/slices.go:85)	CALL	runtime.morestack_noctxt(SB)
	0x0087 00135 (/bigdata/qiuhan/codet5/usage/goroot/test/codegen/slices.go:85)	MOVQ	8(SP), AX
	0x008c 00140 (/bigdata/qiuhan/codet5/usage/goroot/test/codegen/slices.go:85)	MOVQ	16(SP), BX
	0x0091 00145 (/bigdata/qiuhan/codet5/usage/goroot/test/codegen/slices.go:85)	MOVQ	24(SP), CX
	0x0096 00150 (/bigdata/qiuhan/codet5/usage/goroot/test/codegen/slices.go:85)	PCDATA	$0, $-1
	0x0096 00150 (/bigdata/qiuhan/codet5/usage/goroot/test/codegen/slices.go:85)	JMP	0
	0x0000 49 3b 66 10 76 6d 48 83 ec 48 48 89 6c 24 40 48  I;f.vmH..HH.l$@H
	0x0010 8d 6c 24 40 48 89 44 24 50 48 83 c3 04 0f 1f 00  .l$@H.D$PH......
	0x0020 48 39 d9 73 11 bf 04 00 00 00 48 8d 35 00 00 00  H9.s......H.5...
	0x0030 00 e8 00 00 00 00 48 89 5c 24 30 48 89 4c 24 28  ......H.\$0H.L$(
	0x0040 48 89 44 24 38 48 8d 14 d8 48 8d 52 e0 48 89 d0  H.D$8H...H.R.H..
	0x0050 bb 20 00 00 00 e8 00 00 00 00 48 8b 44 24 38 48  . ........H.D$8H
	0x0060 8b 5c 24 30 48 8b 4c 24 28 48 8b 6c 24 40 48 83  .\$0H.L$(H.l$@H.
	0x0070 c4 48 c3 48 89 44 24 08 48 89 5c 24 10 48 89 4c  .H.H.D$.H.\$.H.L
	0x0080 24 18 e8 00 00 00 00 48 8b 44 24 08 48 8b 5c 24  $......H.D$.H.\$
	0x0090 10 48 8b 4c 24 18 e9 65 ff ff ff                 .H.L$..e...
	rel 45+4 t=14 type:int<0>+0
	rel 50+4 t=7 runtime.growslice<1>+0
	rel 86+4 t=7 runtime.memclrNoHeapPointers<1>+0
	rel 131+4 t=7 runtime.morestack_noctxt<0>+0
command-line-arguments.SliceExtensionPointer<1> STEXT size=171 args=0x20 locals=0x38 funcid=0x0 align=0x0
	0x0000 00000 (/bigdata/qiuhan/codet5/usage/goroot/test/codegen/slices.go:98)	TEXT	command-line-arguments.SliceExtensionPointer(SB), ABIInternal, $56-32
	0x0000 00000 (/bigdata/qiuhan/codet5/usage/goroot/test/codegen/slices.go:98)	CMPQ	SP, 16(R14)
	0x0004 00004 (/bigdata/qiuhan/codet5/usage/goroot/test/codegen/slices.go:98)	PCDATA	$0, $-2
	0x0004 00004 (/bigdata/qiuhan/codet5/usage/goroot/test/codegen/slices.go:98)	JLS	121
	0x0006 00006 (/bigdata/qiuhan/codet5/usage/goroot/test/codegen/slices.go:98)	PCDATA	$0, $-1
	0x0006 00006 (/bigdata/qiuhan/codet5/usage/goroot/test/codegen/slices.go:98)	SUBQ	$56, SP
	0x000a 00010 (/bigdata/qiuhan/codet5/usage/goroot/test/codegen/slices.go:98)	MOVQ	BP, 48(SP)
	0x000f 00015 (/bigdata/qiuhan/codet5/usage/goroot/test/codegen/slices.go:98)	LEAQ	48(SP), BP
	0x0014 00020 (/bigdata/qiuhan/codet5/usage/goroot/test/codegen/slices.go:98)	MOVQ	AX, command-line-arguments.s+64(FP)
	0x0019 00025 (/bigdata/qiuhan/codet5/usage/goroot/test/codegen/slices.go:98)	FUNCDATA	$0, gclocals·wgcWObbY2HYnK2SU/U22lA==(SB)
	0x0019 00025 (/bigdata/qiuhan/codet5/usage/goroot/test/codegen/slices.go:98)	FUNCDATA	$1, gclocals·J5F+7Qw7O7ve2QcWC7DpeQ==(SB)
	0x0019 00025 (/bigdata/qiuhan/codet5/usage/goroot/test/codegen/slices.go:98)	FUNCDATA	$5, command-line-arguments.SliceExtensionPointer.arginfo1(SB)
	0x0019 00025 (/bigdata/qiuhan/codet5/usage/goroot/test/codegen/slices.go:98)	FUNCDATA	$6, command-line-arguments.SliceExtensionPointer.argliveinfo(SB)
	0x0019 00025 (/bigdata/qiuhan/codet5/usage/goroot/test/codegen/slices.go:98)	PCDATA	$3, $1
	0x0019 00025 (/bigdata/qiuhan/codet5/usage/goroot/test/codegen/slices.go:105)	TESTQ	DI, DI
	0x001c 00028 (/bigdata/qiuhan/codet5/usage/goroot/test/codegen/slices.go:105)	JLT	115
	0x001e 00030 (/bigdata/qiuhan/codet5/usage/goroot/test/codegen/slices.go:105)	LEAQ	(BX)(DI*1), DX
	0x0022 00034 (/bigdata/qiuhan/codet5/usage/goroot/test/codegen/slices.go:105)	CMPQ	CX, DX
	0x0025 00037 (/bigdata/qiuhan/codet5/usage/goroot/test/codegen/slices.go:105)	JCS	90
	0x0027 00039 (/bigdata/qiuhan/codet5/usage/goroot/test/codegen/slices.go:105)	MOVQ	DX, command-line-arguments..autotmp_7+40(SP)
	0x002c 00044 (/bigdata/qiuhan/codet5/usage/goroot/test/codegen/slices.go:98)	MOVQ	CX, command-line-arguments.s+80(SP)
	0x0031 00049 (/bigdata/qiuhan/codet5/usage/goroot/test/codegen/slices.go:98)	MOVQ	AX, command-line-arguments.s+64(SP)
	0x0036 00054 (/bigdata/qiuhan/codet5/usage/goroot/test/codegen/slices.go:98)	PCDATA	$3, $2
	0x0036 00054 (/bigdata/qiuhan/codet5/usage/goroot/test/codegen/slices.go:105)	LEAQ	(AX)(BX*8), CX
	0x003a 00058 (/bigdata/qiuhan/codet5/usage/goroot/test/codegen/slices.go:105)	SHLQ	$3, DI
	0x003e 00062 (/bigdata/qiuhan/codet5/usage/goroot/test/codegen/slices.go:105)	MOVQ	DI, BX
	0x0041 00065 (/bigdata/qiuhan/codet5/usage/goroot/test/codegen/slices.go:105)	MOVQ	CX, AX
	0x0044 00068 (/bigdata/qiuhan/codet5/usage/goroot/test/codegen/slices.go:105)	PCDATA	$1, $0
	0x0044 00068 (/bigdata/qiuhan/codet5/usage/goroot/test/codegen/slices.go:105)	CALL	runtime.memclrHasPointers(SB)
	0x0049 00073 (/bigdata/qiuhan/codet5/usage/goroot/test/codegen/slices.go:105)	MOVQ	command-line-arguments..autotmp_7+40(SP), BX
	0x004e 00078 (/bigdata/qiuhan/codet5/usage/goroot/test/codegen/slices.go:105)	MOVQ	command-line-arguments.s+80(SP), CX
	0x0053 00083 (/bigdata/qiuhan/codet5/usage/goroot/test/codegen/slices.go:105)	MOVQ	command-line-arguments.s+64(SP), AX
	0x0058 00088 (/bigdata/qiuhan/codet5/usage/goroot/test/codegen/slices.go:105)	JMP	105
	0x005a 00090 (/bigdata/qiuhan/codet5/usage/goroot/test/codegen/slices.go:105)	PCDATA	$1, $-1
	0x005a 00090 (/bigdata/qiuhan/codet5/usage/goroot/test/codegen/slices.go:105)	PCDATA	$3, $1
	0x005a 00090 (/bigdata/qiuhan/codet5/usage/goroot/test/codegen/slices.go:105)	MOVQ	DX, BX
	0x005d 00093 (/bigdata/qiuhan/codet5/usage/goroot/test/codegen/slices.go:105)	LEAQ	type:*int(SB), SI
	0x0064 00100 (/bigdata/qiuhan/codet5/usage/goroot/test/codegen/slices.go:105)	PCDATA	$1, $1
	0x0064 00100 (/bigdata/qiuhan/codet5/usage/goroot/test/codegen/slices.go:105)	CALL	runtime.growslice(SB)
	0x0069 00105 (/bigdata/qiuhan/codet5/usage/goroot/test/codegen/slices.go:105)	PCDATA	$1, $-1
	0x0069 00105 (/bigdata/qiuhan/codet5/usage/goroot/test/codegen/slices.go:105)	MOVQ	48(SP), BP
	0x006e 00110 (/bigdata/qiuhan/codet5/usage/goroot/test/codegen/slices.go:105)	ADDQ	$56, SP
	0x0072 00114 (/bigdata/qiuhan/codet5/usage/goroot/test/codegen/slices.go:105)	RET
	0x0073 00115 (/bigdata/qiuhan/codet5/usage/goroot/test/codegen/slices.go:105)	PCDATA	$1, $1
	0x0073 00115 (/bigdata/qiuhan/codet5/usage/goroot/test/codegen/slices.go:105)	CALL	runtime.panicmakeslicelen(SB)
	0x0078 00120 (/bigdata/qiuhan/codet5/usage/goroot/test/codegen/slices.go:105)	XCHGL	AX, AX
	0x0079 00121 (/bigdata/qiuhan/codet5/usage/goroot/test/codegen/slices.go:105)	NOP
	0x0079 00121 (/bigdata/qiuhan/codet5/usage/goroot/test/codegen/slices.go:98)	PCDATA	$1, $-1
	0x0079 00121 (/bigdata/qiuhan/codet5/usage/goroot/test/codegen/slices.go:98)	PCDATA	$0, $-2
	0x0079 00121 (/bigdata/qiuhan/codet5/usage/goroot/test/codegen/slices.go:98)	MOVQ	AX, 8(SP)
	0x007e 00126 (/bigdata/qiuhan/codet5/usage/goroot/test/codegen/slices.go:98)	MOVQ	BX, 16(SP)
	0x0083 00131 (/bigdata/qiuhan/codet5/usage/goroot/test/codegen/slices.go:98)	MOVQ	CX, 24(SP)
	0x0088 00136 (/bigdata/qiuhan/codet5/usage/goroot/test/codegen/slices.go:98)	MOVQ	DI, 32(SP)
	0x008d 00141 (/bigdata/qiuhan/codet5/usage/goroot/test/codegen/slices.go:98)	CALL	runtime.morestack_noctxt(SB)
	0x0092 00146 (/bigdata/qiuhan/codet5/usage/goroot/test/codegen/slices.go:98)	MOVQ	8(SP), AX
	0x0097 00151 (/bigdata/qiuhan/codet5/usage/goroot/test/codegen/slices.go:98)	MOVQ	16(SP), BX
	0x009c 00156 (/bigdata/qiuhan/codet5/usage/goroot/test/codegen/slices.go:98)	MOVQ	24(SP), CX
	0x00a1 00161 (/bigdata/qiuhan/codet5/usage/goroot/test/codegen/slices.go:98)	MOVQ	32(SP), DI
	0x00a6 00166 (/bigdata/qiuhan/codet5/usage/goroot/test/codegen/slices.go:98)	PCDATA	$0, $-1
	0x00a6 00166 (/bigdata/qiuhan/codet5/usage/goroot/test/codegen/slices.go:98)	JMP	0
	0x0000 49 3b 66 10 76 73 48 83 ec 38 48 89 6c 24 30 48  I;f.vsH..8H.l$0H
	0x0010 8d 6c 24 30 48 89 44 24 40 48 85 ff 7c 55 48 8d  .l$0H.D$@H..|UH.
	0x0020 14 3b 48 39 d1 72 33 48 89 54 24 28 48 89 4c 24  .;H9.r3H.T$(H.L$
	0x0030 50 48 89 44 24 40 48 8d 0c d8 48 c1 e7 03 48 89  PH.D$@H...H...H.
	0x0040 fb 48 89 c8 e8 00 00 00 00 48 8b 5c 24 28 48 8b  .H.......H.\$(H.
	0x0050 4c 24 50 48 8b 44 24 40 eb 0f 48 89 d3 48 8d 35  L$PH.D$@..H..H.5
	0x0060 00 00 00 00 e8 00 00 00 00 48 8b 6c 24 30 48 83  .........H.l$0H.
	0x0070 c4 38 c3 e8 00 00 00 00 90 48 89 44 24 08 48 89  .8.......H.D$.H.
	0x0080 5c 24 10 48 89 4c 24 18 48 89 7c 24 20 e8 00 00  \$.H.L$.H.|$ ...
	0x0090 00 00 48 8b 44 24 08 48 8b 5c 24 10 48 8b 4c 24  ..H.D$.H.\$.H.L$
	0x00a0 18 48 8b 7c 24 20 e9 55 ff ff ff                 .H.|$ .U...
	rel 69+4 t=7 runtime.memclrHasPointers<1>+0
	rel 96+4 t=14 type:*int<0>+0
	rel 101+4 t=7 runtime.growslice<1>+0
	rel 116+4 t=7 runtime.panicmakeslicelen<1>+0
	rel 142+4 t=7 runtime.morestack_noctxt<0>+0
command-line-arguments.SliceExtensionVar<1> STEXT size=174 args=0x20 locals=0x48 funcid=0x0 align=0x0
	0x0000 00000 (/bigdata/qiuhan/codet5/usage/goroot/test/codegen/slices.go:108)	TEXT	command-line-arguments.SliceExtensionVar(SB), ABIInternal, $72-32
	0x0000 00000 (/bigdata/qiuhan/codet5/usage/goroot/test/codegen/slices.go:108)	CMPQ	SP, 16(R14)
	0x0004 00004 (/bigdata/qiuhan/codet5/usage/goroot/test/codegen/slices.go:108)	PCDATA	$0, $-2
	0x0004 00004 (/bigdata/qiuhan/codet5/usage/goroot/test/codegen/slices.go:108)	JLS	124
	0x0006 00006 (/bigdata/qiuhan/codet5/usage/goroot/test/codegen/slices.go:108)	PCDATA	$0, $-1
	0x0006 00006 (/bigdata/qiuhan/codet5/usage/goroot/test/codegen/slices.go:108)	SUBQ	$72, SP
	0x000a 00010 (/bigdata/qiuhan/codet5/usage/goroot/test/codegen/slices.go:108)	MOVQ	BP, 64(SP)
	0x000f 00015 (/bigdata/qiuhan/codet5/usage/goroot/test/codegen/slices.go:108)	LEAQ	64(SP), BP
	0x0014 00020 (/bigdata/qiuhan/codet5/usage/goroot/test/codegen/slices.go:108)	MOVQ	AX, command-line-arguments.s+80(FP)
	0x0019 00025 (/bigdata/qiuhan/codet5/usage/goroot/test/codegen/slices.go:108)	FUNCDATA	$0, gclocals·ZzMiPAiVBg7DJ6dh/CjSag==(SB)
	0x0019 00025 (/bigdata/qiuhan/codet5/usage/goroot/test/codegen/slices.go:108)	FUNCDATA	$1, gclocals·dGrMWTWIngKGfVYjHi0adA==(SB)
	0x0019 00025 (/bigdata/qiuhan/codet5/usage/goroot/test/codegen/slices.go:108)	FUNCDATA	$5, command-line-arguments.SliceExtensionVar.arginfo1(SB)
	0x0019 00025 (/bigdata/qiuhan/codet5/usage/goroot/test/codegen/slices.go:108)	FUNCDATA	$6, command-line-arguments.SliceExtensionVar.argliveinfo(SB)
	0x0019 00025 (/bigdata/qiuhan/codet5/usage/goroot/test/codegen/slices.go:108)	PCDATA	$3, $1
	0x0019 00025 (/bigdata/qiuhan/codet5/usage/goroot/test/codegen/slices.go:115)	TESTQ	DI, DI
	0x001c 00028 (/bigdata/qiuhan/codet5/usage/goroot/test/codegen/slices.go:115)	JLT	118
	0x001e 00030 (/bigdata/qiuhan/codet5/usage/goroot/test/codegen/slices.go:115)	ADDQ	DI, BX
	0x0021 00033 (/bigdata/qiuhan/codet5/usage/goroot/test/codegen/slices.go:115)	CMPQ	CX, BX
	0x0024 00036 (/bigdata/qiuhan/codet5/usage/goroot/test/codegen/slices.go:115)	JCC	60
	0x0026 00038 (/bigdata/qiuhan/codet5/usage/goroot/test/codegen/slices.go:108)	MOVQ	DI, command-line-arguments.l+104(SP)
	0x002b 00043 (/bigdata/qiuhan/codet5/usage/goroot/test/codegen/slices.go:108)	PCDATA	$3, $2
	0x002b 00043 (/bigdata/qiuhan/codet5/usage/goroot/test/codegen/slices.go:115)	LEAQ	type:uint8(SB), SI
	0x0032 00050 (/bigdata/qiuhan/codet5/usage/goroot/test/codegen/slices.go:115)	PCDATA	$1, $1
	0x0032 00050 (/bigdata/qiuhan/codet5/usage/goroot/test/codegen/slices.go:115)	CALL	runtime.growslice(SB)
	0x0037 00055 (/bigdata/qiuhan/codet5/usage/goroot/test/codegen/slices.go:115)	MOVQ	command-line-arguments.l+104(SP), DI
	0x003c 00060 (/bigdata/qiuhan/codet5/usage/goroot/test/codegen/slices.go:115)	PCDATA	$1, $-1
	0x003c 00060 (/bigdata/qiuhan/codet5/usage/goroot/test/codegen/slices.go:115)	PCDATA	$3, $1
	0x003c 00060 (/bigdata/qiuhan/codet5/usage/goroot/test/codegen/slices.go:115)	MOVQ	AX, command-line-arguments..autotmp_7+56(SP)
	0x0041 00065 (/bigdata/qiuhan/codet5/usage/goroot/test/codegen/slices.go:115)	MOVQ	BX, command-line-arguments..autotmp_8+48(SP)
	0x0046 00070 (/bigdata/qiuhan/codet5/usage/goroot/test/codegen/slices.go:115)	MOVQ	CX, command-line-arguments..autotmp_9+40(SP)
	0x004b 00075 (/bigdata/qiuhan/codet5/usage/goroot/test/codegen/slices.go:115)	SUBQ	DI, BX
	0x004e 00078 (/bigdata/qiuhan/codet5/usage/goroot/test/codegen/slices.go:115)	LEAQ	(AX)(BX*1), SI
	0x0052 00082 (/bigdata/qiuhan/codet5/usage/goroot/test/codegen/slices.go:115)	MOVQ	DI, BX
	0x0055 00085 (/bigdata/qiuhan/codet5/usage/goroot/test/codegen/slices.go:115)	MOVQ	SI, AX
	0x0058 00088 (/bigdata/qiuhan/codet5/usage/goroot/test/codegen/slices.go:115)	PCDATA	$1, $2
	0x0058 00088 (/bigdata/qiuhan/codet5/usage/goroot/test/codegen/slices.go:115)	CALL	runtime.memclrNoHeapPointers(SB)
	0x005d 00093 (/bigdata/qiuhan/codet5/usage/goroot/test/codegen/slices.go:115)	MOVQ	command-line-arguments..autotmp_7+56(SP), AX
	0x0062 00098 (/bigdata/qiuhan/codet5/usage/goroot/test/codegen/slices.go:115)	MOVQ	command-line-arguments..autotmp_8+48(SP), BX
	0x0067 00103 (/bigdata/qiuhan/codet5/usage/goroot/test/codegen/slices.go:115)	MOVQ	command-line-arguments..autotmp_9+40(SP), CX
	0x006c 00108 (/bigdata/qiuhan/codet5/usage/goroot/test/codegen/slices.go:115)	MOVQ	64(SP), BP
	0x0071 00113 (/bigdata/qiuhan/codet5/usage/goroot/test/codegen/slices.go:115)	ADDQ	$72, SP
	0x0075 00117 (/bigdata/qiuhan/codet5/usage/goroot/test/codegen/slices.go:115)	RET
	0x0076 00118 (/bigdata/qiuhan/codet5/usage/goroot/test/codegen/slices.go:115)	PCDATA	$1, $1
	0x0076 00118 (/bigdata/qiuhan/codet5/usage/goroot/test/codegen/slices.go:115)	CALL	runtime.panicmakeslicelen(SB)
	0x007b 00123 (/bigdata/qiuhan/codet5/usage/goroot/test/codegen/slices.go:115)	XCHGL	AX, AX
	0x007c 00124 (/bigdata/qiuhan/codet5/usage/goroot/test/codegen/slices.go:115)	NOP
	0x007c 00124 (/bigdata/qiuhan/codet5/usage/goroot/test/codegen/slices.go:108)	PCDATA	$1, $-1
	0x007c 00124 (/bigdata/qiuhan/codet5/usage/goroot/test/codegen/slices.go:108)	PCDATA	$0, $-2
	0x007c 00124 (/bigdata/qiuhan/codet5/usage/goroot/test/codegen/slices.go:108)	MOVQ	AX, 8(SP)
	0x0081 00129 (/bigdata/qiuhan/codet5/usage/goroot/test/codegen/slices.go:108)	MOVQ	BX, 16(SP)
	0x0086 00134 (/bigdata/qiuhan/codet5/usage/goroot/test/codegen/slices.go:108)	MOVQ	CX, 24(SP)
	0x008b 00139 (/bigdata/qiuhan/codet5/usage/goroot/test/codegen/slices.go:108)	MOVQ	DI, 32(SP)
	0x0090 00144 (/bigdata/qiuhan/codet5/usage/goroot/test/codegen/slices.go:108)	CALL	runtime.morestack_noctxt(SB)
	0x0095 00149 (/bigdata/qiuhan/codet5/usage/goroot/test/codegen/slices.go:108)	MOVQ	8(SP), AX
	0x009a 00154 (/bigdata/qiuhan/codet5/usage/goroot/test/codegen/slices.go:108)	MOVQ	16(SP), BX
	0x009f 00159 (/bigdata/qiuhan/codet5/usage/goroot/test/codegen/slices.go:108)	MOVQ	24(SP), CX
	0x00a4 00164 (/bigdata/qiuhan/codet5/usage/goroot/test/codegen/slices.go:108)	MOVQ	32(SP), DI
	0x00a9 00169 (/bigdata/qiuhan/codet5/usage/goroot/test/codegen/slices.go:108)	PCDATA	$0, $-1
	0x00a9 00169 (/bigdata/qiuhan/codet5/usage/goroot/test/codegen/slices.go:108)	JMP	0
	0x0000 49 3b 66 10 76 76 48 83 ec 48 48 89 6c 24 40 48  I;f.vvH..HH.l$@H
	0x0010 8d 6c 24 40 48 89 44 24 50 48 85 ff 7c 58 48 01  .l$@H.D$PH..|XH.
	0x0020 fb 48 39 d9 73 16 48 89 7c 24 68 48 8d 35 00 00  .H9.s.H.|$hH.5..
	0x0030 00 00 e8 00 00 00 00 48 8b 7c 24 68 48 89 44 24  .......H.|$hH.D$
	0x0040 38 48 89 5c 24 30 48 89 4c 24 28 48 29 fb 48 8d  8H.\$0H.L$(H).H.
	0x0050 34 18 48 89 fb 48 89 f0 e8 00 00 00 00 48 8b 44  4.H..H.......H.D
	0x0060 24 38 48 8b 5c 24 30 48 8b 4c 24 28 48 8b 6c 24  $8H.\$0H.L$(H.l$
	0x0070 40 48 83 c4 48 c3 e8 00 00 00 00 90 48 89 44 24  @H..H.......H.D$
	0x0080 08 48 89 5c 24 10 48 89 4c 24 18 48 89 7c 24 20  .H.\$.H.L$.H.|$ 
	0x0090 e8 00 00 00 00 48 8b 44 24 08 48 8b 5c 24 10 48  .....H.D$.H.\$.H
	0x00a0 8b 4c 24 18 48 8b 7c 24 20 e9 52 ff ff ff        .L$.H.|$ .R...
	rel 46+4 t=14 type:uint8<0>+0
	rel 51+4 t=7 runtime.growslice<1>+0
	rel 89+4 t=7 runtime.memclrNoHeapPointers<1>+0
	rel 119+4 t=7 runtime.panicmakeslicelen<1>+0
	rel 145+4 t=7 runtime.morestack_noctxt<0>+0
command-line-arguments.SliceExtensionVarInt64<1> STEXT size=174 args=0x20 locals=0x48 funcid=0x0 align=0x0
	0x0000 00000 (/bigdata/qiuhan/codet5/usage/goroot/test/codegen/slices.go:118)	TEXT	command-line-arguments.SliceExtensionVarInt64(SB), ABIInternal, $72-32
	0x0000 00000 (/bigdata/qiuhan/codet5/usage/goroot/test/codegen/slices.go:118)	CMPQ	SP, 16(R14)
	0x0004 00004 (/bigdata/qiuhan/codet5/usage/goroot/test/codegen/slices.go:118)	PCDATA	$0, $-2
	0x0004 00004 (/bigdata/qiuhan/codet5/usage/goroot/test/codegen/slices.go:118)	JLS	124
	0x0006 00006 (/bigdata/qiuhan/codet5/usage/goroot/test/codegen/slices.go:118)	PCDATA	$0, $-1
	0x0006 00006 (/bigdata/qiuhan/codet5/usage/goroot/test/codegen/slices.go:118)	SUBQ	$72, SP
	0x000a 00010 (/bigdata/qiuhan/codet5/usage/goroot/test/codegen/slices.go:118)	MOVQ	BP, 64(SP)
	0x000f 00015 (/bigdata/qiuhan/codet5/usage/goroot/test/codegen/slices.go:118)	LEAQ	64(SP), BP
	0x0014 00020 (/bigdata/qiuhan/codet5/usage/goroot/test/codegen/slices.go:118)	MOVQ	AX, command-line-arguments.s+80(FP)
	0x0019 00025 (/bigdata/qiuhan/codet5/usage/goroot/test/codegen/slices.go:118)	FUNCDATA	$0, gclocals·ZzMiPAiVBg7DJ6dh/CjSag==(SB)
	0x0019 00025 (/bigdata/qiuhan/codet5/usage/goroot/test/codegen/slices.go:118)	FUNCDATA	$1, gclocals·dGrMWTWIngKGfVYjHi0adA==(SB)
	0x0019 00025 (/bigdata/qiuhan/codet5/usage/goroot/test/codegen/slices.go:118)	FUNCDATA	$5, command-line-arguments.SliceExtensionVarInt64.arginfo1(SB)
	0x0019 00025 (/bigdata/qiuhan/codet5/usage/goroot/test/codegen/slices.go:118)	FUNCDATA	$6, command-line-arguments.SliceExtensionVarInt64.argliveinfo(SB)
	0x0019 00025 (/bigdata/qiuhan/codet5/usage/goroot/test/codegen/slices.go:118)	PCDATA	$3, $1
	0x0019 00025 (/bigdata/qiuhan/codet5/usage/goroot/test/codegen/slices.go:122)	TESTQ	DI, DI
	0x001c 00028 (/bigdata/qiuhan/codet5/usage/goroot/test/codegen/slices.go:122)	JLT	118
	0x001e 00030 (/bigdata/qiuhan/codet5/usage/goroot/test/codegen/slices.go:122)	ADDQ	DI, BX
	0x0021 00033 (/bigdata/qiuhan/codet5/usage/goroot/test/codegen/slices.go:122)	CMPQ	CX, BX
	0x0024 00036 (/bigdata/qiuhan/codet5/usage/goroot/test/codegen/slices.go:122)	JCC	60
	0x0026 00038 (/bigdata/qiuhan/codet5/usage/goroot/test/codegen/slices.go:118)	MOVQ	DI, command-line-arguments.l+104(SP)
	0x002b 00043 (/bigdata/qiuhan/codet5/usage/goroot/test/codegen/slices.go:118)	PCDATA	$3, $2
	0x002b 00043 (/bigdata/qiuhan/codet5/usage/goroot/test/codegen/slices.go:122)	LEAQ	type:uint8(SB), SI
	0x0032 00050 (/bigdata/qiuhan/codet5/usage/goroot/test/codegen/slices.go:122)	PCDATA	$1, $1
	0x0032 00050 (/bigdata/qiuhan/codet5/usage/goroot/test/codegen/slices.go:122)	CALL	runtime.growslice(SB)
	0x0037 00055 (/bigdata/qiuhan/codet5/usage/goroot/test/codegen/slices.go:122)	MOVQ	command-line-arguments.l+104(SP), DI
	0x003c 00060 (/bigdata/qiuhan/codet5/usage/goroot/test/codegen/slices.go:122)	PCDATA	$1, $-1
	0x003c 00060 (/bigdata/qiuhan/codet5/usage/goroot/test/codegen/slices.go:122)	PCDATA	$3, $1
	0x003c 00060 (/bigdata/qiuhan/codet5/usage/goroot/test/codegen/slices.go:122)	MOVQ	AX, command-line-arguments..autotmp_8+56(SP)
	0x0041 00065 (/bigdata/qiuhan/codet5/usage/goroot/test/codegen/slices.go:122)	MOVQ	BX, command-line-arguments..autotmp_9+40(SP)
	0x0046 00070 (/bigdata/qiuhan/codet5/usage/goroot/test/codegen/slices.go:122)	MOVQ	CX, command-line-arguments..autotmp_10+48(SP)
	0x004b 00075 (/bigdata/qiuhan/codet5/usage/goroot/test/codegen/slices.go:122)	SUBQ	DI, BX
	0x004e 00078 (/bigdata/qiuhan/codet5/usage/goroot/test/codegen/slices.go:122)	LEAQ	(AX)(BX*1), SI
	0x0052 00082 (/bigdata/qiuhan/codet5/usage/goroot/test/codegen/slices.go:122)	MOVQ	DI, BX
	0x0055 00085 (/bigdata/qiuhan/codet5/usage/goroot/test/codegen/slices.go:122)	MOVQ	SI, AX
	0x0058 00088 (/bigdata/qiuhan/codet5/usage/goroot/test/codegen/slices.go:122)	PCDATA	$1, $2
	0x0058 00088 (/bigdata/qiuhan/codet5/usage/goroot/test/codegen/slices.go:122)	CALL	runtime.memclrNoHeapPointers(SB)
	0x005d 00093 (/bigdata/qiuhan/codet5/usage/goroot/test/codegen/slices.go:122)	MOVQ	command-line-arguments..autotmp_8+56(SP), AX
	0x0062 00098 (/bigdata/qiuhan/codet5/usage/goroot/test/codegen/slices.go:122)	MOVQ	command-line-arguments..autotmp_9+40(SP), BX
	0x0067 00103 (/bigdata/qiuhan/codet5/usage/goroot/test/codegen/slices.go:122)	MOVQ	command-line-arguments..autotmp_10+48(SP), CX
	0x006c 00108 (/bigdata/qiuhan/codet5/usage/goroot/test/codegen/slices.go:122)	MOVQ	64(SP), BP
	0x0071 00113 (/bigdata/qiuhan/codet5/usage/goroot/test/codegen/slices.go:122)	ADDQ	$72, SP
	0x0075 00117 (/bigdata/qiuhan/codet5/usage/goroot/test/codegen/slices.go:122)	RET
	0x0076 00118 (/bigdata/qiuhan/codet5/usage/goroot/test/codegen/slices.go:122)	PCDATA	$1, $1
	0x0076 00118 (/bigdata/qiuhan/codet5/usage/goroot/test/codegen/slices.go:122)	CALL	runtime.panicmakeslicelen(SB)
	0x007b 00123 (/bigdata/qiuhan/codet5/usage/goroot/test/codegen/slices.go:122)	XCHGL	AX, AX
	0x007c 00124 (/bigdata/qiuhan/codet5/usage/goroot/test/codegen/slices.go:122)	NOP
	0x007c 00124 (/bigdata/qiuhan/codet5/usage/goroot/test/codegen/slices.go:118)	PCDATA	$1, $-1
	0x007c 00124 (/bigdata/qiuhan/codet5/usage/goroot/test/codegen/slices.go:118)	PCDATA	$0, $-2
	0x007c 00124 (/bigdata/qiuhan/codet5/usage/goroot/test/codegen/slices.go:118)	MOVQ	AX, 8(SP)
	0x0081 00129 (/bigdata/qiuhan/codet5/usage/goroot/test/codegen/slices.go:118)	MOVQ	BX, 16(SP)
	0x0086 00134 (/bigdata/qiuhan/codet5/usage/goroot/test/codegen/slices.go:118)	MOVQ	CX, 24(SP)
	0x008b 00139 (/bigdata/qiuhan/codet5/usage/goroot/test/codegen/slices.go:118)	MOVQ	DI, 32(SP)
	0x0090 00144 (/bigdata/qiuhan/codet5/usage/goroot/test/codegen/slices.go:118)	CALL	runtime.morestack_noctxt(SB)
	0x0095 00149 (/bigdata/qiuhan/codet5/usage/goroot/test/codegen/slices.go:118)	MOVQ	8(SP), AX
	0x009a 00154 (/bigdata/qiuhan/codet5/usage/goroot/test/codegen/slices.go:118)	MOVQ	16(SP), BX
	0x009f 00159 (/bigdata/qiuhan/codet5/usage/goroot/test/codegen/slices.go:118)	MOVQ	24(SP), CX
	0x00a4 00164 (/bigdata/qiuhan/codet5/usage/goroot/test/codegen/slices.go:118)	MOVQ	32(SP), DI
	0x00a9 00169 (/bigdata/qiuhan/codet5/usage/goroot/test/codegen/slices.go:118)	PCDATA	$0, $-1
	0x00a9 00169 (/bigdata/qiuhan/codet5/usage/goroot/test/codegen/slices.go:118)	JMP	0
	0x0000 49 3b 66 10 76 76 48 83 ec 48 48 89 6c 24 40 48  I;f.vvH..HH.l$@H
	0x0010 8d 6c 24 40 48 89 44 24 50 48 85 ff 7c 58 48 01  .l$@H.D$PH..|XH.
	0x0020 fb 48 39 d9 73 16 48 89 7c 24 68 48 8d 35 00 00  .H9.s.H.|$hH.5..
	0x0030 00 00 e8 00 00 00 00 48 8b 7c 24 68 48 89 44 24  .......H.|$hH.D$
	0x0040 38 48 89 5c 24 28 48 89 4c 24 30 48 29 fb 48 8d  8H.\$(H.L$0H).H.
	0x0050 34 18 48 89 fb 48 89 f0 e8 00 00 00 00 48 8b 44  4.H..H.......H.D
	0x0060 24 38 48 8b 5c 24 28 48 8b 4c 24 30 48 8b 6c 24  $8H.\$(H.L$0H.l$
	0x0070 40 48 83 c4 48 c3 e8 00 00 00 00 90 48 89 44 24  @H..H.......H.D$
	0x0080 08 48 89 5c 24 10 48 89 4c 24 18 48 89 7c 24 20  .H.\$.H.L$.H.|$ 
	0x0090 e8 00 00 00 00 48 8b 44 24 08 48 8b 5c 24 10 48  .....H.D$.H.\$.H
	0x00a0 8b 4c 24 18 48 8b 7c 24 20 e9 52 ff ff ff        .L$.H.|$ .R...
	rel 46+4 t=14 type:uint8<0>+0
	rel 51+4 t=7 runtime.growslice<1>+0
	rel 89+4 t=7 runtime.memclrNoHeapPointers<1>+0
	rel 119+4 t=7 runtime.panicmakeslicelen<1>+0
	rel 145+4 t=7 runtime.morestack_noctxt<0>+0
command-line-arguments.SliceExtensionVarUint64<1> STEXT size=174 args=0x20 locals=0x48 funcid=0x0 align=0x0
	0x0000 00000 (/bigdata/qiuhan/codet5/usage/goroot/test/codegen/slices.go:125)	TEXT	command-line-arguments.SliceExtensionVarUint64(SB), ABIInternal, $72-32
	0x0000 00000 (/bigdata/qiuhan/codet5/usage/goroot/test/codegen/slices.go:125)	CMPQ	SP, 16(R14)
	0x0004 00004 (/bigdata/qiuhan/codet5/usage/goroot/test/codegen/slices.go:125)	PCDATA	$0, $-2
	0x0004 00004 (/bigdata/qiuhan/codet5/usage/goroot/test/codegen/slices.go:125)	JLS	124
	0x0006 00006 (/bigdata/qiuhan/codet5/usage/goroot/test/codegen/slices.go:125)	PCDATA	$0, $-1
	0x0006 00006 (/bigdata/qiuhan/codet5/usage/goroot/test/codegen/slices.go:125)	SUBQ	$72, SP
	0x000a 00010 (/bigdata/qiuhan/codet5/usage/goroot/test/codegen/slices.go:125)	MOVQ	BP, 64(SP)
	0x000f 00015 (/bigdata/qiuhan/codet5/usage/goroot/test/codegen/slices.go:125)	LEAQ	64(SP), BP
	0x0014 00020 (/bigdata/qiuhan/codet5/usage/goroot/test/codegen/slices.go:125)	MOVQ	AX, command-line-arguments.s+80(FP)
	0x0019 00025 (/bigdata/qiuhan/codet5/usage/goroot/test/codegen/slices.go:125)	FUNCDATA	$0, gclocals·ZzMiPAiVBg7DJ6dh/CjSag==(SB)
	0x0019 00025 (/bigdata/qiuhan/codet5/usage/goroot/test/codegen/slices.go:125)	FUNCDATA	$1, gclocals·dGrMWTWIngKGfVYjHi0adA==(SB)
	0x0019 00025 (/bigdata/qiuhan/codet5/usage/goroot/test/codegen/slices.go:125)	FUNCDATA	$5, command-line-arguments.SliceExtensionVarUint64.arginfo1(SB)
	0x0019 00025 (/bigdata/qiuhan/codet5/usage/goroot/test/codegen/slices.go:125)	FUNCDATA	$6, command-line-arguments.SliceExtensionVarUint64.argliveinfo(SB)
	0x0019 00025 (/bigdata/qiuhan/codet5/usage/goroot/test/codegen/slices.go:125)	PCDATA	$3, $1
	0x0019 00025 (/bigdata/qiuhan/codet5/usage/goroot/test/codegen/slices.go:129)	TESTQ	DI, DI
	0x001c 00028 (/bigdata/qiuhan/codet5/usage/goroot/test/codegen/slices.go:129)	JLT	118
	0x001e 00030 (/bigdata/qiuhan/codet5/usage/goroot/test/codegen/slices.go:129)	ADDQ	DI, BX
	0x0021 00033 (/bigdata/qiuhan/codet5/usage/goroot/test/codegen/slices.go:129)	CMPQ	CX, BX
	0x0024 00036 (/bigdata/qiuhan/codet5/usage/goroot/test/codegen/slices.go:129)	JCC	60
	0x0026 00038 (/bigdata/qiuhan/codet5/usage/goroot/test/codegen/slices.go:125)	MOVQ	DI, command-line-arguments.l+104(SP)
	0x002b 00043 (/bigdata/qiuhan/codet5/usage/goroot/test/codegen/slices.go:125)	PCDATA	$3, $2
	0x002b 00043 (/bigdata/qiuhan/codet5/usage/goroot/test/codegen/slices.go:129)	LEAQ	type:uint8(SB), SI
	0x0032 00050 (/bigdata/qiuhan/codet5/usage/goroot/test/codegen/slices.go:129)	PCDATA	$1, $1
	0x0032 00050 (/bigdata/qiuhan/codet5/usage/goroot/test/codegen/slices.go:129)	CALL	runtime.growslice(SB)
	0x0037 00055 (/bigdata/qiuhan/codet5/usage/goroot/test/codegen/slices.go:129)	MOVQ	command-line-arguments.l+104(SP), DI
	0x003c 00060 (/bigdata/qiuhan/codet5/usage/goroot/test/codegen/slices.go:129)	PCDATA	$1, $-1
	0x003c 00060 (/bigdata/qiuhan/codet5/usage/goroot/test/codegen/slices.go:129)	PCDATA	$3, $1
	0x003c 00060 (/bigdata/qiuhan/codet5/usage/goroot/test/codegen/slices.go:129)	MOVQ	AX, command-line-arguments..autotmp_8+56(SP)
	0x0041 00065 (/bigdata/qiuhan/codet5/usage/goroot/test/codegen/slices.go:129)	MOVQ	BX, command-line-arguments..autotmp_9+40(SP)
	0x0046 00070 (/bigdata/qiuhan/codet5/usage/goroot/test/codegen/slices.go:129)	MOVQ	CX, command-line-arguments..autotmp_10+48(SP)
	0x004b 00075 (/bigdata/qiuhan/codet5/usage/goroot/test/codegen/slices.go:129)	SUBQ	DI, BX
	0x004e 00078 (/bigdata/qiuhan/codet5/usage/goroot/test/codegen/slices.go:129)	LEAQ	(AX)(BX*1), SI
	0x0052 00082 (/bigdata/qiuhan/codet5/usage/goroot/test/codegen/slices.go:129)	MOVQ	DI, BX
	0x0055 00085 (/bigdata/qiuhan/codet5/usage/goroot/test/codegen/slices.go:129)	MOVQ	SI, AX
	0x0058 00088 (/bigdata/qiuhan/codet5/usage/goroot/test/codegen/slices.go:129)	PCDATA	$1, $2
	0x0058 00088 (/bigdata/qiuhan/codet5/usage/goroot/test/codegen/slices.go:129)	CALL	runtime.memclrNoHeapPointers(SB)
	0x005d 00093 (/bigdata/qiuhan/codet5/usage/goroot/test/codegen/slices.go:129)	MOVQ	command-line-arguments..autotmp_8+56(SP), AX
	0x0062 00098 (/bigdata/qiuhan/codet5/usage/goroot/test/codegen/slices.go:129)	MOVQ	command-line-arguments..autotmp_9+40(SP), BX
	0x0067 00103 (/bigdata/qiuhan/codet5/usage/goroot/test/codegen/slices.go:129)	MOVQ	command-line-arguments..autotmp_10+48(SP), CX
	0x006c 00108 (/bigdata/qiuhan/codet5/usage/goroot/test/codegen/slices.go:129)	MOVQ	64(SP), BP
	0x0071 00113 (/bigdata/qiuhan/codet5/usage/goroot/test/codegen/slices.go:129)	ADDQ	$72, SP
	0x0075 00117 (/bigdata/qiuhan/codet5/usage/goroot/test/codegen/slices.go:129)	RET
	0x0076 00118 (/bigdata/qiuhan/codet5/usage/goroot/test/codegen/slices.go:129)	PCDATA	$1, $1
	0x0076 00118 (/bigdata/qiuhan/codet5/usage/goroot/test/codegen/slices.go:129)	CALL	runtime.panicmakeslicelen(SB)
	0x007b 00123 (/bigdata/qiuhan/codet5/usage/goroot/test/codegen/slices.go:129)	XCHGL	AX, AX
	0x007c 00124 (/bigdata/qiuhan/codet5/usage/goroot/test/codegen/slices.go:129)	NOP
	0x007c 00124 (/bigdata/qiuhan/codet5/usage/goroot/test/codegen/slices.go:125)	PCDATA	$1, $-1
	0x007c 00124 (/bigdata/qiuhan/codet5/usage/goroot/test/codegen/slices.go:125)	PCDATA	$0, $-2
	0x007c 00124 (/bigdata/qiuhan/codet5/usage/goroot/test/codegen/slices.go:125)	MOVQ	AX, 8(SP)
	0x0081 00129 (/bigdata/qiuhan/codet5/usage/goroot/test/codegen/slices.go:125)	MOVQ	BX, 16(SP)
	0x0086 00134 (/bigdata/qiuhan/codet5/usage/goroot/test/codegen/slices.go:125)	MOVQ	CX, 24(SP)
	0x008b 00139 (/bigdata/qiuhan/codet5/usage/goroot/test/codegen/slices.go:125)	MOVQ	DI, 32(SP)
	0x0090 00144 (/bigdata/qiuhan/codet5/usage/goroot/test/codegen/slices.go:125)	CALL	runtime.morestack_noctxt(SB)
	0x0095 00149 (/bigdata/qiuhan/codet5/usage/goroot/test/codegen/slices.go:125)	MOVQ	8(SP), AX
	0x009a 00154 (/bigdata/qiuhan/codet5/usage/goroot/test/codegen/slices.go:125)	MOVQ	16(SP), BX
	0x009f 00159 (/bigdata/qiuhan/codet5/usage/goroot/test/codegen/slices.go:125)	MOVQ	24(SP), CX
	0x00a4 00164 (/bigdata/qiuhan/codet5/usage/goroot/test/codegen/slices.go:125)	MOVQ	32(SP), DI
	0x00a9 00169 (/bigdata/qiuhan/codet5/usage/goroot/test/codegen/slices.go:125)	PCDATA	$0, $-1
	0x00a9 00169 (/bigdata/qiuhan/codet5/usage/goroot/test/codegen/slices.go:125)	JMP	0
	0x0000 49 3b 66 10 76 76 48 83 ec 48 48 89 6c 24 40 48  I;f.vvH..HH.l$@H
	0x0010 8d 6c 24 40 48 89 44 24 50 48 85 ff 7c 58 48 01  .l$@H.D$PH..|XH.
	0x0020 fb 48 39 d9 73 16 48 89 7c 24 68 48 8d 35 00 00  .H9.s.H.|$hH.5..
	0x0030 00 00 e8 00 00 00 00 48 8b 7c 24 68 48 89 44 24  .......H.|$hH.D$
	0x0040 38 48 89 5c 24 28 48 89 4c 24 30 48 29 fb 48 8d  8H.\$(H.L$0H).H.
	0x0050 34 18 48 89 fb 48 89 f0 e8 00 00 00 00 48 8b 44  4.H..H.......H.D
	0x0060 24 38 48 8b 5c 24 28 48 8b 4c 24 30 48 8b 6c 24  $8H.\$(H.L$0H.l$
	0x0070 40 48 83 c4 48 c3 e8 00 00 00 00 90 48 89 44 24  @H..H.......H.D$
	0x0080 08 48 89 5c 24 10 48 89 4c 24 18 48 89 7c 24 20  .H.\$.H.L$.H.|$ 
	0x0090 e8 00 00 00 00 48 8b 44 24 08 48 8b 5c 24 10 48  .....H.D$.H.\$.H
	0x00a0 8b 4c 24 18 48 8b 7c 24 20 e9 52 ff ff ff        .L$.H.|$ .R...
	rel 46+4 t=14 type:uint8<0>+0
	rel 51+4 t=7 runtime.growslice<1>+0
	rel 89+4 t=7 runtime.memclrNoHeapPointers<1>+0
	rel 119+4 t=7 runtime.panicmakeslicelen<1>+0
	rel 145+4 t=7 runtime.morestack_noctxt<0>+0
command-line-arguments.SliceExtensionVarUint<1> STEXT size=174 args=0x20 locals=0x48 funcid=0x0 align=0x0
	0x0000 00000 (/bigdata/qiuhan/codet5/usage/goroot/test/codegen/slices.go:132)	TEXT	command-line-arguments.SliceExtensionVarUint(SB), ABIInternal, $72-32
	0x0000 00000 (/bigdata/qiuhan/codet5/usage/goroot/test/codegen/slices.go:132)	CMPQ	SP, 16(R14)
	0x0004 00004 (/bigdata/qiuhan/codet5/usage/goroot/test/codegen/slices.go:132)	PCDATA	$0, $-2
	0x0004 00004 (/bigdata/qiuhan/codet5/usage/goroot/test/codegen/slices.go:132)	JLS	124
	0x0006 00006 (/bigdata/qiuhan/codet5/usage/goroot/test/codegen/slices.go:132)	PCDATA	$0, $-1
	0x0006 00006 (/bigdata/qiuhan/codet5/usage/goroot/test/codegen/slices.go:132)	SUBQ	$72, SP
	0x000a 00010 (/bigdata/qiuhan/codet5/usage/goroot/test/codegen/slices.go:132)	MOVQ	BP, 64(SP)
	0x000f 00015 (/bigdata/qiuhan/codet5/usage/goroot/test/codegen/slices.go:132)	LEAQ	64(SP), BP
	0x0014 00020 (/bigdata/qiuhan/codet5/usage/goroot/test/codegen/slices.go:132)	MOVQ	AX, command-line-arguments.s+80(FP)
	0x0019 00025 (/bigdata/qiuhan/codet5/usage/goroot/test/codegen/slices.go:132)	FUNCDATA	$0, gclocals·ZzMiPAiVBg7DJ6dh/CjSag==(SB)
	0x0019 00025 (/bigdata/qiuhan/codet5/usage/goroot/test/codegen/slices.go:132)	FUNCDATA	$1, gclocals·dGrMWTWIngKGfVYjHi0adA==(SB)
	0x0019 00025 (/bigdata/qiuhan/codet5/usage/goroot/test/codegen/slices.go:132)	FUNCDATA	$5, command-line-arguments.SliceExtensionVarUint.arginfo1(SB)
	0x0019 00025 (/bigdata/qiuhan/codet5/usage/goroot/test/codegen/slices.go:132)	FUNCDATA	$6, command-line-arguments.SliceExtensionVarUint.argliveinfo(SB)
	0x0019 00025 (/bigdata/qiuhan/codet5/usage/goroot/test/codegen/slices.go:132)	PCDATA	$3, $1
	0x0019 00025 (/bigdata/qiuhan/codet5/usage/goroot/test/codegen/slices.go:136)	TESTQ	DI, DI
	0x001c 00028 (/bigdata/qiuhan/codet5/usage/goroot/test/codegen/slices.go:136)	JLT	118
	0x001e 00030 (/bigdata/qiuhan/codet5/usage/goroot/test/codegen/slices.go:136)	ADDQ	DI, BX
	0x0021 00033 (/bigdata/qiuhan/codet5/usage/goroot/test/codegen/slices.go:136)	CMPQ	CX, BX
	0x0024 00036 (/bigdata/qiuhan/codet5/usage/goroot/test/codegen/slices.go:136)	JCC	60
	0x0026 00038 (/bigdata/qiuhan/codet5/usage/goroot/test/codegen/slices.go:132)	MOVQ	DI, command-line-arguments.l+104(SP)
	0x002b 00043 (/bigdata/qiuhan/codet5/usage/goroot/test/codegen/slices.go:132)	PCDATA	$3, $2
	0x002b 00043 (/bigdata/qiuhan/codet5/usage/goroot/test/codegen/slices.go:136)	LEAQ	type:uint8(SB), SI
	0x0032 00050 (/bigdata/qiuhan/codet5/usage/goroot/test/codegen/slices.go:136)	PCDATA	$1, $1
	0x0032 00050 (/bigdata/qiuhan/codet5/usage/goroot/test/codegen/slices.go:136)	CALL	runtime.growslice(SB)
	0x0037 00055 (/bigdata/qiuhan/codet5/usage/goroot/test/codegen/slices.go:136)	MOVQ	command-line-arguments.l+104(SP), DI
	0x003c 00060 (/bigdata/qiuhan/codet5/usage/goroot/test/codegen/slices.go:136)	PCDATA	$1, $-1
	0x003c 00060 (/bigdata/qiuhan/codet5/usage/goroot/test/codegen/slices.go:136)	PCDATA	$3, $1
	0x003c 00060 (/bigdata/qiuhan/codet5/usage/goroot/test/codegen/slices.go:136)	MOVQ	AX, command-line-arguments..autotmp_8+56(SP)
	0x0041 00065 (/bigdata/qiuhan/codet5/usage/goroot/test/codegen/slices.go:136)	MOVQ	BX, command-line-arguments..autotmp_9+40(SP)
	0x0046 00070 (/bigdata/qiuhan/codet5/usage/goroot/test/codegen/slices.go:136)	MOVQ	CX, command-line-arguments..autotmp_10+48(SP)
	0x004b 00075 (/bigdata/qiuhan/codet5/usage/goroot/test/codegen/slices.go:136)	SUBQ	DI, BX
	0x004e 00078 (/bigdata/qiuhan/codet5/usage/goroot/test/codegen/slices.go:136)	LEAQ	(AX)(BX*1), SI
	0x0052 00082 (/bigdata/qiuhan/codet5/usage/goroot/test/codegen/slices.go:136)	MOVQ	DI, BX
	0x0055 00085 (/bigdata/qiuhan/codet5/usage/goroot/test/codegen/slices.go:136)	MOVQ	SI, AX
	0x0058 00088 (/bigdata/qiuhan/codet5/usage/goroot/test/codegen/slices.go:136)	PCDATA	$1, $2
	0x0058 00088 (/bigdata/qiuhan/codet5/usage/goroot/test/codegen/slices.go:136)	CALL	runtime.memclrNoHeapPointers(SB)
	0x005d 00093 (/bigdata/qiuhan/codet5/usage/goroot/test/codegen/slices.go:136)	MOVQ	command-line-arguments..autotmp_8+56(SP), AX
	0x0062 00098 (/bigdata/qiuhan/codet5/usage/goroot/test/codegen/slices.go:136)	MOVQ	command-line-arguments..autotmp_9+40(SP), BX
	0x0067 00103 (/bigdata/qiuhan/codet5/usage/goroot/test/codegen/slices.go:136)	MOVQ	command-line-arguments..autotmp_10+48(SP), CX
	0x006c 00108 (/bigdata/qiuhan/codet5/usage/goroot/test/codegen/slices.go:136)	MOVQ	64(SP), BP
	0x0071 00113 (/bigdata/qiuhan/codet5/usage/goroot/test/codegen/slices.go:136)	ADDQ	$72, SP
	0x0075 00117 (/bigdata/qiuhan/codet5/usage/goroot/test/codegen/slices.go:136)	RET
	0x0076 00118 (/bigdata/qiuhan/codet5/usage/goroot/test/codegen/slices.go:136)	PCDATA	$1, $1
	0x0076 00118 (/bigdata/qiuhan/codet5/usage/goroot/test/codegen/slices.go:136)	CALL	runtime.panicmakeslicelen(SB)
	0x007b 00123 (/bigdata/qiuhan/codet5/usage/goroot/test/codegen/slices.go:136)	XCHGL	AX, AX
	0x007c 00124 (/bigdata/qiuhan/codet5/usage/goroot/test/codegen/slices.go:136)	NOP
	0x007c 00124 (/bigdata/qiuhan/codet5/usage/goroot/test/codegen/slices.go:132)	PCDATA	$1, $-1
	0x007c 00124 (/bigdata/qiuhan/codet5/usage/goroot/test/codegen/slices.go:132)	PCDATA	$0, $-2
	0x007c 00124 (/bigdata/qiuhan/codet5/usage/goroot/test/codegen/slices.go:132)	MOVQ	AX, 8(SP)
	0x0081 00129 (/bigdata/qiuhan/codet5/usage/goroot/test/codegen/slices.go:132)	MOVQ	BX, 16(SP)
	0x0086 00134 (/bigdata/qiuhan/codet5/usage/goroot/test/codegen/slices.go:132)	MOVQ	CX, 24(SP)
	0x008b 00139 (/bigdata/qiuhan/codet5/usage/goroot/test/codegen/slices.go:132)	MOVQ	DI, 32(SP)
	0x0090 00144 (/bigdata/qiuhan/codet5/usage/goroot/test/codegen/slices.go:132)	CALL	runtime.morestack_noctxt(SB)
	0x0095 00149 (/bigdata/qiuhan/codet5/usage/goroot/test/codegen/slices.go:132)	MOVQ	8(SP), AX
	0x009a 00154 (/bigdata/qiuhan/codet5/usage/goroot/test/codegen/slices.go:132)	MOVQ	16(SP), BX
	0x009f 00159 (/bigdata/qiuhan/codet5/usage/goroot/test/codegen/slices.go:132)	MOVQ	24(SP), CX
	0x00a4 00164 (/bigdata/qiuhan/codet5/usage/goroot/test/codegen/slices.go:132)	MOVQ	32(SP), DI
	0x00a9 00169 (/bigdata/qiuhan/codet5/usage/goroot/test/codegen/slices.go:132)	PCDATA	$0, $-1
	0x00a9 00169 (/bigdata/qiuhan/codet5/usage/goroot/test/codegen/slices.go:132)	JMP	0
	0x0000 49 3b 66 10 76 76 48 83 ec 48 48 89 6c 24 40 48  I;f.vvH..HH.l$@H
	0x0010 8d 6c 24 40 48 89 44 24 50 48 85 ff 7c 58 48 01  .l$@H.D$PH..|XH.
	0x0020 fb 48 39 d9 73 16 48 89 7c 24 68 48 8d 35 00 00  .H9.s.H.|$hH.5..
	0x0030 00 00 e8 00 00 00 00 48 8b 7c 24 68 48 89 44 24  .......H.|$hH.D$
	0x0040 38 48 89 5c 24 28 48 89 4c 24 30 48 29 fb 48 8d  8H.\$(H.L$0H).H.
	0x0050 34 18 48 89 fb 48 89 f0 e8 00 00 00 00 48 8b 44  4.H..H.......H.D
	0x0060 24 38 48 8b 5c 24 28 48 8b 4c 24 30 48 8b 6c 24  $8H.\$(H.L$0H.l$
	0x0070 40 48 83 c4 48 c3 e8 00 00 00 00 90 48 89 44 24  @H..H.......H.D$
	0x0080 08 48 89 5c 24 10 48 89 4c 24 18 48 89 7c 24 20  .H.\$.H.L$.H.|$ 
	0x0090 e8 00 00 00 00 48 8b 44 24 08 48 8b 5c 24 10 48  .....H.D$.H.\$.H
	0x00a0 8b 4c 24 18 48 8b 7c 24 20 e9 52 ff ff ff        .L$.H.|$ .R...
	rel 46+4 t=14 type:uint8<0>+0
	rel 51+4 t=7 runtime.growslice<1>+0
	rel 89+4 t=7 runtime.memclrNoHeapPointers<1>+0
	rel 119+4 t=7 runtime.panicmakeslicelen<1>+0
	rel 145+4 t=7 runtime.morestack_noctxt<0>+0
command-line-arguments.SliceExtensionInt64<1> STEXT size=190 args=0x20 locals=0x48 funcid=0x0 align=0x0
	0x0000 00000 (/bigdata/qiuhan/codet5/usage/goroot/test/codegen/slices.go:139)	TEXT	command-line-arguments.SliceExtensionInt64(SB), ABIInternal, $72-32
	0x0000 00000 (/bigdata/qiuhan/codet5/usage/goroot/test/codegen/slices.go:139)	CMPQ	SP, 16(R14)
	0x0004 00004 (/bigdata/qiuhan/codet5/usage/goroot/test/codegen/slices.go:139)	PCDATA	$0, $-2
	0x0004 00004 (/bigdata/qiuhan/codet5/usage/goroot/test/codegen/slices.go:139)	JLS	135
	0x000a 00010 (/bigdata/qiuhan/codet5/usage/goroot/test/codegen/slices.go:139)	PCDATA	$0, $-1
	0x000a 00010 (/bigdata/qiuhan/codet5/usage/goroot/test/codegen/slices.go:139)	SUBQ	$72, SP
	0x000e 00014 (/bigdata/qiuhan/codet5/usage/goroot/test/codegen/slices.go:139)	MOVQ	BP, 64(SP)
	0x0013 00019 (/bigdata/qiuhan/codet5/usage/goroot/test/codegen/slices.go:139)	LEAQ	64(SP), BP
	0x0018 00024 (/bigdata/qiuhan/codet5/usage/goroot/test/codegen/slices.go:139)	MOVQ	AX, command-line-arguments.s+80(FP)
	0x001d 00029 (/bigdata/qiuhan/codet5/usage/goroot/test/codegen/slices.go:139)	FUNCDATA	$0, gclocals·ZzMiPAiVBg7DJ6dh/CjSag==(SB)
	0x001d 00029 (/bigdata/qiuhan/codet5/usage/goroot/test/codegen/slices.go:139)	FUNCDATA	$1, gclocals·dGrMWTWIngKGfVYjHi0adA==(SB)
	0x001d 00029 (/bigdata/qiuhan/codet5/usage/goroot/test/codegen/slices.go:139)	FUNCDATA	$5, command-line-arguments.SliceExtensionInt64.arginfo1(SB)
	0x001d 00029 (/bigdata/qiuhan/codet5/usage/goroot/test/codegen/slices.go:139)	FUNCDATA	$6, command-line-arguments.SliceExtensionInt64.argliveinfo(SB)
	0x001d 00029 (/bigdata/qiuhan/codet5/usage/goroot/test/codegen/slices.go:139)	PCDATA	$3, $1
	0x001d 00029 (/bigdata/qiuhan/codet5/usage/goroot/test/codegen/slices.go:139)	NOP
	0x0020 00032 (/bigdata/qiuhan/codet5/usage/goroot/test/codegen/slices.go:142)	TESTQ	DI, DI
	0x0023 00035 (/bigdata/qiuhan/codet5/usage/goroot/test/codegen/slices.go:142)	JLT	129
	0x0025 00037 (/bigdata/qiuhan/codet5/usage/goroot/test/codegen/slices.go:142)	ADDQ	DI, BX
	0x0028 00040 (/bigdata/qiuhan/codet5/usage/goroot/test/codegen/slices.go:142)	CMPQ	CX, BX
	0x002b 00043 (/bigdata/qiuhan/codet5/usage/goroot/test/codegen/slices.go:142)	JCC	67
	0x002d 00045 (/bigdata/qiuhan/codet5/usage/goroot/test/codegen/slices.go:139)	MOVQ	DI, command-line-arguments.l64+104(SP)
	0x0032 00050 (/bigdata/qiuhan/codet5/usage/goroot/test/codegen/slices.go:139)	PCDATA	$3, $2
	0x0032 00050 (/bigdata/qiuhan/codet5/usage/goroot/test/codegen/slices.go:142)	LEAQ	type:int(SB), SI
	0x0039 00057 (/bigdata/qiuhan/codet5/usage/goroot/test/codegen/slices.go:142)	PCDATA	$1, $1
	0x0039 00057 (/bigdata/qiuhan/codet5/usage/goroot/test/codegen/slices.go:142)	CALL	runtime.growslice(SB)
	0x003e 00062 (/bigdata/qiuhan/codet5/usage/goroot/test/codegen/slices.go:142)	MOVQ	command-line-arguments.l64+104(SP), DI
	0x0043 00067 (/bigdata/qiuhan/codet5/usage/goroot/test/codegen/slices.go:142)	PCDATA	$1, $-1
	0x0043 00067 (/bigdata/qiuhan/codet5/usage/goroot/test/codegen/slices.go:142)	PCDATA	$3, $1
	0x0043 00067 (/bigdata/qiuhan/codet5/usage/goroot/test/codegen/slices.go:142)	MOVQ	BX, command-line-arguments..autotmp_8+48(SP)
	0x0048 00072 (/bigdata/qiuhan/codet5/usage/goroot/test/codegen/slices.go:142)	MOVQ	CX, command-line-arguments..autotmp_9+40(SP)
	0x004d 00077 (/bigdata/qiuhan/codet5/usage/goroot/test/codegen/slices.go:142)	MOVQ	AX, command-line-arguments..autotmp_10+56(SP)
	0x0052 00082 (/bigdata/qiuhan/codet5/usage/goroot/test/codegen/slices.go:142)	SUBQ	DI, BX
	0x0055 00085 (/bigdata/qiuhan/codet5/usage/goroot/test/codegen/slices.go:142)	LEAQ	(AX)(BX*8), SI
	0x0059 00089 (/bigdata/qiuhan/codet5/usage/goroot/test/codegen/slices.go:142)	SHLQ	$3, DI
	0x005d 00093 (/bigdata/qiuhan/codet5/usage/goroot/test/codegen/slices.go:142)	MOVQ	DI, BX
	0x0060 00096 (/bigdata/qiuhan/codet5/usage/goroot/test/codegen/slices.go:142)	MOVQ	SI, AX
	0x0063 00099 (/bigdata/qiuhan/codet5/usage/goroot/test/codegen/slices.go:142)	PCDATA	$1, $2
	0x0063 00099 (/bigdata/qiuhan/codet5/usage/goroot/test/codegen/slices.go:142)	CALL	runtime.memclrNoHeapPointers(SB)
	0x0068 00104 (/bigdata/qiuhan/codet5/usage/goroot/test/codegen/slices.go:142)	MOVQ	command-line-arguments..autotmp_10+56(SP), AX
	0x006d 00109 (/bigdata/qiuhan/codet5/usage/goroot/test/codegen/slices.go:142)	MOVQ	command-line-arguments..autotmp_8+48(SP), BX
	0x0072 00114 (/bigdata/qiuhan/codet5/usage/goroot/test/codegen/slices.go:142)	MOVQ	command-line-arguments..autotmp_9+40(SP), CX
	0x0077 00119 (/bigdata/qiuhan/codet5/usage/goroot/test/codegen/slices.go:142)	MOVQ	64(SP), BP
	0x007c 00124 (/bigdata/qiuhan/codet5/usage/goroot/test/codegen/slices.go:142)	ADDQ	$72, SP
	0x0080 00128 (/bigdata/qiuhan/codet5/usage/goroot/test/codegen/slices.go:142)	RET
	0x0081 00129 (/bigdata/qiuhan/codet5/usage/goroot/test/codegen/slices.go:142)	PCDATA	$1, $1
	0x0081 00129 (/bigdata/qiuhan/codet5/usage/goroot/test/codegen/slices.go:142)	CALL	runtime.panicmakeslicelen(SB)
	0x0086 00134 (/bigdata/qiuhan/codet5/usage/goroot/test/codegen/slices.go:142)	XCHGL	AX, AX
	0x0087 00135 (/bigdata/qiuhan/codet5/usage/goroot/test/codegen/slices.go:142)	NOP
	0x0087 00135 (/bigdata/qiuhan/codet5/usage/goroot/test/codegen/slices.go:139)	PCDATA	$1, $-1
	0x0087 00135 (/bigdata/qiuhan/codet5/usage/goroot/test/codegen/slices.go:139)	PCDATA	$0, $-2
	0x0087 00135 (/bigdata/qiuhan/codet5/usage/goroot/test/codegen/slices.go:139)	MOVQ	AX, 8(SP)
	0x008c 00140 (/bigdata/qiuhan/codet5/usage/goroot/test/codegen/slices.go:139)	MOVQ	BX, 16(SP)
	0x0091 00145 (/bigdata/qiuhan/codet5/usage/goroot/test/codegen/slices.go:139)	MOVQ	CX, 24(SP)
	0x0096 00150 (/bigdata/qiuhan/codet5/usage/goroot/test/codegen/slices.go:139)	MOVQ	DI, 32(SP)
	0x009b 00155 (/bigdata/qiuhan/codet5/usage/goroot/test/codegen/slices.go:139)	NOP
	0x00a0 00160 (/bigdata/qiuhan/codet5/usage/goroot/test/codegen/slices.go:139)	CALL	runtime.morestack_noctxt(SB)
	0x00a5 00165 (/bigdata/qiuhan/codet5/usage/goroot/test/codegen/slices.go:139)	MOVQ	8(SP), AX
	0x00aa 00170 (/bigdata/qiuhan/codet5/usage/goroot/test/codegen/slices.go:139)	MOVQ	16(SP), BX
	0x00af 00175 (/bigdata/qiuhan/codet5/usage/goroot/test/codegen/slices.go:139)	MOVQ	24(SP), CX
	0x00b4 00180 (/bigdata/qiuhan/codet5/usage/goroot/test/codegen/slices.go:139)	MOVQ	32(SP), DI
	0x00b9 00185 (/bigdata/qiuhan/codet5/usage/goroot/test/codegen/slices.go:139)	PCDATA	$0, $-1
	0x00b9 00185 (/bigdata/qiuhan/codet5/usage/goroot/test/codegen/slices.go:139)	JMP	0
	0x0000 49 3b 66 10 0f 86 7d 00 00 00 48 83 ec 48 48 89  I;f...}...H..HH.
	0x0010 6c 24 40 48 8d 6c 24 40 48 89 44 24 50 0f 1f 00  l$@H.l$@H.D$P...
	0x0020 48 85 ff 7c 5c 48 01 fb 48 39 d9 73 16 48 89 7c  H..|\H..H9.s.H.|
	0x0030 24 68 48 8d 35 00 00 00 00 e8 00 00 00 00 48 8b  $hH.5.........H.
	0x0040 7c 24 68 48 89 5c 24 30 48 89 4c 24 28 48 89 44  |$hH.\$0H.L$(H.D
	0x0050 24 38 48 29 fb 48 8d 34 d8 48 c1 e7 03 48 89 fb  $8H).H.4.H...H..
	0x0060 48 89 f0 e8 00 00 00 00 48 8b 44 24 38 48 8b 5c  H.......H.D$8H.\
	0x0070 24 30 48 8b 4c 24 28 48 8b 6c 24 40 48 83 c4 48  $0H.L$(H.l$@H..H
	0x0080 c3 e8 00 00 00 00 90 48 89 44 24 08 48 89 5c 24  .......H.D$.H.\$
	0x0090 10 48 89 4c 24 18 48 89 7c 24 20 0f 1f 44 00 00  .H.L$.H.|$ ..D..
	0x00a0 e8 00 00 00 00 48 8b 44 24 08 48 8b 5c 24 10 48  .....H.D$.H.\$.H
	0x00b0 8b 4c 24 18 48 8b 7c 24 20 e9 42 ff ff ff        .L$.H.|$ .B...
	rel 53+4 t=14 type:int<0>+0
	rel 58+4 t=7 runtime.growslice<1>+0
	rel 100+4 t=7 runtime.memclrNoHeapPointers<1>+0
	rel 130+4 t=7 runtime.panicmakeslicelen<1>+0
	rel 161+4 t=7 runtime.morestack_noctxt<0>+0
command-line-arguments.SliceMakeCopyLen<1> STEXT size=134 args=0x18 locals=0x30 funcid=0x0 align=0x0
	0x0000 00000 (/bigdata/qiuhan/codet5/usage/goroot/test/codegen/slices.go:151)	TEXT	command-line-arguments.SliceMakeCopyLen(SB), ABIInternal, $48-24
	0x0000 00000 (/bigdata/qiuhan/codet5/usage/goroot/test/codegen/slices.go:151)	CMPQ	SP, 16(R14)
	0x0004 00004 (/bigdata/qiuhan/codet5/usage/goroot/test/codegen/slices.go:151)	PCDATA	$0, $-2
	0x0004 00004 (/bigdata/qiuhan/codet5/usage/goroot/test/codegen/slices.go:151)	JLS	94
	0x0006 00006 (/bigdata/qiuhan/codet5/usage/goroot/test/codegen/slices.go:151)	PCDATA	$0, $-1
	0x0006 00006 (/bigdata/qiuhan/codet5/usage/goroot/test/codegen/slices.go:151)	SUBQ	$48, SP
	0x000a 00010 (/bigdata/qiuhan/codet5/usage/goroot/test/codegen/slices.go:151)	MOVQ	BP, 40(SP)
	0x000f 00015 (/bigdata/qiuhan/codet5/usage/goroot/test/codegen/slices.go:151)	LEAQ	40(SP), BP
	0x0014 00020 (/bigdata/qiuhan/codet5/usage/goroot/test/codegen/slices.go:151)	FUNCDATA	$0, gclocals·m/6RUmNv6NBhMUL8eleFFA==(SB)
	0x0014 00020 (/bigdata/qiuhan/codet5/usage/goroot/test/codegen/slices.go:151)	FUNCDATA	$1, gclocals·VtCL4RdUwCqwXEPeyJllRA==(SB)
	0x0014 00020 (/bigdata/qiuhan/codet5/usage/goroot/test/codegen/slices.go:151)	FUNCDATA	$5, command-line-arguments.SliceMakeCopyLen.arginfo1(SB)
	0x0014 00020 (/bigdata/qiuhan/codet5/usage/goroot/test/codegen/slices.go:151)	FUNCDATA	$6, command-line-arguments.SliceMakeCopyLen.argliveinfo(SB)
	0x0014 00020 (/bigdata/qiuhan/codet5/usage/goroot/test/codegen/slices.go:151)	PCDATA	$3, $1
	0x0014 00020 (/bigdata/qiuhan/codet5/usage/goroot/test/codegen/slices.go:161)	MOVQ	BX, command-line-arguments.s+64(SP)
	0x0019 00025 (/bigdata/qiuhan/codet5/usage/goroot/test/codegen/slices.go:161)	MOVQ	AX, command-line-arguments.s+56(SP)
	0x001e 00030 (/bigdata/qiuhan/codet5/usage/goroot/test/codegen/slices.go:161)	PCDATA	$3, $2
	0x001e 00030 (/bigdata/qiuhan/codet5/usage/goroot/test/codegen/slices.go:161)	SHLQ	$3, BX
	0x0022 00034 (/bigdata/qiuhan/codet5/usage/goroot/test/codegen/slices.go:161)	MOVQ	BX, command-line-arguments..autotmp_8+24(SP)
	0x0027 00039 (/bigdata/qiuhan/codet5/usage/goroot/test/codegen/slices.go:161)	XORL	CX, CX
	0x0029 00041 (/bigdata/qiuhan/codet5/usage/goroot/test/codegen/slices.go:161)	MOVQ	BX, AX
	0x002c 00044 (/bigdata/qiuhan/codet5/usage/goroot/test/codegen/slices.go:161)	XORL	BX, BX
	0x002e 00046 (/bigdata/qiuhan/codet5/usage/goroot/test/codegen/slices.go:161)	PCDATA	$1, $0
	0x002e 00046 (/bigdata/qiuhan/codet5/usage/goroot/test/codegen/slices.go:161)	CALL	runtime.mallocgc(SB)
	0x0033 00051 (/bigdata/qiuhan/codet5/usage/goroot/test/codegen/slices.go:161)	MOVQ	AX, command-line-arguments..autotmp_9+32(SP)
	0x0038 00056 (/bigdata/qiuhan/codet5/usage/goroot/test/codegen/slices.go:161)	MOVQ	command-line-arguments.s+56(SP), BX
	0x003d 00061 (/bigdata/qiuhan/codet5/usage/goroot/test/codegen/slices.go:161)	MOVQ	command-line-arguments..autotmp_8+24(SP), CX
	0x0042 00066 (/bigdata/qiuhan/codet5/usage/goroot/test/codegen/slices.go:161)	PCDATA	$1, $1
	0x0042 00066 (/bigdata/qiuhan/codet5/usage/goroot/test/codegen/slices.go:161)	CALL	runtime.memmove(SB)
	0x0047 00071 (/bigdata/qiuhan/codet5/usage/goroot/test/codegen/slices.go:163)	MOVQ	command-line-arguments..autotmp_9+32(SP), AX
	0x004c 00076 (/bigdata/qiuhan/codet5/usage/goroot/test/codegen/slices.go:163)	MOVQ	command-line-arguments.s+64(SP), BX
	0x0051 00081 (/bigdata/qiuhan/codet5/usage/goroot/test/codegen/slices.go:163)	MOVQ	BX, CX
	0x0054 00084 (/bigdata/qiuhan/codet5/usage/goroot/test/codegen/slices.go:163)	MOVQ	40(SP), BP
	0x0059 00089 (/bigdata/qiuhan/codet5/usage/goroot/test/codegen/slices.go:163)	ADDQ	$48, SP
	0x005d 00093 (/bigdata/qiuhan/codet5/usage/goroot/test/codegen/slices.go:163)	RET
	0x005e 00094 (/bigdata/qiuhan/codet5/usage/goroot/test/codegen/slices.go:163)	NOP
	0x005e 00094 (/bigdata/qiuhan/codet5/usage/goroot/test/codegen/slices.go:151)	PCDATA	$1, $-1
	0x005e 00094 (/bigdata/qiuhan/codet5/usage/goroot/test/codegen/slices.go:151)	PCDATA	$0, $-2
	0x005e 00094 (/bigdata/qiuhan/codet5/usage/goroot/test/codegen/slices.go:151)	MOVQ	AX, 8(SP)
	0x0063 00099 (/bigdata/qiuhan/codet5/usage/goroot/test/codegen/slices.go:151)	MOVQ	BX, 16(SP)
	0x0068 00104 (/bigdata/qiuhan/codet5/usage/goroot/test/codegen/slices.go:151)	MOVQ	CX, 24(SP)
	0x006d 00109 (/bigdata/qiuhan/codet5/usage/goroot/test/codegen/slices.go:151)	CALL	runtime.morestack_noctxt(SB)
	0x0072 00114 (/bigdata/qiuhan/codet5/usage/goroot/test/codegen/slices.go:151)	MOVQ	8(SP), AX
	0x0077 00119 (/bigdata/qiuhan/codet5/usage/goroot/test/codegen/slices.go:151)	MOVQ	16(SP), BX
	0x007c 00124 (/bigdata/qiuhan/codet5/usage/goroot/test/codegen/slices.go:151)	MOVQ	24(SP), CX
	0x0081 00129 (/bigdata/qiuhan/codet5/usage/goroot/test/codegen/slices.go:151)	PCDATA	$0, $-1
	0x0081 00129 (/bigdata/qiuhan/codet5/usage/goroot/test/codegen/slices.go:151)	JMP	0
	0x0000 49 3b 66 10 76 58 48 83 ec 30 48 89 6c 24 28 48  I;f.vXH..0H.l$(H
	0x0010 8d 6c 24 28 48 89 5c 24 40 48 89 44 24 38 48 c1  .l$(H.\$@H.D$8H.
	0x0020 e3 03 48 89 5c 24 18 31 c9 48 89 d8 31 db e8 00  ..H.\$.1.H..1...
	0x0030 00 00 00 48 89 44 24 20 48 8b 5c 24 38 48 8b 4c  ...H.D$ H.\$8H.L
	0x0040 24 18 e8 00 00 00 00 48 8b 44 24 20 48 8b 5c 24  $......H.D$ H.\$
	0x0050 40 48 89 d9 48 8b 6c 24 28 48 83 c4 30 c3 48 89  @H..H.l$(H..0.H.
	0x0060 44 24 08 48 89 5c 24 10 48 89 4c 24 18 e8 00 00  D$.H.\$.H.L$....
	0x0070 00 00 48 8b 44 24 08 48 8b 5c 24 10 48 8b 4c 24  ..H.D$.H.\$.H.L$
	0x0080 18 e9 7a ff ff ff                                ..z...
	rel 47+4 t=7 runtime.mallocgc<1>+0
	rel 67+4 t=7 runtime.memmove<1>+0
	rel 110+4 t=7 runtime.morestack_noctxt<0>+0
command-line-arguments.SliceMakeCopyLenPtr<1> STEXT size=103 args=0x18 locals=0x28 funcid=0x0 align=0x0
	0x0000 00000 (/bigdata/qiuhan/codet5/usage/goroot/test/codegen/slices.go:166)	TEXT	command-line-arguments.SliceMakeCopyLenPtr(SB), ABIInternal, $40-24
	0x0000 00000 (/bigdata/qiuhan/codet5/usage/goroot/test/codegen/slices.go:166)	CMPQ	SP, 16(R14)
	0x0004 00004 (/bigdata/qiuhan/codet5/usage/goroot/test/codegen/slices.go:166)	PCDATA	$0, $-2
	0x0004 00004 (/bigdata/qiuhan/codet5/usage/goroot/test/codegen/slices.go:166)	JLS	66
	0x0006 00006 (/bigdata/qiuhan/codet5/usage/goroot/test/codegen/slices.go:166)	PCDATA	$0, $-1
	0x0006 00006 (/bigdata/qiuhan/codet5/usage/goroot/test/codegen/slices.go:166)	SUBQ	$40, SP
	0x000a 00010 (/bigdata/qiuhan/codet5/usage/goroot/test/codegen/slices.go:166)	MOVQ	BP, 32(SP)
	0x000f 00015 (/bigdata/qiuhan/codet5/usage/goroot/test/codegen/slices.go:166)	LEAQ	32(SP), BP
	0x0014 00020 (/bigdata/qiuhan/codet5/usage/goroot/test/codegen/slices.go:166)	MOVQ	AX, command-line-arguments.s+48(FP)
	0x0019 00025 (/bigdata/qiuhan/codet5/usage/goroot/test/codegen/slices.go:166)	FUNCDATA	$0, gclocals·wgcWObbY2HYnK2SU/U22lA==(SB)
	0x0019 00025 (/bigdata/qiuhan/codet5/usage/goroot/test/codegen/slices.go:166)	FUNCDATA	$1, gclocals·J5F+7Qw7O7ve2QcWC7DpeQ==(SB)
	0x0019 00025 (/bigdata/qiuhan/codet5/usage/goroot/test/codegen/slices.go:166)	FUNCDATA	$5, command-line-arguments.SliceMakeCopyLenPtr.arginfo1(SB)
	0x0019 00025 (/bigdata/qiuhan/codet5/usage/goroot/test/codegen/slices.go:166)	FUNCDATA	$6, command-line-arguments.SliceMakeCopyLenPtr.argliveinfo(SB)
	0x0019 00025 (/bigdata/qiuhan/codet5/usage/goroot/test/codegen/slices.go:166)	PCDATA	$3, $1
	0x0019 00025 (/bigdata/qiuhan/codet5/usage/goroot/test/codegen/slices.go:176)	MOVQ	BX, command-line-arguments.s+56(SP)
	0x001e 00030 (/bigdata/qiuhan/codet5/usage/goroot/test/codegen/slices.go:176)	PCDATA	$3, $2
	0x001e 00030 (/bigdata/qiuhan/codet5/usage/goroot/test/codegen/slices.go:176)	MOVQ	BX, CX
	0x0021 00033 (/bigdata/qiuhan/codet5/usage/goroot/test/codegen/slices.go:176)	MOVQ	AX, DI
	0x0024 00036 (/bigdata/qiuhan/codet5/usage/goroot/test/codegen/slices.go:176)	LEAQ	type:*int(SB), AX
	0x002b 00043 (/bigdata/qiuhan/codet5/usage/goroot/test/codegen/slices.go:176)	PCDATA	$1, $0
	0x002b 00043 (/bigdata/qiuhan/codet5/usage/goroot/test/codegen/slices.go:176)	CALL	runtime.makeslicecopy(SB)
	0x0030 00048 (/bigdata/qiuhan/codet5/usage/goroot/test/codegen/slices.go:178)	MOVQ	command-line-arguments.s+56(SP), BX
	0x0035 00053 (/bigdata/qiuhan/codet5/usage/goroot/test/codegen/slices.go:178)	MOVQ	BX, CX
	0x0038 00056 (/bigdata/qiuhan/codet5/usage/goroot/test/codegen/slices.go:178)	MOVQ	32(SP), BP
	0x003d 00061 (/bigdata/qiuhan/codet5/usage/goroot/test/codegen/slices.go:178)	ADDQ	$40, SP
	0x0041 00065 (/bigdata/qiuhan/codet5/usage/goroot/test/codegen/slices.go:178)	RET
	0x0042 00066 (/bigdata/qiuhan/codet5/usage/goroot/test/codegen/slices.go:178)	NOP
	0x0042 00066 (/bigdata/qiuhan/codet5/usage/goroot/test/codegen/slices.go:166)	PCDATA	$1, $-1
	0x0042 00066 (/bigdata/qiuhan/codet5/usage/goroot/test/codegen/slices.go:166)	PCDATA	$0, $-2
	0x0042 00066 (/bigdata/qiuhan/codet5/usage/goroot/test/codegen/slices.go:166)	MOVQ	AX, 8(SP)
	0x0047 00071 (/bigdata/qiuhan/codet5/usage/goroot/test/codegen/slices.go:166)	MOVQ	BX, 16(SP)
	0x004c 00076 (/bigdata/qiuhan/codet5/usage/goroot/test/codegen/slices.go:166)	MOVQ	CX, 24(SP)
	0x0051 00081 (/bigdata/qiuhan/codet5/usage/goroot/test/codegen/slices.go:166)	CALL	runtime.morestack_noctxt(SB)
	0x0056 00086 (/bigdata/qiuhan/codet5/usage/goroot/test/codegen/slices.go:166)	MOVQ	8(SP), AX
	0x005b 00091 (/bigdata/qiuhan/codet5/usage/goroot/test/codegen/slices.go:166)	MOVQ	16(SP), BX
	0x0060 00096 (/bigdata/qiuhan/codet5/usage/goroot/test/codegen/slices.go:166)	MOVQ	24(SP), CX
	0x0065 00101 (/bigdata/qiuhan/codet5/usage/goroot/test/codegen/slices.go:166)	PCDATA	$0, $-1
	0x0065 00101 (/bigdata/qiuhan/codet5/usage/goroot/test/codegen/slices.go:166)	JMP	0
	0x0000 49 3b 66 10 76 3c 48 83 ec 28 48 89 6c 24 20 48  I;f.v<H..(H.l$ H
	0x0010 8d 6c 24 20 48 89 44 24 30 48 89 5c 24 38 48 89  .l$ H.D$0H.\$8H.
	0x0020 d9 48 89 c7 48 8d 05 00 00 00 00 e8 00 00 00 00  .H..H...........
	0x0030 48 8b 5c 24 38 48 89 d9 48 8b 6c 24 20 48 83 c4  H.\$8H..H.l$ H..
	0x0040 28 c3 48 89 44 24 08 48 89 5c 24 10 48 89 4c 24  (.H.D$.H.\$.H.L$
	0x0050 18 e8 00 00 00 00 48 8b 44 24 08 48 8b 5c 24 10  ......H.D$.H.\$.
	0x0060 48 8b 4c 24 18 eb 99                             H.L$...
	rel 39+4 t=14 type:*int<0>+0
	rel 44+4 t=7 runtime.makeslicecopy<1>+0
	rel 82+4 t=7 runtime.morestack_noctxt<0>+0
command-line-arguments.SliceMakeCopyConst<1> STEXT size=103 args=0x18 locals=0x28 funcid=0x0 align=0x0
	0x0000 00000 (/bigdata/qiuhan/codet5/usage/goroot/test/codegen/slices.go:181)	TEXT	command-line-arguments.SliceMakeCopyConst(SB), ABIInternal, $40-24
	0x0000 00000 (/bigdata/qiuhan/codet5/usage/goroot/test/codegen/slices.go:181)	CMPQ	SP, 16(R14)
	0x0004 00004 (/bigdata/qiuhan/codet5/usage/goroot/test/codegen/slices.go:181)	PCDATA	$0, $-2
	0x0004 00004 (/bigdata/qiuhan/codet5/usage/goroot/test/codegen/slices.go:181)	JLS	66
	0x0006 00006 (/bigdata/qiuhan/codet5/usage/goroot/test/codegen/slices.go:181)	PCDATA	$0, $-1
	0x0006 00006 (/bigdata/qiuhan/codet5/usage/goroot/test/codegen/slices.go:181)	SUBQ	$40, SP
	0x000a 00010 (/bigdata/qiuhan/codet5/usage/goroot/test/codegen/slices.go:181)	MOVQ	BP, 32(SP)
	0x000f 00015 (/bigdata/qiuhan/codet5/usage/goroot/test/codegen/slices.go:181)	LEAQ	32(SP), BP
	0x0014 00020 (/bigdata/qiuhan/codet5/usage/goroot/test/codegen/slices.go:181)	MOVQ	AX, command-line-arguments.s+48(FP)
	0x0019 00025 (/bigdata/qiuhan/codet5/usage/goroot/test/codegen/slices.go:181)	FUNCDATA	$0, gclocals·wgcWObbY2HYnK2SU/U22lA==(SB)
	0x0019 00025 (/bigdata/qiuhan/codet5/usage/goroot/test/codegen/slices.go:181)	FUNCDATA	$1, gclocals·J5F+7Qw7O7ve2QcWC7DpeQ==(SB)
	0x0019 00025 (/bigdata/qiuhan/codet5/usage/goroot/test/codegen/slices.go:181)	FUNCDATA	$5, command-line-arguments.SliceMakeCopyConst.arginfo1(SB)
	0x0019 00025 (/bigdata/qiuhan/codet5/usage/goroot/test/codegen/slices.go:181)	FUNCDATA	$6, command-line-arguments.SliceMakeCopyConst.argliveinfo(SB)
	0x0019 00025 (/bigdata/qiuhan/codet5/usage/goroot/test/codegen/slices.go:181)	PCDATA	$3, $1
	0x0019 00025 (/bigdata/qiuhan/codet5/usage/goroot/test/codegen/slices.go:185)	MOVQ	BX, CX
	0x001c 00028 (/bigdata/qiuhan/codet5/usage/goroot/test/codegen/slices.go:185)	MOVQ	AX, DI
	0x001f 00031 (/bigdata/qiuhan/codet5/usage/goroot/test/codegen/slices.go:185)	LEAQ	type:int(SB), AX
	0x0026 00038 (/bigdata/qiuhan/codet5/usage/goroot/test/codegen/slices.go:185)	MOVL	$4, BX
	0x002b 00043 (/bigdata/qiuhan/codet5/usage/goroot/test/codegen/slices.go:185)	PCDATA	$1, $1
	0x002b 00043 (/bigdata/qiuhan/codet5/usage/goroot/test/codegen/slices.go:185)	CALL	runtime.makeslicecopy(SB)
	0x0030 00048 (/bigdata/qiuhan/codet5/usage/goroot/test/codegen/slices.go:187)	MOVL	$4, BX
	0x0035 00053 (/bigdata/qiuhan/codet5/usage/goroot/test/codegen/slices.go:187)	MOVQ	BX, CX
	0x0038 00056 (/bigdata/qiuhan/codet5/usage/goroot/test/codegen/slices.go:187)	MOVQ	32(SP), BP
	0x003d 00061 (/bigdata/qiuhan/codet5/usage/goroot/test/codegen/slices.go:187)	ADDQ	$40, SP
	0x0041 00065 (/bigdata/qiuhan/codet5/usage/goroot/test/codegen/slices.go:187)	RET
	0x0042 00066 (/bigdata/qiuhan/codet5/usage/goroot/test/codegen/slices.go:187)	NOP
	0x0042 00066 (/bigdata/qiuhan/codet5/usage/goroot/test/codegen/slices.go:181)	PCDATA	$1, $-1
	0x0042 00066 (/bigdata/qiuhan/codet5/usage/goroot/test/codegen/slices.go:181)	PCDATA	$0, $-2
	0x0042 00066 (/bigdata/qiuhan/codet5/usage/goroot/test/codegen/slices.go:181)	MOVQ	AX, 8(SP)
	0x0047 00071 (/bigdata/qiuhan/codet5/usage/goroot/test/codegen/slices.go:181)	MOVQ	BX, 16(SP)
	0x004c 00076 (/bigdata/qiuhan/codet5/usage/goroot/test/codegen/slices.go:181)	MOVQ	CX, 24(SP)
	0x0051 00081 (/bigdata/qiuhan/codet5/usage/goroot/test/codegen/slices.go:181)	CALL	runtime.morestack_noctxt(SB)
	0x0056 00086 (/bigdata/qiuhan/codet5/usage/goroot/test/codegen/slices.go:181)	MOVQ	8(SP), AX
	0x005b 00091 (/bigdata/qiuhan/codet5/usage/goroot/test/codegen/slices.go:181)	MOVQ	16(SP), BX
	0x0060 00096 (/bigdata/qiuhan/codet5/usage/goroot/test/codegen/slices.go:181)	MOVQ	24(SP), CX
	0x0065 00101 (/bigdata/qiuhan/codet5/usage/goroot/test/codegen/slices.go:181)	PCDATA	$0, $-1
	0x0065 00101 (/bigdata/qiuhan/codet5/usage/goroot/test/codegen/slices.go:181)	JMP	0
	0x0000 49 3b 66 10 76 3c 48 83 ec 28 48 89 6c 24 20 48  I;f.v<H..(H.l$ H
	0x0010 8d 6c 24 20 48 89 44 24 30 48 89 d9 48 89 c7 48  .l$ H.D$0H..H..H
	0x0020 8d 05 00 00 00 00 bb 04 00 00 00 e8 00 00 00 00  ................
	0x0030 bb 04 00 00 00 48 89 d9 48 8b 6c 24 20 48 83 c4  .....H..H.l$ H..
	0x0040 28 c3 48 89 44 24 08 48 89 5c 24 10 48 89 4c 24  (.H.D$.H.\$.H.L$
	0x0050 18 e8 00 00 00 00 48 8b 44 24 08 48 8b 5c 24 10  ......H.D$.H.\$.
	0x0060 48 8b 4c 24 18 eb 99                             H.L$...
	rel 34+4 t=14 type:int<0>+0
	rel 44+4 t=7 runtime.makeslicecopy<1>+0
	rel 82+4 t=7 runtime.morestack_noctxt<0>+0
command-line-arguments.SliceMakeCopyConstPtr<1> STEXT size=103 args=0x18 locals=0x28 funcid=0x0 align=0x0
	0x0000 00000 (/bigdata/qiuhan/codet5/usage/goroot/test/codegen/slices.go:190)	TEXT	command-line-arguments.SliceMakeCopyConstPtr(SB), ABIInternal, $40-24
	0x0000 00000 (/bigdata/qiuhan/codet5/usage/goroot/test/codegen/slices.go:190)	CMPQ	SP, 16(R14)
	0x0004 00004 (/bigdata/qiuhan/codet5/usage/goroot/test/codegen/slices.go:190)	PCDATA	$0, $-2
	0x0004 00004 (/bigdata/qiuhan/codet5/usage/goroot/test/codegen/slices.go:190)	JLS	66
	0x0006 00006 (/bigdata/qiuhan/codet5/usage/goroot/test/codegen/slices.go:190)	PCDATA	$0, $-1
	0x0006 00006 (/bigdata/qiuhan/codet5/usage/goroot/test/codegen/slices.go:190)	SUBQ	$40, SP
	0x000a 00010 (/bigdata/qiuhan/codet5/usage/goroot/test/codegen/slices.go:190)	MOVQ	BP, 32(SP)
	0x000f 00015 (/bigdata/qiuhan/codet5/usage/goroot/test/codegen/slices.go:190)	LEAQ	32(SP), BP
	0x0014 00020 (/bigdata/qiuhan/codet5/usage/goroot/test/codegen/slices.go:190)	MOVQ	AX, command-line-arguments.s+48(FP)
	0x0019 00025 (/bigdata/qiuhan/codet5/usage/goroot/test/codegen/slices.go:190)	FUNCDATA	$0, gclocals·wgcWObbY2HYnK2SU/U22lA==(SB)
	0x0019 00025 (/bigdata/qiuhan/codet5/usage/goroot/test/codegen/slices.go:190)	FUNCDATA	$1, gclocals·J5F+7Qw7O7ve2QcWC7DpeQ==(SB)
	0x0019 00025 (/bigdata/qiuhan/codet5/usage/goroot/test/codegen/slices.go:190)	FUNCDATA	$5, command-line-arguments.SliceMakeCopyConstPtr.arginfo1(SB)
	0x0019 00025 (/bigdata/qiuhan/codet5/usage/goroot/test/codegen/slices.go:190)	FUNCDATA	$6, command-line-arguments.SliceMakeCopyConstPtr.argliveinfo(SB)
	0x0019 00025 (/bigdata/qiuhan/codet5/usage/goroot/test/codegen/slices.go:190)	PCDATA	$3, $1
	0x0019 00025 (/bigdata/qiuhan/codet5/usage/goroot/test/codegen/slices.go:194)	MOVQ	BX, CX
	0x001c 00028 (/bigdata/qiuhan/codet5/usage/goroot/test/codegen/slices.go:194)	MOVQ	AX, DI
	0x001f 00031 (/bigdata/qiuhan/codet5/usage/goroot/test/codegen/slices.go:194)	LEAQ	type:*int(SB), AX
	0x0026 00038 (/bigdata/qiuhan/codet5/usage/goroot/test/codegen/slices.go:194)	MOVL	$4, BX
	0x002b 00043 (/bigdata/qiuhan/codet5/usage/goroot/test/codegen/slices.go:194)	PCDATA	$1, $1
	0x002b 00043 (/bigdata/qiuhan/codet5/usage/goroot/test/codegen/slices.go:194)	CALL	runtime.makeslicecopy(SB)
	0x0030 00048 (/bigdata/qiuhan/codet5/usage/goroot/test/codegen/slices.go:196)	MOVL	$4, BX
	0x0035 00053 (/bigdata/qiuhan/codet5/usage/goroot/test/codegen/slices.go:196)	MOVQ	BX, CX
	0x0038 00056 (/bigdata/qiuhan/codet5/usage/goroot/test/codegen/slices.go:196)	MOVQ	32(SP), BP
	0x003d 00061 (/bigdata/qiuhan/codet5/usage/goroot/test/codegen/slices.go:196)	ADDQ	$40, SP
	0x0041 00065 (/bigdata/qiuhan/codet5/usage/goroot/test/codegen/slices.go:196)	RET
	0x0042 00066 (/bigdata/qiuhan/codet5/usage/goroot/test/codegen/slices.go:196)	NOP
	0x0042 00066 (/bigdata/qiuhan/codet5/usage/goroot/test/codegen/slices.go:190)	PCDATA	$1, $-1
	0x0042 00066 (/bigdata/qiuhan/codet5/usage/goroot/test/codegen/slices.go:190)	PCDATA	$0, $-2
	0x0042 00066 (/bigdata/qiuhan/codet5/usage/goroot/test/codegen/slices.go:190)	MOVQ	AX, 8(SP)
	0x0047 00071 (/bigdata/qiuhan/codet5/usage/goroot/test/codegen/slices.go:190)	MOVQ	BX, 16(SP)
	0x004c 00076 (/bigdata/qiuhan/codet5/usage/goroot/test/codegen/slices.go:190)	MOVQ	CX, 24(SP)
	0x0051 00081 (/bigdata/qiuhan/codet5/usage/goroot/test/codegen/slices.go:190)	CALL	runtime.morestack_noctxt(SB)
	0x0056 00086 (/bigdata/qiuhan/codet5/usage/goroot/test/codegen/slices.go:190)	MOVQ	8(SP), AX
	0x005b 00091 (/bigdata/qiuhan/codet5/usage/goroot/test/codegen/slices.go:190)	MOVQ	16(SP), BX
	0x0060 00096 (/bigdata/qiuhan/codet5/usage/goroot/test/codegen/slices.go:190)	MOVQ	24(SP), CX
	0x0065 00101 (/bigdata/qiuhan/codet5/usage/goroot/test/codegen/slices.go:190)	PCDATA	$0, $-1
	0x0065 00101 (/bigdata/qiuhan/codet5/usage/goroot/test/codegen/slices.go:190)	JMP	0
	0x0000 49 3b 66 10 76 3c 48 83 ec 28 48 89 6c 24 20 48  I;f.v<H..(H.l$ H
	0x0010 8d 6c 24 20 48 89 44 24 30 48 89 d9 48 89 c7 48  .l$ H.D$0H..H..H
	0x0020 8d 05 00 00 00 00 bb 04 00 00 00 e8 00 00 00 00  ................
	0x0030 bb 04 00 00 00 48 89 d9 48 8b 6c 24 20 48 83 c4  .....H..H.l$ H..
	0x0040 28 c3 48 89 44 24 08 48 89 5c 24 10 48 89 4c 24  (.H.D$.H.\$.H.L$
	0x0050 18 e8 00 00 00 00 48 8b 44 24 08 48 8b 5c 24 10  ......H.D$.H.\$.
	0x0060 48 8b 4c 24 18 eb 99                             H.L$...
	rel 34+4 t=14 type:*int<0>+0
	rel 44+4 t=7 runtime.makeslicecopy<1>+0
	rel 82+4 t=7 runtime.morestack_noctxt<0>+0
command-line-arguments.SliceMakeCopyNoOptNoDeref<1> STEXT size=187 args=0x18 locals=0x48 funcid=0x0 align=0x0
	0x0000 00000 (/bigdata/qiuhan/codet5/usage/goroot/test/codegen/slices.go:199)	TEXT	command-line-arguments.SliceMakeCopyNoOptNoDeref(SB), ABIInternal, $72-24
	0x0000 00000 (/bigdata/qiuhan/codet5/usage/goroot/test/codegen/slices.go:199)	CMPQ	SP, 16(R14)
	0x0004 00004 (/bigdata/qiuhan/codet5/usage/goroot/test/codegen/slices.go:199)	PCDATA	$0, $-2
	0x0004 00004 (/bigdata/qiuhan/codet5/usage/goroot/test/codegen/slices.go:199)	JLS	147
	0x000a 00010 (/bigdata/qiuhan/codet5/usage/goroot/test/codegen/slices.go:199)	PCDATA	$0, $-1
	0x000a 00010 (/bigdata/qiuhan/codet5/usage/goroot/test/codegen/slices.go:199)	SUBQ	$72, SP
	0x000e 00014 (/bigdata/qiuhan/codet5/usage/goroot/test/codegen/slices.go:199)	MOVQ	BP, 64(SP)
	0x0013 00019 (/bigdata/qiuhan/codet5/usage/goroot/test/codegen/slices.go:199)	LEAQ	64(SP), BP
	0x0018 00024 (/bigdata/qiuhan/codet5/usage/goroot/test/codegen/slices.go:199)	FUNCDATA	$0, gclocals·bb+LSCCik3x40Cn8eFqL9w==(SB)
	0x0018 00024 (/bigdata/qiuhan/codet5/usage/goroot/test/codegen/slices.go:199)	FUNCDATA	$1, gclocals·7RWRkQP0PDegNGEQbN7Bcw==(SB)
	0x0018 00024 (/bigdata/qiuhan/codet5/usage/goroot/test/codegen/slices.go:199)	FUNCDATA	$2, command-line-arguments.SliceMakeCopyNoOptNoDeref.stkobj(SB)
	0x0018 00024 (/bigdata/qiuhan/codet5/usage/goroot/test/codegen/slices.go:199)	FUNCDATA	$5, command-line-arguments.SliceMakeCopyNoOptNoDeref.arginfo1(SB)
	0x0018 00024 (/bigdata/qiuhan/codet5/usage/goroot/test/codegen/slices.go:199)	FUNCDATA	$6, command-line-arguments.SliceMakeCopyNoOptNoDeref.argliveinfo(SB)
	0x0018 00024 (/bigdata/qiuhan/codet5/usage/goroot/test/codegen/slices.go:199)	PCDATA	$3, $1
	0x0018 00024 (/bigdata/qiuhan/codet5/usage/goroot/test/codegen/slices.go:206)	MOVQ	AX, command-line-arguments.s+80(SP)
	0x001d 00029 (/bigdata/qiuhan/codet5/usage/goroot/test/codegen/slices.go:206)	MOVQ	BX, command-line-arguments.s+88(SP)
	0x0022 00034 (/bigdata/qiuhan/codet5/usage/goroot/test/codegen/slices.go:206)	PCDATA	$3, $2
	0x0022 00034 (/bigdata/qiuhan/codet5/usage/goroot/test/codegen/slices.go:203)	MOVQ	$0, command-line-arguments..autotmp_4+40(SP)
	0x002b 00043 (/bigdata/qiuhan/codet5/usage/goroot/test/codegen/slices.go:200)	MOVUPS	X15, command-line-arguments..autotmp_4+48(SP)
	0x0031 00049 (/bigdata/qiuhan/codet5/usage/goroot/test/codegen/slices.go:203)	MOVL	$4, CX
	0x0036 00054 (/bigdata/qiuhan/codet5/usage/goroot/test/codegen/slices.go:203)	LEAQ	type:*int(SB), AX
	0x003d 00061 (/bigdata/qiuhan/codet5/usage/goroot/test/codegen/slices.go:203)	MOVQ	CX, BX
	0x0040 00064 (/bigdata/qiuhan/codet5/usage/goroot/test/codegen/slices.go:203)	PCDATA	$1, $1
	0x0040 00064 (/bigdata/qiuhan/codet5/usage/goroot/test/codegen/slices.go:203)	CALL	runtime.makeslice(SB)
	0x0045 00069 (/bigdata/qiuhan/codet5/usage/goroot/test/codegen/slices.go:203)	MOVQ	AX, command-line-arguments..autotmp_4+40(SP)
	0x004a 00074 (/bigdata/qiuhan/codet5/usage/goroot/test/codegen/slices.go:203)	MOVQ	$4, command-line-arguments..autotmp_4+48(SP)
	0x0053 00083 (/bigdata/qiuhan/codet5/usage/goroot/test/codegen/slices.go:203)	MOVQ	$4, command-line-arguments..autotmp_4+56(SP)
	0x005c 00092 (/bigdata/qiuhan/codet5/usage/goroot/test/codegen/slices.go:206)	MOVQ	AX, BX
	0x005f 00095 (/bigdata/qiuhan/codet5/usage/goroot/test/codegen/slices.go:206)	MOVL	$4, CX
	0x0064 00100 (/bigdata/qiuhan/codet5/usage/goroot/test/codegen/slices.go:206)	MOVQ	command-line-arguments.s+80(SP), DI
	0x0069 00105 (/bigdata/qiuhan/codet5/usage/goroot/test/codegen/slices.go:206)	MOVQ	command-line-arguments.s+88(SP), SI
	0x006e 00110 (/bigdata/qiuhan/codet5/usage/goroot/test/codegen/slices.go:206)	LEAQ	type:*int(SB), AX
	0x0075 00117 (/bigdata/qiuhan/codet5/usage/goroot/test/codegen/slices.go:206)	PCDATA	$1, $2
	0x0075 00117 (/bigdata/qiuhan/codet5/usage/goroot/test/codegen/slices.go:206)	CALL	runtime.typedslicecopy(SB)
	0x007a 00122 (/bigdata/qiuhan/codet5/usage/goroot/test/codegen/slices.go:207)	MOVQ	command-line-arguments..autotmp_4+40(SP), AX
	0x007f 00127 (/bigdata/qiuhan/codet5/usage/goroot/test/codegen/slices.go:207)	MOVQ	command-line-arguments..autotmp_4+48(SP), BX
	0x0084 00132 (/bigdata/qiuhan/codet5/usage/goroot/test/codegen/slices.go:207)	MOVQ	command-line-arguments..autotmp_4+56(SP), CX
	0x0089 00137 (/bigdata/qiuhan/codet5/usage/goroot/test/codegen/slices.go:207)	MOVQ	64(SP), BP
	0x008e 00142 (/bigdata/qiuhan/codet5/usage/goroot/test/codegen/slices.go:207)	ADDQ	$72, SP
	0x0092 00146 (/bigdata/qiuhan/codet5/usage/goroot/test/codegen/slices.go:207)	RET
	0x0093 00147 (/bigdata/qiuhan/codet5/usage/goroot/test/codegen/slices.go:207)	NOP
	0x0093 00147 (/bigdata/qiuhan/codet5/usage/goroot/test/codegen/slices.go:199)	PCDATA	$1, $-1
	0x0093 00147 (/bigdata/qiuhan/codet5/usage/goroot/test/codegen/slices.go:199)	PCDATA	$0, $-2
	0x0093 00147 (/bigdata/qiuhan/codet5/usage/goroot/test/codegen/slices.go:199)	MOVQ	AX, 8(SP)
	0x0098 00152 (/bigdata/qiuhan/codet5/usage/goroot/test/codegen/slices.go:199)	MOVQ	BX, 16(SP)
	0x009d 00157 (/bigdata/qiuhan/codet5/usage/goroot/test/codegen/slices.go:199)	MOVQ	CX, 24(SP)
	0x00a2 00162 (/bigdata/qiuhan/codet5/usage/goroot/test/codegen/slices.go:199)	CALL	runtime.morestack_noctxt(SB)
	0x00a7 00167 (/bigdata/qiuhan/codet5/usage/goroot/test/codegen/slices.go:199)	MOVQ	8(SP), AX
	0x00ac 00172 (/bigdata/qiuhan/codet5/usage/goroot/test/codegen/slices.go:199)	MOVQ	16(SP), BX
	0x00b1 00177 (/bigdata/qiuhan/codet5/usage/goroot/test/codegen/slices.go:199)	MOVQ	24(SP), CX
	0x00b6 00182 (/bigdata/qiuhan/codet5/usage/goroot/test/codegen/slices.go:199)	PCDATA	$0, $-1
	0x00b6 00182 (/bigdata/qiuhan/codet5/usage/goroot/test/codegen/slices.go:199)	JMP	0
	0x0000 49 3b 66 10 0f 86 89 00 00 00 48 83 ec 48 48 89  I;f.......H..HH.
	0x0010 6c 24 40 48 8d 6c 24 40 48 89 44 24 50 48 89 5c  l$@H.l$@H.D$PH.\
	0x0020 24 58 48 c7 44 24 28 00 00 00 00 44 0f 11 7c 24  $XH.D$(....D..|$
	0x0030 30 b9 04 00 00 00 48 8d 05 00 00 00 00 48 89 cb  0.....H......H..
	0x0040 e8 00 00 00 00 48 89 44 24 28 48 c7 44 24 30 04  .....H.D$(H.D$0.
	0x0050 00 00 00 48 c7 44 24 38 04 00 00 00 48 89 c3 b9  ...H.D$8....H...
	0x0060 04 00 00 00 48 8b 7c 24 50 48 8b 74 24 58 48 8d  ....H.|$PH.t$XH.
	0x0070 05 00 00 00 00 e8 00 00 00 00 48 8b 44 24 28 48  ..........H.D$(H
	0x0080 8b 5c 24 30 48 8b 4c 24 38 48 8b 6c 24 40 48 83  .\$0H.L$8H.l$@H.
	0x0090 c4 48 c3 48 89 44 24 08 48 89 5c 24 10 48 89 4c  .H.H.D$.H.\$.H.L
	0x00a0 24 18 e8 00 00 00 00 48 8b 44 24 08 48 8b 5c 24  $......H.D$.H.\$
	0x00b0 10 48 8b 4c 24 18 e9 45 ff ff ff                 .H.L$..E...
	rel 57+4 t=14 type:*int<0>+0
	rel 65+4 t=7 runtime.makeslice<1>+0
	rel 113+4 t=14 type:*int<0>+0
	rel 118+4 t=7 runtime.typedslicecopy<1>+0
	rel 163+4 t=7 runtime.morestack_noctxt<0>+0
command-line-arguments.SliceMakeCopyNoOptNoVar<1> STEXT size=187 args=0x18 locals=0x48 funcid=0x0 align=0x0
	0x0000 00000 (/bigdata/qiuhan/codet5/usage/goroot/test/codegen/slices.go:210)	TEXT	command-line-arguments.SliceMakeCopyNoOptNoVar(SB), ABIInternal, $72-24
	0x0000 00000 (/bigdata/qiuhan/codet5/usage/goroot/test/codegen/slices.go:210)	CMPQ	SP, 16(R14)
	0x0004 00004 (/bigdata/qiuhan/codet5/usage/goroot/test/codegen/slices.go:210)	PCDATA	$0, $-2
	0x0004 00004 (/bigdata/qiuhan/codet5/usage/goroot/test/codegen/slices.go:210)	JLS	147
	0x000a 00010 (/bigdata/qiuhan/codet5/usage/goroot/test/codegen/slices.go:210)	PCDATA	$0, $-1
	0x000a 00010 (/bigdata/qiuhan/codet5/usage/goroot/test/codegen/slices.go:210)	SUBQ	$72, SP
	0x000e 00014 (/bigdata/qiuhan/codet5/usage/goroot/test/codegen/slices.go:210)	MOVQ	BP, 64(SP)
	0x0013 00019 (/bigdata/qiuhan/codet5/usage/goroot/test/codegen/slices.go:210)	LEAQ	64(SP), BP
	0x0018 00024 (/bigdata/qiuhan/codet5/usage/goroot/test/codegen/slices.go:210)	FUNCDATA	$0, gclocals·bb+LSCCik3x40Cn8eFqL9w==(SB)
	0x0018 00024 (/bigdata/qiuhan/codet5/usage/goroot/test/codegen/slices.go:210)	FUNCDATA	$1, gclocals·7RWRkQP0PDegNGEQbN7Bcw==(SB)
	0x0018 00024 (/bigdata/qiuhan/codet5/usage/goroot/test/codegen/slices.go:210)	FUNCDATA	$2, command-line-arguments.SliceMakeCopyNoOptNoVar.stkobj(SB)
	0x0018 00024 (/bigdata/qiuhan/codet5/usage/goroot/test/codegen/slices.go:210)	FUNCDATA	$5, command-line-arguments.SliceMakeCopyNoOptNoVar.arginfo1(SB)
	0x0018 00024 (/bigdata/qiuhan/codet5/usage/goroot/test/codegen/slices.go:210)	FUNCDATA	$6, command-line-arguments.SliceMakeCopyNoOptNoVar.argliveinfo(SB)
	0x0018 00024 (/bigdata/qiuhan/codet5/usage/goroot/test/codegen/slices.go:210)	PCDATA	$3, $1
	0x0018 00024 (/bigdata/qiuhan/codet5/usage/goroot/test/codegen/slices.go:217)	MOVQ	AX, command-line-arguments.s+80(SP)
	0x001d 00029 (/bigdata/qiuhan/codet5/usage/goroot/test/codegen/slices.go:217)	MOVQ	BX, command-line-arguments.s+88(SP)
	0x0022 00034 (/bigdata/qiuhan/codet5/usage/goroot/test/codegen/slices.go:217)	PCDATA	$3, $2
	0x0022 00034 (/bigdata/qiuhan/codet5/usage/goroot/test/codegen/slices.go:214)	MOVQ	$0, command-line-arguments..autotmp_4+40(SP)
	0x002b 00043 (/bigdata/qiuhan/codet5/usage/goroot/test/codegen/slices.go:211)	MOVUPS	X15, command-line-arguments..autotmp_4+48(SP)
	0x0031 00049 (/bigdata/qiuhan/codet5/usage/goroot/test/codegen/slices.go:214)	MOVL	$4, CX
	0x0036 00054 (/bigdata/qiuhan/codet5/usage/goroot/test/codegen/slices.go:214)	LEAQ	type:*int(SB), AX
	0x003d 00061 (/bigdata/qiuhan/codet5/usage/goroot/test/codegen/slices.go:214)	MOVQ	CX, BX
	0x0040 00064 (/bigdata/qiuhan/codet5/usage/goroot/test/codegen/slices.go:214)	PCDATA	$1, $1
	0x0040 00064 (/bigdata/qiuhan/codet5/usage/goroot/test/codegen/slices.go:214)	CALL	runtime.makeslice(SB)
	0x0045 00069 (/bigdata/qiuhan/codet5/usage/goroot/test/codegen/slices.go:214)	MOVQ	$4, command-line-arguments..autotmp_4+48(SP)
	0x004e 00078 (/bigdata/qiuhan/codet5/usage/goroot/test/codegen/slices.go:214)	MOVQ	$4, command-line-arguments..autotmp_4+56(SP)
	0x0057 00087 (/bigdata/qiuhan/codet5/usage/goroot/test/codegen/slices.go:214)	MOVQ	AX, command-line-arguments..autotmp_4+40(SP)
	0x005c 00092 (/bigdata/qiuhan/codet5/usage/goroot/test/codegen/slices.go:217)	MOVQ	AX, BX
	0x005f 00095 (/bigdata/qiuhan/codet5/usage/goroot/test/codegen/slices.go:217)	MOVL	$4, CX
	0x0064 00100 (/bigdata/qiuhan/codet5/usage/goroot/test/codegen/slices.go:217)	MOVQ	command-line-arguments.s+80(SP), DI
	0x0069 00105 (/bigdata/qiuhan/codet5/usage/goroot/test/codegen/slices.go:217)	MOVQ	command-line-arguments.s+88(SP), SI
	0x006e 00110 (/bigdata/qiuhan/codet5/usage/goroot/test/codegen/slices.go:217)	LEAQ	type:*int(SB), AX
	0x0075 00117 (/bigdata/qiuhan/codet5/usage/goroot/test/codegen/slices.go:217)	PCDATA	$1, $2
	0x0075 00117 (/bigdata/qiuhan/codet5/usage/goroot/test/codegen/slices.go:217)	CALL	runtime.typedslicecopy(SB)
	0x007a 00122 (/bigdata/qiuhan/codet5/usage/goroot/test/codegen/slices.go:218)	MOVQ	command-line-arguments..autotmp_4+40(SP), AX
	0x007f 00127 (/bigdata/qiuhan/codet5/usage/goroot/test/codegen/slices.go:218)	MOVQ	command-line-arguments..autotmp_4+48(SP), BX
	0x0084 00132 (/bigdata/qiuhan/codet5/usage/goroot/test/codegen/slices.go:218)	MOVQ	command-line-arguments..autotmp_4+56(SP), CX
	0x0089 00137 (/bigdata/qiuhan/codet5/usage/goroot/test/codegen/slices.go:218)	MOVQ	64(SP), BP
	0x008e 00142 (/bigdata/qiuhan/codet5/usage/goroot/test/codegen/slices.go:218)	ADDQ	$72, SP
	0x0092 00146 (/bigdata/qiuhan/codet5/usage/goroot/test/codegen/slices.go:218)	RET
	0x0093 00147 (/bigdata/qiuhan/codet5/usage/goroot/test/codegen/slices.go:218)	NOP
	0x0093 00147 (/bigdata/qiuhan/codet5/usage/goroot/test/codegen/slices.go:210)	PCDATA	$1, $-1
	0x0093 00147 (/bigdata/qiuhan/codet5/usage/goroot/test/codegen/slices.go:210)	PCDATA	$0, $-2
	0x0093 00147 (/bigdata/qiuhan/codet5/usage/goroot/test/codegen/slices.go:210)	MOVQ	AX, 8(SP)
	0x0098 00152 (/bigdata/qiuhan/codet5/usage/goroot/test/codegen/slices.go:210)	MOVQ	BX, 16(SP)
	0x009d 00157 (/bigdata/qiuhan/codet5/usage/goroot/test/codegen/slices.go:210)	MOVQ	CX, 24(SP)
	0x00a2 00162 (/bigdata/qiuhan/codet5/usage/goroot/test/codegen/slices.go:210)	CALL	runtime.morestack_noctxt(SB)
	0x00a7 00167 (/bigdata/qiuhan/codet5/usage/goroot/test/codegen/slices.go:210)	MOVQ	8(SP), AX
	0x00ac 00172 (/bigdata/qiuhan/codet5/usage/goroot/test/codegen/slices.go:210)	MOVQ	16(SP), BX
	0x00b1 00177 (/bigdata/qiuhan/codet5/usage/goroot/test/codegen/slices.go:210)	MOVQ	24(SP), CX
	0x00b6 00182 (/bigdata/qiuhan/codet5/usage/goroot/test/codegen/slices.go:210)	PCDATA	$0, $-1
	0x00b6 00182 (/bigdata/qiuhan/codet5/usage/goroot/test/codegen/slices.go:210)	JMP	0
	0x0000 49 3b 66 10 0f 86 89 00 00 00 48 83 ec 48 48 89  I;f.......H..HH.
	0x0010 6c 24 40 48 8d 6c 24 40 48 89 44 24 50 48 89 5c  l$@H.l$@H.D$PH.\
	0x0020 24 58 48 c7 44 24 28 00 00 00 00 44 0f 11 7c 24  $XH.D$(....D..|$
	0x0030 30 b9 04 00 00 00 48 8d 05 00 00 00 00 48 89 cb  0.....H......H..
	0x0040 e8 00 00 00 00 48 c7 44 24 30 04 00 00 00 48 c7  .....H.D$0....H.
	0x0050 44 24 38 04 00 00 00 48 89 44 24 28 48 89 c3 b9  D$8....H.D$(H...
	0x0060 04 00 00 00 48 8b 7c 24 50 48 8b 74 24 58 48 8d  ....H.|$PH.t$XH.
	0x0070 05 00 00 00 00 e8 00 00 00 00 48 8b 44 24 28 48  ..........H.D$(H
	0x0080 8b 5c 24 30 48 8b 4c 24 38 48 8b 6c 24 40 48 83  .\$0H.L$8H.l$@H.
	0x0090 c4 48 c3 48 89 44 24 08 48 89 5c 24 10 48 89 4c  .H.H.D$.H.\$.H.L
	0x00a0 24 18 e8 00 00 00 00 48 8b 44 24 08 48 8b 5c 24  $......H.D$.H.\$
	0x00b0 10 48 8b 4c 24 18 e9 45 ff ff ff                 .H.L$..E...
	rel 57+4 t=14 type:*int<0>+0
	rel 65+4 t=7 runtime.makeslice<1>+0
	rel 113+4 t=14 type:*int<0>+0
	rel 118+4 t=7 runtime.typedslicecopy<1>+0
	rel 163+4 t=7 runtime.morestack_noctxt<0>+0
command-line-arguments.SliceMakeCopyNoOptBlank<1> STEXT size=102 args=0x18 locals=0x30 funcid=0x0 align=0x0
	0x0000 00000 (/bigdata/qiuhan/codet5/usage/goroot/test/codegen/slices.go:221)	TEXT	command-line-arguments.SliceMakeCopyNoOptBlank(SB), ABIInternal, $48-24
	0x0000 00000 (/bigdata/qiuhan/codet5/usage/goroot/test/codegen/slices.go:221)	CMPQ	SP, 16(R14)
	0x0004 00004 (/bigdata/qiuhan/codet5/usage/goroot/test/codegen/slices.go:221)	PCDATA	$0, $-2
	0x0004 00004 (/bigdata/qiuhan/codet5/usage/goroot/test/codegen/slices.go:221)	JLS	65
	0x0006 00006 (/bigdata/qiuhan/codet5/usage/goroot/test/codegen/slices.go:221)	PCDATA	$0, $-1
	0x0006 00006 (/bigdata/qiuhan/codet5/usage/goroot/test/codegen/slices.go:221)	SUBQ	$48, SP
	0x000a 00010 (/bigdata/qiuhan/codet5/usage/goroot/test/codegen/slices.go:221)	MOVQ	BP, 40(SP)
	0x000f 00015 (/bigdata/qiuhan/codet5/usage/goroot/test/codegen/slices.go:221)	LEAQ	40(SP), BP
	0x0014 00020 (/bigdata/qiuhan/codet5/usage/goroot/test/codegen/slices.go:221)	MOVQ	AX, command-line-arguments.s+56(FP)
	0x0019 00025 (/bigdata/qiuhan/codet5/usage/goroot/test/codegen/slices.go:221)	FUNCDATA	$0, gclocals·wgcWObbY2HYnK2SU/U22lA==(SB)
	0x0019 00025 (/bigdata/qiuhan/codet5/usage/goroot/test/codegen/slices.go:221)	FUNCDATA	$1, gclocals·J5F+7Qw7O7ve2QcWC7DpeQ==(SB)
	0x0019 00025 (/bigdata/qiuhan/codet5/usage/goroot/test/codegen/slices.go:221)	FUNCDATA	$5, command-line-arguments.SliceMakeCopyNoOptBlank.arginfo1(SB)
	0x0019 00025 (/bigdata/qiuhan/codet5/usage/goroot/test/codegen/slices.go:221)	FUNCDATA	$6, command-line-arguments.SliceMakeCopyNoOptBlank.argliveinfo(SB)
	0x0019 00025 (/bigdata/qiuhan/codet5/usage/goroot/test/codegen/slices.go:221)	PCDATA	$3, $1
	0x0019 00025 (/bigdata/qiuhan/codet5/usage/goroot/test/codegen/slices.go:227)	XORL	CX, CX
	0x001b 00027 (/bigdata/qiuhan/codet5/usage/goroot/test/codegen/slices.go:227)	MOVQ	AX, DI
	0x001e 00030 (/bigdata/qiuhan/codet5/usage/goroot/test/codegen/slices.go:227)	MOVQ	BX, SI
	0x0021 00033 (/bigdata/qiuhan/codet5/usage/goroot/test/codegen/slices.go:227)	LEAQ	type:*int(SB), AX
	0x0028 00040 (/bigdata/qiuhan/codet5/usage/goroot/test/codegen/slices.go:227)	XORL	BX, BX
	0x002a 00042 (/bigdata/qiuhan/codet5/usage/goroot/test/codegen/slices.go:227)	PCDATA	$1, $1
	0x002a 00042 (/bigdata/qiuhan/codet5/usage/goroot/test/codegen/slices.go:227)	CALL	runtime.typedslicecopy(SB)
	0x002f 00047 (/bigdata/qiuhan/codet5/usage/goroot/test/codegen/slices.go:228)	XORL	AX, AX
	0x0031 00049 (/bigdata/qiuhan/codet5/usage/goroot/test/codegen/slices.go:228)	XORL	BX, BX
	0x0033 00051 (/bigdata/qiuhan/codet5/usage/goroot/test/codegen/slices.go:228)	MOVQ	BX, CX
	0x0036 00054 (/bigdata/qiuhan/codet5/usage/goroot/test/codegen/slices.go:228)	MOVQ	40(SP), BP
	0x003b 00059 (/bigdata/qiuhan/codet5/usage/goroot/test/codegen/slices.go:228)	ADDQ	$48, SP
	0x003f 00063 (/bigdata/qiuhan/codet5/usage/goroot/test/codegen/slices.go:228)	NOP
	0x0040 00064 (/bigdata/qiuhan/codet5/usage/goroot/test/codegen/slices.go:228)	RET
	0x0041 00065 (/bigdata/qiuhan/codet5/usage/goroot/test/codegen/slices.go:228)	NOP
	0x0041 00065 (/bigdata/qiuhan/codet5/usage/goroot/test/codegen/slices.go:221)	PCDATA	$1, $-1
	0x0041 00065 (/bigdata/qiuhan/codet5/usage/goroot/test/codegen/slices.go:221)	PCDATA	$0, $-2
	0x0041 00065 (/bigdata/qiuhan/codet5/usage/goroot/test/codegen/slices.go:221)	MOVQ	AX, 8(SP)
	0x0046 00070 (/bigdata/qiuhan/codet5/usage/goroot/test/codegen/slices.go:221)	MOVQ	BX, 16(SP)
	0x004b 00075 (/bigdata/qiuhan/codet5/usage/goroot/test/codegen/slices.go:221)	MOVQ	CX, 24(SP)
	0x0050 00080 (/bigdata/qiuhan/codet5/usage/goroot/test/codegen/slices.go:221)	CALL	runtime.morestack_noctxt(SB)
	0x0055 00085 (/bigdata/qiuhan/codet5/usage/goroot/test/codegen/slices.go:221)	MOVQ	8(SP), AX
	0x005a 00090 (/bigdata/qiuhan/codet5/usage/goroot/test/codegen/slices.go:221)	MOVQ	16(SP), BX
	0x005f 00095 (/bigdata/qiuhan/codet5/usage/goroot/test/codegen/slices.go:221)	MOVQ	24(SP), CX
	0x0064 00100 (/bigdata/qiuhan/codet5/usage/goroot/test/codegen/slices.go:221)	PCDATA	$0, $-1
	0x0064 00100 (/bigdata/qiuhan/codet5/usage/goroot/test/codegen/slices.go:221)	JMP	0
	0x0000 49 3b 66 10 76 3b 48 83 ec 30 48 89 6c 24 28 48  I;f.v;H..0H.l$(H
	0x0010 8d 6c 24 28 48 89 44 24 38 31 c9 48 89 c7 48 89  .l$(H.D$81.H..H.
	0x0020 de 48 8d 05 00 00 00 00 31 db e8 00 00 00 00 31  .H......1......1
	0x0030 c0 31 db 48 89 d9 48 8b 6c 24 28 48 83 c4 30 90  .1.H..H.l$(H..0.
	0x0040 c3 48 89 44 24 08 48 89 5c 24 10 48 89 4c 24 18  .H.D$.H.\$.H.L$.
	0x0050 e8 00 00 00 00 48 8b 44 24 08 48 8b 5c 24 10 48  .....H.D$.H.\$.H
	0x0060 8b 4c 24 18 eb 9a                                .L$...
	rel 36+4 t=14 type:*int<0>+0
	rel 43+4 t=7 runtime.typedslicecopy<1>+0
	rel 81+4 t=7 runtime.morestack_noctxt<0>+0
command-line-arguments.SliceMakeCopyNoOptNoMake<1> STEXT size=102 args=0x18 locals=0x30 funcid=0x0 align=0x0
	0x0000 00000 (/bigdata/qiuhan/codet5/usage/goroot/test/codegen/slices.go:231)	TEXT	command-line-arguments.SliceMakeCopyNoOptNoMake(SB), ABIInternal, $48-24
	0x0000 00000 (/bigdata/qiuhan/codet5/usage/goroot/test/codegen/slices.go:231)	CMPQ	SP, 16(R14)
	0x0004 00004 (/bigdata/qiuhan/codet5/usage/goroot/test/codegen/slices.go:231)	PCDATA	$0, $-2
	0x0004 00004 (/bigdata/qiuhan/codet5/usage/goroot/test/codegen/slices.go:231)	JLS	65
	0x0006 00006 (/bigdata/qiuhan/codet5/usage/goroot/test/codegen/slices.go:231)	PCDATA	$0, $-1
	0x0006 00006 (/bigdata/qiuhan/codet5/usage/goroot/test/codegen/slices.go:231)	SUBQ	$48, SP
	0x000a 00010 (/bigdata/qiuhan/codet5/usage/goroot/test/codegen/slices.go:231)	MOVQ	BP, 40(SP)
	0x000f 00015 (/bigdata/qiuhan/codet5/usage/goroot/test/codegen/slices.go:231)	LEAQ	40(SP), BP
	0x0014 00020 (/bigdata/qiuhan/codet5/usage/goroot/test/codegen/slices.go:231)	MOVQ	AX, command-line-arguments.s+56(FP)
	0x0019 00025 (/bigdata/qiuhan/codet5/usage/goroot/test/codegen/slices.go:231)	FUNCDATA	$0, gclocals·wgcWObbY2HYnK2SU/U22lA==(SB)
	0x0019 00025 (/bigdata/qiuhan/codet5/usage/goroot/test/codegen/slices.go:231)	FUNCDATA	$1, gclocals·J5F+7Qw7O7ve2QcWC7DpeQ==(SB)
	0x0019 00025 (/bigdata/qiuhan/codet5/usage/goroot/test/codegen/slices.go:231)	FUNCDATA	$5, command-line-arguments.SliceMakeCopyNoOptNoMake.arginfo1(SB)
	0x0019 00025 (/bigdata/qiuhan/codet5/usage/goroot/test/codegen/slices.go:231)	FUNCDATA	$6, command-line-arguments.SliceMakeCopyNoOptNoMake.argliveinfo(SB)
	0x0019 00025 (/bigdata/qiuhan/codet5/usage/goroot/test/codegen/slices.go:231)	PCDATA	$3, $1
	0x0019 00025 (/bigdata/qiuhan/codet5/usage/goroot/test/codegen/slices.go:237)	XORL	CX, CX
	0x001b 00027 (/bigdata/qiuhan/codet5/usage/goroot/test/codegen/slices.go:237)	MOVQ	AX, DI
	0x001e 00030 (/bigdata/qiuhan/codet5/usage/goroot/test/codegen/slices.go:237)	MOVQ	BX, SI
	0x0021 00033 (/bigdata/qiuhan/codet5/usage/goroot/test/codegen/slices.go:237)	LEAQ	type:*int(SB), AX
	0x0028 00040 (/bigdata/qiuhan/codet5/usage/goroot/test/codegen/slices.go:237)	XORL	BX, BX
	0x002a 00042 (/bigdata/qiuhan/codet5/usage/goroot/test/codegen/slices.go:237)	PCDATA	$1, $1
	0x002a 00042 (/bigdata/qiuhan/codet5/usage/goroot/test/codegen/slices.go:237)	CALL	runtime.typedslicecopy(SB)
	0x002f 00047 (/bigdata/qiuhan/codet5/usage/goroot/test/codegen/slices.go:238)	XORL	AX, AX
	0x0031 00049 (/bigdata/qiuhan/codet5/usage/goroot/test/codegen/slices.go:238)	XORL	BX, BX
	0x0033 00051 (/bigdata/qiuhan/codet5/usage/goroot/test/codegen/slices.go:238)	MOVQ	BX, CX
	0x0036 00054 (/bigdata/qiuhan/codet5/usage/goroot/test/codegen/slices.go:238)	MOVQ	40(SP), BP
	0x003b 00059 (/bigdata/qiuhan/codet5/usage/goroot/test/codegen/slices.go:238)	ADDQ	$48, SP
	0x003f 00063 (/bigdata/qiuhan/codet5/usage/goroot/test/codegen/slices.go:238)	NOP
	0x0040 00064 (/bigdata/qiuhan/codet5/usage/goroot/test/codegen/slices.go:238)	RET
	0x0041 00065 (/bigdata/qiuhan/codet5/usage/goroot/test/codegen/slices.go:238)	NOP
	0x0041 00065 (/bigdata/qiuhan/codet5/usage/goroot/test/codegen/slices.go:231)	PCDATA	$1, $-1
	0x0041 00065 (/bigdata/qiuhan/codet5/usage/goroot/test/codegen/slices.go:231)	PCDATA	$0, $-2
	0x0041 00065 (/bigdata/qiuhan/codet5/usage/goroot/test/codegen/slices.go:231)	MOVQ	AX, 8(SP)
	0x0046 00070 (/bigdata/qiuhan/codet5/usage/goroot/test/codegen/slices.go:231)	MOVQ	BX, 16(SP)
	0x004b 00075 (/bigdata/qiuhan/codet5/usage/goroot/test/codegen/slices.go:231)	MOVQ	CX, 24(SP)
	0x0050 00080 (/bigdata/qiuhan/codet5/usage/goroot/test/codegen/slices.go:231)	CALL	runtime.morestack_noctxt(SB)
	0x0055 00085 (/bigdata/qiuhan/codet5/usage/goroot/test/codegen/slices.go:231)	MOVQ	8(SP), AX
	0x005a 00090 (/bigdata/qiuhan/codet5/usage/goroot/test/codegen/slices.go:231)	MOVQ	16(SP), BX
	0x005f 00095 (/bigdata/qiuhan/codet5/usage/goroot/test/codegen/slices.go:231)	MOVQ	24(SP), CX
	0x0064 00100 (/bigdata/qiuhan/codet5/usage/goroot/test/codegen/slices.go:231)	PCDATA	$0, $-1
	0x0064 00100 (/bigdata/qiuhan/codet5/usage/goroot/test/codegen/slices.go:231)	JMP	0
	0x0000 49 3b 66 10 76 3b 48 83 ec 30 48 89 6c 24 28 48  I;f.v;H..0H.l$(H
	0x0010 8d 6c 24 28 48 89 44 24 38 31 c9 48 89 c7 48 89  .l$(H.D$81.H..H.
	0x0020 de 48 8d 05 00 00 00 00 31 db e8 00 00 00 00 31  .H......1......1
	0x0030 c0 31 db 48 89 d9 48 8b 6c 24 28 48 83 c4 30 90  .1.H..H.l$(H..0.
	0x0040 c3 48 89 44 24 08 48 89 5c 24 10 48 89 4c 24 18  .H.D$.H.\$.H.L$.
	0x0050 e8 00 00 00 00 48 8b 44 24 08 48 8b 5c 24 10 48  .....H.D$.H.\$.H
	0x0060 8b 4c 24 18 eb 9a                                .L$...
	rel 36+4 t=14 type:*int<0>+0
	rel 43+4 t=7 runtime.typedslicecopy<1>+0
	rel 81+4 t=7 runtime.morestack_noctxt<0>+0
command-line-arguments.SliceMakeCopyNoOptNoHeapAlloc<1> STEXT size=121 args=0x18 locals=0x50 funcid=0x0 align=0x0
	0x0000 00000 (/bigdata/qiuhan/codet5/usage/goroot/test/codegen/slices.go:241)	TEXT	command-line-arguments.SliceMakeCopyNoOptNoHeapAlloc(SB), ABIInternal, $80-24
	0x0000 00000 (/bigdata/qiuhan/codet5/usage/goroot/test/codegen/slices.go:241)	CMPQ	SP, 16(R14)
	0x0004 00004 (/bigdata/qiuhan/codet5/usage/goroot/test/codegen/slices.go:241)	PCDATA	$0, $-2
	0x0004 00004 (/bigdata/qiuhan/codet5/usage/goroot/test/codegen/slices.go:241)	JLS	84
	0x0006 00006 (/bigdata/qiuhan/codet5/usage/goroot/test/codegen/slices.go:241)	PCDATA	$0, $-1
	0x0006 00006 (/bigdata/qiuhan/codet5/usage/goroot/test/codegen/slices.go:241)	SUBQ	$80, SP
	0x000a 00010 (/bigdata/qiuhan/codet5/usage/goroot/test/codegen/slices.go:241)	MOVQ	BP, 72(SP)
	0x000f 00015 (/bigdata/qiuhan/codet5/usage/goroot/test/codegen/slices.go:241)	LEAQ	72(SP), BP
	0x0014 00020 (/bigdata/qiuhan/codet5/usage/goroot/test/codegen/slices.go:241)	MOVQ	AX, command-line-arguments.s+88(FP)
	0x0019 00025 (/bigdata/qiuhan/codet5/usage/goroot/test/codegen/slices.go:241)	FUNCDATA	$0, gclocals·wgcWObbY2HYnK2SU/U22lA==(SB)
	0x0019 00025 (/bigdata/qiuhan/codet5/usage/goroot/test/codegen/slices.go:241)	FUNCDATA	$1, gclocals·EXTrhv4b3ahawRWAszmcVw==(SB)
	0x0019 00025 (/bigdata/qiuhan/codet5/usage/goroot/test/codegen/slices.go:241)	FUNCDATA	$2, command-line-arguments.SliceMakeCopyNoOptNoHeapAlloc.stkobj(SB)
	0x0019 00025 (/bigdata/qiuhan/codet5/usage/goroot/test/codegen/slices.go:241)	FUNCDATA	$5, command-line-arguments.SliceMakeCopyNoOptNoHeapAlloc.arginfo1(SB)
	0x0019 00025 (/bigdata/qiuhan/codet5/usage/goroot/test/codegen/slices.go:241)	FUNCDATA	$6, command-line-arguments.SliceMakeCopyNoOptNoHeapAlloc.argliveinfo(SB)
	0x0019 00025 (/bigdata/qiuhan/codet5/usage/goroot/test/codegen/slices.go:241)	PCDATA	$3, $1
	0x0019 00025 (/bigdata/qiuhan/codet5/usage/goroot/test/codegen/slices.go:243)	MOVUPS	X15, command-line-arguments..autotmp_4+40(SP)
	0x001f 00031 (/bigdata/qiuhan/codet5/usage/goroot/test/codegen/slices.go:243)	MOVUPS	X15, command-line-arguments..autotmp_4+56(SP)
	0x0025 00037 (/bigdata/qiuhan/codet5/usage/goroot/test/codegen/slices.go:246)	MOVL	$4, CX
	0x002a 00042 (/bigdata/qiuhan/codet5/usage/goroot/test/codegen/slices.go:246)	MOVQ	AX, DI
	0x002d 00045 (/bigdata/qiuhan/codet5/usage/goroot/test/codegen/slices.go:246)	MOVQ	BX, SI
	0x0030 00048 (/bigdata/qiuhan/codet5/usage/goroot/test/codegen/slices.go:246)	LEAQ	type:*int(SB), AX
	0x0037 00055 (/bigdata/qiuhan/codet5/usage/goroot/test/codegen/slices.go:246)	LEAQ	command-line-arguments..autotmp_4+40(SP), BX
	0x003c 00060 (/bigdata/qiuhan/codet5/usage/goroot/test/codegen/slices.go:246)	PCDATA	$1, $1
	0x003c 00060 (/bigdata/qiuhan/codet5/usage/goroot/test/codegen/slices.go:246)	NOP
	0x0040 00064 (/bigdata/qiuhan/codet5/usage/goroot/test/codegen/slices.go:246)	CALL	runtime.typedslicecopy(SB)
	0x0045 00069 (/bigdata/qiuhan/codet5/usage/goroot/test/codegen/slices.go:247)	MOVL	$4, AX
	0x004a 00074 (/bigdata/qiuhan/codet5/usage/goroot/test/codegen/slices.go:247)	MOVQ	72(SP), BP
	0x004f 00079 (/bigdata/qiuhan/codet5/usage/goroot/test/codegen/slices.go:247)	ADDQ	$80, SP
	0x0053 00083 (/bigdata/qiuhan/codet5/usage/goroot/test/codegen/slices.go:247)	RET
	0x0054 00084 (/bigdata/qiuhan/codet5/usage/goroot/test/codegen/slices.go:247)	NOP
	0x0054 00084 (/bigdata/qiuhan/codet5/usage/goroot/test/codegen/slices.go:241)	PCDATA	$1, $-1
	0x0054 00084 (/bigdata/qiuhan/codet5/usage/goroot/test/codegen/slices.go:241)	PCDATA	$0, $-2
	0x0054 00084 (/bigdata/qiuhan/codet5/usage/goroot/test/codegen/slices.go:241)	MOVQ	AX, 8(SP)
	0x0059 00089 (/bigdata/qiuhan/codet5/usage/goroot/test/codegen/slices.go:241)	MOVQ	BX, 16(SP)
	0x005e 00094 (/bigdata/qiuhan/codet5/usage/goroot/test/codegen/slices.go:241)	MOVQ	CX, 24(SP)
	0x0063 00099 (/bigdata/qiuhan/codet5/usage/goroot/test/codegen/slices.go:241)	CALL	runtime.morestack_noctxt(SB)
	0x0068 00104 (/bigdata/qiuhan/codet5/usage/goroot/test/codegen/slices.go:241)	MOVQ	8(SP), AX
	0x006d 00109 (/bigdata/qiuhan/codet5/usage/goroot/test/codegen/slices.go:241)	MOVQ	16(SP), BX
	0x0072 00114 (/bigdata/qiuhan/codet5/usage/goroot/test/codegen/slices.go:241)	MOVQ	24(SP), CX
	0x0077 00119 (/bigdata/qiuhan/codet5/usage/goroot/test/codegen/slices.go:241)	PCDATA	$0, $-1
	0x0077 00119 (/bigdata/qiuhan/codet5/usage/goroot/test/codegen/slices.go:241)	JMP	0
	0x0000 49 3b 66 10 76 4e 48 83 ec 50 48 89 6c 24 48 48  I;f.vNH..PH.l$HH
	0x0010 8d 6c 24 48 48 89 44 24 58 44 0f 11 7c 24 28 44  .l$HH.D$XD..|$(D
	0x0020 0f 11 7c 24 38 b9 04 00 00 00 48 89 c7 48 89 de  ..|$8.....H..H..
	0x0030 48 8d 05 00 00 00 00 48 8d 5c 24 28 0f 1f 40 00  H......H.\$(..@.
	0x0040 e8 00 00 00 00 b8 04 00 00 00 48 8b 6c 24 48 48  ..........H.l$HH
	0x0050 83 c4 50 c3 48 89 44 24 08 48 89 5c 24 10 48 89  ..P.H.D$.H.\$.H.
	0x0060 4c 24 18 e8 00 00 00 00 48 8b 44 24 08 48 8b 5c  L$......H.D$.H.\
	0x0070 24 10 48 8b 4c 24 18 eb 87                       $.H.L$...
	rel 51+4 t=14 type:*int<0>+0
	rel 65+4 t=7 runtime.typedslicecopy<1>+0
	rel 100+4 t=7 runtime.morestack_noctxt<0>+0
command-line-arguments.SliceMakeCopyNoOptNoCap<1> STEXT size=143 args=0x18 locals=0x38 funcid=0x0 align=0x0
	0x0000 00000 (/bigdata/qiuhan/codet5/usage/goroot/test/codegen/slices.go:250)	TEXT	command-line-arguments.SliceMakeCopyNoOptNoCap(SB), ABIInternal, $56-24
	0x0000 00000 (/bigdata/qiuhan/codet5/usage/goroot/test/codegen/slices.go:250)	CMPQ	SP, 16(R14)
	0x0004 00004 (/bigdata/qiuhan/codet5/usage/goroot/test/codegen/slices.go:250)	PCDATA	$0, $-2
	0x0004 00004 (/bigdata/qiuhan/codet5/usage/goroot/test/codegen/slices.go:250)	JLS	103
	0x0006 00006 (/bigdata/qiuhan/codet5/usage/goroot/test/codegen/slices.go:250)	PCDATA	$0, $-1
	0x0006 00006 (/bigdata/qiuhan/codet5/usage/goroot/test/codegen/slices.go:250)	SUBQ	$56, SP
	0x000a 00010 (/bigdata/qiuhan/codet5/usage/goroot/test/codegen/slices.go:250)	MOVQ	BP, 48(SP)
	0x000f 00015 (/bigdata/qiuhan/codet5/usage/goroot/test/codegen/slices.go:250)	LEAQ	48(SP), BP
	0x0014 00020 (/bigdata/qiuhan/codet5/usage/goroot/test/codegen/slices.go:250)	FUNCDATA	$0, gclocals·ZzMiPAiVBg7DJ6dh/CjSag==(SB)
	0x0014 00020 (/bigdata/qiuhan/codet5/usage/goroot/test/codegen/slices.go:250)	FUNCDATA	$1, gclocals·VtCL4RdUwCqwXEPeyJllRA==(SB)
	0x0014 00020 (/bigdata/qiuhan/codet5/usage/goroot/test/codegen/slices.go:250)	FUNCDATA	$5, command-line-arguments.SliceMakeCopyNoOptNoCap.arginfo1(SB)
	0x0014 00020 (/bigdata/qiuhan/codet5/usage/goroot/test/codegen/slices.go:250)	FUNCDATA	$6, command-line-arguments.SliceMakeCopyNoOptNoCap.argliveinfo(SB)
	0x0014 00020 (/bigdata/qiuhan/codet5/usage/goroot/test/codegen/slices.go:250)	PCDATA	$3, $1
	0x0014 00020 (/bigdata/qiuhan/codet5/usage/goroot/test/codegen/slices.go:256)	MOVQ	AX, command-line-arguments.s+64(SP)
	0x0019 00025 (/bigdata/qiuhan/codet5/usage/goroot/test/codegen/slices.go:256)	MOVQ	BX, command-line-arguments.s+72(SP)
	0x001e 00030 (/bigdata/qiuhan/codet5/usage/goroot/test/codegen/slices.go:256)	PCDATA	$3, $2
	0x001e 00030 (/bigdata/qiuhan/codet5/usage/goroot/test/codegen/slices.go:253)	MOVL	$4, CX
	0x0023 00035 (/bigdata/qiuhan/codet5/usage/goroot/test/codegen/slices.go:253)	LEAQ	type:*int(SB), AX
	0x002a 00042 (/bigdata/qiuhan/codet5/usage/goroot/test/codegen/slices.go:253)	XORL	BX, BX
	0x002c 00044 (/bigdata/qiuhan/codet5/usage/goroot/test/codegen/slices.go:253)	PCDATA	$1, $0
	0x002c 00044 (/bigdata/qiuhan/codet5/usage/goroot/test/codegen/slices.go:253)	CALL	runtime.makeslice(SB)
	0x0031 00049 (/bigdata/qiuhan/codet5/usage/goroot/test/codegen/slices.go:253)	MOVQ	AX, command-line-arguments..autotmp_6+40(SP)
	0x0036 00054 (/bigdata/qiuhan/codet5/usage/goroot/test/codegen/slices.go:256)	MOVQ	AX, BX
	0x0039 00057 (/bigdata/qiuhan/codet5/usage/goroot/test/codegen/slices.go:256)	XORL	CX, CX
	0x003b 00059 (/bigdata/qiuhan/codet5/usage/goroot/test/codegen/slices.go:256)	MOVQ	command-line-arguments.s+64(SP), DI
	0x0040 00064 (/bigdata/qiuhan/codet5/usage/goroot/test/codegen/slices.go:256)	MOVQ	command-line-arguments.s+72(SP), SI
	0x0045 00069 (/bigdata/qiuhan/codet5/usage/goroot/test/codegen/slices.go:256)	LEAQ	type:*int(SB), AX
	0x004c 00076 (/bigdata/qiuhan/codet5/usage/goroot/test/codegen/slices.go:256)	PCDATA	$1, $1
	0x004c 00076 (/bigdata/qiuhan/codet5/usage/goroot/test/codegen/slices.go:256)	CALL	runtime.typedslicecopy(SB)
	0x0051 00081 (/bigdata/qiuhan/codet5/usage/goroot/test/codegen/slices.go:257)	MOVQ	command-line-arguments..autotmp_6+40(SP), AX
	0x0056 00086 (/bigdata/qiuhan/codet5/usage/goroot/test/codegen/slices.go:257)	XORL	BX, BX
	0x0058 00088 (/bigdata/qiuhan/codet5/usage/goroot/test/codegen/slices.go:257)	MOVL	$4, CX
	0x005d 00093 (/bigdata/qiuhan/codet5/usage/goroot/test/codegen/slices.go:257)	MOVQ	48(SP), BP
	0x0062 00098 (/bigdata/qiuhan/codet5/usage/goroot/test/codegen/slices.go:257)	ADDQ	$56, SP
	0x0066 00102 (/bigdata/qiuhan/codet5/usage/goroot/test/codegen/slices.go:257)	RET
	0x0067 00103 (/bigdata/qiuhan/codet5/usage/goroot/test/codegen/slices.go:257)	NOP
	0x0067 00103 (/bigdata/qiuhan/codet5/usage/goroot/test/codegen/slices.go:250)	PCDATA	$1, $-1
	0x0067 00103 (/bigdata/qiuhan/codet5/usage/goroot/test/codegen/slices.go:250)	PCDATA	$0, $-2
	0x0067 00103 (/bigdata/qiuhan/codet5/usage/goroot/test/codegen/slices.go:250)	MOVQ	AX, 8(SP)
	0x006c 00108 (/bigdata/qiuhan/codet5/usage/goroot/test/codegen/slices.go:250)	MOVQ	BX, 16(SP)
	0x0071 00113 (/bigdata/qiuhan/codet5/usage/goroot/test/codegen/slices.go:250)	MOVQ	CX, 24(SP)
	0x0076 00118 (/bigdata/qiuhan/codet5/usage/goroot/test/codegen/slices.go:250)	CALL	runtime.morestack_noctxt(SB)
	0x007b 00123 (/bigdata/qiuhan/codet5/usage/goroot/test/codegen/slices.go:250)	MOVQ	8(SP), AX
	0x0080 00128 (/bigdata/qiuhan/codet5/usage/goroot/test/codegen/slices.go:250)	MOVQ	16(SP), BX
	0x0085 00133 (/bigdata/qiuhan/codet5/usage/goroot/test/codegen/slices.go:250)	MOVQ	24(SP), CX
	0x008a 00138 (/bigdata/qiuhan/codet5/usage/goroot/test/codegen/slices.go:250)	PCDATA	$0, $-1
	0x008a 00138 (/bigdata/qiuhan/codet5/usage/goroot/test/codegen/slices.go:250)	JMP	0
	0x0000 49 3b 66 10 76 61 48 83 ec 38 48 89 6c 24 30 48  I;f.vaH..8H.l$0H
	0x0010 8d 6c 24 30 48 89 44 24 40 48 89 5c 24 48 b9 04  .l$0H.D$@H.\$H..
	0x0020 00 00 00 48 8d 05 00 00 00 00 31 db e8 00 00 00  ...H......1.....
	0x0030 00 48 89 44 24 28 48 89 c3 31 c9 48 8b 7c 24 40  .H.D$(H..1.H.|$@
	0x0040 48 8b 74 24 48 48 8d 05 00 00 00 00 e8 00 00 00  H.t$HH..........
	0x0050 00 48 8b 44 24 28 31 db b9 04 00 00 00 48 8b 6c  .H.D$(1......H.l
	0x0060 24 30 48 83 c4 38 c3 48 89 44 24 08 48 89 5c 24  $0H..8.H.D$.H.\$
	0x0070 10 48 89 4c 24 18 e8 00 00 00 00 48 8b 44 24 08  .H.L$......H.D$.
	0x0080 48 8b 5c 24 10 48 8b 4c 24 18 e9 71 ff ff ff     H.\$.H.L$..q...
	rel 38+4 t=14 type:*int<0>+0
	rel 45+4 t=7 runtime.makeslice<1>+0
	rel 72+4 t=14 type:*int<0>+0
	rel 77+4 t=7 runtime.typedslicecopy<1>+0
	rel 119+4 t=7 runtime.morestack_noctxt<0>+0
command-line-arguments.SliceMakeCopyNoOptNoCopy<1> STEXT size=66 args=0x18 locals=0x20 funcid=0x0 align=0x0
	0x0000 00000 (/bigdata/qiuhan/codet5/usage/goroot/test/codegen/slices.go:260)	TEXT	command-line-arguments.SliceMakeCopyNoOptNoCopy(SB), ABIInternal, $32-24
	0x0000 00000 (/bigdata/qiuhan/codet5/usage/goroot/test/codegen/slices.go:260)	CMPQ	SP, 16(R14)
	0x0004 00004 (/bigdata/qiuhan/codet5/usage/goroot/test/codegen/slices.go:260)	PCDATA	$0, $-2
	0x0004 00004 (/bigdata/qiuhan/codet5/usage/goroot/test/codegen/slices.go:260)	JLS	58
	0x0006 00006 (/bigdata/qiuhan/codet5/usage/goroot/test/codegen/slices.go:260)	PCDATA	$0, $-1
	0x0006 00006 (/bigdata/qiuhan/codet5/usage/goroot/test/codegen/slices.go:260)	SUBQ	$32, SP
	0x000a 00010 (/bigdata/qiuhan/codet5/usage/goroot/test/codegen/slices.go:260)	MOVQ	BP, 24(SP)
	0x000f 00015 (/bigdata/qiuhan/codet5/usage/goroot/test/codegen/slices.go:260)	LEAQ	24(SP), BP
	0x0014 00020 (/bigdata/qiuhan/codet5/usage/goroot/test/codegen/slices.go:260)	FUNCDATA	$0, gclocals·Plqv2ff52JtlYaDd2Rwxbg==(SB)
	0x0014 00020 (/bigdata/qiuhan/codet5/usage/goroot/test/codegen/slices.go:260)	FUNCDATA	$1, gclocals·g2BeySu+wFnoycgXfElmcg==(SB)
	0x0014 00020 (/bigdata/qiuhan/codet5/usage/goroot/test/codegen/slices.go:260)	FUNCDATA	$5, command-line-arguments.SliceMakeCopyNoOptNoCopy.arginfo1(SB)
	0x0014 00020 (/bigdata/qiuhan/codet5/usage/goroot/test/codegen/slices.go:260)	FUNCDATA	$6, command-line-arguments.SliceMakeCopyNoOptNoCopy.argliveinfo(SB)
	0x0014 00020 (/bigdata/qiuhan/codet5/usage/goroot/test/codegen/slices.go:260)	PCDATA	$3, $1
	0x0014 00020 (/bigdata/qiuhan/codet5/usage/goroot/test/codegen/slices.go:264)	LEAQ	type:*int(SB), AX
	0x001b 00027 (/bigdata/qiuhan/codet5/usage/goroot/test/codegen/slices.go:264)	MOVL	$4, BX
	0x0020 00032 (/bigdata/qiuhan/codet5/usage/goroot/test/codegen/slices.go:264)	MOVQ	BX, CX
	0x0023 00035 (/bigdata/qiuhan/codet5/usage/goroot/test/codegen/slices.go:264)	PCDATA	$1, $0
	0x0023 00035 (/bigdata/qiuhan/codet5/usage/goroot/test/codegen/slices.go:264)	CALL	runtime.makeslice(SB)
	0x0028 00040 (/bigdata/qiuhan/codet5/usage/goroot/test/codegen/slices.go:267)	MOVL	$4, BX
	0x002d 00045 (/bigdata/qiuhan/codet5/usage/goroot/test/codegen/slices.go:267)	MOVQ	BX, CX
	0x0030 00048 (/bigdata/qiuhan/codet5/usage/goroot/test/codegen/slices.go:267)	MOVQ	24(SP), BP
	0x0035 00053 (/bigdata/qiuhan/codet5/usage/goroot/test/codegen/slices.go:267)	ADDQ	$32, SP
	0x0039 00057 (/bigdata/qiuhan/codet5/usage/goroot/test/codegen/slices.go:267)	RET
	0x003a 00058 (/bigdata/qiuhan/codet5/usage/goroot/test/codegen/slices.go:267)	NOP
	0x003a 00058 (/bigdata/qiuhan/codet5/usage/goroot/test/codegen/slices.go:260)	PCDATA	$1, $-1
	0x003a 00058 (/bigdata/qiuhan/codet5/usage/goroot/test/codegen/slices.go:260)	PCDATA	$0, $-2
	0x003a 00058 (/bigdata/qiuhan/codet5/usage/goroot/test/codegen/slices.go:260)	CALL	runtime.morestack_noctxt(SB)
	0x003f 00063 (/bigdata/qiuhan/codet5/usage/goroot/test/codegen/slices.go:260)	PCDATA	$0, $-1
	0x003f 00063 (/bigdata/qiuhan/codet5/usage/goroot/test/codegen/slices.go:260)	NOP
	0x0040 00064 (/bigdata/qiuhan/codet5/usage/goroot/test/codegen/slices.go:260)	JMP	0
	0x0000 49 3b 66 10 76 34 48 83 ec 20 48 89 6c 24 18 48  I;f.v4H.. H.l$.H
	0x0010 8d 6c 24 18 48 8d 05 00 00 00 00 bb 04 00 00 00  .l$.H...........
	0x0020 48 89 d9 e8 00 00 00 00 bb 04 00 00 00 48 89 d9  H............H..
	0x0030 48 8b 6c 24 18 48 83 c4 20 c3 e8 00 00 00 00 90  H.l$.H.. .......
	0x0040 eb be                                            ..
	rel 23+4 t=14 type:*int<0>+0
	rel 36+4 t=7 runtime.makeslice<1>+0
	rel 59+4 t=7 runtime.morestack_noctxt<0>+0
command-line-arguments.SliceMakeCopyNoOptWrongOrder<1> STEXT size=153 args=0x18 locals=0x38 funcid=0x0 align=0x0
	0x0000 00000 (/bigdata/qiuhan/codet5/usage/goroot/test/codegen/slices.go:270)	TEXT	command-line-arguments.SliceMakeCopyNoOptWrongOrder(SB), ABIInternal, $56-24
	0x0000 00000 (/bigdata/qiuhan/codet5/usage/goroot/test/codegen/slices.go:270)	CMPQ	SP, 16(R14)
	0x0004 00004 (/bigdata/qiuhan/codet5/usage/goroot/test/codegen/slices.go:270)	PCDATA	$0, $-2
	0x0004 00004 (/bigdata/qiuhan/codet5/usage/goroot/test/codegen/slices.go:270)	JLS	108
	0x0006 00006 (/bigdata/qiuhan/codet5/usage/goroot/test/codegen/slices.go:270)	PCDATA	$0, $-1
	0x0006 00006 (/bigdata/qiuhan/codet5/usage/goroot/test/codegen/slices.go:270)	SUBQ	$56, SP
	0x000a 00010 (/bigdata/qiuhan/codet5/usage/goroot/test/codegen/slices.go:270)	MOVQ	BP, 48(SP)
	0x000f 00015 (/bigdata/qiuhan/codet5/usage/goroot/test/codegen/slices.go:270)	LEAQ	48(SP), BP
	0x0014 00020 (/bigdata/qiuhan/codet5/usage/goroot/test/codegen/slices.go:270)	FUNCDATA	$0, gclocals·ZzMiPAiVBg7DJ6dh/CjSag==(SB)
	0x0014 00020 (/bigdata/qiuhan/codet5/usage/goroot/test/codegen/slices.go:270)	FUNCDATA	$1, gclocals·VtCL4RdUwCqwXEPeyJllRA==(SB)
	0x0014 00020 (/bigdata/qiuhan/codet5/usage/goroot/test/codegen/slices.go:270)	FUNCDATA	$5, command-line-arguments.SliceMakeCopyNoOptWrongOrder.arginfo1(SB)
	0x0014 00020 (/bigdata/qiuhan/codet5/usage/goroot/test/codegen/slices.go:270)	FUNCDATA	$6, command-line-arguments.SliceMakeCopyNoOptWrongOrder.argliveinfo(SB)
	0x0014 00020 (/bigdata/qiuhan/codet5/usage/goroot/test/codegen/slices.go:270)	PCDATA	$3, $1
	0x0014 00020 (/bigdata/qiuhan/codet5/usage/goroot/test/codegen/slices.go:276)	MOVQ	AX, command-line-arguments.s+64(SP)
	0x0019 00025 (/bigdata/qiuhan/codet5/usage/goroot/test/codegen/slices.go:276)	MOVQ	BX, command-line-arguments.s+72(SP)
	0x001e 00030 (/bigdata/qiuhan/codet5/usage/goroot/test/codegen/slices.go:276)	PCDATA	$3, $2
	0x001e 00030 (/bigdata/qiuhan/codet5/usage/goroot/test/codegen/slices.go:273)	MOVL	$4, CX
	0x0023 00035 (/bigdata/qiuhan/codet5/usage/goroot/test/codegen/slices.go:273)	LEAQ	type:*int(SB), AX
	0x002a 00042 (/bigdata/qiuhan/codet5/usage/goroot/test/codegen/slices.go:273)	MOVQ	CX, BX
	0x002d 00045 (/bigdata/qiuhan/codet5/usage/goroot/test/codegen/slices.go:273)	PCDATA	$1, $0
	0x002d 00045 (/bigdata/qiuhan/codet5/usage/goroot/test/codegen/slices.go:273)	CALL	runtime.makeslice(SB)
	0x0032 00050 (/bigdata/qiuhan/codet5/usage/goroot/test/codegen/slices.go:273)	MOVQ	AX, command-line-arguments..autotmp_6+40(SP)
	0x0037 00055 (/bigdata/qiuhan/codet5/usage/goroot/test/codegen/slices.go:276)	MOVQ	command-line-arguments.s+64(SP), BX
	0x003c 00060 (/bigdata/qiuhan/codet5/usage/goroot/test/codegen/slices.go:276)	MOVQ	command-line-arguments.s+72(SP), CX
	0x0041 00065 (/bigdata/qiuhan/codet5/usage/goroot/test/codegen/slices.go:276)	MOVQ	AX, DI
	0x0044 00068 (/bigdata/qiuhan/codet5/usage/goroot/test/codegen/slices.go:276)	MOVL	$4, SI
	0x0049 00073 (/bigdata/qiuhan/codet5/usage/goroot/test/codegen/slices.go:276)	LEAQ	type:*int(SB), AX
	0x0050 00080 (/bigdata/qiuhan/codet5/usage/goroot/test/codegen/slices.go:276)	PCDATA	$1, $1
	0x0050 00080 (/bigdata/qiuhan/codet5/usage/goroot/test/codegen/slices.go:276)	CALL	runtime.typedslicecopy(SB)
	0x0055 00085 (/bigdata/qiuhan/codet5/usage/goroot/test/codegen/slices.go:277)	MOVQ	command-line-arguments..autotmp_6+40(SP), AX
	0x005a 00090 (/bigdata/qiuhan/codet5/usage/goroot/test/codegen/slices.go:277)	MOVL	$4, BX
	0x005f 00095 (/bigdata/qiuhan/codet5/usage/goroot/test/codegen/slices.go:277)	MOVQ	BX, CX
	0x0062 00098 (/bigdata/qiuhan/codet5/usage/goroot/test/codegen/slices.go:277)	MOVQ	48(SP), BP
	0x0067 00103 (/bigdata/qiuhan/codet5/usage/goroot/test/codegen/slices.go:277)	ADDQ	$56, SP
	0x006b 00107 (/bigdata/qiuhan/codet5/usage/goroot/test/codegen/slices.go:277)	RET
	0x006c 00108 (/bigdata/qiuhan/codet5/usage/goroot/test/codegen/slices.go:277)	NOP
	0x006c 00108 (/bigdata/qiuhan/codet5/usage/goroot/test/codegen/slices.go:270)	PCDATA	$1, $-1
	0x006c 00108 (/bigdata/qiuhan/codet5/usage/goroot/test/codegen/slices.go:270)	PCDATA	$0, $-2
	0x006c 00108 (/bigdata/qiuhan/codet5/usage/goroot/test/codegen/slices.go:270)	MOVQ	AX, 8(SP)
	0x0071 00113 (/bigdata/qiuhan/codet5/usage/goroot/test/codegen/slices.go:270)	MOVQ	BX, 16(SP)
	0x0076 00118 (/bigdata/qiuhan/codet5/usage/goroot/test/codegen/slices.go:270)	MOVQ	CX, 24(SP)
	0x007b 00123 (/bigdata/qiuhan/codet5/usage/goroot/test/codegen/slices.go:270)	NOP
	0x0080 00128 (/bigdata/qiuhan/codet5/usage/goroot/test/codegen/slices.go:270)	CALL	runtime.morestack_noctxt(SB)
	0x0085 00133 (/bigdata/qiuhan/codet5/usage/goroot/test/codegen/slices.go:270)	MOVQ	8(SP), AX
	0x008a 00138 (/bigdata/qiuhan/codet5/usage/goroot/test/codegen/slices.go:270)	MOVQ	16(SP), BX
	0x008f 00143 (/bigdata/qiuhan/codet5/usage/goroot/test/codegen/slices.go:270)	MOVQ	24(SP), CX
	0x0094 00148 (/bigdata/qiuhan/codet5/usage/goroot/test/codegen/slices.go:270)	PCDATA	$0, $-1
	0x0094 00148 (/bigdata/qiuhan/codet5/usage/goroot/test/codegen/slices.go:270)	JMP	0
	0x0000 49 3b 66 10 76 66 48 83 ec 38 48 89 6c 24 30 48  I;f.vfH..8H.l$0H
	0x0010 8d 6c 24 30 48 89 44 24 40 48 89 5c 24 48 b9 04  .l$0H.D$@H.\$H..
	0x0020 00 00 00 48 8d 05 00 00 00 00 48 89 cb e8 00 00  ...H......H.....
	0x0030 00 00 48 89 44 24 28 48 8b 5c 24 40 48 8b 4c 24  ..H.D$(H.\$@H.L$
	0x0040 48 48 89 c7 be 04 00 00 00 48 8d 05 00 00 00 00  HH.......H......
	0x0050 e8 00 00 00 00 48 8b 44 24 28 bb 04 00 00 00 48  .....H.D$(.....H
	0x0060 89 d9 48 8b 6c 24 30 48 83 c4 38 c3 48 89 44 24  ..H.l$0H..8.H.D$
	0x0070 08 48 89 5c 24 10 48 89 4c 24 18 0f 1f 44 00 00  .H.\$.H.L$...D..
	0x0080 e8 00 00 00 00 48 8b 44 24 08 48 8b 5c 24 10 48  .....H.D$.H.\$.H
	0x0090 8b 4c 24 18 e9 67 ff ff ff                       .L$..g...
	rel 38+4 t=14 type:*int<0>+0
	rel 46+4 t=7 runtime.makeslice<1>+0
	rel 76+4 t=14 type:*int<0>+0
	rel 81+4 t=7 runtime.typedslicecopy<1>+0
	rel 129+4 t=7 runtime.morestack_noctxt<0>+0
command-line-arguments.SliceMakeCopyNoOptWrongAssign<1> STEXT size=103 args=0x18 locals=0x38 funcid=0x0 align=0x0
	0x0000 00000 (/bigdata/qiuhan/codet5/usage/goroot/test/codegen/slices.go:280)	TEXT	command-line-arguments.SliceMakeCopyNoOptWrongAssign(SB), ABIInternal, $56-24
	0x0000 00000 (/bigdata/qiuhan/codet5/usage/goroot/test/codegen/slices.go:280)	CMPQ	SP, 16(R14)
	0x0004 00004 (/bigdata/qiuhan/codet5/usage/goroot/test/codegen/slices.go:280)	PCDATA	$0, $-2
	0x0004 00004 (/bigdata/qiuhan/codet5/usage/goroot/test/codegen/slices.go:280)	JLS	92
	0x0006 00006 (/bigdata/qiuhan/codet5/usage/goroot/test/codegen/slices.go:280)	PCDATA	$0, $-1
	0x0006 00006 (/bigdata/qiuhan/codet5/usage/goroot/test/codegen/slices.go:280)	SUBQ	$56, SP
	0x000a 00010 (/bigdata/qiuhan/codet5/usage/goroot/test/codegen/slices.go:280)	MOVQ	BP, 48(SP)
	0x000f 00015 (/bigdata/qiuhan/codet5/usage/goroot/test/codegen/slices.go:280)	LEAQ	48(SP), BP
	0x0014 00020 (/bigdata/qiuhan/codet5/usage/goroot/test/codegen/slices.go:280)	FUNCDATA	$0, gclocals·wBS4fiKwwXBG0Q3AcyXF/Q==(SB)
	0x0014 00020 (/bigdata/qiuhan/codet5/usage/goroot/test/codegen/slices.go:280)	FUNCDATA	$1, gclocals·CnDyI2HjYXFz19SsOj98tw==(SB)
	0x0014 00020 (/bigdata/qiuhan/codet5/usage/goroot/test/codegen/slices.go:280)	FUNCDATA	$5, command-line-arguments.SliceMakeCopyNoOptWrongAssign.arginfo1(SB)
	0x0014 00020 (/bigdata/qiuhan/codet5/usage/goroot/test/codegen/slices.go:280)	FUNCDATA	$6, command-line-arguments.SliceMakeCopyNoOptWrongAssign.argliveinfo(SB)
	0x0014 00020 (/bigdata/qiuhan/codet5/usage/goroot/test/codegen/slices.go:280)	PCDATA	$3, $1
	0x0014 00020 (/bigdata/qiuhan/codet5/usage/goroot/test/codegen/slices.go:284)	LEAQ	type:*int(SB), AX
	0x001b 00027 (/bigdata/qiuhan/codet5/usage/goroot/test/codegen/slices.go:284)	MOVL	$4, BX
	0x0020 00032 (/bigdata/qiuhan/codet5/usage/goroot/test/codegen/slices.go:284)	MOVQ	BX, CX
	0x0023 00035 (/bigdata/qiuhan/codet5/usage/goroot/test/codegen/slices.go:284)	PCDATA	$1, $0
	0x0023 00035 (/bigdata/qiuhan/codet5/usage/goroot/test/codegen/slices.go:284)	CALL	runtime.makeslice(SB)
	0x0028 00040 (/bigdata/qiuhan/codet5/usage/goroot/test/codegen/slices.go:284)	MOVQ	AX, command-line-arguments..autotmp_6+40(SP)
	0x002d 00045 (/bigdata/qiuhan/codet5/usage/goroot/test/codegen/slices.go:287)	XORL	BX, BX
	0x002f 00047 (/bigdata/qiuhan/codet5/usage/goroot/test/codegen/slices.go:287)	XORL	CX, CX
	0x0031 00049 (/bigdata/qiuhan/codet5/usage/goroot/test/codegen/slices.go:287)	MOVQ	AX, DI
	0x0034 00052 (/bigdata/qiuhan/codet5/usage/goroot/test/codegen/slices.go:287)	MOVL	$4, SI
	0x0039 00057 (/bigdata/qiuhan/codet5/usage/goroot/test/codegen/slices.go:287)	LEAQ	type:*int(SB), AX
	0x0040 00064 (/bigdata/qiuhan/codet5/usage/goroot/test/codegen/slices.go:287)	PCDATA	$1, $1
	0x0040 00064 (/bigdata/qiuhan/codet5/usage/goroot/test/codegen/slices.go:287)	CALL	runtime.typedslicecopy(SB)
	0x0045 00069 (/bigdata/qiuhan/codet5/usage/goroot/test/codegen/slices.go:288)	MOVQ	command-line-arguments..autotmp_6+40(SP), AX
	0x004a 00074 (/bigdata/qiuhan/codet5/usage/goroot/test/codegen/slices.go:288)	MOVL	$4, BX
	0x004f 00079 (/bigdata/qiuhan/codet5/usage/goroot/test/codegen/slices.go:288)	MOVQ	BX, CX
	0x0052 00082 (/bigdata/qiuhan/codet5/usage/goroot/test/codegen/slices.go:288)	MOVQ	48(SP), BP
	0x0057 00087 (/bigdata/qiuhan/codet5/usage/goroot/test/codegen/slices.go:288)	ADDQ	$56, SP
	0x005b 00091 (/bigdata/qiuhan/codet5/usage/goroot/test/codegen/slices.go:288)	RET
	0x005c 00092 (/bigdata/qiuhan/codet5/usage/goroot/test/codegen/slices.go:288)	NOP
	0x005c 00092 (/bigdata/qiuhan/codet5/usage/goroot/test/codegen/slices.go:280)	PCDATA	$1, $-1
	0x005c 00092 (/bigdata/qiuhan/codet5/usage/goroot/test/codegen/slices.go:280)	PCDATA	$0, $-2
	0x005c 00092 (/bigdata/qiuhan/codet5/usage/goroot/test/codegen/slices.go:280)	NOP
	0x0060 00096 (/bigdata/qiuhan/codet5/usage/goroot/test/codegen/slices.go:280)	CALL	runtime.morestack_noctxt(SB)
	0x0065 00101 (/bigdata/qiuhan/codet5/usage/goroot/test/codegen/slices.go:280)	PCDATA	$0, $-1
	0x0065 00101 (/bigdata/qiuhan/codet5/usage/goroot/test/codegen/slices.go:280)	JMP	0
	0x0000 49 3b 66 10 76 56 48 83 ec 38 48 89 6c 24 30 48  I;f.vVH..8H.l$0H
	0x0010 8d 6c 24 30 48 8d 05 00 00 00 00 bb 04 00 00 00  .l$0H...........
	0x0020 48 89 d9 e8 00 00 00 00 48 89 44 24 28 31 db 31  H.......H.D$(1.1
	0x0030 c9 48 89 c7 be 04 00 00 00 48 8d 05 00 00 00 00  .H.......H......
	0x0040 e8 00 00 00 00 48 8b 44 24 28 bb 04 00 00 00 48  .....H.D$(.....H
	0x0050 89 d9 48 8b 6c 24 30 48 83 c4 38 c3 0f 1f 40 00  ..H.l$0H..8...@.
	0x0060 e8 00 00 00 00 eb 99                             .......
	rel 23+4 t=14 type:*int<0>+0
	rel 36+4 t=7 runtime.makeslice<1>+0
	rel 60+4 t=14 type:*int<0>+0
	rel 65+4 t=7 runtime.typedslicecopy<1>+0
	rel 97+4 t=7 runtime.morestack_noctxt<0>+0
command-line-arguments.SliceMakeCopyNoOptCopyLength<1> STEXT size=153 args=0x18 locals=0x38 funcid=0x0 align=0x0
	0x0000 00000 (/bigdata/qiuhan/codet5/usage/goroot/test/codegen/slices.go:291)	TEXT	command-line-arguments.SliceMakeCopyNoOptCopyLength(SB), ABIInternal, $56-24
	0x0000 00000 (/bigdata/qiuhan/codet5/usage/goroot/test/codegen/slices.go:291)	CMPQ	SP, 16(R14)
	0x0004 00004 (/bigdata/qiuhan/codet5/usage/goroot/test/codegen/slices.go:291)	PCDATA	$0, $-2
	0x0004 00004 (/bigdata/qiuhan/codet5/usage/goroot/test/codegen/slices.go:291)	JLS	108
	0x0006 00006 (/bigdata/qiuhan/codet5/usage/goroot/test/codegen/slices.go:291)	PCDATA	$0, $-1
	0x0006 00006 (/bigdata/qiuhan/codet5/usage/goroot/test/codegen/slices.go:291)	SUBQ	$56, SP
	0x000a 00010 (/bigdata/qiuhan/codet5/usage/goroot/test/codegen/slices.go:291)	MOVQ	BP, 48(SP)
	0x000f 00015 (/bigdata/qiuhan/codet5/usage/goroot/test/codegen/slices.go:291)	LEAQ	48(SP), BP
	0x0014 00020 (/bigdata/qiuhan/codet5/usage/goroot/test/codegen/slices.go:291)	FUNCDATA	$0, gclocals·ZzMiPAiVBg7DJ6dh/CjSag==(SB)
	0x0014 00020 (/bigdata/qiuhan/codet5/usage/goroot/test/codegen/slices.go:291)	FUNCDATA	$1, gclocals·VtCL4RdUwCqwXEPeyJllRA==(SB)
	0x0014 00020 (/bigdata/qiuhan/codet5/usage/goroot/test/codegen/slices.go:291)	FUNCDATA	$5, command-line-arguments.SliceMakeCopyNoOptCopyLength.arginfo1(SB)
	0x0014 00020 (/bigdata/qiuhan/codet5/usage/goroot/test/codegen/slices.go:291)	FUNCDATA	$6, command-line-arguments.SliceMakeCopyNoOptCopyLength.argliveinfo(SB)
	0x0014 00020 (/bigdata/qiuhan/codet5/usage/goroot/test/codegen/slices.go:291)	PCDATA	$3, $1
	0x0014 00020 (/bigdata/qiuhan/codet5/usage/goroot/test/codegen/slices.go:297)	MOVQ	AX, command-line-arguments.s+64(SP)
	0x0019 00025 (/bigdata/qiuhan/codet5/usage/goroot/test/codegen/slices.go:297)	MOVQ	BX, command-line-arguments.s+72(SP)
	0x001e 00030 (/bigdata/qiuhan/codet5/usage/goroot/test/codegen/slices.go:297)	PCDATA	$3, $2
	0x001e 00030 (/bigdata/qiuhan/codet5/usage/goroot/test/codegen/slices.go:294)	MOVL	$4, CX
	0x0023 00035 (/bigdata/qiuhan/codet5/usage/goroot/test/codegen/slices.go:294)	LEAQ	type:*int(SB), AX
	0x002a 00042 (/bigdata/qiuhan/codet5/usage/goroot/test/codegen/slices.go:294)	MOVQ	CX, BX
	0x002d 00045 (/bigdata/qiuhan/codet5/usage/goroot/test/codegen/slices.go:294)	PCDATA	$1, $0
	0x002d 00045 (/bigdata/qiuhan/codet5/usage/goroot/test/codegen/slices.go:294)	CALL	runtime.makeslice(SB)
	0x0032 00050 (/bigdata/qiuhan/codet5/usage/goroot/test/codegen/slices.go:294)	MOVQ	AX, command-line-arguments..autotmp_8+40(SP)
	0x0037 00055 (/bigdata/qiuhan/codet5/usage/goroot/test/codegen/slices.go:297)	MOVQ	AX, BX
	0x003a 00058 (/bigdata/qiuhan/codet5/usage/goroot/test/codegen/slices.go:297)	MOVL	$4, CX
	0x003f 00063 (/bigdata/qiuhan/codet5/usage/goroot/test/codegen/slices.go:297)	MOVQ	command-line-arguments.s+64(SP), DI
	0x0044 00068 (/bigdata/qiuhan/codet5/usage/goroot/test/codegen/slices.go:297)	MOVQ	command-line-arguments.s+72(SP), SI
	0x0049 00073 (/bigdata/qiuhan/codet5/usage/goroot/test/codegen/slices.go:297)	LEAQ	type:*int(SB), AX
	0x0050 00080 (/bigdata/qiuhan/codet5/usage/goroot/test/codegen/slices.go:297)	PCDATA	$1, $1
	0x0050 00080 (/bigdata/qiuhan/codet5/usage/goroot/test/codegen/slices.go:297)	CALL	runtime.typedslicecopy(SB)
	0x0055 00085 (/bigdata/qiuhan/codet5/usage/goroot/test/codegen/slices.go:298)	MOVQ	command-line-arguments..autotmp_8+40(SP), BX
	0x005a 00090 (/bigdata/qiuhan/codet5/usage/goroot/test/codegen/slices.go:298)	MOVL	$4, CX
	0x005f 00095 (/bigdata/qiuhan/codet5/usage/goroot/test/codegen/slices.go:298)	MOVQ	CX, DI
	0x0062 00098 (/bigdata/qiuhan/codet5/usage/goroot/test/codegen/slices.go:298)	MOVQ	48(SP), BP
	0x0067 00103 (/bigdata/qiuhan/codet5/usage/goroot/test/codegen/slices.go:298)	ADDQ	$56, SP
	0x006b 00107 (/bigdata/qiuhan/codet5/usage/goroot/test/codegen/slices.go:298)	RET
	0x006c 00108 (/bigdata/qiuhan/codet5/usage/goroot/test/codegen/slices.go:298)	NOP
	0x006c 00108 (/bigdata/qiuhan/codet5/usage/goroot/test/codegen/slices.go:291)	PCDATA	$1, $-1
	0x006c 00108 (/bigdata/qiuhan/codet5/usage/goroot/test/codegen/slices.go:291)	PCDATA	$0, $-2
	0x006c 00108 (/bigdata/qiuhan/codet5/usage/goroot/test/codegen/slices.go:291)	MOVQ	AX, 8(SP)
	0x0071 00113 (/bigdata/qiuhan/codet5/usage/goroot/test/codegen/slices.go:291)	MOVQ	BX, 16(SP)
	0x0076 00118 (/bigdata/qiuhan/codet5/usage/goroot/test/codegen/slices.go:291)	MOVQ	CX, 24(SP)
	0x007b 00123 (/bigdata/qiuhan/codet5/usage/goroot/test/codegen/slices.go:291)	NOP
	0x0080 00128 (/bigdata/qiuhan/codet5/usage/goroot/test/codegen/slices.go:291)	CALL	runtime.morestack_noctxt(SB)
	0x0085 00133 (/bigdata/qiuhan/codet5/usage/goroot/test/codegen/slices.go:291)	MOVQ	8(SP), AX
	0x008a 00138 (/bigdata/qiuhan/codet5/usage/goroot/test/codegen/slices.go:291)	MOVQ	16(SP), BX
	0x008f 00143 (/bigdata/qiuhan/codet5/usage/goroot/test/codegen/slices.go:291)	MOVQ	24(SP), CX
	0x0094 00148 (/bigdata/qiuhan/codet5/usage/goroot/test/codegen/slices.go:291)	PCDATA	$0, $-1
	0x0094 00148 (/bigdata/qiuhan/codet5/usage/goroot/test/codegen/slices.go:291)	JMP	0
	0x0000 49 3b 66 10 76 66 48 83 ec 38 48 89 6c 24 30 48  I;f.vfH..8H.l$0H
	0x0010 8d 6c 24 30 48 89 44 24 40 48 89 5c 24 48 b9 04  .l$0H.D$@H.\$H..
	0x0020 00 00 00 48 8d 05 00 00 00 00 48 89 cb e8 00 00  ...H......H.....
	0x0030 00 00 48 89 44 24 28 48 89 c3 b9 04 00 00 00 48  ..H.D$(H.......H
	0x0040 8b 7c 24 40 48 8b 74 24 48 48 8d 05 00 00 00 00  .|$@H.t$HH......
	0x0050 e8 00 00 00 00 48 8b 5c 24 28 b9 04 00 00 00 48  .....H.\$(.....H
	0x0060 89 cf 48 8b 6c 24 30 48 83 c4 38 c3 48 89 44 24  ..H.l$0H..8.H.D$
	0x0070 08 48 89 5c 24 10 48 89 4c 24 18 0f 1f 44 00 00  .H.\$.H.L$...D..
	0x0080 e8 00 00 00 00 48 8b 44 24 08 48 8b 5c 24 10 48  .....H.D$.H.\$.H
	0x0090 8b 4c 24 18 e9 67 ff ff ff                       .L$..g...
	rel 38+4 t=14 type:*int<0>+0
	rel 46+4 t=7 runtime.makeslice<1>+0
	rel 76+4 t=14 type:*int<0>+0
	rel 81+4 t=7 runtime.typedslicecopy<1>+0
	rel 129+4 t=7 runtime.morestack_noctxt<0>+0
command-line-arguments.SliceMakeCopyNoOptSelfCopy<1> STEXT size=103 args=0x18 locals=0x38 funcid=0x0 align=0x0
	0x0000 00000 (/bigdata/qiuhan/codet5/usage/goroot/test/codegen/slices.go:301)	TEXT	command-line-arguments.SliceMakeCopyNoOptSelfCopy(SB), ABIInternal, $56-24
	0x0000 00000 (/bigdata/qiuhan/codet5/usage/goroot/test/codegen/slices.go:301)	CMPQ	SP, 16(R14)
	0x0004 00004 (/bigdata/qiuhan/codet5/usage/goroot/test/codegen/slices.go:301)	PCDATA	$0, $-2
	0x0004 00004 (/bigdata/qiuhan/codet5/usage/goroot/test/codegen/slices.go:301)	JLS	94
	0x0006 00006 (/bigdata/qiuhan/codet5/usage/goroot/test/codegen/slices.go:301)	PCDATA	$0, $-1
	0x0006 00006 (/bigdata/qiuhan/codet5/usage/goroot/test/codegen/slices.go:301)	SUBQ	$56, SP
	0x000a 00010 (/bigdata/qiuhan/codet5/usage/goroot/test/codegen/slices.go:301)	MOVQ	BP, 48(SP)
	0x000f 00015 (/bigdata/qiuhan/codet5/usage/goroot/test/codegen/slices.go:301)	LEAQ	48(SP), BP
	0x0014 00020 (/bigdata/qiuhan/codet5/usage/goroot/test/codegen/slices.go:301)	FUNCDATA	$0, gclocals·wBS4fiKwwXBG0Q3AcyXF/Q==(SB)
	0x0014 00020 (/bigdata/qiuhan/codet5/usage/goroot/test/codegen/slices.go:301)	FUNCDATA	$1, gclocals·CnDyI2HjYXFz19SsOj98tw==(SB)
	0x0014 00020 (/bigdata/qiuhan/codet5/usage/goroot/test/codegen/slices.go:301)	FUNCDATA	$5, command-line-arguments.SliceMakeCopyNoOptSelfCopy.arginfo1(SB)
	0x0014 00020 (/bigdata/qiuhan/codet5/usage/goroot/test/codegen/slices.go:301)	FUNCDATA	$6, command-line-arguments.SliceMakeCopyNoOptSelfCopy.argliveinfo(SB)
	0x0014 00020 (/bigdata/qiuhan/codet5/usage/goroot/test/codegen/slices.go:301)	PCDATA	$3, $1
	0x0014 00020 (/bigdata/qiuhan/codet5/usage/goroot/test/codegen/slices.go:304)	LEAQ	type:*int(SB), AX
	0x001b 00027 (/bigdata/qiuhan/codet5/usage/goroot/test/codegen/slices.go:304)	MOVL	$4, BX
	0x0020 00032 (/bigdata/qiuhan/codet5/usage/goroot/test/codegen/slices.go:304)	MOVQ	BX, CX
	0x0023 00035 (/bigdata/qiuhan/codet5/usage/goroot/test/codegen/slices.go:304)	PCDATA	$1, $0
	0x0023 00035 (/bigdata/qiuhan/codet5/usage/goroot/test/codegen/slices.go:304)	CALL	runtime.makeslice(SB)
	0x0028 00040 (/bigdata/qiuhan/codet5/usage/goroot/test/codegen/slices.go:304)	MOVQ	AX, command-line-arguments..autotmp_6+40(SP)
	0x002d 00045 (/bigdata/qiuhan/codet5/usage/goroot/test/codegen/slices.go:307)	MOVQ	AX, BX
	0x0030 00048 (/bigdata/qiuhan/codet5/usage/goroot/test/codegen/slices.go:307)	MOVL	$4, CX
	0x0035 00053 (/bigdata/qiuhan/codet5/usage/goroot/test/codegen/slices.go:307)	MOVQ	BX, DI
	0x0038 00056 (/bigdata/qiuhan/codet5/usage/goroot/test/codegen/slices.go:307)	MOVQ	CX, SI
	0x003b 00059 (/bigdata/qiuhan/codet5/usage/goroot/test/codegen/slices.go:307)	LEAQ	type:*int(SB), AX
	0x0042 00066 (/bigdata/qiuhan/codet5/usage/goroot/test/codegen/slices.go:307)	PCDATA	$1, $1
	0x0042 00066 (/bigdata/qiuhan/codet5/usage/goroot/test/codegen/slices.go:307)	CALL	runtime.typedslicecopy(SB)
	0x0047 00071 (/bigdata/qiuhan/codet5/usage/goroot/test/codegen/slices.go:308)	MOVQ	command-line-arguments..autotmp_6+40(SP), AX
	0x004c 00076 (/bigdata/qiuhan/codet5/usage/goroot/test/codegen/slices.go:308)	MOVL	$4, BX
	0x0051 00081 (/bigdata/qiuhan/codet5/usage/goroot/test/codegen/slices.go:308)	MOVQ	BX, CX
	0x0054 00084 (/bigdata/qiuhan/codet5/usage/goroot/test/codegen/slices.go:308)	MOVQ	48(SP), BP
	0x0059 00089 (/bigdata/qiuhan/codet5/usage/goroot/test/codegen/slices.go:308)	ADDQ	$56, SP
	0x005d 00093 (/bigdata/qiuhan/codet5/usage/goroot/test/codegen/slices.go:308)	RET
	0x005e 00094 (/bigdata/qiuhan/codet5/usage/goroot/test/codegen/slices.go:308)	NOP
	0x005e 00094 (/bigdata/qiuhan/codet5/usage/goroot/test/codegen/slices.go:301)	PCDATA	$1, $-1
	0x005e 00094 (/bigdata/qiuhan/codet5/usage/goroot/test/codegen/slices.go:301)	PCDATA	$0, $-2
	0x005e 00094 (/bigdata/qiuhan/codet5/usage/goroot/test/codegen/slices.go:301)	NOP
	0x0060 00096 (/bigdata/qiuhan/codet5/usage/goroot/test/codegen/slices.go:301)	CALL	runtime.morestack_noctxt(SB)
	0x0065 00101 (/bigdata/qiuhan/codet5/usage/goroot/test/codegen/slices.go:301)	PCDATA	$0, $-1
	0x0065 00101 (/bigdata/qiuhan/codet5/usage/goroot/test/codegen/slices.go:301)	JMP	0
	0x0000 49 3b 66 10 76 58 48 83 ec 38 48 89 6c 24 30 48  I;f.vXH..8H.l$0H
	0x0010 8d 6c 24 30 48 8d 05 00 00 00 00 bb 04 00 00 00  .l$0H...........
	0x0020 48 89 d9 e8 00 00 00 00 48 89 44 24 28 48 89 c3  H.......H.D$(H..
	0x0030 b9 04 00 00 00 48 89 df 48 89 ce 48 8d 05 00 00  .....H..H..H....
	0x0040 00 00 e8 00 00 00 00 48 8b 44 24 28 bb 04 00 00  .......H.D$(....
	0x0050 00 48 89 d9 48 8b 6c 24 30 48 83 c4 38 c3 66 90  .H..H.l$0H..8.f.
	0x0060 e8 00 00 00 00 eb 99                             .......
	rel 23+4 t=14 type:*int<0>+0
	rel 36+4 t=7 runtime.makeslice<1>+0
	rel 62+4 t=14 type:*int<0>+0
	rel 67+4 t=7 runtime.typedslicecopy<1>+0
	rel 97+4 t=7 runtime.morestack_noctxt<0>+0
command-line-arguments.SliceMakeCopyNoOptTargetReference<1> STEXT size=168 args=0x18 locals=0x38 funcid=0x0 align=0x0
	0x0000 00000 (/bigdata/qiuhan/codet5/usage/goroot/test/codegen/slices.go:311)	TEXT	command-line-arguments.SliceMakeCopyNoOptTargetReference(SB), ABIInternal, $56-24
	0x0000 00000 (/bigdata/qiuhan/codet5/usage/goroot/test/codegen/slices.go:311)	CMPQ	SP, 16(R14)
	0x0004 00004 (/bigdata/qiuhan/codet5/usage/goroot/test/codegen/slices.go:311)	PCDATA	$0, $-2
	0x0004 00004 (/bigdata/qiuhan/codet5/usage/goroot/test/codegen/slices.go:311)	JLS	128
	0x0006 00006 (/bigdata/qiuhan/codet5/usage/goroot/test/codegen/slices.go:311)	PCDATA	$0, $-1
	0x0006 00006 (/bigdata/qiuhan/codet5/usage/goroot/test/codegen/slices.go:311)	SUBQ	$56, SP
	0x000a 00010 (/bigdata/qiuhan/codet5/usage/goroot/test/codegen/slices.go:311)	MOVQ	BP, 48(SP)
	0x000f 00015 (/bigdata/qiuhan/codet5/usage/goroot/test/codegen/slices.go:311)	LEAQ	48(SP), BP
	0x0014 00020 (/bigdata/qiuhan/codet5/usage/goroot/test/codegen/slices.go:311)	FUNCDATA	$0, gclocals·ZzMiPAiVBg7DJ6dh/CjSag==(SB)
	0x0014 00020 (/bigdata/qiuhan/codet5/usage/goroot/test/codegen/slices.go:311)	FUNCDATA	$1, gclocals·VtCL4RdUwCqwXEPeyJllRA==(SB)
	0x0014 00020 (/bigdata/qiuhan/codet5/usage/goroot/test/codegen/slices.go:311)	FUNCDATA	$5, command-line-arguments.SliceMakeCopyNoOptTargetReference.arginfo1(SB)
	0x0014 00020 (/bigdata/qiuhan/codet5/usage/goroot/test/codegen/slices.go:311)	FUNCDATA	$6, command-line-arguments.SliceMakeCopyNoOptTargetReference.argliveinfo(SB)
	0x0014 00020 (/bigdata/qiuhan/codet5/usage/goroot/test/codegen/slices.go:311)	PCDATA	$3, $1
	0x0014 00020 (/bigdata/qiuhan/codet5/usage/goroot/test/codegen/slices.go:317)	MOVQ	AX, command-line-arguments.s+64(SP)
	0x0019 00025 (/bigdata/qiuhan/codet5/usage/goroot/test/codegen/slices.go:317)	MOVQ	CX, command-line-arguments.s+80(SP)
	0x001e 00030 (/bigdata/qiuhan/codet5/usage/goroot/test/codegen/slices.go:317)	PCDATA	$3, $2
	0x001e 00030 (/bigdata/qiuhan/codet5/usage/goroot/test/codegen/slices.go:314)	MOVL	$4, BX
	0x0023 00035 (/bigdata/qiuhan/codet5/usage/goroot/test/codegen/slices.go:314)	LEAQ	type:*int(SB), AX
	0x002a 00042 (/bigdata/qiuhan/codet5/usage/goroot/test/codegen/slices.go:314)	MOVQ	BX, CX
	0x002d 00045 (/bigdata/qiuhan/codet5/usage/goroot/test/codegen/slices.go:314)	PCDATA	$1, $0
	0x002d 00045 (/bigdata/qiuhan/codet5/usage/goroot/test/codegen/slices.go:314)	CALL	runtime.makeslice(SB)
	0x0032 00050 (/bigdata/qiuhan/codet5/usage/goroot/test/codegen/slices.go:317)	MOVQ	command-line-arguments.s+80(SP), DX
	0x0037 00055 (/bigdata/qiuhan/codet5/usage/goroot/test/codegen/slices.go:317)	CMPQ	DX, $4
	0x003b 00059 (/bigdata/qiuhan/codet5/usage/goroot/test/codegen/slices.go:317)	JCS	117
	0x003d 00061 (/bigdata/qiuhan/codet5/usage/goroot/test/codegen/slices.go:314)	MOVQ	AX, command-line-arguments..autotmp_8+40(SP)
	0x0042 00066 (/bigdata/qiuhan/codet5/usage/goroot/test/codegen/slices.go:317)	MOVQ	AX, BX
	0x0045 00069 (/bigdata/qiuhan/codet5/usage/goroot/test/codegen/slices.go:317)	MOVL	$4, CX
	0x004a 00074 (/bigdata/qiuhan/codet5/usage/goroot/test/codegen/slices.go:317)	MOVQ	command-line-arguments.s+64(SP), DI
	0x004f 00079 (/bigdata/qiuhan/codet5/usage/goroot/test/codegen/slices.go:317)	MOVQ	CX, SI
	0x0052 00082 (/bigdata/qiuhan/codet5/usage/goroot/test/codegen/slices.go:317)	LEAQ	type:*int(SB), AX
	0x0059 00089 (/bigdata/qiuhan/codet5/usage/goroot/test/codegen/slices.go:317)	PCDATA	$1, $1
	0x0059 00089 (/bigdata/qiuhan/codet5/usage/goroot/test/codegen/slices.go:317)	CALL	runtime.typedslicecopy(SB)
	0x005e 00094 (/bigdata/qiuhan/codet5/usage/goroot/test/codegen/slices.go:318)	MOVQ	command-line-arguments..autotmp_8+40(SP), AX
	0x0063 00099 (/bigdata/qiuhan/codet5/usage/goroot/test/codegen/slices.go:318)	MOVL	$4, BX
	0x0068 00104 (/bigdata/qiuhan/codet5/usage/goroot/test/codegen/slices.go:318)	MOVQ	BX, CX
	0x006b 00107 (/bigdata/qiuhan/codet5/usage/goroot/test/codegen/slices.go:318)	MOVQ	48(SP), BP
	0x0070 00112 (/bigdata/qiuhan/codet5/usage/goroot/test/codegen/slices.go:318)	ADDQ	$56, SP
	0x0074 00116 (/bigdata/qiuhan/codet5/usage/goroot/test/codegen/slices.go:318)	RET
	0x0075 00117 (/bigdata/qiuhan/codet5/usage/goroot/test/codegen/slices.go:317)	MOVL	$4, CX
	0x007a 00122 (/bigdata/qiuhan/codet5/usage/goroot/test/codegen/slices.go:317)	PCDATA	$1, $2
	0x007a 00122 (/bigdata/qiuhan/codet5/usage/goroot/test/codegen/slices.go:317)	CALL	runtime.panicSliceAcap(SB)
	0x007f 00127 (/bigdata/qiuhan/codet5/usage/goroot/test/codegen/slices.go:317)	XCHGL	AX, AX
	0x0080 00128 (/bigdata/qiuhan/codet5/usage/goroot/test/codegen/slices.go:317)	NOP
	0x0080 00128 (/bigdata/qiuhan/codet5/usage/goroot/test/codegen/slices.go:311)	PCDATA	$1, $-1
	0x0080 00128 (/bigdata/qiuhan/codet5/usage/goroot/test/codegen/slices.go:311)	PCDATA	$0, $-2
	0x0080 00128 (/bigdata/qiuhan/codet5/usage/goroot/test/codegen/slices.go:311)	MOVQ	AX, 8(SP)
	0x0085 00133 (/bigdata/qiuhan/codet5/usage/goroot/test/codegen/slices.go:311)	MOVQ	BX, 16(SP)
	0x008a 00138 (/bigdata/qiuhan/codet5/usage/goroot/test/codegen/slices.go:311)	MOVQ	CX, 24(SP)
	0x008f 00143 (/bigdata/qiuhan/codet5/usage/goroot/test/codegen/slices.go:311)	CALL	runtime.morestack_noctxt(SB)
	0x0094 00148 (/bigdata/qiuhan/codet5/usage/goroot/test/codegen/slices.go:311)	MOVQ	8(SP), AX
	0x0099 00153 (/bigdata/qiuhan/codet5/usage/goroot/test/codegen/slices.go:311)	MOVQ	16(SP), BX
	0x009e 00158 (/bigdata/qiuhan/codet5/usage/goroot/test/codegen/slices.go:311)	MOVQ	24(SP), CX
	0x00a3 00163 (/bigdata/qiuhan/codet5/usage/goroot/test/codegen/slices.go:311)	PCDATA	$0, $-1
	0x00a3 00163 (/bigdata/qiuhan/codet5/usage/goroot/test/codegen/slices.go:311)	JMP	0
	0x0000 49 3b 66 10 76 7a 48 83 ec 38 48 89 6c 24 30 48  I;f.vzH..8H.l$0H
	0x0010 8d 6c 24 30 48 89 44 24 40 48 89 4c 24 50 bb 04  .l$0H.D$@H.L$P..
	0x0020 00 00 00 48 8d 05 00 00 00 00 48 89 d9 e8 00 00  ...H......H.....
	0x0030 00 00 48 8b 54 24 50 48 83 fa 04 72 38 48 89 44  ..H.T$PH...r8H.D
	0x0040 24 28 48 89 c3 b9 04 00 00 00 48 8b 7c 24 40 48  $(H.......H.|$@H
	0x0050 89 ce 48 8d 05 00 00 00 00 e8 00 00 00 00 48 8b  ..H...........H.
	0x0060 44 24 28 bb 04 00 00 00 48 89 d9 48 8b 6c 24 30  D$(.....H..H.l$0
	0x0070 48 83 c4 38 c3 b9 04 00 00 00 e8 00 00 00 00 90  H..8............
	0x0080 48 89 44 24 08 48 89 5c 24 10 48 89 4c 24 18 e8  H.D$.H.\$.H.L$..
	0x0090 00 00 00 00 48 8b 44 24 08 48 8b 5c 24 10 48 8b  ....H.D$.H.\$.H.
	0x00a0 4c 24 18 e9 58 ff ff ff                          L$..X...
	rel 38+4 t=14 type:*int<0>+0
	rel 46+4 t=7 runtime.makeslice<1>+0
	rel 85+4 t=14 type:*int<0>+0
	rel 90+4 t=7 runtime.typedslicecopy<1>+0
	rel 123+4 t=7 runtime.panicSliceAcap<1>+0
	rel 144+4 t=7 runtime.morestack_noctxt<0>+0
command-line-arguments.SliceMakeCopyNoOptCap<1> STEXT size=141 args=0x18 locals=0x28 funcid=0x0 align=0x0
	0x0000 00000 (/bigdata/qiuhan/codet5/usage/goroot/test/codegen/slices.go:321)	TEXT	command-line-arguments.SliceMakeCopyNoOptCap(SB), ABIInternal, $40-24
	0x0000 00000 (/bigdata/qiuhan/codet5/usage/goroot/test/codegen/slices.go:321)	CMPQ	SP, 16(R14)
	0x0004 00004 (/bigdata/qiuhan/codet5/usage/goroot/test/codegen/slices.go:321)	PCDATA	$0, $-2
	0x0004 00004 (/bigdata/qiuhan/codet5/usage/goroot/test/codegen/slices.go:321)	JLS	101
	0x0006 00006 (/bigdata/qiuhan/codet5/usage/goroot/test/codegen/slices.go:321)	PCDATA	$0, $-1
	0x0006 00006 (/bigdata/qiuhan/codet5/usage/goroot/test/codegen/slices.go:321)	SUBQ	$40, SP
	0x000a 00010 (/bigdata/qiuhan/codet5/usage/goroot/test/codegen/slices.go:321)	MOVQ	BP, 32(SP)
	0x000f 00015 (/bigdata/qiuhan/codet5/usage/goroot/test/codegen/slices.go:321)	LEAQ	32(SP), BP
	0x0014 00020 (/bigdata/qiuhan/codet5/usage/goroot/test/codegen/slices.go:321)	FUNCDATA	$0, gclocals·m/6RUmNv6NBhMUL8eleFFA==(SB)
	0x0014 00020 (/bigdata/qiuhan/codet5/usage/goroot/test/codegen/slices.go:321)	FUNCDATA	$1, gclocals·VtCL4RdUwCqwXEPeyJllRA==(SB)
	0x0014 00020 (/bigdata/qiuhan/codet5/usage/goroot/test/codegen/slices.go:321)	FUNCDATA	$5, command-line-arguments.SliceMakeCopyNoOptCap.arginfo1(SB)
	0x0014 00020 (/bigdata/qiuhan/codet5/usage/goroot/test/codegen/slices.go:321)	FUNCDATA	$6, command-line-arguments.SliceMakeCopyNoOptCap.argliveinfo(SB)
	0x0014 00020 (/bigdata/qiuhan/codet5/usage/goroot/test/codegen/slices.go:321)	PCDATA	$3, $1
	0x0014 00020 (/bigdata/qiuhan/codet5/usage/goroot/test/codegen/slices.go:324)	MOVQ	BX, command-line-arguments.s+56(SP)
	0x0019 00025 (/bigdata/qiuhan/codet5/usage/goroot/test/codegen/slices.go:321)	MOVQ	AX, command-line-arguments.s+48(SP)
	0x001e 00030 (/bigdata/qiuhan/codet5/usage/goroot/test/codegen/slices.go:321)	PCDATA	$3, $2
	0x001e 00030 (/bigdata/qiuhan/codet5/usage/goroot/test/codegen/slices.go:324)	MOVL	$9, CX
	0x0023 00035 (/bigdata/qiuhan/codet5/usage/goroot/test/codegen/slices.go:324)	LEAQ	type:int(SB), AX
	0x002a 00042 (/bigdata/qiuhan/codet5/usage/goroot/test/codegen/slices.go:324)	PCDATA	$1, $0
	0x002a 00042 (/bigdata/qiuhan/codet5/usage/goroot/test/codegen/slices.go:324)	CALL	runtime.makeslice(SB)
	0x002f 00047 (/bigdata/qiuhan/codet5/usage/goroot/test/codegen/slices.go:327)	MOVQ	command-line-arguments.s+48(SP), BX
	0x0034 00052 (/bigdata/qiuhan/codet5/usage/goroot/test/codegen/slices.go:327)	CMPQ	AX, BX
	0x0037 00055 (/bigdata/qiuhan/codet5/usage/goroot/test/codegen/slices.go:327)	JEQ	81
	0x0039 00057 (/bigdata/qiuhan/codet5/usage/goroot/test/codegen/slices.go:324)	MOVQ	AX, command-line-arguments..autotmp_11+24(SP)
	0x003e 00062 (/bigdata/qiuhan/codet5/usage/goroot/test/codegen/slices.go:327)	MOVQ	command-line-arguments.s+56(SP), CX
	0x0043 00067 (/bigdata/qiuhan/codet5/usage/goroot/test/codegen/slices.go:327)	SHLQ	$3, CX
	0x0047 00071 (/bigdata/qiuhan/codet5/usage/goroot/test/codegen/slices.go:327)	PCDATA	$1, $1
	0x0047 00071 (/bigdata/qiuhan/codet5/usage/goroot/test/codegen/slices.go:327)	CALL	runtime.memmove(SB)
	0x004c 00076 (/bigdata/qiuhan/codet5/usage/goroot/test/codegen/slices.go:328)	MOVQ	command-line-arguments..autotmp_11+24(SP), AX
	0x0051 00081 (/bigdata/qiuhan/codet5/usage/goroot/test/codegen/slices.go:328)	MOVQ	command-line-arguments.s+56(SP), BX
	0x0056 00086 (/bigdata/qiuhan/codet5/usage/goroot/test/codegen/slices.go:328)	MOVL	$9, CX
	0x005b 00091 (/bigdata/qiuhan/codet5/usage/goroot/test/codegen/slices.go:328)	MOVQ	32(SP), BP
	0x0060 00096 (/bigdata/qiuhan/codet5/usage/goroot/test/codegen/slices.go:328)	ADDQ	$40, SP
	0x0064 00100 (/bigdata/qiuhan/codet5/usage/goroot/test/codegen/slices.go:328)	RET
	0x0065 00101 (/bigdata/qiuhan/codet5/usage/goroot/test/codegen/slices.go:328)	NOP
	0x0065 00101 (/bigdata/qiuhan/codet5/usage/goroot/test/codegen/slices.go:321)	PCDATA	$1, $-1
	0x0065 00101 (/bigdata/qiuhan/codet5/usage/goroot/test/codegen/slices.go:321)	PCDATA	$0, $-2
	0x0065 00101 (/bigdata/qiuhan/codet5/usage/goroot/test/codegen/slices.go:321)	MOVQ	AX, 8(SP)
	0x006a 00106 (/bigdata/qiuhan/codet5/usage/goroot/test/codegen/slices.go:321)	MOVQ	BX, 16(SP)
	0x006f 00111 (/bigdata/qiuhan/codet5/usage/goroot/test/codegen/slices.go:321)	MOVQ	CX, 24(SP)
	0x0074 00116 (/bigdata/qiuhan/codet5/usage/goroot/test/codegen/slices.go:321)	CALL	runtime.morestack_noctxt(SB)
	0x0079 00121 (/bigdata/qiuhan/codet5/usage/goroot/test/codegen/slices.go:321)	MOVQ	8(SP), AX
	0x007e 00126 (/bigdata/qiuhan/codet5/usage/goroot/test/codegen/slices.go:321)	MOVQ	16(SP), BX
	0x0083 00131 (/bigdata/qiuhan/codet5/usage/goroot/test/codegen/slices.go:321)	MOVQ	24(SP), CX
	0x0088 00136 (/bigdata/qiuhan/codet5/usage/goroot/test/codegen/slices.go:321)	PCDATA	$0, $-1
	0x0088 00136 (/bigdata/qiuhan/codet5/usage/goroot/test/codegen/slices.go:321)	JMP	0
	0x0000 49 3b 66 10 76 5f 48 83 ec 28 48 89 6c 24 20 48  I;f.v_H..(H.l$ H
	0x0010 8d 6c 24 20 48 89 5c 24 38 48 89 44 24 30 b9 09  .l$ H.\$8H.D$0..
	0x0020 00 00 00 48 8d 05 00 00 00 00 e8 00 00 00 00 48  ...H...........H
	0x0030 8b 5c 24 30 48 39 d8 74 18 48 89 44 24 18 48 8b  .\$0H9.t.H.D$.H.
	0x0040 4c 24 38 48 c1 e1 03 e8 00 00 00 00 48 8b 44 24  L$8H........H.D$
	0x0050 18 48 8b 5c 24 38 b9 09 00 00 00 48 8b 6c 24 20  .H.\$8.....H.l$ 
	0x0060 48 83 c4 28 c3 48 89 44 24 08 48 89 5c 24 10 48  H..(.H.D$.H.\$.H
	0x0070 89 4c 24 18 e8 00 00 00 00 48 8b 44 24 08 48 8b  .L$......H.D$.H.
	0x0080 5c 24 10 48 8b 4c 24 18 e9 73 ff ff ff           \$.H.L$..s...
	rel 38+4 t=14 type:int<0>+0
	rel 43+4 t=7 runtime.makeslice<1>+0
	rel 72+4 t=7 runtime.memmove<1>+0
	rel 117+4 t=7 runtime.morestack_noctxt<0>+0
command-line-arguments.SliceMakeCopyNoMemmoveDifferentLen<1> STEXT size=110 args=0x18 locals=0x30 funcid=0x0 align=0x0
	0x0000 00000 (/bigdata/qiuhan/codet5/usage/goroot/test/codegen/slices.go:331)	TEXT	command-line-arguments.SliceMakeCopyNoMemmoveDifferentLen(SB), ABIInternal, $48-24
	0x0000 00000 (/bigdata/qiuhan/codet5/usage/goroot/test/codegen/slices.go:331)	CMPQ	SP, 16(R14)
	0x0004 00004 (/bigdata/qiuhan/codet5/usage/goroot/test/codegen/slices.go:331)	PCDATA	$0, $-2
	0x0004 00004 (/bigdata/qiuhan/codet5/usage/goroot/test/codegen/slices.go:331)	JLS	73
	0x0006 00006 (/bigdata/qiuhan/codet5/usage/goroot/test/codegen/slices.go:331)	PCDATA	$0, $-1
	0x0006 00006 (/bigdata/qiuhan/codet5/usage/goroot/test/codegen/slices.go:331)	SUBQ	$48, SP
	0x000a 00010 (/bigdata/qiuhan/codet5/usage/goroot/test/codegen/slices.go:331)	MOVQ	BP, 40(SP)
	0x000f 00015 (/bigdata/qiuhan/codet5/usage/goroot/test/codegen/slices.go:331)	LEAQ	40(SP), BP
	0x0014 00020 (/bigdata/qiuhan/codet5/usage/goroot/test/codegen/slices.go:331)	MOVQ	AX, command-line-arguments.s+56(FP)
	0x0019 00025 (/bigdata/qiuhan/codet5/usage/goroot/test/codegen/slices.go:331)	FUNCDATA	$0, gclocals·wgcWObbY2HYnK2SU/U22lA==(SB)
	0x0019 00025 (/bigdata/qiuhan/codet5/usage/goroot/test/codegen/slices.go:331)	FUNCDATA	$1, gclocals·J5F+7Qw7O7ve2QcWC7DpeQ==(SB)
	0x0019 00025 (/bigdata/qiuhan/codet5/usage/goroot/test/codegen/slices.go:331)	FUNCDATA	$5, command-line-arguments.SliceMakeCopyNoMemmoveDifferentLen.arginfo1(SB)
	0x0019 00025 (/bigdata/qiuhan/codet5/usage/goroot/test/codegen/slices.go:331)	FUNCDATA	$6, command-line-arguments.SliceMakeCopyNoMemmoveDifferentLen.argliveinfo(SB)
	0x0019 00025 (/bigdata/qiuhan/codet5/usage/goroot/test/codegen/slices.go:331)	PCDATA	$3, $1
	0x0019 00025 (/bigdata/qiuhan/codet5/usage/goroot/test/codegen/slices.go:334)	LEAQ	-1(BX), DX
	0x001d 00029 (/bigdata/qiuhan/codet5/usage/goroot/test/codegen/slices.go:334)	MOVQ	DX, command-line-arguments.a.cap+32(SP)
	0x0022 00034 (/bigdata/qiuhan/codet5/usage/goroot/test/codegen/slices.go:334)	MOVQ	BX, CX
	0x0025 00037 (/bigdata/qiuhan/codet5/usage/goroot/test/codegen/slices.go:334)	MOVQ	AX, DI
	0x0028 00040 (/bigdata/qiuhan/codet5/usage/goroot/test/codegen/slices.go:334)	LEAQ	type:int(SB), AX
	0x002f 00047 (/bigdata/qiuhan/codet5/usage/goroot/test/codegen/slices.go:334)	MOVQ	DX, BX
	0x0032 00050 (/bigdata/qiuhan/codet5/usage/goroot/test/codegen/slices.go:334)	PCDATA	$1, $1
	0x0032 00050 (/bigdata/qiuhan/codet5/usage/goroot/test/codegen/slices.go:334)	CALL	runtime.makeslicecopy(SB)
	0x0037 00055 (/bigdata/qiuhan/codet5/usage/goroot/test/codegen/slices.go:337)	MOVQ	command-line-arguments.a.cap+32(SP), BX
	0x003c 00060 (/bigdata/qiuhan/codet5/usage/goroot/test/codegen/slices.go:337)	MOVQ	BX, CX
	0x003f 00063 (/bigdata/qiuhan/codet5/usage/goroot/test/codegen/slices.go:337)	MOVQ	40(SP), BP
	0x0044 00068 (/bigdata/qiuhan/codet5/usage/goroot/test/codegen/slices.go:337)	ADDQ	$48, SP
	0x0048 00072 (/bigdata/qiuhan/codet5/usage/goroot/test/codegen/slices.go:337)	RET
	0x0049 00073 (/bigdata/qiuhan/codet5/usage/goroot/test/codegen/slices.go:337)	NOP
	0x0049 00073 (/bigdata/qiuhan/codet5/usage/goroot/test/codegen/slices.go:331)	PCDATA	$1, $-1
	0x0049 00073 (/bigdata/qiuhan/codet5/usage/goroot/test/codegen/slices.go:331)	PCDATA	$0, $-2
	0x0049 00073 (/bigdata/qiuhan/codet5/usage/goroot/test/codegen/slices.go:331)	MOVQ	AX, 8(SP)
	0x004e 00078 (/bigdata/qiuhan/codet5/usage/goroot/test/codegen/slices.go:331)	MOVQ	BX, 16(SP)
	0x0053 00083 (/bigdata/qiuhan/codet5/usage/goroot/test/codegen/slices.go:331)	MOVQ	CX, 24(SP)
	0x0058 00088 (/bigdata/qiuhan/codet5/usage/goroot/test/codegen/slices.go:331)	CALL	runtime.morestack_noctxt(SB)
	0x005d 00093 (/bigdata/qiuhan/codet5/usage/goroot/test/codegen/slices.go:331)	MOVQ	8(SP), AX
	0x0062 00098 (/bigdata/qiuhan/codet5/usage/goroot/test/codegen/slices.go:331)	MOVQ	16(SP), BX
	0x0067 00103 (/bigdata/qiuhan/codet5/usage/goroot/test/codegen/slices.go:331)	MOVQ	24(SP), CX
	0x006c 00108 (/bigdata/qiuhan/codet5/usage/goroot/test/codegen/slices.go:331)	PCDATA	$0, $-1
	0x006c 00108 (/bigdata/qiuhan/codet5/usage/goroot/test/codegen/slices.go:331)	JMP	0
	0x0000 49 3b 66 10 76 43 48 83 ec 30 48 89 6c 24 28 48  I;f.vCH..0H.l$(H
	0x0010 8d 6c 24 28 48 89 44 24 38 48 8d 53 ff 48 89 54  .l$(H.D$8H.S.H.T
	0x0020 24 20 48 89 d9 48 89 c7 48 8d 05 00 00 00 00 48  $ H..H..H......H
	0x0030 89 d3 e8 00 00 00 00 48 8b 5c 24 20 48 89 d9 48  .......H.\$ H..H
	0x0040 8b 6c 24 28 48 83 c4 30 c3 48 89 44 24 08 48 89  .l$(H..0.H.D$.H.
	0x0050 5c 24 10 48 89 4c 24 18 e8 00 00 00 00 48 8b 44  \$.H.L$......H.D
	0x0060 24 08 48 8b 5c 24 10 48 8b 4c 24 18 eb 92        $.H.\$.H.L$...
	rel 43+4 t=14 type:int<0>+0
	rel 51+4 t=7 runtime.makeslicecopy<1>+0
	rel 89+4 t=7 runtime.morestack_noctxt<0>+0
command-line-arguments.SliceNilCheck<1> STEXT nosplit size=45 args=0x18 locals=0x18 funcid=0x0 align=0x0
	0x0000 00000 (/bigdata/qiuhan/codet5/usage/goroot/test/codegen/slices.go:344)	TEXT	command-line-arguments.SliceNilCheck(SB), NOSPLIT|ABIInternal, $24-24
	0x0000 00000 (/bigdata/qiuhan/codet5/usage/goroot/test/codegen/slices.go:344)	SUBQ	$24, SP
	0x0004 00004 (/bigdata/qiuhan/codet5/usage/goroot/test/codegen/slices.go:344)	MOVQ	BP, 16(SP)
	0x0009 00009 (/bigdata/qiuhan/codet5/usage/goroot/test/codegen/slices.go:344)	LEAQ	16(SP), BP
	0x000e 00014 (/bigdata/qiuhan/codet5/usage/goroot/test/codegen/slices.go:344)	MOVQ	AX, command-line-arguments.s+32(FP)
	0x0013 00019 (/bigdata/qiuhan/codet5/usage/goroot/test/codegen/slices.go:344)	FUNCDATA	$0, gclocals·wgcWObbY2HYnK2SU/U22lA==(SB)
	0x0013 00019 (/bigdata/qiuhan/codet5/usage/goroot/test/codegen/slices.go:344)	FUNCDATA	$1, gclocals·J5F+7Qw7O7ve2QcWC7DpeQ==(SB)
	0x0013 00019 (/bigdata/qiuhan/codet5/usage/goroot/test/codegen/slices.go:344)	FUNCDATA	$5, command-line-arguments.SliceNilCheck.arginfo1(SB)
	0x0013 00019 (/bigdata/qiuhan/codet5/usage/goroot/test/codegen/slices.go:344)	FUNCDATA	$6, command-line-arguments.SliceNilCheck.argliveinfo(SB)
	0x0013 00019 (/bigdata/qiuhan/codet5/usage/goroot/test/codegen/slices.go:344)	PCDATA	$3, $1
	0x0013 00019 (/bigdata/qiuhan/codet5/usage/goroot/test/codegen/slices.go:345)	TESTQ	BX, BX
	0x0016 00022 (/bigdata/qiuhan/codet5/usage/goroot/test/codegen/slices.go:345)	JLS	34
	0x0018 00024 (/bigdata/qiuhan/codet5/usage/goroot/test/codegen/slices.go:348)	MOVQ	16(SP), BP
	0x001d 00029 (/bigdata/qiuhan/codet5/usage/goroot/test/codegen/slices.go:348)	ADDQ	$24, SP
	0x0021 00033 (/bigdata/qiuhan/codet5/usage/goroot/test/codegen/slices.go:348)	RET
	0x0022 00034 (/bigdata/qiuhan/codet5/usage/goroot/test/codegen/slices.go:345)	XORL	AX, AX
	0x0024 00036 (/bigdata/qiuhan/codet5/usage/goroot/test/codegen/slices.go:345)	MOVQ	AX, CX
	0x0027 00039 (/bigdata/qiuhan/codet5/usage/goroot/test/codegen/slices.go:345)	PCDATA	$1, $1
	0x0027 00039 (/bigdata/qiuhan/codet5/usage/goroot/test/codegen/slices.go:345)	CALL	runtime.panicIndex(SB)
	0x002c 00044 (/bigdata/qiuhan/codet5/usage/goroot/test/codegen/slices.go:345)	XCHGL	AX, AX
	0x0000 48 83 ec 18 48 89 6c 24 10 48 8d 6c 24 10 48 89  H...H.l$.H.l$.H.
	0x0010 44 24 20 48 85 db 76 0a 48 8b 6c 24 10 48 83 c4  D$ H..v.H.l$.H..
	0x0020 18 c3 31 c0 48 89 c1 e8 00 00 00 00 90           ..1.H........
	rel 40+4 t=7 runtime.panicIndex<1>+0
command-line-arguments.InitSmallSliceLiteral<1> STEXT size=71 args=0x0 locals=0x18 funcid=0x0 align=0x0
	0x0000 00000 (/bigdata/qiuhan/codet5/usage/goroot/test/codegen/slices.go:354)	TEXT	command-line-arguments.InitSmallSliceLiteral(SB), ABIInternal, $24-0
	0x0000 00000 (/bigdata/qiuhan/codet5/usage/goroot/test/codegen/slices.go:354)	CMPQ	SP, 16(R14)
	0x0004 00004 (/bigdata/qiuhan/codet5/usage/goroot/test/codegen/slices.go:354)	PCDATA	$0, $-2
	0x0004 00004 (/bigdata/qiuhan/codet5/usage/goroot/test/codegen/slices.go:354)	JLS	62
	0x0006 00006 (/bigdata/qiuhan/codet5/usage/goroot/test/codegen/slices.go:354)	PCDATA	$0, $-1
	0x0006 00006 (/bigdata/qiuhan/codet5/usage/goroot/test/codegen/slices.go:354)	SUBQ	$24, SP
	0x000a 00010 (/bigdata/qiuhan/codet5/usage/goroot/test/codegen/slices.go:354)	MOVQ	BP, 16(SP)
	0x000f 00015 (/bigdata/qiuhan/codet5/usage/goroot/test/codegen/slices.go:354)	LEAQ	16(SP), BP
	0x0014 00020 (/bigdata/qiuhan/codet5/usage/goroot/test/codegen/slices.go:354)	FUNCDATA	$0, gclocals·g2BeySu+wFnoycgXfElmcg==(SB)
	0x0014 00020 (/bigdata/qiuhan/codet5/usage/goroot/test/codegen/slices.go:354)	FUNCDATA	$1, gclocals·g2BeySu+wFnoycgXfElmcg==(SB)
	0x0014 00020 (/bigdata/qiuhan/codet5/usage/goroot/test/codegen/slices.go:356)	LEAQ	type:[1]int(SB), AX
	0x001b 00027 (/bigdata/qiuhan/codet5/usage/goroot/test/codegen/slices.go:356)	PCDATA	$1, $0
	0x001b 00027 (/bigdata/qiuhan/codet5/usage/goroot/test/codegen/slices.go:356)	NOP
	0x0020 00032 (/bigdata/qiuhan/codet5/usage/goroot/test/codegen/slices.go:356)	CALL	runtime.newobject(SB)
	0x0025 00037 (/bigdata/qiuhan/codet5/usage/goroot/test/codegen/slices.go:356)	MOVQ	$42, (AX)
	0x002c 00044 (/bigdata/qiuhan/codet5/usage/goroot/test/codegen/slices.go:356)	MOVL	$1, BX
	0x0031 00049 (/bigdata/qiuhan/codet5/usage/goroot/test/codegen/slices.go:356)	MOVQ	BX, CX
	0x0034 00052 (/bigdata/qiuhan/codet5/usage/goroot/test/codegen/slices.go:356)	MOVQ	16(SP), BP
	0x0039 00057 (/bigdata/qiuhan/codet5/usage/goroot/test/codegen/slices.go:356)	ADDQ	$24, SP
	0x003d 00061 (/bigdata/qiuhan/codet5/usage/goroot/test/codegen/slices.go:356)	RET
	0x003e 00062 (/bigdata/qiuhan/codet5/usage/goroot/test/codegen/slices.go:356)	NOP
	0x003e 00062 (/bigdata/qiuhan/codet5/usage/goroot/test/codegen/slices.go:354)	PCDATA	$1, $-1
	0x003e 00062 (/bigdata/qiuhan/codet5/usage/goroot/test/codegen/slices.go:354)	PCDATA	$0, $-2
	0x003e 00062 (/bigdata/qiuhan/codet5/usage/goroot/test/codegen/slices.go:354)	NOP
	0x0040 00064 (/bigdata/qiuhan/codet5/usage/goroot/test/codegen/slices.go:354)	CALL	runtime.morestack_noctxt(SB)
	0x0045 00069 (/bigdata/qiuhan/codet5/usage/goroot/test/codegen/slices.go:354)	PCDATA	$0, $-1
	0x0045 00069 (/bigdata/qiuhan/codet5/usage/goroot/test/codegen/slices.go:354)	JMP	0
	0x0000 49 3b 66 10 76 38 48 83 ec 18 48 89 6c 24 10 48  I;f.v8H...H.l$.H
	0x0010 8d 6c 24 10 48 8d 05 00 00 00 00 0f 1f 44 00 00  .l$.H........D..
	0x0020 e8 00 00 00 00 48 c7 00 2a 00 00 00 bb 01 00 00  .....H..*.......
	0x0030 00 48 89 d9 48 8b 6c 24 10 48 83 c4 18 c3 66 90  .H..H.l$.H....f.
	0x0040 e8 00 00 00 00 eb b9                             .......
	rel 23+4 t=14 type:[1]int<0>+0
	rel 33+4 t=7 runtime.newobject<1>+0
	rel 65+4 t=7 runtime.morestack_noctxt<0>+0
command-line-arguments.InitNotSmallSliceLiteral<1> STEXT size=108 args=0x0 locals=0x18 funcid=0x0 align=0x0
	0x0000 00000 (/bigdata/qiuhan/codet5/usage/goroot/test/codegen/slices.go:359)	TEXT	command-line-arguments.InitNotSmallSliceLiteral(SB), ABIInternal, $24-0
	0x0000 00000 (/bigdata/qiuhan/codet5/usage/goroot/test/codegen/slices.go:359)	CMPQ	SP, 16(R14)
	0x0004 00004 (/bigdata/qiuhan/codet5/usage/goroot/test/codegen/slices.go:359)	PCDATA	$0, $-2
	0x0004 00004 (/bigdata/qiuhan/codet5/usage/goroot/test/codegen/slices.go:359)	JLS	101
	0x0006 00006 (/bigdata/qiuhan/codet5/usage/goroot/test/codegen/slices.go:359)	PCDATA	$0, $-1
	0x0006 00006 (/bigdata/qiuhan/codet5/usage/goroot/test/codegen/slices.go:359)	SUBQ	$24, SP
	0x000a 00010 (/bigdata/qiuhan/codet5/usage/goroot/test/codegen/slices.go:359)	MOVQ	BP, 16(SP)
	0x000f 00015 (/bigdata/qiuhan/codet5/usage/goroot/test/codegen/slices.go:359)	LEAQ	16(SP), BP
	0x0014 00020 (/bigdata/qiuhan/codet5/usage/goroot/test/codegen/slices.go:359)	FUNCDATA	$0, gclocals·g2BeySu+wFnoycgXfElmcg==(SB)
	0x0014 00020 (/bigdata/qiuhan/codet5/usage/goroot/test/codegen/slices.go:359)	FUNCDATA	$1, gclocals·g2BeySu+wFnoycgXfElmcg==(SB)
	0x0014 00020 (/bigdata/qiuhan/codet5/usage/goroot/test/codegen/slices.go:361)	LEAQ	type:[36]int(SB), AX
	0x001b 00027 (/bigdata/qiuhan/codet5/usage/goroot/test/codegen/slices.go:361)	PCDATA	$1, $0
	0x001b 00027 (/bigdata/qiuhan/codet5/usage/goroot/test/codegen/slices.go:361)	NOP
	0x0020 00032 (/bigdata/qiuhan/codet5/usage/goroot/test/codegen/slices.go:361)	CALL	runtime.newobject(SB)
	0x0025 00037 (/bigdata/qiuhan/codet5/usage/goroot/test/codegen/slices.go:361)	MOVQ	AX, DI
	0x0028 00040 (/bigdata/qiuhan/codet5/usage/goroot/test/codegen/slices.go:361)	LEAQ	command-line-arguments..stmp_0(SB), SI
	0x002f 00047 (/bigdata/qiuhan/codet5/usage/goroot/test/codegen/slices.go:361)	PCDATA	$0, $-2
	0x002f 00047 (/bigdata/qiuhan/codet5/usage/goroot/test/codegen/slices.go:361)	NOP
	0x0040 00064 (/bigdata/qiuhan/codet5/usage/goroot/test/codegen/slices.go:361)	DUFFCOPY	$644
	0x0053 00083 (/bigdata/qiuhan/codet5/usage/goroot/test/codegen/slices.go:361)	PCDATA	$0, $-1
	0x0053 00083 (/bigdata/qiuhan/codet5/usage/goroot/test/codegen/slices.go:361)	MOVL	$36, BX
	0x0058 00088 (/bigdata/qiuhan/codet5/usage/goroot/test/codegen/slices.go:361)	MOVQ	BX, CX
	0x005b 00091 (/bigdata/qiuhan/codet5/usage/goroot/test/codegen/slices.go:361)	MOVQ	16(SP), BP
	0x0060 00096 (/bigdata/qiuhan/codet5/usage/goroot/test/codegen/slices.go:361)	ADDQ	$24, SP
	0x0064 00100 (/bigdata/qiuhan/codet5/usage/goroot/test/codegen/slices.go:361)	RET
	0x0065 00101 (/bigdata/qiuhan/codet5/usage/goroot/test/codegen/slices.go:361)	NOP
	0x0065 00101 (/bigdata/qiuhan/codet5/usage/goroot/test/codegen/slices.go:359)	PCDATA	$1, $-1
	0x0065 00101 (/bigdata/qiuhan/codet5/usage/goroot/test/codegen/slices.go:359)	PCDATA	$0, $-2
	0x0065 00101 (/bigdata/qiuhan/codet5/usage/goroot/test/codegen/slices.go:359)	CALL	runtime.morestack_noctxt(SB)
	0x006a 00106 (/bigdata/qiuhan/codet5/usage/goroot/test/codegen/slices.go:359)	PCDATA	$0, $-1
	0x006a 00106 (/bigdata/qiuhan/codet5/usage/goroot/test/codegen/slices.go:359)	JMP	0
	0x0000 49 3b 66 10 76 5f 48 83 ec 18 48 89 6c 24 10 48  I;f.v_H...H.l$.H
	0x0010 8d 6c 24 10 48 8d 05 00 00 00 00 0f 1f 44 00 00  .l$.H........D..
	0x0020 e8 00 00 00 00 48 89 c7 48 8d 35 00 00 00 00 66  .....H..H.5....f
	0x0030 0f 1f 84 00 00 00 00 00 0f 1f 84 00 00 00 00 00  ................
	0x0040 48 89 6c 24 f0 48 8d 6c 24 f0 e8 00 00 00 00 48  H.l$.H.l$......H
	0x0050 8b 6d 00 bb 24 00 00 00 48 89 d9 48 8b 6c 24 10  .m..$...H..H.l$.
	0x0060 48 83 c4 18 c3 e8 00 00 00 00 eb 94              H...........
	rel 23+4 t=14 type:[36]int<0>+0
	rel 33+4 t=7 runtime.newobject<1>+0
	rel 43+4 t=14 command-line-arguments..stmp_0<0>+0
	rel 75+4 t=7 runtime.duffcopy<1>+644
	rel 102+4 t=7 runtime.morestack_noctxt<0>+0
command-line-arguments.SliceWithConstCompare<1> STEXT size=248 args=0x20 locals=0x18 funcid=0x0 align=0x0
	0x0000 00000 (/bigdata/qiuhan/codet5/usage/goroot/test/codegen/slices.go:406)	TEXT	command-line-arguments.SliceWithConstCompare(SB), ABIInternal, $24-32
	0x0000 00000 (/bigdata/qiuhan/codet5/usage/goroot/test/codegen/slices.go:406)	CMPQ	SP, 16(R14)
	0x0004 00004 (/bigdata/qiuhan/codet5/usage/goroot/test/codegen/slices.go:406)	PCDATA	$0, $-2
	0x0004 00004 (/bigdata/qiuhan/codet5/usage/goroot/test/codegen/slices.go:406)	JLS	198
	0x000a 00010 (/bigdata/qiuhan/codet5/usage/goroot/test/codegen/slices.go:406)	PCDATA	$0, $-1
	0x000a 00010 (/bigdata/qiuhan/codet5/usage/goroot/test/codegen/slices.go:406)	SUBQ	$24, SP
	0x000e 00014 (/bigdata/qiuhan/codet5/usage/goroot/test/codegen/slices.go:406)	MOVQ	BP, 16(SP)
	0x0013 00019 (/bigdata/qiuhan/codet5/usage/goroot/test/codegen/slices.go:406)	LEAQ	16(SP), BP
	0x0018 00024 (/bigdata/qiuhan/codet5/usage/goroot/test/codegen/slices.go:406)	FUNCDATA	$0, gclocals·wgcWObbY2HYnK2SU/U22lA==(SB)
	0x0018 00024 (/bigdata/qiuhan/codet5/usage/goroot/test/codegen/slices.go:406)	FUNCDATA	$1, gclocals·J5F+7Qw7O7ve2QcWC7DpeQ==(SB)
	0x0018 00024 (/bigdata/qiuhan/codet5/usage/goroot/test/codegen/slices.go:406)	FUNCDATA	$5, command-line-arguments.SliceWithConstCompare.arginfo1(SB)
	0x0018 00024 (/bigdata/qiuhan/codet5/usage/goroot/test/codegen/slices.go:406)	FUNCDATA	$6, command-line-arguments.SliceWithConstCompare.argliveinfo(SB)
	0x0018 00024 (/bigdata/qiuhan/codet5/usage/goroot/test/codegen/slices.go:406)	PCDATA	$3, $1
	0x0018 00024 (/bigdata/qiuhan/codet5/usage/goroot/test/codegen/slices.go:406)	MOVQ	DI, command-line-arguments.b+56(SP)
	0x001d 00029 (/bigdata/qiuhan/codet5/usage/goroot/test/codegen/slices.go:406)	MOVQ	CX, command-line-arguments.a+48(SP)
	0x0022 00034 (/bigdata/qiuhan/codet5/usage/goroot/test/codegen/slices.go:406)	MOVQ	BX, command-line-arguments.a+40(SP)
	0x0027 00039 (/bigdata/qiuhan/codet5/usage/goroot/test/codegen/slices.go:406)	MOVQ	AX, command-line-arguments.a+32(SP)
	0x002c 00044 (/bigdata/qiuhan/codet5/usage/goroot/test/codegen/slices.go:406)	PCDATA	$3, $-1
	0x002c 00044 (/bigdata/qiuhan/codet5/usage/goroot/test/codegen/slices.go:407)	LEAQ	type:[5]int(SB), AX
	0x0033 00051 (/bigdata/qiuhan/codet5/usage/goroot/test/codegen/slices.go:407)	PCDATA	$1, $0
	0x0033 00051 (/bigdata/qiuhan/codet5/usage/goroot/test/codegen/slices.go:407)	CALL	runtime.newobject(SB)
	0x0038 00056 (/bigdata/qiuhan/codet5/usage/goroot/test/codegen/slices.go:407)	MOVQ	$1, (AX)
	0x003f 00063 (/bigdata/qiuhan/codet5/usage/goroot/test/codegen/slices.go:407)	MOVQ	$2, 8(AX)
	0x0047 00071 (/bigdata/qiuhan/codet5/usage/goroot/test/codegen/slices.go:407)	MOVQ	$3, 16(AX)
	0x004f 00079 (/bigdata/qiuhan/codet5/usage/goroot/test/codegen/slices.go:407)	MOVQ	$4, 24(AX)
	0x0057 00087 (/bigdata/qiuhan/codet5/usage/goroot/test/codegen/slices.go:407)	MOVQ	$5, 32(AX)
	0x005f 00095 (/bigdata/qiuhan/codet5/usage/goroot/test/codegen/slices.go:408)	MOVQ	command-line-arguments.a+40(SP), BX
	0x0064 00100 (/bigdata/qiuhan/codet5/usage/goroot/test/codegen/slices.go:408)	MOVQ	command-line-arguments.b+56(SP), CX
	0x0069 00105 (/bigdata/qiuhan/codet5/usage/goroot/test/codegen/slices.go:408)	LEAQ	(CX)(BX*1), DX
	0x006d 00109 (/bigdata/qiuhan/codet5/usage/goroot/test/codegen/slices.go:408)	CMPQ	DX, $5
	0x0071 00113 (/bigdata/qiuhan/codet5/usage/goroot/test/codegen/slices.go:408)	JGE	161
	0x0073 00115 (/bigdata/qiuhan/codet5/usage/goroot/test/codegen/slices.go:411)	CMPQ	CX, $5
	0x0077 00119 (/bigdata/qiuhan/codet5/usage/goroot/test/codegen/slices.go:411)	JHI	181
	0x0079 00121 (/bigdata/qiuhan/codet5/usage/goroot/test/codegen/slices.go:411)	LEAQ	-5(CX), BX
	0x007d 00125 (/bigdata/qiuhan/codet5/usage/goroot/test/codegen/slices.go:411)	SHLQ	$3, CX
	0x0081 00129 (/bigdata/qiuhan/codet5/usage/goroot/test/codegen/slices.go:411)	MOVQ	BX, DX
	0x0084 00132 (/bigdata/qiuhan/codet5/usage/goroot/test/codegen/slices.go:411)	SARQ	$63, BX
	0x0088 00136 (/bigdata/qiuhan/codet5/usage/goroot/test/codegen/slices.go:411)	ANDQ	BX, CX
	0x008b 00139 (/bigdata/qiuhan/codet5/usage/goroot/test/codegen/slices.go:411)	ADDQ	CX, AX
	0x008e 00142 (/bigdata/qiuhan/codet5/usage/goroot/test/codegen/slices.go:411)	NEGQ	DX
	0x0091 00145 (/bigdata/qiuhan/codet5/usage/goroot/test/codegen/slices.go:411)	MOVQ	DX, BX
	0x0094 00148 (/bigdata/qiuhan/codet5/usage/goroot/test/codegen/slices.go:411)	MOVQ	BX, CX
	0x0097 00151 (/bigdata/qiuhan/codet5/usage/goroot/test/codegen/slices.go:411)	MOVQ	16(SP), BP
	0x009c 00156 (/bigdata/qiuhan/codet5/usage/goroot/test/codegen/slices.go:411)	ADDQ	$24, SP
	0x00a0 00160 (/bigdata/qiuhan/codet5/usage/goroot/test/codegen/slices.go:411)	RET
	0x00a1 00161 (/bigdata/qiuhan/codet5/usage/goroot/test/codegen/slices.go:413)	MOVQ	command-line-arguments.a+32(SP), AX
	0x00a6 00166 (/bigdata/qiuhan/codet5/usage/goroot/test/codegen/slices.go:413)	MOVQ	command-line-arguments.a+48(SP), CX
	0x00ab 00171 (/bigdata/qiuhan/codet5/usage/goroot/test/codegen/slices.go:413)	MOVQ	16(SP), BP
	0x00b0 00176 (/bigdata/qiuhan/codet5/usage/goroot/test/codegen/slices.go:413)	ADDQ	$24, SP
	0x00b4 00180 (/bigdata/qiuhan/codet5/usage/goroot/test/codegen/slices.go:413)	RET
	0x00b5 00181 (/bigdata/qiuhan/codet5/usage/goroot/test/codegen/slices.go:411)	MOVQ	CX, AX
	0x00b8 00184 (/bigdata/qiuhan/codet5/usage/goroot/test/codegen/slices.go:411)	MOVL	$5, CX
	0x00bd 00189 (/bigdata/qiuhan/codet5/usage/goroot/test/codegen/slices.go:411)	PCDATA	$1, $1
	0x00bd 00189 (/bigdata/qiuhan/codet5/usage/goroot/test/codegen/slices.go:411)	NOP
	0x00c0 00192 (/bigdata/qiuhan/codet5/usage/goroot/test/codegen/slices.go:411)	CALL	runtime.panicSliceB(SB)
	0x00c5 00197 (/bigdata/qiuhan/codet5/usage/goroot/test/codegen/slices.go:411)	XCHGL	AX, AX
	0x00c6 00198 (/bigdata/qiuhan/codet5/usage/goroot/test/codegen/slices.go:411)	NOP
	0x00c6 00198 (/bigdata/qiuhan/codet5/usage/goroot/test/codegen/slices.go:406)	PCDATA	$1, $-1
	0x00c6 00198 (/bigdata/qiuhan/codet5/usage/goroot/test/codegen/slices.go:406)	PCDATA	$0, $-2
	0x00c6 00198 (/bigdata/qiuhan/codet5/usage/goroot/test/codegen/slices.go:406)	MOVQ	AX, 8(SP)
	0x00cb 00203 (/bigdata/qiuhan/codet5/usage/goroot/test/codegen/slices.go:406)	MOVQ	BX, 16(SP)
	0x00d0 00208 (/bigdata/qiuhan/codet5/usage/goroot/test/codegen/slices.go:406)	MOVQ	CX, 24(SP)
	0x00d5 00213 (/bigdata/qiuhan/codet5/usage/goroot/test/codegen/slices.go:406)	MOVQ	DI, 32(SP)
	0x00da 00218 (/bigdata/qiuhan/codet5/usage/goroot/test/codegen/slices.go:406)	CALL	runtime.morestack_noctxt(SB)
	0x00df 00223 (/bigdata/qiuhan/codet5/usage/goroot/test/codegen/slices.go:406)	MOVQ	8(SP), AX
	0x00e4 00228 (/bigdata/qiuhan/codet5/usage/goroot/test/codegen/slices.go:406)	MOVQ	16(SP), BX
	0x00e9 00233 (/bigdata/qiuhan/codet5/usage/goroot/test/codegen/slices.go:406)	MOVQ	24(SP), CX
	0x00ee 00238 (/bigdata/qiuhan/codet5/usage/goroot/test/codegen/slices.go:406)	MOVQ	32(SP), DI
	0x00f3 00243 (/bigdata/qiuhan/codet5/usage/goroot/test/codegen/slices.go:406)	PCDATA	$0, $-1
	0x00f3 00243 (/bigdata/qiuhan/codet5/usage/goroot/test/codegen/slices.go:406)	JMP	0
	0x0000 49 3b 66 10 0f 86 bc 00 00 00 48 83 ec 18 48 89  I;f.......H...H.
	0x0010 6c 24 10 48 8d 6c 24 10 48 89 7c 24 38 48 89 4c  l$.H.l$.H.|$8H.L
	0x0020 24 30 48 89 5c 24 28 48 89 44 24 20 48 8d 05 00  $0H.\$(H.D$ H...
	0x0030 00 00 00 e8 00 00 00 00 48 c7 00 01 00 00 00 48  ........H......H
	0x0040 c7 40 08 02 00 00 00 48 c7 40 10 03 00 00 00 48  .@.....H.@.....H
	0x0050 c7 40 18 04 00 00 00 48 c7 40 20 05 00 00 00 48  .@.....H.@ ....H
	0x0060 8b 5c 24 28 48 8b 4c 24 38 48 8d 14 19 48 83 fa  .\$(H.L$8H...H..
	0x0070 05 7d 2e 48 83 f9 05 77 3c 48 8d 59 fb 48 c1 e1  .}.H...w<H.Y.H..
	0x0080 03 48 89 da 48 c1 fb 3f 48 21 d9 48 01 c8 48 f7  .H..H..?H!.H..H.
	0x0090 da 48 89 d3 48 89 d9 48 8b 6c 24 10 48 83 c4 18  .H..H..H.l$.H...
	0x00a0 c3 48 8b 44 24 20 48 8b 4c 24 30 48 8b 6c 24 10  .H.D$ H.L$0H.l$.
	0x00b0 48 83 c4 18 c3 48 89 c8 b9 05 00 00 00 0f 1f 00  H....H..........
	0x00c0 e8 00 00 00 00 90 48 89 44 24 08 48 89 5c 24 10  ......H.D$.H.\$.
	0x00d0 48 89 4c 24 18 48 89 7c 24 20 e8 00 00 00 00 48  H.L$.H.|$ .....H
	0x00e0 8b 44 24 08 48 8b 5c 24 10 48 8b 4c 24 18 48 8b  .D$.H.\$.H.L$.H.
	0x00f0 7c 24 20 e9 08 ff ff ff                          |$ .....
	rel 47+4 t=14 type:[5]int<0>+0
	rel 52+4 t=7 runtime.newobject<1>+0
	rel 193+4 t=7 runtime.panicSliceB<1>+0
	rel 219+4 t=7 runtime.morestack_noctxt<0>+0
command-line-arguments.SliceWithSubtractBound<1> STEXT nosplit size=92 args=0x20 locals=0x18 funcid=0x0 align=0x0
	0x0000 00000 (/bigdata/qiuhan/codet5/usage/goroot/test/codegen/slices.go:416)	TEXT	command-line-arguments.SliceWithSubtractBound(SB), NOSPLIT|ABIInternal, $24-32
	0x0000 00000 (/bigdata/qiuhan/codet5/usage/goroot/test/codegen/slices.go:416)	SUBQ	$24, SP
	0x0004 00004 (/bigdata/qiuhan/codet5/usage/goroot/test/codegen/slices.go:416)	MOVQ	BP, 16(SP)
	0x0009 00009 (/bigdata/qiuhan/codet5/usage/goroot/test/codegen/slices.go:416)	LEAQ	16(SP), BP
	0x000e 00014 (/bigdata/qiuhan/codet5/usage/goroot/test/codegen/slices.go:416)	MOVQ	AX, command-line-arguments.a+32(FP)
	0x0013 00019 (/bigdata/qiuhan/codet5/usage/goroot/test/codegen/slices.go:416)	FUNCDATA	$0, gclocals·wgcWObbY2HYnK2SU/U22lA==(SB)
	0x0013 00019 (/bigdata/qiuhan/codet5/usage/goroot/test/codegen/slices.go:416)	FUNCDATA	$1, gclocals·J5F+7Qw7O7ve2QcWC7DpeQ==(SB)
	0x0013 00019 (/bigdata/qiuhan/codet5/usage/goroot/test/codegen/slices.go:416)	FUNCDATA	$5, command-line-arguments.SliceWithSubtractBound.arginfo1(SB)
	0x0013 00019 (/bigdata/qiuhan/codet5/usage/goroot/test/codegen/slices.go:416)	FUNCDATA	$6, command-line-arguments.SliceWithSubtractBound.argliveinfo(SB)
	0x0013 00019 (/bigdata/qiuhan/codet5/usage/goroot/test/codegen/slices.go:416)	PCDATA	$3, $1
	0x0013 00019 (/bigdata/qiuhan/codet5/usage/goroot/test/codegen/slices.go:419)	LEAQ	-3(DI), DX
	0x0017 00023 (/bigdata/qiuhan/codet5/usage/goroot/test/codegen/slices.go:419)	NEGQ	DX
	0x001a 00026 (/bigdata/qiuhan/codet5/usage/goroot/test/codegen/slices.go:419)	CMPQ	BX, DX
	0x001d 00029 (/bigdata/qiuhan/codet5/usage/goroot/test/codegen/slices.go:419)	JCS	80
	0x001f 00031 (/bigdata/qiuhan/codet5/usage/goroot/test/codegen/slices.go:419)	LEAQ	(CX)(DI*1), CX
	0x0023 00035 (/bigdata/qiuhan/codet5/usage/goroot/test/codegen/slices.go:419)	LEAQ	-3(CX), CX
	0x0027 00039 (/bigdata/qiuhan/codet5/usage/goroot/test/codegen/slices.go:419)	LEAQ	(BX)(DI*1), BX
	0x002b 00043 (/bigdata/qiuhan/codet5/usage/goroot/test/codegen/slices.go:419)	LEAQ	-3(BX), BX
	0x002f 00047 (/bigdata/qiuhan/codet5/usage/goroot/test/codegen/slices.go:419)	MOVQ	CX, SI
	0x0032 00050 (/bigdata/qiuhan/codet5/usage/goroot/test/codegen/slices.go:419)	NEGQ	CX
	0x0035 00053 (/bigdata/qiuhan/codet5/usage/goroot/test/codegen/slices.go:419)	SHLQ	$3, DX
	0x0039 00057 (/bigdata/qiuhan/codet5/usage/goroot/test/codegen/slices.go:419)	SARQ	$63, CX
	0x003d 00061 (/bigdata/qiuhan/codet5/usage/goroot/test/codegen/slices.go:419)	ANDQ	CX, DX
	0x0040 00064 (/bigdata/qiuhan/codet5/usage/goroot/test/codegen/slices.go:419)	ADDQ	DX, AX
	0x0043 00067 (/bigdata/qiuhan/codet5/usage/goroot/test/codegen/slices.go:419)	MOVQ	SI, CX
	0x0046 00070 (/bigdata/qiuhan/codet5/usage/goroot/test/codegen/slices.go:419)	MOVQ	16(SP), BP
	0x004b 00075 (/bigdata/qiuhan/codet5/usage/goroot/test/codegen/slices.go:419)	ADDQ	$24, SP
	0x004f 00079 (/bigdata/qiuhan/codet5/usage/goroot/test/codegen/slices.go:419)	RET
	0x0050 00080 (/bigdata/qiuhan/codet5/usage/goroot/test/codegen/slices.go:419)	MOVQ	DX, AX
	0x0053 00083 (/bigdata/qiuhan/codet5/usage/goroot/test/codegen/slices.go:419)	MOVQ	BX, CX
	0x0056 00086 (/bigdata/qiuhan/codet5/usage/goroot/test/codegen/slices.go:419)	PCDATA	$1, $1
	0x0056 00086 (/bigdata/qiuhan/codet5/usage/goroot/test/codegen/slices.go:419)	CALL	runtime.panicSliceB(SB)
	0x005b 00091 (/bigdata/qiuhan/codet5/usage/goroot/test/codegen/slices.go:419)	XCHGL	AX, AX
	0x0000 48 83 ec 18 48 89 6c 24 10 48 8d 6c 24 10 48 89  H...H.l$.H.l$.H.
	0x0010 44 24 20 48 8d 57 fd 48 f7 da 48 39 d3 72 31 48  D$ H.W.H..H9.r1H
	0x0020 8d 0c 39 48 8d 49 fd 48 8d 1c 3b 48 8d 5b fd 48  ..9H.I.H..;H.[.H
	0x0030 89 ce 48 f7 d9 48 c1 e2 03 48 c1 f9 3f 48 21 ca  ..H..H...H..?H!.
	0x0040 48 01 d0 48 89 f1 48 8b 6c 24 10 48 83 c4 18 c3  H..H..H.l$.H....
	0x0050 48 89 d0 48 89 d9 e8 00 00 00 00 90              H..H........
	rel 87+4 t=7 runtime.panicSliceB<1>+0
command-line-arguments.Slice1<1> STEXT size=102 args=0x10 locals=0x8 funcid=0x0 align=0x0
	0x0000 00000 (/bigdata/qiuhan/codet5/usage/goroot/test/codegen/slices.go:426)	TEXT	command-line-arguments.Slice1(SB), ABIInternal, $8-16
	0x0000 00000 (/bigdata/qiuhan/codet5/usage/goroot/test/codegen/slices.go:426)	CMPQ	SP, 16(R14)
	0x0004 00004 (/bigdata/qiuhan/codet5/usage/goroot/test/codegen/slices.go:426)	PCDATA	$0, $-2
	0x0004 00004 (/bigdata/qiuhan/codet5/usage/goroot/test/codegen/slices.go:426)	JLS	75
	0x0006 00006 (/bigdata/qiuhan/codet5/usage/goroot/test/codegen/slices.go:426)	PCDATA	$0, $-1
	0x0006 00006 (/bigdata/qiuhan/codet5/usage/goroot/test/codegen/slices.go:426)	SUBQ	$8, SP
	0x000a 00010 (/bigdata/qiuhan/codet5/usage/goroot/test/codegen/slices.go:426)	MOVQ	BP, (SP)
	0x000e 00014 (/bigdata/qiuhan/codet5/usage/goroot/test/codegen/slices.go:426)	LEAQ	(SP), BP
	0x0012 00018 (/bigdata/qiuhan/codet5/usage/goroot/test/codegen/slices.go:426)	FUNCDATA	$0, gclocals·wgcWObbY2HYnK2SU/U22lA==(SB)
	0x0012 00018 (/bigdata/qiuhan/codet5/usage/goroot/test/codegen/slices.go:426)	FUNCDATA	$1, gclocals·J5F+7Qw7O7ve2QcWC7DpeQ==(SB)
	0x0012 00018 (/bigdata/qiuhan/codet5/usage/goroot/test/codegen/slices.go:426)	FUNCDATA	$5, command-line-arguments.Slice1.arginfo1(SB)
	0x0012 00018 (/bigdata/qiuhan/codet5/usage/goroot/test/codegen/slices.go:426)	FUNCDATA	$6, command-line-arguments.Slice1.argliveinfo(SB)
	0x0012 00018 (/bigdata/qiuhan/codet5/usage/goroot/test/codegen/slices.go:426)	PCDATA	$3, $1
	0x0012 00018 (/bigdata/qiuhan/codet5/usage/goroot/test/codegen/slices.go:428)	TESTQ	BX, BX
	0x0015 00021 (/bigdata/qiuhan/codet5/usage/goroot/test/codegen/slices.go:428)	JLT	69
	0x0017 00023 (/bigdata/qiuhan/codet5/usage/goroot/test/codegen/slices.go:428)	MOVQ	AX, DX
	0x001a 00026 (/bigdata/qiuhan/codet5/usage/goroot/test/codegen/slices.go:428)	NEGQ	AX
	0x001d 00029 (/bigdata/qiuhan/codet5/usage/goroot/test/codegen/slices.go:428)	NOP
	0x0020 00032 (/bigdata/qiuhan/codet5/usage/goroot/test/codegen/slices.go:428)	CMPQ	BX, AX
	0x0023 00035 (/bigdata/qiuhan/codet5/usage/goroot/test/codegen/slices.go:428)	JHI	52
	0x0025 00037 (/bigdata/qiuhan/codet5/usage/goroot/test/codegen/slices.go:428)	MOVQ	DX, AX
	0x0028 00040 (/bigdata/qiuhan/codet5/usage/goroot/test/codegen/slices.go:428)	MOVQ	BX, CX
	0x002b 00043 (/bigdata/qiuhan/codet5/usage/goroot/test/codegen/slices.go:428)	MOVQ	(SP), BP
	0x002f 00047 (/bigdata/qiuhan/codet5/usage/goroot/test/codegen/slices.go:428)	ADDQ	$8, SP
	0x0033 00051 (/bigdata/qiuhan/codet5/usage/goroot/test/codegen/slices.go:428)	RET
	0x0034 00052 (/bigdata/qiuhan/codet5/usage/goroot/test/codegen/slices.go:428)	TESTQ	DX, DX
	0x0037 00055 (/bigdata/qiuhan/codet5/usage/goroot/test/codegen/slices.go:428)	JEQ	64
	0x0039 00057 (/bigdata/qiuhan/codet5/usage/goroot/test/codegen/slices.go:428)	PCDATA	$1, $1
	0x0039 00057 (/bigdata/qiuhan/codet5/usage/goroot/test/codegen/slices.go:428)	CALL	runtime.panicunsafeslicelen(SB)
	0x003e 00062 (/bigdata/qiuhan/codet5/usage/goroot/test/codegen/slices.go:428)	NOP
	0x0040 00064 (/bigdata/qiuhan/codet5/usage/goroot/test/codegen/slices.go:428)	CALL	runtime.panicunsafeslicenilptr(SB)
	0x0045 00069 (/bigdata/qiuhan/codet5/usage/goroot/test/codegen/slices.go:428)	CALL	runtime.panicunsafeslicelen(SB)
	0x004a 00074 (/bigdata/qiuhan/codet5/usage/goroot/test/codegen/slices.go:428)	XCHGL	AX, AX
	0x004b 00075 (/bigdata/qiuhan/codet5/usage/goroot/test/codegen/slices.go:428)	NOP
	0x004b 00075 (/bigdata/qiuhan/codet5/usage/goroot/test/codegen/slices.go:426)	PCDATA	$1, $-1
	0x004b 00075 (/bigdata/qiuhan/codet5/usage/goroot/test/codegen/slices.go:426)	PCDATA	$0, $-2
	0x004b 00075 (/bigdata/qiuhan/codet5/usage/goroot/test/codegen/slices.go:426)	MOVQ	AX, 8(SP)
	0x0050 00080 (/bigdata/qiuhan/codet5/usage/goroot/test/codegen/slices.go:426)	MOVQ	BX, 16(SP)
	0x0055 00085 (/bigdata/qiuhan/codet5/usage/goroot/test/codegen/slices.go:426)	CALL	runtime.morestack_noctxt(SB)
	0x005a 00090 (/bigdata/qiuhan/codet5/usage/goroot/test/codegen/slices.go:426)	MOVQ	8(SP), AX
	0x005f 00095 (/bigdata/qiuhan/codet5/usage/goroot/test/codegen/slices.go:426)	MOVQ	16(SP), BX
	0x0064 00100 (/bigdata/qiuhan/codet5/usage/goroot/test/codegen/slices.go:426)	PCDATA	$0, $-1
	0x0064 00100 (/bigdata/qiuhan/codet5/usage/goroot/test/codegen/slices.go:426)	JMP	0
	0x0000 49 3b 66 10 76 45 48 83 ec 08 48 89 2c 24 48 8d  I;f.vEH...H.,$H.
	0x0010 2c 24 48 85 db 7c 2e 48 89 c2 48 f7 d8 0f 1f 00  ,$H..|.H..H.....
	0x0020 48 39 c3 77 0f 48 89 d0 48 89 d9 48 8b 2c 24 48  H9.w.H..H..H.,$H
	0x0030 83 c4 08 c3 48 85 d2 74 07 e8 00 00 00 00 66 90  ....H..t......f.
	0x0040 e8 00 00 00 00 e8 00 00 00 00 90 48 89 44 24 08  ...........H.D$.
	0x0050 48 89 5c 24 10 e8 00 00 00 00 48 8b 44 24 08 48  H.\$......H.D$.H
	0x0060 8b 5c 24 10 eb 9a                                .\$...
	rel 58+4 t=7 runtime.panicunsafeslicelen<1>+0
	rel 65+4 t=7 runtime.panicunsafeslicenilptr<1>+0
	rel 70+4 t=7 runtime.panicunsafeslicelen<1>+0
	rel 86+4 t=7 runtime.morestack_noctxt<0>+0
command-line-arguments.Slice0<1> STEXT size=87 args=0x10 locals=0x8 funcid=0x0 align=0x0
	0x0000 00000 (/bigdata/qiuhan/codet5/usage/goroot/test/codegen/slices.go:430)	TEXT	command-line-arguments.Slice0(SB), ABIInternal, $8-16
	0x0000 00000 (/bigdata/qiuhan/codet5/usage/goroot/test/codegen/slices.go:430)	CMPQ	SP, 16(R14)
	0x0004 00004 (/bigdata/qiuhan/codet5/usage/goroot/test/codegen/slices.go:430)	PCDATA	$0, $-2
	0x0004 00004 (/bigdata/qiuhan/codet5/usage/goroot/test/codegen/slices.go:430)	JLS	60
	0x0006 00006 (/bigdata/qiuhan/codet5/usage/goroot/test/codegen/slices.go:430)	PCDATA	$0, $-1
	0x0006 00006 (/bigdata/qiuhan/codet5/usage/goroot/test/codegen/slices.go:430)	SUBQ	$8, SP
	0x000a 00010 (/bigdata/qiuhan/codet5/usage/goroot/test/codegen/slices.go:430)	MOVQ	BP, (SP)
	0x000e 00014 (/bigdata/qiuhan/codet5/usage/goroot/test/codegen/slices.go:430)	LEAQ	(SP), BP
	0x0012 00018 (/bigdata/qiuhan/codet5/usage/goroot/test/codegen/slices.go:430)	FUNCDATA	$0, gclocals·wgcWObbY2HYnK2SU/U22lA==(SB)
	0x0012 00018 (/bigdata/qiuhan/codet5/usage/goroot/test/codegen/slices.go:430)	FUNCDATA	$1, gclocals·J5F+7Qw7O7ve2QcWC7DpeQ==(SB)
	0x0012 00018 (/bigdata/qiuhan/codet5/usage/goroot/test/codegen/slices.go:430)	FUNCDATA	$5, command-line-arguments.Slice0.arginfo1(SB)
	0x0012 00018 (/bigdata/qiuhan/codet5/usage/goroot/test/codegen/slices.go:430)	FUNCDATA	$6, command-line-arguments.Slice0.argliveinfo(SB)
	0x0012 00018 (/bigdata/qiuhan/codet5/usage/goroot/test/codegen/slices.go:430)	PCDATA	$3, $1
	0x0012 00018 (/bigdata/qiuhan/codet5/usage/goroot/test/codegen/slices.go:432)	TESTQ	BX, BX
	0x0015 00021 (/bigdata/qiuhan/codet5/usage/goroot/test/codegen/slices.go:432)	JLT	54
	0x0017 00023 (/bigdata/qiuhan/codet5/usage/goroot/test/codegen/slices.go:432)	TESTQ	AX, AX
	0x001a 00026 (/bigdata/qiuhan/codet5/usage/goroot/test/codegen/slices.go:432)	JNE	37
	0x001c 00028 (/bigdata/qiuhan/codet5/usage/goroot/test/codegen/slices.go:432)	NOP
	0x0020 00032 (/bigdata/qiuhan/codet5/usage/goroot/test/codegen/slices.go:432)	TESTQ	BX, BX
	0x0023 00035 (/bigdata/qiuhan/codet5/usage/goroot/test/codegen/slices.go:432)	JGT	49
	0x0025 00037 (/bigdata/qiuhan/codet5/usage/goroot/test/codegen/slices.go:432)	MOVQ	BX, CX
	0x0028 00040 (/bigdata/qiuhan/codet5/usage/goroot/test/codegen/slices.go:432)	MOVQ	(SP), BP
	0x002c 00044 (/bigdata/qiuhan/codet5/usage/goroot/test/codegen/slices.go:432)	ADDQ	$8, SP
	0x0030 00048 (/bigdata/qiuhan/codet5/usage/goroot/test/codegen/slices.go:432)	RET
	0x0031 00049 (/bigdata/qiuhan/codet5/usage/goroot/test/codegen/slices.go:432)	PCDATA	$1, $1
	0x0031 00049 (/bigdata/qiuhan/codet5/usage/goroot/test/codegen/slices.go:432)	CALL	runtime.panicunsafeslicenilptr(SB)
	0x0036 00054 (/bigdata/qiuhan/codet5/usage/goroot/test/codegen/slices.go:432)	CALL	runtime.panicunsafeslicelen(SB)
	0x003b 00059 (/bigdata/qiuhan/codet5/usage/goroot/test/codegen/slices.go:432)	XCHGL	AX, AX
	0x003c 00060 (/bigdata/qiuhan/codet5/usage/goroot/test/codegen/slices.go:432)	NOP
	0x003c 00060 (/bigdata/qiuhan/codet5/usage/goroot/test/codegen/slices.go:430)	PCDATA	$1, $-1
	0x003c 00060 (/bigdata/qiuhan/codet5/usage/goroot/test/codegen/slices.go:430)	PCDATA	$0, $-2
	0x003c 00060 (/bigdata/qiuhan/codet5/usage/goroot/test/codegen/slices.go:430)	MOVQ	AX, 8(SP)
	0x0041 00065 (/bigdata/qiuhan/codet5/usage/goroot/test/codegen/slices.go:430)	MOVQ	BX, 16(SP)
	0x0046 00070 (/bigdata/qiuhan/codet5/usage/goroot/test/codegen/slices.go:430)	CALL	runtime.morestack_noctxt(SB)
	0x004b 00075 (/bigdata/qiuhan/codet5/usage/goroot/test/codegen/slices.go:430)	MOVQ	8(SP), AX
	0x0050 00080 (/bigdata/qiuhan/codet5/usage/goroot/test/codegen/slices.go:430)	MOVQ	16(SP), BX
	0x0055 00085 (/bigdata/qiuhan/codet5/usage/goroot/test/codegen/slices.go:430)	PCDATA	$0, $-1
	0x0055 00085 (/bigdata/qiuhan/codet5/usage/goroot/test/codegen/slices.go:430)	JMP	0
	0x0000 49 3b 66 10 76 36 48 83 ec 08 48 89 2c 24 48 8d  I;f.v6H...H.,$H.
	0x0010 2c 24 48 85 db 7c 1f 48 85 c0 75 09 0f 1f 40 00  ,$H..|.H..u...@.
	0x0020 48 85 db 7f 0c 48 89 d9 48 8b 2c 24 48 83 c4 08  H....H..H.,$H...
	0x0030 c3 e8 00 00 00 00 e8 00 00 00 00 90 48 89 44 24  ............H.D$
	0x0040 08 48 89 5c 24 10 e8 00 00 00 00 48 8b 44 24 08  .H.\$......H.D$.
	0x0050 48 8b 5c 24 10 eb a9                             H.\$...
	rel 50+4 t=7 runtime.panicunsafeslicenilptr<1>+0
	rel 55+4 t=7 runtime.panicunsafeslicelen<1>+0
	rel 71+4 t=7 runtime.morestack_noctxt<0>+0
command-line-arguments.SliceMakeCopyNoOptNoCopy.func1<1> STEXT nosplit size=1 args=0x30 locals=0x0 funcid=0x0 align=0x0
	0x0000 00000 (/bigdata/qiuhan/codet5/usage/goroot/test/codegen/slices.go:261)	TEXT	command-line-arguments.SliceMakeCopyNoOptNoCopy.func1(SB), NOSPLIT|ABIInternal, $0-48
	0x0000 00000 (/bigdata/qiuhan/codet5/usage/goroot/test/codegen/slices.go:261)	FUNCDATA	$0, gclocals·e2OAQw7RTI8D9/LnocWHCg==(SB)
	0x0000 00000 (/bigdata/qiuhan/codet5/usage/goroot/test/codegen/slices.go:261)	FUNCDATA	$1, gclocals·g2BeySu+wFnoycgXfElmcg==(SB)
	0x0000 00000 (/bigdata/qiuhan/codet5/usage/goroot/test/codegen/slices.go:261)	FUNCDATA	$5, command-line-arguments.SliceMakeCopyNoOptNoCopy.func1.arginfo1(SB)
	0x0000 00000 (/bigdata/qiuhan/codet5/usage/goroot/test/codegen/slices.go:261)	FUNCDATA	$6, command-line-arguments.SliceMakeCopyNoOptNoCopy.func1.argliveinfo(SB)
	0x0000 00000 (/bigdata/qiuhan/codet5/usage/goroot/test/codegen/slices.go:261)	PCDATA	$3, $1
	0x0000 00000 (/bigdata/qiuhan/codet5/usage/goroot/test/codegen/slices.go:261)	RET
	0x0000 c3                                               .
go:cuinfo.producer.command-line-arguments<0> SDWARFCUINFO dupok size=0
	0x0000 72 65 67 61 62 69                                regabi
go:cuinfo.packagename.command-line-arguments<0> SDWARFCUINFO dupok size=0
	0x0000 63 6f 64 65 67 65 6e                             codegen
go:info.command-line-arguments.SliceMakeCopyNoOptNoCopy.func1$abstract<0> SDWARFABSFCN dupok size=74
	0x0000 05 63 6f 6d 6d 61 6e 64 2d 6c 69 6e 65 2d 61 72  .command-line-ar
	0x0010 67 75 6d 65 6e 74 73 2e 53 6c 69 63 65 4d 61 6b  guments.SliceMak
	0x0020 65 43 6f 70 79 4e 6f 4f 70 74 4e 6f 43 6f 70 79  eCopyNoOptNoCopy
	0x0030 2e 66 75 6e 63 31 00 01 01 13 78 00 00 00 00 00  .func1....x.....
	0x0040 00 13 79 00 00 00 00 00 00 00                    ..y.......
	rel 61+4 t=31 go:info.[]*int<0>+0
	rel 69+4 t=31 go:info.[]*int<0>+0
command-line-arguments..stmp_0<0> SRODATA static size=288
	0x0000 2a 00 00 00 00 00 00 00 2a 00 00 00 00 00 00 00  *.......*.......
	0x0010 2a 00 00 00 00 00 00 00 2a 00 00 00 00 00 00 00  *.......*.......
	0x0020 2a 00 00 00 00 00 00 00 2a 00 00 00 00 00 00 00  *.......*.......
	0x0030 2a 00 00 00 00 00 00 00 2a 00 00 00 00 00 00 00  *.......*.......
	0x0040 2a 00 00 00 00 00 00 00 2a 00 00 00 00 00 00 00  *.......*.......
	0x0050 2a 00 00 00 00 00 00 00 2a 00 00 00 00 00 00 00  *.......*.......
	0x0060 2a 00 00 00 00 00 00 00 2a 00 00 00 00 00 00 00  *.......*.......
	0x0070 2a 00 00 00 00 00 00 00 2a 00 00 00 00 00 00 00  *.......*.......
	0x0080 2a 00 00 00 00 00 00 00 2a 00 00 00 00 00 00 00  *.......*.......
	0x0090 2a 00 00 00 00 00 00 00 2a 00 00 00 00 00 00 00  *.......*.......
	0x00a0 2a 00 00 00 00 00 00 00 2a 00 00 00 00 00 00 00  *.......*.......
	0x00b0 2a 00 00 00 00 00 00 00 2a 00 00 00 00 00 00 00  *.......*.......
	0x00c0 2a 00 00 00 00 00 00 00 2a 00 00 00 00 00 00 00  *.......*.......
	0x00d0 2a 00 00 00 00 00 00 00 2a 00 00 00 00 00 00 00  *.......*.......
	0x00e0 2a 00 00 00 00 00 00 00 2a 00 00 00 00 00 00 00  *.......*.......
	0x00f0 2a 00 00 00 00 00 00 00 2a 00 00 00 00 00 00 00  *.......*.......
	0x0100 2a 00 00 00 00 00 00 00 2a 00 00 00 00 00 00 00  *.......*.......
	0x0110 2a 00 00 00 00 00 00 00 2a 00 00 00 00 00 00 00  *.......*.......
runtime.memequal0·f<0> SRODATA dupok size=8
	0x0000 00 00 00 00 00 00 00 00                          ........
	rel 0+8 t=1 runtime.memequal0<1>+0
runtime.gcbits.<0> SRODATA dupok size=0
type:.namedata.*struct {}-<0> SRODATA dupok size=12
	0x0000 00 0a 2a 73 74 72 75 63 74 20 7b 7d              ..*struct {}
type:struct {}<0> SRODATA dupok size=80
	0x0000 00 00 00 00 00 00 00 00 00 00 00 00 00 00 00 00  ................
	0x0010 56 1e 04 e5 0a 01 01 19 00 00 00 00 00 00 00 00  V...............
	0x0020 00 00 00 00 00 00 00 00 00 00 00 00 00 00 00 00  ................
	0x0030 00 00 00 00 00 00 00 00 00 00 00 00 00 00 00 00  ................
	0x0040 00 00 00 00 00 00 00 00 00 00 00 00 00 00 00 00  ................
	rel 24+8 t=1 runtime.memequal0·f<0>+0
	rel 32+8 t=1 runtime.gcbits.<0>+0
	rel 40+4 t=5 type:.namedata.*struct {}-<0>+0
	rel 44+4 t=-32763 type:*struct {}<0>+0
	rel 56+8 t=1 type:struct {}<0>+80
runtime.memequal64·f<0> SRODATA dupok size=8
	0x0000 00 00 00 00 00 00 00 00                          ........
	rel 0+8 t=1 runtime.memequal64<1>+0
runtime.gcbits.0100000000000000<0> SRODATA dupok size=8
	0x0000 01 00 00 00 00 00 00 00                          ........
type:*struct {}<0> SRODATA dupok size=56
	0x0000 08 00 00 00 00 00 00 00 08 00 00 00 00 00 00 00  ................
	0x0010 69 29 f0 fb 08 08 08 36 00 00 00 00 00 00 00 00  i).....6........
	0x0020 00 00 00 00 00 00 00 00 00 00 00 00 00 00 00 00  ................
	0x0030 00 00 00 00 00 00 00 00                          ........
	rel 24+8 t=1 runtime.memequal64·f<0>+0
	rel 32+8 t=1 runtime.gcbits.0100000000000000<0>+0
	rel 40+4 t=5 type:.namedata.*struct {}-<0>+0
	rel 48+8 t=1 type:struct {}<0>+0
type:.namedata.*[]*int-<0> SRODATA dupok size=9
	0x0000 00 07 2a 5b 5d 2a 69 6e 74                       ..*[]*int
type:*[]*int<0> SRODATA dupok size=56
	0x0000 08 00 00 00 00 00 00 00 08 00 00 00 00 00 00 00  ................
	0x0010 17 6e c2 9a 08 08 08 36 00 00 00 00 00 00 00 00  .n.....6........
	0x0020 00 00 00 00 00 00 00 00 00 00 00 00 00 00 00 00  ................
	0x0030 00 00 00 00 00 00 00 00                          ........
	rel 24+8 t=1 runtime.memequal64·f<0>+0
	rel 32+8 t=1 runtime.gcbits.0100000000000000<0>+0
	rel 40+4 t=5 type:.namedata.*[]*int-<0>+0
	rel 48+8 t=1 type:[]*int<0>+0
type:[]*int<0> SRODATA dupok size=56
	0x0000 18 00 00 00 00 00 00 00 08 00 00 00 00 00 00 00  ................
	0x0010 a8 3c ab 4b 02 08 08 17 00 00 00 00 00 00 00 00  .<.K............
	0x0020 00 00 00 00 00 00 00 00 00 00 00 00 00 00 00 00  ................
	0x0030 00 00 00 00 00 00 00 00                          ........
	rel 32+8 t=1 runtime.gcbits.0100000000000000<0>+0
	rel 40+4 t=5 type:.namedata.*[]*int-<0>+0
	rel 44+4 t=-32763 type:*[]*int<0>+0
	rel 48+8 t=1 type:*int<0>+0
type:.namedata.*[][]*int-<0> SRODATA dupok size=11
	0x0000 00 09 2a 5b 5d 5b 5d 2a 69 6e 74                 ..*[][]*int
type:*[][]*int<0> SRODATA dupok size=56
	0x0000 08 00 00 00 00 00 00 00 08 00 00 00 00 00 00 00  ................
	0x0010 36 2f f4 d9 08 08 08 36 00 00 00 00 00 00 00 00  6/.....6........
	0x0020 00 00 00 00 00 00 00 00 00 00 00 00 00 00 00 00  ................
	0x0030 00 00 00 00 00 00 00 00                          ........
	rel 24+8 t=1 runtime.memequal64·f<0>+0
	rel 32+8 t=1 runtime.gcbits.0100000000000000<0>+0
	rel 40+4 t=5 type:.namedata.*[][]*int-<0>+0
	rel 48+8 t=1 type:[][]*int<0>+0
type:[][]*int<0> SRODATA dupok size=56
	0x0000 18 00 00 00 00 00 00 00 08 00 00 00 00 00 00 00  ................
	0x0010 fd af 5a 8a 02 08 08 17 00 00 00 00 00 00 00 00  ..Z.............
	0x0020 00 00 00 00 00 00 00 00 00 00 00 00 00 00 00 00  ................
	0x0030 00 00 00 00 00 00 00 00                          ........
	rel 32+8 t=1 runtime.gcbits.0100000000000000<0>+0
	rel 40+4 t=5 type:.namedata.*[][]*int-<0>+0
	rel 44+4 t=-32763 type:*[][]*int<0>+0
	rel 48+8 t=1 type:[]*int<0>+0
type:.namedata.*[1][]*int-<0> SRODATA dupok size=12
	0x0000 00 0a 2a 5b 31 5d 5b 5d 2a 69 6e 74              ..*[1][]*int
type:*[1][]*int<0> SRODATA dupok size=56
	0x0000 08 00 00 00 00 00 00 00 08 00 00 00 00 00 00 00  ................
	0x0010 a2 d1 a8 f6 08 08 08 36 00 00 00 00 00 00 00 00  .......6........
	0x0020 00 00 00 00 00 00 00 00 00 00 00 00 00 00 00 00  ................
	0x0030 00 00 00 00 00 00 00 00                          ........
	rel 24+8 t=1 runtime.memequal64·f<0>+0
	rel 32+8 t=1 runtime.gcbits.0100000000000000<0>+0
	rel 40+4 t=5 type:.namedata.*[1][]*int-<0>+0
	rel 48+8 t=1 type:[1][]*int<0>+0
type:[1][]*int<0> SRODATA dupok size=72
	0x0000 18 00 00 00 00 00 00 00 08 00 00 00 00 00 00 00  ................
	0x0010 b6 a3 fb 22 02 08 08 11 00 00 00 00 00 00 00 00  ..."............
	0x0020 00 00 00 00 00 00 00 00 00 00 00 00 00 00 00 00  ................
	0x0030 00 00 00 00 00 00 00 00 00 00 00 00 00 00 00 00  ................
	0x0040 01 00 00 00 00 00 00 00                          ........
	rel 32+8 t=1 runtime.gcbits.0100000000000000<0>+0
	rel 40+4 t=5 type:.namedata.*[1][]*int-<0>+0
	rel 44+4 t=-32763 type:*[1][]*int<0>+0
	rel 48+8 t=1 type:[]*int<0>+0
	rel 56+8 t=1 type:[][]*int<0>+0
type:.namedata.*[1]int-<0> SRODATA dupok size=9
	0x0000 00 07 2a 5b 31 5d 69 6e 74                       ..*[1]int
type:*[1]int<0> SRODATA dupok size=56
	0x0000 08 00 00 00 00 00 00 00 08 00 00 00 00 00 00 00  ................
	0x0010 9d b4 3c 06 08 08 08 36 00 00 00 00 00 00 00 00  ..<....6........
	0x0020 00 00 00 00 00 00 00 00 00 00 00 00 00 00 00 00  ................
	0x0030 00 00 00 00 00 00 00 00                          ........
	rel 24+8 t=1 runtime.memequal64·f<0>+0
	rel 32+8 t=1 runtime.gcbits.0100000000000000<0>+0
	rel 40+4 t=5 type:.namedata.*[1]int-<0>+0
	rel 48+8 t=1 type:[1]int<0>+0
type:[1]int<0> SRODATA dupok size=72
	0x0000 08 00 00 00 00 00 00 00 00 00 00 00 00 00 00 00  ................
	0x0010 38 e0 64 87 0a 08 08 11 00 00 00 00 00 00 00 00  8.d.............
	0x0020 00 00 00 00 00 00 00 00 00 00 00 00 00 00 00 00  ................
	0x0030 00 00 00 00 00 00 00 00 00 00 00 00 00 00 00 00  ................
	0x0040 01 00 00 00 00 00 00 00                          ........
	rel 24+8 t=1 runtime.memequal64·f<0>+0
	rel 32+8 t=1 runtime.gcbits.<0>+0
	rel 40+4 t=5 type:.namedata.*[1]int-<0>+0
	rel 44+4 t=-32763 type:*[1]int<0>+0
	rel 48+8 t=1 type:int<0>+0
	rel 56+8 t=1 type:[]int<0>+0
type:.eqfunc288<0> SRODATA dupok size=16
	0x0000 00 00 00 00 00 00 00 00 20 01 00 00 00 00 00 00  ........ .......
	rel 0+8 t=1 runtime.memequal_varlen<1>+0
type:.namedata.*[36]int-<0> SRODATA dupok size=10
	0x0000 00 08 2a 5b 33 36 5d 69 6e 74                    ..*[36]int
type:*[36]int<0> SRODATA dupok size=56
	0x0000 08 00 00 00 00 00 00 00 08 00 00 00 00 00 00 00  ................
	0x0010 cc 6d 32 c1 08 08 08 36 00 00 00 00 00 00 00 00  .m2....6........
	0x0020 00 00 00 00 00 00 00 00 00 00 00 00 00 00 00 00  ................
	0x0030 00 00 00 00 00 00 00 00                          ........
	rel 24+8 t=1 runtime.memequal64·f<0>+0
	rel 32+8 t=1 runtime.gcbits.0100000000000000<0>+0
	rel 40+4 t=5 type:.namedata.*[36]int-<0>+0
	rel 48+8 t=1 type:[36]int<0>+0
type:[36]int<0> SRODATA dupok size=72
	0x0000 20 01 00 00 00 00 00 00 00 00 00 00 00 00 00 00   ...............
	0x0010 02 c4 04 10 0a 08 08 11 00 00 00 00 00 00 00 00  ................
	0x0020 00 00 00 00 00 00 00 00 00 00 00 00 00 00 00 00  ................
	0x0030 00 00 00 00 00 00 00 00 00 00 00 00 00 00 00 00  ................
	0x0040 24 00 00 00 00 00 00 00                          $.......
	rel 24+8 t=1 type:.eqfunc288<0>+0
	rel 32+8 t=1 runtime.gcbits.<0>+0
	rel 40+4 t=5 type:.namedata.*[36]int-<0>+0
	rel 44+4 t=-32763 type:*[36]int<0>+0
	rel 48+8 t=1 type:int<0>+0
	rel 56+8 t=1 type:[]int<0>+0
type:.eqfunc32<0> SRODATA dupok size=16
	0x0000 00 00 00 00 00 00 00 00 20 00 00 00 00 00 00 00  ........ .......
	rel 0+8 t=1 runtime.memequal_varlen<1>+0
type:.namedata.*[4]*int-<0> SRODATA dupok size=10
	0x0000 00 08 2a 5b 34 5d 2a 69 6e 74                    ..*[4]*int
type:*[4]*int<0> SRODATA dupok size=56
	0x0000 08 00 00 00 00 00 00 00 08 00 00 00 00 00 00 00  ................
	0x0010 50 72 b9 f3 08 08 08 36 00 00 00 00 00 00 00 00  Pr.....6........
	0x0020 00 00 00 00 00 00 00 00 00 00 00 00 00 00 00 00  ................
	0x0030 00 00 00 00 00 00 00 00                          ........
	rel 24+8 t=1 runtime.memequal64·f<0>+0
	rel 32+8 t=1 runtime.gcbits.0100000000000000<0>+0
	rel 40+4 t=5 type:.namedata.*[4]*int-<0>+0
	rel 48+8 t=1 type:[4]*int<0>+0
runtime.gcbits.0f00000000000000<0> SRODATA dupok size=8
	0x0000 0f 00 00 00 00 00 00 00                          ........
type:[4]*int<0> SRODATA dupok size=72
	0x0000 20 00 00 00 00 00 00 00 20 00 00 00 00 00 00 00   ....... .......
	0x0010 4d 7a 9c 9f 0a 08 08 11 00 00 00 00 00 00 00 00  Mz..............
	0x0020 00 00 00 00 00 00 00 00 00 00 00 00 00 00 00 00  ................
	0x0030 00 00 00 00 00 00 00 00 00 00 00 00 00 00 00 00  ................
	0x0040 04 00 00 00 00 00 00 00                          ........
	rel 24+8 t=1 type:.eqfunc32<0>+0
	rel 32+8 t=1 runtime.gcbits.0f00000000000000<0>+0
	rel 40+4 t=5 type:.namedata.*[4]*int-<0>+0
	rel 44+4 t=-32763 type:*[4]*int<0>+0
	rel 48+8 t=1 type:*int<0>+0
	rel 56+8 t=1 type:[]*int<0>+0
type:.eqfunc40<0> SRODATA dupok size=16
	0x0000 00 00 00 00 00 00 00 00 28 00 00 00 00 00 00 00  ........(.......
	rel 0+8 t=1 runtime.memequal_varlen<1>+0
type:.namedata.*[5]int-<0> SRODATA dupok size=9
	0x0000 00 07 2a 5b 35 5d 69 6e 74                       ..*[5]int
type:*[5]int<0> SRODATA dupok size=56
	0x0000 08 00 00 00 00 00 00 00 08 00 00 00 00 00 00 00  ................
	0x0010 d2 90 a4 99 08 08 08 36 00 00 00 00 00 00 00 00  .......6........
	0x0020 00 00 00 00 00 00 00 00 00 00 00 00 00 00 00 00  ................
	0x0030 00 00 00 00 00 00 00 00                          ........
	rel 24+8 t=1 runtime.memequal64·f<0>+0
	rel 32+8 t=1 runtime.gcbits.0100000000000000<0>+0
	rel 40+4 t=5 type:.namedata.*[5]int-<0>+0
	rel 48+8 t=1 type:[5]int<0>+0
type:[5]int<0> SRODATA dupok size=72
	0x0000 28 00 00 00 00 00 00 00 00 00 00 00 00 00 00 00  (...............
	0x0010 82 ad 93 3d 0a 08 08 11 00 00 00 00 00 00 00 00  ...=............
	0x0020 00 00 00 00 00 00 00 00 00 00 00 00 00 00 00 00  ................
	0x0030 00 00 00 00 00 00 00 00 00 00 00 00 00 00 00 00  ................
	0x0040 05 00 00 00 00 00 00 00                          ........
	rel 24+8 t=1 type:.eqfunc40<0>+0
	rel 32+8 t=1 runtime.gcbits.<0>+0
	rel 40+4 t=5 type:.namedata.*[5]int-<0>+0
	rel 44+4 t=-32763 type:*[5]int<0>+0
	rel 48+8 t=1 type:int<0>+0
	rel 56+8 t=1 type:[]int<0>+0
type:.namedata.*[]struct {}-<0> SRODATA dupok size=14
	0x0000 00 0c 2a 5b 5d 73 74 72 75 63 74 20 7b 7d        ..*[]struct {}
type:*[]struct {}<0> SRODATA dupok size=56
	0x0000 08 00 00 00 00 00 00 00 08 00 00 00 00 00 00 00  ................
	0x0010 31 0f 50 2c 08 08 08 36 00 00 00 00 00 00 00 00  1.P,...6........
	0x0020 00 00 00 00 00 00 00 00 00 00 00 00 00 00 00 00  ................
	0x0030 00 00 00 00 00 00 00 00                          ........
	rel 24+8 t=1 runtime.memequal64·f<0>+0
	rel 32+8 t=1 runtime.gcbits.0100000000000000<0>+0
	rel 40+4 t=5 type:.namedata.*[]struct {}-<0>+0
	rel 48+8 t=1 type:[]struct {}<0>+0
type:[]struct {}<0> SRODATA dupok size=56
	0x0000 18 00 00 00 00 00 00 00 08 00 00 00 00 00 00 00  ................
	0x0010 43 1c 43 55 02 08 08 17 00 00 00 00 00 00 00 00  C.CU............
	0x0020 00 00 00 00 00 00 00 00 00 00 00 00 00 00 00 00  ................
	0x0030 00 00 00 00 00 00 00 00                          ........
	rel 32+8 t=1 runtime.gcbits.0100000000000000<0>+0
	rel 40+4 t=5 type:.namedata.*[]struct {}-<0>+0
	rel 44+4 t=-32763 type:*[]struct {}<0>+0
	rel 48+8 t=1 type:struct {}<0>+0
type:.importpath.unsafe.<0> SRODATA dupok size=8
	0x0000 00 06 75 6e 73 61 66 65                          ..unsafe
command-line-arguments.SliceMakeCopyNoOptNoCopy.func1·f<0> SRODATA dupok size=8
	0x0000 00 00 00 00 00 00 00 00                          ........
	rel 0+8 t=1 command-line-arguments.SliceMakeCopyNoOptNoCopy.func1<1>+0
gclocals·m/6RUmNv6NBhMUL8eleFFA==<0> SRODATA dupok size=11
	0x0000 03 00 00 00 01 00 00 00 01 01 00                 ...........
gclocals·VtCL4RdUwCqwXEPeyJllRA==<0> SRODATA dupok size=11
	0x0000 03 00 00 00 01 00 00 00 00 01 00                 ...........
command-line-arguments.SliceClear.arginfo1<0> SRODATA static dupok size=9
	0x0000 fe 00 08 08 08 10 08 fd ff                       .........
command-line-arguments.SliceClear.argliveinfo<0> SRODATA static dupok size=3
	0x0000 00 00 06                                         ...
command-line-arguments.SliceClearPointers.arginfo1<0> SRODATA static dupok size=9
	0x0000 fe 00 08 08 08 10 08 fd ff                       .........
command-line-arguments.SliceClearPointers.argliveinfo<0> SRODATA static dupok size=3
	0x0000 00 00 06                                         ...
gclocals·ZzMiPAiVBg7DJ6dh/CjSag==<0> SRODATA dupok size=11
	0x0000 03 00 00 00 01 00 00 00 01 00 00                 ...........
gclocals·dGrMWTWIngKGfVYjHi0adA==<0> SRODATA dupok size=11
	0x0000 03 00 00 00 01 00 00 00 00 00 01                 ...........
command-line-arguments.SliceExtensionConst.arginfo1<0> SRODATA static dupok size=9
	0x0000 fe 00 08 08 08 10 08 fd ff                       .........
command-line-arguments.SliceExtensionConst.argliveinfo<0> SRODATA static dupok size=2
	0x0000 00 00                                            ..
command-line-arguments.SliceExtensionConstInt64.arginfo1<0> SRODATA static dupok size=9
	0x0000 fe 00 08 08 08 10 08 fd ff                       .........
command-line-arguments.SliceExtensionConstInt64.argliveinfo<0> SRODATA static dupok size=2
	0x0000 00 00                                            ..
command-line-arguments.SliceExtensionConstUint64.arginfo1<0> SRODATA static dupok size=9
	0x0000 fe 00 08 08 08 10 08 fd ff                       .........
command-line-arguments.SliceExtensionConstUint64.argliveinfo<0> SRODATA static dupok size=2
	0x0000 00 00                                            ..
command-line-arguments.SliceExtensionConstUint.arginfo1<0> SRODATA static dupok size=9
	0x0000 fe 00 08 08 08 10 08 fd ff                       .........
command-line-arguments.SliceExtensionConstUint.argliveinfo<0> SRODATA static dupok size=2
	0x0000 00 00                                            ..
gclocals·wgcWObbY2HYnK2SU/U22lA==<0> SRODATA dupok size=10
	0x0000 02 00 00 00 01 00 00 00 01 00                    ..........
gclocals·J5F+7Qw7O7ve2QcWC7DpeQ==<0> SRODATA dupok size=8
	0x0000 02 00 00 00 00 00 00 00                          ........
command-line-arguments.SliceExtensionPointer.arginfo1<0> SRODATA static dupok size=11
	0x0000 fe 00 08 08 08 10 08 fd 18 08 ff                 ...........
command-line-arguments.SliceExtensionPointer.argliveinfo<0> SRODATA static dupok size=3
	0x0000 00 00 05                                         ...
command-line-arguments.SliceExtensionVar.arginfo1<0> SRODATA static dupok size=11
	0x0000 fe 00 08 08 08 10 08 fd 18 08 ff                 ...........
command-line-arguments.SliceExtensionVar.argliveinfo<0> SRODATA static dupok size=3
	0x0000 00 00 08                                         ...
command-line-arguments.SliceExtensionVarInt64.arginfo1<0> SRODATA static dupok size=11
	0x0000 fe 00 08 08 08 10 08 fd 18 08 ff                 ...........
command-line-arguments.SliceExtensionVarInt64.argliveinfo<0> SRODATA static dupok size=3
	0x0000 00 00 08                                         ...
command-line-arguments.SliceExtensionVarUint64.arginfo1<0> SRODATA static dupok size=11
	0x0000 fe 00 08 08 08 10 08 fd 18 08 ff                 ...........
command-line-arguments.SliceExtensionVarUint64.argliveinfo<0> SRODATA static dupok size=3
	0x0000 00 00 08                                         ...
command-line-arguments.SliceExtensionVarUint.arginfo1<0> SRODATA static dupok size=11
	0x0000 fe 00 08 08 08 10 08 fd 18 08 ff                 ...........
command-line-arguments.SliceExtensionVarUint.argliveinfo<0> SRODATA static dupok size=3
	0x0000 00 00 08                                         ...
command-line-arguments.SliceExtensionInt64.arginfo1<0> SRODATA static dupok size=11
	0x0000 fe 00 08 08 08 10 08 fd 18 08 ff                 ...........
command-line-arguments.SliceExtensionInt64.argliveinfo<0> SRODATA static dupok size=3
	0x0000 00 00 08                                         ...
command-line-arguments.SliceMakeCopyLen.arginfo1<0> SRODATA static dupok size=9
	0x0000 fe 00 08 08 08 10 08 fd ff                       .........
command-line-arguments.SliceMakeCopyLen.argliveinfo<0> SRODATA static dupok size=3
	0x0000 00 00 03                                         ...
command-line-arguments.SliceMakeCopyLenPtr.arginfo1<0> SRODATA static dupok size=9
	0x0000 fe 00 08 08 08 10 08 fd ff                       .........
command-line-arguments.SliceMakeCopyLenPtr.argliveinfo<0> SRODATA static dupok size=3
	0x0000 00 00 02                                         ...
command-line-arguments.SliceMakeCopyConst.arginfo1<0> SRODATA static dupok size=9
	0x0000 fe 00 08 08 08 10 08 fd ff                       .........
command-line-arguments.SliceMakeCopyConst.argliveinfo<0> SRODATA static dupok size=2
	0x0000 00 00                                            ..
command-line-arguments.SliceMakeCopyConstPtr.arginfo1<0> SRODATA static dupok size=9
	0x0000 fe 00 08 08 08 10 08 fd ff                       .........
command-line-arguments.SliceMakeCopyConstPtr.argliveinfo<0> SRODATA static dupok size=2
	0x0000 00 00                                            ..
gclocals·bb+LSCCik3x40Cn8eFqL9w==<0> SRODATA dupok size=12
	0x0000 04 00 00 00 01 00 00 00 01 01 00 00              ............
gclocals·7RWRkQP0PDegNGEQbN7Bcw==<0> SRODATA dupok size=12
	0x0000 04 00 00 00 03 00 00 00 00 01 01 00              ............
command-line-arguments.SliceMakeCopyNoOptNoDeref.stkobj<0> SRODATA static size=24
	0x0000 01 00 00 00 00 00 00 00 e8 ff ff ff 18 00 00 00  ................
	0x0010 08 00 00 00 00 00 00 00                          ........
	rel 20+4 t=5 runtime.gcbits.0100000000000000<0>+0
command-line-arguments.SliceMakeCopyNoOptNoDeref.arginfo1<0> SRODATA static dupok size=9
	0x0000 fe 00 08 08 08 10 08 fd ff                       .........
command-line-arguments.SliceMakeCopyNoOptNoDeref.argliveinfo<0> SRODATA static dupok size=3
	0x0000 00 00 03                                         ...
command-line-arguments.SliceMakeCopyNoOptNoVar.stkobj<0> SRODATA static size=24
	0x0000 01 00 00 00 00 00 00 00 e8 ff ff ff 18 00 00 00  ................
	0x0010 08 00 00 00 00 00 00 00                          ........
	rel 20+4 t=5 runtime.gcbits.0100000000000000<0>+0
command-line-arguments.SliceMakeCopyNoOptNoVar.arginfo1<0> SRODATA static dupok size=9
	0x0000 fe 00 08 08 08 10 08 fd ff                       .........
command-line-arguments.SliceMakeCopyNoOptNoVar.argliveinfo<0> SRODATA static dupok size=3
	0x0000 00 00 03                                         ...
command-line-arguments.SliceMakeCopyNoOptBlank.arginfo1<0> SRODATA static dupok size=9
	0x0000 fe 00 08 08 08 10 08 fd ff                       .........
command-line-arguments.SliceMakeCopyNoOptBlank.argliveinfo<0> SRODATA static dupok size=2
	0x0000 00 00                                            ..
command-line-arguments.SliceMakeCopyNoOptNoMake.arginfo1<0> SRODATA static dupok size=9
	0x0000 fe 00 08 08 08 10 08 fd ff                       .........
command-line-arguments.SliceMakeCopyNoOptNoMake.argliveinfo<0> SRODATA static dupok size=2
	0x0000 00 00                                            ..
gclocals·EXTrhv4b3ahawRWAszmcVw==<0> SRODATA dupok size=10
	0x0000 02 00 00 00 04 00 00 00 00 00                    ..........
command-line-arguments.SliceMakeCopyNoOptNoHeapAlloc.stkobj<0> SRODATA static size=24
	0x0000 01 00 00 00 00 00 00 00 e0 ff ff ff 20 00 00 00  ............ ...
	0x0010 20 00 00 00 00 00 00 00                           .......
	rel 20+4 t=5 runtime.gcbits.0f00000000000000<0>+0
command-line-arguments.SliceMakeCopyNoOptNoHeapAlloc.arginfo1<0> SRODATA static dupok size=9
	0x0000 fe 00 08 08 08 10 08 fd ff                       .........
command-line-arguments.SliceMakeCopyNoOptNoHeapAlloc.argliveinfo<0> SRODATA static dupok size=2
	0x0000 00 00                                            ..
command-line-arguments.SliceMakeCopyNoOptNoCap.arginfo1<0> SRODATA static dupok size=9
	0x0000 fe 00 08 08 08 10 08 fd ff                       .........
command-line-arguments.SliceMakeCopyNoOptNoCap.argliveinfo<0> SRODATA static dupok size=3
	0x0000 00 00 03                                         ...
gclocals·Plqv2ff52JtlYaDd2Rwxbg==<0> SRODATA dupok size=9
	0x0000 01 00 00 00 01 00 00 00 00                       .........
gclocals·g2BeySu+wFnoycgXfElmcg==<0> SRODATA dupok size=8
	0x0000 01 00 00 00 00 00 00 00                          ........
command-line-arguments.SliceMakeCopyNoOptNoCopy.arginfo1<0> SRODATA static dupok size=9
	0x0000 fe 00 08 08 08 10 08 fd ff                       .........
command-line-arguments.SliceMakeCopyNoOptNoCopy.argliveinfo<0> SRODATA static dupok size=2
	0x0000 00 00                                            ..
command-line-arguments.SliceMakeCopyNoOptWrongOrder.arginfo1<0> SRODATA static dupok size=9
	0x0000 fe 00 08 08 08 10 08 fd ff                       .........
command-line-arguments.SliceMakeCopyNoOptWrongOrder.argliveinfo<0> SRODATA static dupok size=3
	0x0000 00 00 03                                         ...
gclocals·wBS4fiKwwXBG0Q3AcyXF/Q==<0> SRODATA dupok size=10
	0x0000 02 00 00 00 01 00 00 00 00 00                    ..........
gclocals·CnDyI2HjYXFz19SsOj98tw==<0> SRODATA dupok size=10
	0x0000 02 00 00 00 01 00 00 00 00 01                    ..........
command-line-arguments.SliceMakeCopyNoOptWrongAssign.arginfo1<0> SRODATA static dupok size=9
	0x0000 fe 00 08 08 08 10 08 fd ff                       .........
command-line-arguments.SliceMakeCopyNoOptWrongAssign.argliveinfo<0> SRODATA static dupok size=2
	0x0000 00 00                                            ..
command-line-arguments.SliceMakeCopyNoOptCopyLength.arginfo1<0> SRODATA static dupok size=9
	0x0000 fe 00 08 08 08 10 08 fd ff                       .........
command-line-arguments.SliceMakeCopyNoOptCopyLength.argliveinfo<0> SRODATA static dupok size=3
	0x0000 00 00 03                                         ...
command-line-arguments.SliceMakeCopyNoOptSelfCopy.arginfo1<0> SRODATA static dupok size=9
	0x0000 fe 00 08 08 08 10 08 fd ff                       .........
command-line-arguments.SliceMakeCopyNoOptSelfCopy.argliveinfo<0> SRODATA static dupok size=2
	0x0000 00 00                                            ..
command-line-arguments.SliceMakeCopyNoOptTargetReference.arginfo1<0> SRODATA static dupok size=9
	0x0000 fe 00 08 08 08 10 08 fd ff                       .........
command-line-arguments.SliceMakeCopyNoOptTargetReference.argliveinfo<0> SRODATA static dupok size=3
	0x0000 00 00 05                                         ...
command-line-arguments.SliceMakeCopyNoOptCap.arginfo1<0> SRODATA static dupok size=9
	0x0000 fe 00 08 08 08 10 08 fd ff                       .........
command-line-arguments.SliceMakeCopyNoOptCap.argliveinfo<0> SRODATA static dupok size=3
	0x0000 00 00 03                                         ...
command-line-arguments.SliceMakeCopyNoMemmoveDifferentLen.arginfo1<0> SRODATA static dupok size=9
	0x0000 fe 00 08 08 08 10 08 fd ff                       .........
command-line-arguments.SliceMakeCopyNoMemmoveDifferentLen.argliveinfo<0> SRODATA static dupok size=2
	0x0000 00 00                                            ..
command-line-arguments.SliceNilCheck.arginfo1<0> SRODATA static dupok size=9
	0x0000 fe 00 08 08 08 10 08 fd ff                       .........
command-line-arguments.SliceNilCheck.argliveinfo<0> SRODATA static dupok size=2
	0x0000 00 00                                            ..
command-line-arguments.SliceWithConstCompare.arginfo1<0> SRODATA static dupok size=11
	0x0000 fe 00 08 08 08 10 08 fd 18 08 ff                 ...........
command-line-arguments.SliceWithConstCompare.argliveinfo<0> SRODATA static dupok size=2
	0x0000 00 00                                            ..
command-line-arguments.SliceWithSubtractBound.arginfo1<0> SRODATA static dupok size=11
	0x0000 fe 00 08 08 08 10 08 fd 18 08 ff                 ...........
command-line-arguments.SliceWithSubtractBound.argliveinfo<0> SRODATA static dupok size=2
	0x0000 00 00                                            ..
command-line-arguments.Slice1.arginfo1<0> SRODATA static dupok size=5
	0x0000 00 08 08 08 ff                                   .....
command-line-arguments.Slice1.argliveinfo<0> SRODATA static dupok size=2
	0x0000 00 00                                            ..
command-line-arguments.Slice0.arginfo1<0> SRODATA static dupok size=5
	0x0000 00 08 08 08 ff                                   .....
command-line-arguments.Slice0.argliveinfo<0> SRODATA static dupok size=2
	0x0000 00 00                                            ..
gclocals·e2OAQw7RTI8D9/LnocWHCg==<0> SRODATA dupok size=9
	0x0000 01 00 00 00 04 00 00 00 00                       .........
command-line-arguments.SliceMakeCopyNoOptNoCopy.func1.arginfo1<0> SRODATA static dupok size=17
	0x0000 fe 00 08 08 08 10 08 fd fe 18 08 20 08 28 08 fd  ........... .(..
	0x0010 ff                                               .
command-line-arguments.SliceMakeCopyNoOptNoCopy.func1.argliveinfo<0> SRODATA static dupok size=2
	0x0000 00 00                                            ..
aux for command-line-arguments.SliceClear<0> SDWARFLOC size=160
	0x0000 ff ff ff ff ff ff ff ff 00 00 00 00 00 00 00 00  ................
	0x0010 00 00 00 00 00 00 00 00 31 00 00 00 00 00 00 00  ........1.......
	0x0020 0c 00 50 93 08 50 93 08 53 93 08 52 93 08 31 00  ..P..P..S..R..1.
	0x0030 00 00 00 00 00 00 36 00 00 00 00 00 00 00 10 00  ......6.........
	0x0040 91 68 93 08 91 68 93 08 91 08 93 08 91 10 93 08  .h...h..........
	0x0050 36 00 00 00 00 00 00 00 45 00 00 00 00 00 00 00  6.......E.......
	0x0060 10 00 91 68 93 08 91 68 93 08 91 08 93 08 91 10  ...h...h........
	0x0070 93 08 45 00 00 00 00 00 00 00 76 00 00 00 00 00  ..E.......v.....
	0x0080 00 00 0c 00 50 93 08 50 93 08 53 93 08 52 93 08  ....P..P..S..R..
	0x0090 00 00 00 00 00 00 00 00 00 00 00 00 00 00 00 00  ................
	rel 8+8 t=1 command-line-arguments.SliceClear<1>+0
aux for command-line-arguments.SliceClear<0> SDWARFLINES size=41
	0x0000 00 09 02 00 00 00 00 00 00 00 00 04 02 03 0e 14  ................
	0x0010 0a 4b 06 9b 06 45 06 2d 1f a9 6c 06 a5 03 7d 6f  .K...E.-..l...}o
	0x0020 06 a5 06 23 02 16 00 01 01                       ...#.....
	rel 3+8 t=1 command-line-arguments.SliceClear<1>+0
aux for command-line-arguments.SliceClear<0> SDWARFFCN size=84
	0x0000 03 63 6f 6d 6d 61 6e 64 2d 6c 69 6e 65 2d 61 72  .command-line-ar
	0x0010 67 75 6d 65 6e 74 73 2e 53 6c 69 63 65 43 6c 65  guments.SliceCle
	0x0020 61 72 00 00 00 00 00 00 00 00 00 00 00 00 00 00  ar..............
	0x0030 00 00 00 01 9c 02 00 00 00 01 12 73 00 00 14 00  ...........s....
	0x0040 00 00 00 00 00 00 00 11 7e 72 30 00 01 14 00 00  ........~r0.....
	0x0050 00 00 00 00                                      ....
	rel 0+0 t=22 type:*uint8<0>+0
	rel 0+0 t=22 type:[]int<0>+0
	rel 35+8 t=1 command-line-arguments.SliceClear<1>+0
	rel 43+8 t=1 command-line-arguments.SliceClear<1>+118
	rel 63+4 t=31 go:info.[]int<0>+0
	rel 67+4 t=31 <0>+0
	rel 78+4 t=31 go:info.[]int<0>+0
aux for command-line-arguments.SliceClearPointers<0> SDWARFLOC size=160
	0x0000 ff ff ff ff ff ff ff ff 00 00 00 00 00 00 00 00  ................
	0x0010 00 00 00 00 00 00 00 00 31 00 00 00 00 00 00 00  ........1.......
	0x0020 0c 00 50 93 08 50 93 08 53 93 08 52 93 08 31 00  ..P..P..S..R..1.
	0x0030 00 00 00 00 00 00 36 00 00 00 00 00 00 00 10 00  ......6.........
	0x0040 91 68 93 08 91 68 93 08 91 08 93 08 91 10 93 08  .h...h..........
	0x0050 36 00 00 00 00 00 00 00 45 00 00 00 00 00 00 00  6.......E.......
	0x0060 10 00 91 68 93 08 91 68 93 08 91 08 93 08 91 10  ...h...h........
	0x0070 93 08 45 00 00 00 00 00 00 00 76 00 00 00 00 00  ..E.......v.....
	0x0080 00 00 0c 00 50 93 08 50 93 08 53 93 08 52 93 08  ....P..P..S..R..
	0x0090 00 00 00 00 00 00 00 00 00 00 00 00 00 00 00 00  ................
	rel 8+8 t=1 command-line-arguments.SliceClearPointers<1>+0
aux for command-line-arguments.SliceClearPointers<0> SDWARFLINES size=41
	0x0000 00 09 02 00 00 00 00 00 00 00 00 04 02 03 18 14  ................
	0x0010 0a 4b 06 9b 06 45 06 2d 1f a9 6c 06 a5 03 7d 6f  .K...E.-..l...}o
	0x0020 06 a5 06 23 02 16 00 01 01                       ...#.....
	rel 3+8 t=1 command-line-arguments.SliceClearPointers<1>+0
aux for command-line-arguments.SliceClearPointers<0> SDWARFFCN size=92
	0x0000 03 63 6f 6d 6d 61 6e 64 2d 6c 69 6e 65 2d 61 72  .command-line-ar
	0x0010 67 75 6d 65 6e 74 73 2e 53 6c 69 63 65 43 6c 65  guments.SliceCle
	0x0020 61 72 50 6f 69 6e 74 65 72 73 00 00 00 00 00 00  arPointers......
	0x0030 00 00 00 00 00 00 00 00 00 00 00 01 9c 02 00 00  ................
	0x0040 00 01 12 73 00 00 1e 00 00 00 00 00 00 00 00 11  ...s............
	0x0050 7e 72 30 00 01 1e 00 00 00 00 00 00              ~r0.........
	rel 0+0 t=22 type:*uint8<0>+0
	rel 0+0 t=22 type:[]*int<0>+0
	rel 43+8 t=1 command-line-arguments.SliceClearPointers<1>+0
	rel 51+8 t=1 command-line-arguments.SliceClearPointers<1>+118
	rel 71+4 t=31 go:info.[]*int<0>+0
	rel 75+4 t=31 <0>+0
	rel 86+4 t=31 go:info.[]*int<0>+0
aux for command-line-arguments.SliceExtensionConst<0> SDWARFLOC size=85
	0x0000 ff ff ff ff ff ff ff ff 00 00 00 00 00 00 00 00  ................
	0x0010 00 00 00 00 00 00 00 00 20 00 00 00 00 00 00 00  ........ .......
	0x0020 09 00 50 93 08 53 93 08 52 93 08 20 00 00 00 00  ..P..S..R.. ....
	0x0030 00 00 00 36 00 00 00 00 00 00 00 08 00 50 93 08  ...6.........P..
	0x0040 93 08 52 93 08 00 00 00 00 00 00 00 00 00 00 00  ..R.............
	0x0050 00 00 00 00 00                                   .....
	rel 8+8 t=1 command-line-arguments.SliceExtensionConst<1>+0
aux for command-line-arguments.SliceExtensionConst<0> SDWARFLINES size=42
	0x0000 00 09 02 00 00 00 00 00 00 00 00 04 02 03 28 14  ..............(.
	0x0010 0a 4b 06 9b 06 03 05 46 06 37 06 08 19 06 41 06  .K.....F.7....A.
	0x0020 02 20 03 7a fb 02 28 00 01 01                    . .z..(...
	rel 3+8 t=1 command-line-arguments.SliceExtensionConst<1>+0
aux for command-line-arguments.SliceExtensionConst<0> SDWARFFCN size=93
	0x0000 03 63 6f 6d 6d 61 6e 64 2d 6c 69 6e 65 2d 61 72  .command-line-ar
	0x0010 67 75 6d 65 6e 74 73 2e 53 6c 69 63 65 45 78 74  guments.SliceExt
	0x0020 65 6e 73 69 6f 6e 43 6f 6e 73 74 00 00 00 00 00  ensionConst.....
	0x0030 00 00 00 00 00 00 00 00 00 00 00 00 01 9c 02 00  ................
	0x0040 00 00 01 12 73 00 00 2e 00 00 00 00 00 00 00 00  ....s...........
	0x0050 11 7e 72 30 00 01 2e 00 00 00 00 00 00           .~r0.........
	rel 0+0 t=22 type:*int<0>+0
	rel 0+0 t=22 type:[]int<0>+0
	rel 0+0 t=22 type:int<0>+0
	rel 44+8 t=1 command-line-arguments.SliceExtensionConst<1>+0
	rel 52+8 t=1 command-line-arguments.SliceExtensionConst<1>+155
	rel 72+4 t=31 go:info.[]int<0>+0
	rel 76+4 t=31 <0>+0
	rel 87+4 t=31 go:info.[]int<0>+0
aux for command-line-arguments.SliceExtensionConstInt64<0> SDWARFLOC size=85
	0x0000 ff ff ff ff ff ff ff ff 00 00 00 00 00 00 00 00  ................
	0x0010 00 00 00 00 00 00 00 00 20 00 00 00 00 00 00 00  ........ .......
	0x0020 09 00 50 93 08 53 93 08 52 93 08 20 00 00 00 00  ..P..S..R.. ....
	0x0030 00 00 00 36 00 00 00 00 00 00 00 08 00 50 93 08  ...6.........P..
	0x0040 93 08 52 93 08 00 00 00 00 00 00 00 00 00 00 00  ..R.............
	0x0050 00 00 00 00 00                                   .....
	rel 8+8 t=1 command-line-arguments.SliceExtensionConstInt64<1>+0
aux for command-line-arguments.SliceExtensionConstInt64<0> SDWARFLINES size=42
	0x0000 00 09 02 00 00 00 00 00 00 00 00 04 02 03 35 14  ..............5.
	0x0010 0a 4b 06 9b 06 03 05 46 06 37 06 08 19 06 41 06  .K.....F.7....A.
	0x0020 02 20 03 7a fb 02 28 00 01 01                    . .z..(...
	rel 3+8 t=1 command-line-arguments.SliceExtensionConstInt64<1>+0
aux for command-line-arguments.SliceExtensionConstInt64<0> SDWARFFCN size=98
	0x0000 03 63 6f 6d 6d 61 6e 64 2d 6c 69 6e 65 2d 61 72  .command-line-ar
	0x0010 67 75 6d 65 6e 74 73 2e 53 6c 69 63 65 45 78 74  guments.SliceExt
	0x0020 65 6e 73 69 6f 6e 43 6f 6e 73 74 49 6e 74 36 34  ensionConstInt64
	0x0030 00 00 00 00 00 00 00 00 00 00 00 00 00 00 00 00  ................
	0x0040 00 01 9c 02 00 00 00 01 12 73 00 00 3b 00 00 00  .........s..;...
	0x0050 00 00 00 00 00 11 7e 72 30 00 01 3b 00 00 00 00  ......~r0..;....
	0x0060 00 00                                            ..
	rel 0+0 t=22 type:*int<0>+0
	rel 0+0 t=22 type:[]int<0>+0
	rel 0+0 t=22 type:int<0>+0
	rel 49+8 t=1 command-line-arguments.SliceExtensionConstInt64<1>+0
	rel 57+8 t=1 command-line-arguments.SliceExtensionConstInt64<1>+155
	rel 77+4 t=31 go:info.[]int<0>+0
	rel 81+4 t=31 <0>+0
	rel 92+4 t=31 go:info.[]int<0>+0
aux for command-line-arguments.SliceExtensionConstUint64<0> SDWARFLOC size=85
	0x0000 ff ff ff ff ff ff ff ff 00 00 00 00 00 00 00 00  ................
	0x0010 00 00 00 00 00 00 00 00 20 00 00 00 00 00 00 00  ........ .......
	0x0020 09 00 50 93 08 53 93 08 52 93 08 20 00 00 00 00  ..P..S..R.. ....
	0x0030 00 00 00 36 00 00 00 00 00 00 00 08 00 50 93 08  ...6.........P..
	0x0040 93 08 52 93 08 00 00 00 00 00 00 00 00 00 00 00  ..R.............
	0x0050 00 00 00 00 00                                   .....
	rel 8+8 t=1 command-line-arguments.SliceExtensionConstUint64<1>+0
aux for command-line-arguments.SliceExtensionConstUint64<0> SDWARFLINES size=43
	0x0000 00 09 02 00 00 00 00 00 00 00 00 04 02 03 c2 00  ................
	0x0010 14 0a 4b 06 9b 06 03 05 46 06 37 06 08 19 06 41  ..K.....F.7....A
	0x0020 06 02 20 03 7a fb 02 28 00 01 01                 .. .z..(...
	rel 3+8 t=1 command-line-arguments.SliceExtensionConstUint64<1>+0
aux for command-line-arguments.SliceExtensionConstUint64<0> SDWARFFCN size=99
	0x0000 03 63 6f 6d 6d 61 6e 64 2d 6c 69 6e 65 2d 61 72  .command-line-ar
	0x0010 67 75 6d 65 6e 74 73 2e 53 6c 69 63 65 45 78 74  guments.SliceExt
	0x0020 65 6e 73 69 6f 6e 43 6f 6e 73 74 55 69 6e 74 36  ensionConstUint6
	0x0030 34 00 00 00 00 00 00 00 00 00 00 00 00 00 00 00  4...............
	0x0040 00 00 01 9c 02 00 00 00 01 12 73 00 00 48 00 00  ..........s..H..
	0x0050 00 00 00 00 00 00 11 7e 72 30 00 01 48 00 00 00  .......~r0..H...
	0x0060 00 00 00                                         ...
	rel 0+0 t=22 type:*int<0>+0
	rel 0+0 t=22 type:[]int<0>+0
	rel 0+0 t=22 type:int<0>+0
	rel 50+8 t=1 command-line-arguments.SliceExtensionConstUint64<1>+0
	rel 58+8 t=1 command-line-arguments.SliceExtensionConstUint64<1>+155
	rel 78+4 t=31 go:info.[]int<0>+0
	rel 82+4 t=31 <0>+0
	rel 93+4 t=31 go:info.[]int<0>+0
aux for command-line-arguments.SliceExtensionConstUint<0> SDWARFLOC size=85
	0x0000 ff ff ff ff ff ff ff ff 00 00 00 00 00 00 00 00  ................
	0x0010 00 00 00 00 00 00 00 00 20 00 00 00 00 00 00 00  ........ .......
	0x0020 09 00 50 93 08 53 93 08 52 93 08 20 00 00 00 00  ..P..S..R.. ....
	0x0030 00 00 00 36 00 00 00 00 00 00 00 08 00 50 93 08  ...6.........P..
	0x0040 93 08 52 93 08 00 00 00 00 00 00 00 00 00 00 00  ..R.............
	0x0050 00 00 00 00 00                                   .....
	rel 8+8 t=1 command-line-arguments.SliceExtensionConstUint<1>+0
aux for command-line-arguments.SliceExtensionConstUint<0> SDWARFLINES size=43
	0x0000 00 09 02 00 00 00 00 00 00 00 00 04 02 03 cf 00  ................
	0x0010 14 0a 4b 06 9b 06 03 05 46 06 37 06 08 19 06 41  ..K.....F.7....A
	0x0020 06 02 20 03 7a fb 02 28 00 01 01                 .. .z..(...
	rel 3+8 t=1 command-line-arguments.SliceExtensionConstUint<1>+0
aux for command-line-arguments.SliceExtensionConstUint<0> SDWARFFCN size=97
	0x0000 03 63 6f 6d 6d 61 6e 64 2d 6c 69 6e 65 2d 61 72  .command-line-ar
	0x0010 67 75 6d 65 6e 74 73 2e 53 6c 69 63 65 45 78 74  guments.SliceExt
	0x0020 65 6e 73 69 6f 6e 43 6f 6e 73 74 55 69 6e 74 00  ensionConstUint.
	0x0030 00 00 00 00 00 00 00 00 00 00 00 00 00 00 00 00  ................
	0x0040 01 9c 02 00 00 00 01 12 73 00 00 55 00 00 00 00  ........s..U....
	0x0050 00 00 00 00 11 7e 72 30 00 01 55 00 00 00 00 00  .....~r0..U.....
	0x0060 00                                               .
	rel 0+0 t=22 type:*int<0>+0
	rel 0+0 t=22 type:[]int<0>+0
	rel 0+0 t=22 type:int<0>+0
	rel 48+8 t=1 command-line-arguments.SliceExtensionConstUint<1>+0
	rel 56+8 t=1 command-line-arguments.SliceExtensionConstUint<1>+155
	rel 76+4 t=31 go:info.[]int<0>+0
	rel 80+4 t=31 <0>+0
	rel 91+4 t=31 go:info.[]int<0>+0
aux for command-line-arguments.SliceExtensionPointer<0> SDWARFLOC size=263
	0x0000 ff ff ff ff ff ff ff ff 00 00 00 00 00 00 00 00  ................
	0x0010 00 00 00 00 00 00 00 00 3a 00 00 00 00 00 00 00  ........:.......
	0x0020 0c 00 50 93 08 50 93 08 53 93 08 52 93 08 3a 00  ..P..P..S..R..:.
	0x0030 00 00 00 00 00 00 41 00 00 00 00 00 00 00 0d 00  ......A.........
	0x0040 9c 93 08 9c 93 08 53 93 08 91 10 93 08 41 00 00  ......S......A..
	0x0050 00 00 00 00 00 44 00 00 00 00 00 00 00 0c 00 9c  .....D..........
	0x0060 93 08 9c 93 08 93 08 91 10 93 08 44 00 00 00 00  ...........D....
	0x0070 00 00 00 5a 00 00 00 00 00 00 00 0c 00 9c 93 08  ...Z............
	0x0080 9c 93 08 93 08 91 10 93 08 5a 00 00 00 00 00 00  .........Z......
	0x0090 00 5d 00 00 00 00 00 00 00 0c 00 50 93 08 50 93  .].........P..P.
	0x00a0 08 53 93 08 52 93 08 5d 00 00 00 00 00 00 00 69  .S..R..].......i
	0x00b0 00 00 00 00 00 00 00 0b 00 50 93 08 50 93 08 93  .........P..P...
	0x00c0 08 52 93 08 00 00 00 00 00 00 00 00 00 00 00 00  .R..............
	0x00d0 00 00 00 00 ff ff ff ff ff ff ff ff 00 00 00 00  ................
	0x00e0 00 00 00 00 00 00 00 00 00 00 00 00 3e 00 00 00  ............>...
	0x00f0 00 00 00 00 01 00 55 00 00 00 00 00 00 00 00 00  ......U.........
	0x0100 00 00 00 00 00 00 00                             .......
	rel 8+8 t=1 command-line-arguments.SliceExtensionPointer<1>+0
	rel 220+8 t=1 command-line-arguments.SliceExtensionPointer<1>+0
aux for command-line-arguments.SliceExtensionPointer<0> SDWARFLINES size=49
	0x0000 00 09 02 00 00 00 00 00 00 00 00 04 02 03 dc 00  ................
	0x0010 14 0a 4b 06 9b 06 03 02 46 06 2d 03 7d ab 03 02  ..K.....F.-.}...
	0x0020 78 06 02 1b ff 06 73 06 41 03 7d 15 02 32 00 01  x.....s.A.}..2..
	0x0030 01                                               .
	rel 3+8 t=1 command-line-arguments.SliceExtensionPointer<1>+0
aux for command-line-arguments.SliceExtensionPointer<0> SDWARFFCN size=108
	0x0000 03 63 6f 6d 6d 61 6e 64 2d 6c 69 6e 65 2d 61 72  .command-line-ar
	0x0010 67 75 6d 65 6e 74 73 2e 53 6c 69 63 65 45 78 74  guments.SliceExt
	0x0020 65 6e 73 69 6f 6e 50 6f 69 6e 74 65 72 00 00 00  ensionPointer...
	0x0030 00 00 00 00 00 00 00 00 00 00 00 00 00 00 01 9c  ................
	0x0040 02 00 00 00 01 12 73 00 00 62 00 00 00 00 00 00  ......s..b......
	0x0050 00 00 12 6c 00 00 62 00 00 00 00 00 00 00 00 11  ...l..b.........
	0x0060 7e 72 30 00 01 62 00 00 00 00 00 00              ~r0..b......
	rel 0+0 t=22 type:[]*int<0>+0
	rel 46+8 t=1 command-line-arguments.SliceExtensionPointer<1>+0
	rel 54+8 t=1 command-line-arguments.SliceExtensionPointer<1>+171
	rel 74+4 t=31 go:info.[]*int<0>+0
	rel 78+4 t=31 <0>+0
	rel 87+4 t=31 go:info.int<0>+0
	rel 91+4 t=31 <0>+212
	rel 102+4 t=31 go:info.[]*int<0>+0
aux for command-line-arguments.SliceExtensionVar<0> SDWARFLOC size=175
	0x0000 ff ff ff ff ff ff ff ff 00 00 00 00 00 00 00 00  ................
	0x0010 00 00 00 00 00 00 00 00 21 00 00 00 00 00 00 00  ........!.......
	0x0020 09 00 50 93 08 53 93 08 52 93 08 21 00 00 00 00  ..P..S..R..!....
	0x0030 00 00 00 37 00 00 00 00 00 00 00 08 00 50 93 08  ...7.........P..
	0x0040 93 08 52 93 08 00 00 00 00 00 00 00 00 00 00 00  ..R.............
	0x0050 00 00 00 00 00 ff ff ff ff ff ff ff ff 00 00 00  ................
	0x0060 00 00 00 00 00 00 00 00 00 00 00 00 00 37 00 00  .............7..
	0x0070 00 00 00 00 00 01 00 55 37 00 00 00 00 00 00 00  .......U7.......
	0x0080 3c 00 00 00 00 00 00 00 02 00 91 18 3c 00 00 00  <...........<...
	0x0090 00 00 00 00 5d 00 00 00 00 00 00 00 01 00 55 00  ....].........U.
	0x00a0 00 00 00 00 00 00 00 00 00 00 00 00 00 00 00     ...............
	rel 8+8 t=1 command-line-arguments.SliceExtensionVar<1>+0
	rel 93+8 t=1 command-line-arguments.SliceExtensionVar<1>+0
aux for command-line-arguments.SliceExtensionVar<0> SDWARFLINES size=49
	0x0000 00 09 02 00 00 00 00 00 00 00 00 04 02 03 e6 00  ................
	0x0010 14 0a 4b 06 9b 06 03 02 46 06 2d 03 7d 6f 03 02  ..K.....F.-.}o..
	0x0020 46 06 b9 06 41 06 02 22 ff 03 7d 15 02 32 00 01  F...A.."..}..2..
	0x0030 01                                               .
	rel 3+8 t=1 command-line-arguments.SliceExtensionVar<1>+0
aux for command-line-arguments.SliceExtensionVar<0> SDWARFFCN size=104
	0x0000 03 63 6f 6d 6d 61 6e 64 2d 6c 69 6e 65 2d 61 72  .command-line-ar
	0x0010 67 75 6d 65 6e 74 73 2e 53 6c 69 63 65 45 78 74  guments.SliceExt
	0x0020 65 6e 73 69 6f 6e 56 61 72 00 00 00 00 00 00 00  ensionVar.......
	0x0030 00 00 00 00 00 00 00 00 00 00 01 9c 02 00 00 00  ................
	0x0040 01 12 73 00 00 6c 00 00 00 00 00 00 00 00 12 6c  ..s..l.........l
	0x0050 00 00 6c 00 00 00 00 00 00 00 00 11 7e 72 30 00  ..l.........~r0.
	0x0060 01 6c 00 00 00 00 00 00                          .l......
	rel 0+0 t=22 type:*uint8<0>+0
	rel 0+0 t=22 type:[]uint8<0>+0
	rel 42+8 t=1 command-line-arguments.SliceExtensionVar<1>+0
	rel 50+8 t=1 command-line-arguments.SliceExtensionVar<1>+174
	rel 70+4 t=31 go:info.[]uint8<0>+0
	rel 74+4 t=31 <0>+0
	rel 83+4 t=31 go:info.int<0>+0
	rel 87+4 t=31 <0>+85
	rel 98+4 t=31 go:info.[]uint8<0>+0
aux for command-line-arguments.SliceExtensionVarInt64<0> SDWARFLOC size=175
	0x0000 ff ff ff ff ff ff ff ff 00 00 00 00 00 00 00 00  ................
	0x0010 00 00 00 00 00 00 00 00 21 00 00 00 00 00 00 00  ........!.......
	0x0020 09 00 50 93 08 53 93 08 52 93 08 21 00 00 00 00  ..P..S..R..!....
	0x0030 00 00 00 37 00 00 00 00 00 00 00 08 00 50 93 08  ...7.........P..
	0x0040 93 08 52 93 08 00 00 00 00 00 00 00 00 00 00 00  ..R.............
	0x0050 00 00 00 00 00 ff ff ff ff ff ff ff ff 00 00 00  ................
	0x0060 00 00 00 00 00 00 00 00 00 00 00 00 00 37 00 00  .............7..
	0x0070 00 00 00 00 00 01 00 55 37 00 00 00 00 00 00 00  .......U7.......
	0x0080 3c 00 00 00 00 00 00 00 02 00 91 18 3c 00 00 00  <...........<...
	0x0090 00 00 00 00 5d 00 00 00 00 00 00 00 01 00 55 00  ....].........U.
	0x00a0 00 00 00 00 00 00 00 00 00 00 00 00 00 00 00     ...............
	rel 8+8 t=1 command-line-arguments.SliceExtensionVarInt64<1>+0
	rel 93+8 t=1 command-line-arguments.SliceExtensionVarInt64<1>+0
aux for command-line-arguments.SliceExtensionVarInt64<0> SDWARFLINES size=41
	0x0000 00 09 02 00 00 00 00 00 00 00 00 04 02 03 f0 00  ................
	0x0010 14 0a 4b 06 9b 06 45 06 2d 6f 45 06 b9 06 41 06  ..K...E.-oE...A.
	0x0020 02 22 ff 15 02 32 00 01 01                       ."...2...
	rel 3+8 t=1 command-line-arguments.SliceExtensionVarInt64<1>+0
aux for command-line-arguments.SliceExtensionVarInt64<0> SDWARFFCN size=109
	0x0000 03 63 6f 6d 6d 61 6e 64 2d 6c 69 6e 65 2d 61 72  .command-line-ar
	0x0010 67 75 6d 65 6e 74 73 2e 53 6c 69 63 65 45 78 74  guments.SliceExt
	0x0020 65 6e 73 69 6f 6e 56 61 72 49 6e 74 36 34 00 00  ensionVarInt64..
	0x0030 00 00 00 00 00 00 00 00 00 00 00 00 00 00 00 01  ................
	0x0040 9c 02 00 00 00 01 12 73 00 00 76 00 00 00 00 00  .......s..v.....
	0x0050 00 00 00 12 6c 00 00 76 00 00 00 00 00 00 00 00  ....l..v........
	0x0060 11 7e 72 30 00 01 76 00 00 00 00 00 00           .~r0..v......
	rel 0+0 t=22 type:*uint8<0>+0
	rel 0+0 t=22 type:[]uint8<0>+0
	rel 0+0 t=22 type:int<0>+0
	rel 47+8 t=1 command-line-arguments.SliceExtensionVarInt64<1>+0
	rel 55+8 t=1 command-line-arguments.SliceExtensionVarInt64<1>+174
	rel 75+4 t=31 go:info.[]uint8<0>+0
	rel 79+4 t=31 <0>+0
	rel 88+4 t=31 go:info.int64<0>+0
	rel 92+4 t=31 <0>+85
	rel 103+4 t=31 go:info.[]uint8<0>+0
aux for command-line-arguments.SliceExtensionVarUint64<0> SDWARFLOC size=175
	0x0000 ff ff ff ff ff ff ff ff 00 00 00 00 00 00 00 00  ................
	0x0010 00 00 00 00 00 00 00 00 21 00 00 00 00 00 00 00  ........!.......
	0x0020 09 00 50 93 08 53 93 08 52 93 08 21 00 00 00 00  ..P..S..R..!....
	0x0030 00 00 00 37 00 00 00 00 00 00 00 08 00 50 93 08  ...7.........P..
	0x0040 93 08 52 93 08 00 00 00 00 00 00 00 00 00 00 00  ..R.............
	0x0050 00 00 00 00 00 ff ff ff ff ff ff ff ff 00 00 00  ................
	0x0060 00 00 00 00 00 00 00 00 00 00 00 00 00 37 00 00  .............7..
	0x0070 00 00 00 00 00 01 00 55 37 00 00 00 00 00 00 00  .......U7.......
	0x0080 3c 00 00 00 00 00 00 00 02 00 91 18 3c 00 00 00  <...........<...
	0x0090 00 00 00 00 5d 00 00 00 00 00 00 00 01 00 55 00  ....].........U.
	0x00a0 00 00 00 00 00 00 00 00 00 00 00 00 00 00 00     ...............
	rel 8+8 t=1 command-line-arguments.SliceExtensionVarUint64<1>+0
	rel 93+8 t=1 command-line-arguments.SliceExtensionVarUint64<1>+0
aux for command-line-arguments.SliceExtensionVarUint64<0> SDWARFLINES size=41
	0x0000 00 09 02 00 00 00 00 00 00 00 00 04 02 03 f7 00  ................
	0x0010 14 0a 4b 06 9b 06 45 06 2d 6f 45 06 b9 06 41 06  ..K...E.-oE...A.
	0x0020 02 22 ff 15 02 32 00 01 01                       ."...2...
	rel 3+8 t=1 command-line-arguments.SliceExtensionVarUint64<1>+0
aux for command-line-arguments.SliceExtensionVarUint64<0> SDWARFFCN size=110
	0x0000 03 63 6f 6d 6d 61 6e 64 2d 6c 69 6e 65 2d 61 72  .command-line-ar
	0x0010 67 75 6d 65 6e 74 73 2e 53 6c 69 63 65 45 78 74  guments.SliceExt
	0x0020 65 6e 73 69 6f 6e 56 61 72 55 69 6e 74 36 34 00  ensionVarUint64.
	0x0030 00 00 00 00 00 00 00 00 00 00 00 00 00 00 00 00  ................
	0x0040 01 9c 02 00 00 00 01 12 73 00 00 7d 00 00 00 00  ........s..}....
	0x0050 00 00 00 00 12 6c 00 00 7d 00 00 00 00 00 00 00  .....l..}.......
	0x0060 00 11 7e 72 30 00 01 7d 00 00 00 00 00 00        ..~r0..}......
	rel 0+0 t=22 type:*uint8<0>+0
	rel 0+0 t=22 type:[]uint8<0>+0
	rel 0+0 t=22 type:int<0>+0
	rel 48+8 t=1 command-line-arguments.SliceExtensionVarUint64<1>+0
	rel 56+8 t=1 command-line-arguments.SliceExtensionVarUint64<1>+174
	rel 76+4 t=31 go:info.[]uint8<0>+0
	rel 80+4 t=31 <0>+0
	rel 89+4 t=31 go:info.uint64<0>+0
	rel 93+4 t=31 <0>+85
	rel 104+4 t=31 go:info.[]uint8<0>+0
aux for command-line-arguments.SliceExtensionVarUint<0> SDWARFLOC size=175
	0x0000 ff ff ff ff ff ff ff ff 00 00 00 00 00 00 00 00  ................
	0x0010 00 00 00 00 00 00 00 00 21 00 00 00 00 00 00 00  ........!.......
	0x0020 09 00 50 93 08 53 93 08 52 93 08 21 00 00 00 00  ..P..S..R..!....
	0x0030 00 00 00 37 00 00 00 00 00 00 00 08 00 50 93 08  ...7.........P..
	0x0040 93 08 52 93 08 00 00 00 00 00 00 00 00 00 00 00  ..R.............
	0x0050 00 00 00 00 00 ff ff ff ff ff ff ff ff 00 00 00  ................
	0x0060 00 00 00 00 00 00 00 00 00 00 00 00 00 37 00 00  .............7..
	0x0070 00 00 00 00 00 01 00 55 37 00 00 00 00 00 00 00  .......U7.......
	0x0080 3c 00 00 00 00 00 00 00 02 00 91 18 3c 00 00 00  <...........<...
	0x0090 00 00 00 00 5d 00 00 00 00 00 00 00 01 00 55 00  ....].........U.
	0x00a0 00 00 00 00 00 00 00 00 00 00 00 00 00 00 00     ...............
	rel 8+8 t=1 command-line-arguments.SliceExtensionVarUint<1>+0
	rel 93+8 t=1 command-line-arguments.SliceExtensionVarUint<1>+0
aux for command-line-arguments.SliceExtensionVarUint<0> SDWARFLINES size=41
	0x0000 00 09 02 00 00 00 00 00 00 00 00 04 02 03 fe 00  ................
	0x0010 14 0a 4b 06 9b 06 45 06 2d 6f 45 06 b9 06 41 06  ..K...E.-oE...A.
	0x0020 02 22 ff 15 02 32 00 01 01                       ."...2...
	rel 3+8 t=1 command-line-arguments.SliceExtensionVarUint<1>+0
aux for command-line-arguments.SliceExtensionVarUint<0> SDWARFFCN size=111
	0x0000 03 63 6f 6d 6d 61 6e 64 2d 6c 69 6e 65 2d 61 72  .command-line-ar
	0x0010 67 75 6d 65 6e 74 73 2e 53 6c 69 63 65 45 78 74  guments.SliceExt
	0x0020 65 6e 73 69 6f 6e 56 61 72 55 69 6e 74 00 00 00  ensionVarUint...
	0x0030 00 00 00 00 00 00 00 00 00 00 00 00 00 00 01 9c  ................
	0x0040 02 00 00 00 01 12 73 00 00 84 01 00 00 00 00 00  ......s.........
	0x0050 00 00 00 12 6c 00 00 84 01 00 00 00 00 00 00 00  ....l...........
	0x0060 00 11 7e 72 30 00 01 84 01 00 00 00 00 00 00     ..~r0..........
	rel 0+0 t=22 type:*uint8<0>+0
	rel 0+0 t=22 type:[]uint8<0>+0
	rel 0+0 t=22 type:int<0>+0
	rel 46+8 t=1 command-line-arguments.SliceExtensionVarUint<1>+0
	rel 54+8 t=1 command-line-arguments.SliceExtensionVarUint<1>+174
	rel 75+4 t=31 go:info.[]uint8<0>+0
	rel 79+4 t=31 <0>+0
	rel 89+4 t=31 go:info.uint<0>+0
	rel 93+4 t=31 <0>+85
	rel 105+4 t=31 go:info.[]uint8<0>+0
aux for command-line-arguments.SliceExtensionInt64<0> SDWARFLOC size=175
	0x0000 ff ff ff ff ff ff ff ff 00 00 00 00 00 00 00 00  ................
	0x0010 00 00 00 00 00 00 00 00 28 00 00 00 00 00 00 00  ........(.......
	0x0020 09 00 50 93 08 53 93 08 52 93 08 28 00 00 00 00  ..P..S..R..(....
	0x0030 00 00 00 3e 00 00 00 00 00 00 00 08 00 50 93 08  ...>.........P..
	0x0040 93 08 52 93 08 00 00 00 00 00 00 00 00 00 00 00  ..R.............
	0x0050 00 00 00 00 00 ff ff ff ff ff ff ff ff 00 00 00  ................
	0x0060 00 00 00 00 00 00 00 00 00 00 00 00 00 3e 00 00  .............>..
	0x0070 00 00 00 00 00 01 00 55 3e 00 00 00 00 00 00 00  .......U>.......
	0x0080 43 00 00 00 00 00 00 00 02 00 91 18 43 00 00 00  C...........C...
	0x0090 00 00 00 00 5d 00 00 00 00 00 00 00 01 00 55 00  ....].........U.
	0x00a0 00 00 00 00 00 00 00 00 00 00 00 00 00 00 00     ...............
	rel 8+8 t=1 command-line-arguments.SliceExtensionInt64<1>+0
	rel 93+8 t=1 command-line-arguments.SliceExtensionInt64<1>+0
aux for command-line-arguments.SliceExtensionInt64<0> SDWARFLINES size=45
	0x0000 00 09 02 00 00 00 00 00 00 00 00 04 02 03 85 01  ................
	0x0010 14 0a 73 06 9b 06 62 06 2d 70 44 06 b9 06 41 06  ..s...b.-pD...A.
	0x0020 02 26 ff 16 06 d7 06 41 02 1e 00 01 01           .&.....A.....
	rel 3+8 t=1 command-line-arguments.SliceExtensionInt64<1>+0
aux for command-line-arguments.SliceExtensionInt64<0> SDWARFFCN size=111
	0x0000 03 63 6f 6d 6d 61 6e 64 2d 6c 69 6e 65 2d 61 72  .command-line-ar
	0x0010 67 75 6d 65 6e 74 73 2e 53 6c 69 63 65 45 78 74  guments.SliceExt
	0x0020 65 6e 73 69 6f 6e 49 6e 74 36 34 00 00 00 00 00  ensionInt64.....
	0x0030 00 00 00 00 00 00 00 00 00 00 00 00 01 9c 02 00  ................
	0x0040 00 00 01 12 73 00 00 8b 01 00 00 00 00 00 00 00  ....s...........
	0x0050 00 12 6c 36 34 00 00 8b 01 00 00 00 00 00 00 00  ..l64...........
	0x0060 00 11 7e 72 30 00 01 8b 01 00 00 00 00 00 00     ..~r0..........
	rel 0+0 t=22 type:*int<0>+0
	rel 0+0 t=22 type:[]int<0>+0
	rel 0+0 t=22 type:int<0>+0
	rel 44+8 t=1 command-line-arguments.SliceExtensionInt64<1>+0
	rel 52+8 t=1 command-line-arguments.SliceExtensionInt64<1>+190
	rel 73+4 t=31 go:info.[]int<0>+0
	rel 77+4 t=31 <0>+0
	rel 89+4 t=31 go:info.int64<0>+0
	rel 93+4 t=31 <0>+85
	rel 105+4 t=31 go:info.[]int<0>+0
aux for command-line-arguments.SliceMakeCopyLen<0> SDWARFLOC size=286
	0x0000 ff ff ff ff ff ff ff ff 00 00 00 00 00 00 00 00  ................
	0x0010 00 00 00 00 00 00 00 00 22 00 00 00 00 00 00 00  ........".......
	0x0020 09 00 50 93 08 53 93 08 52 93 08 22 00 00 00 00  ..P..S..R.."....
	0x0030 00 00 00 29 00 00 00 00 00 00 00 0a 00 9c 93 08  ...)............
	0x0040 91 08 93 08 52 93 08 29 00 00 00 00 00 00 00 2c  ....R..).......,
	0x0050 00 00 00 00 00 00 00 09 00 9c 93 08 91 08 93 08  ................
	0x0060 93 08 2c 00 00 00 00 00 00 00 86 00 00 00 00 00  ..,.............
	0x0070 00 00 09 00 9c 93 08 91 08 93 08 93 08 00 00 00  ................
	0x0080 00 00 00 00 00 00 00 00 00 00 00 00 00 ff ff ff  ................
	0x0090 ff ff ff ff ff 00 00 00 00 00 00 00 00 00 00 00  ................
	0x00a0 00 00 00 00 00 22 00 00 00 00 00 00 00 08 00 93  ....."..........
	0x00b0 08 53 93 08 53 93 08 22 00 00 00 00 00 00 00 33  .S..S..".......3
	0x00c0 00 00 00 00 00 00 00 0a 00 93 08 91 08 93 08 91  ................
	0x00d0 08 93 08 33 00 00 00 00 00 00 00 47 00 00 00 00  ...3.......G....
	0x00e0 00 00 00 0b 00 50 93 08 91 08 93 08 91 08 93 08  .....P..........
	0x00f0 47 00 00 00 00 00 00 00 86 00 00 00 00 00 00 00  G...............
	0x0100 0c 00 91 68 93 08 91 08 93 08 91 08 93 08 00 00  ...h............
	0x0110 00 00 00 00 00 00 00 00 00 00 00 00 00 00        ..............
	rel 8+8 t=1 command-line-arguments.SliceMakeCopyLen<1>+0
	rel 149+8 t=1 command-line-arguments.SliceMakeCopyLen<1>+0
aux for command-line-arguments.SliceMakeCopyLen<0> SDWARFLINES size=38
	0x0000 00 09 02 00 00 00 00 00 00 00 00 04 02 03 91 01  ................
	0x0010 14 0a 4b 03 05 a0 06 41 06 08 ed 06 41 06 03 78  ..K....A....A..x
	0x0020 bf 02 28 00 01 01                                ..(...
	rel 3+8 t=1 command-line-arguments.SliceMakeCopyLen<1>+0
aux for command-line-arguments.SliceMakeCopyLen<0> SDWARFFCN size=105
	0x0000 03 63 6f 6d 6d 61 6e 64 2d 6c 69 6e 65 2d 61 72  .command-line-ar
	0x0010 67 75 6d 65 6e 74 73 2e 53 6c 69 63 65 4d 61 6b  guments.SliceMak
	0x0020 65 43 6f 70 79 4c 65 6e 00 00 00 00 00 00 00 00  eCopyLen........
	0x0030 00 00 00 00 00 00 00 00 00 01 9c 02 00 00 00 01  ................
	0x0040 12 73 00 00 97 01 00 00 00 00 00 00 00 00 11 7e  .s.............~
	0x0050 72 30 00 01 97 01 00 00 00 00 00 0d 61 00 a1 01  r0..........a...
	0x0060 00 00 00 00 00 00 00 00 00                       .........
	rel 0+0 t=22 type:[]int<0>+0
	rel 0+0 t=22 type:uintptr<0>+0
	rel 0+0 t=22 type:unsafe.Pointer<0>+0
	rel 41+8 t=1 command-line-arguments.SliceMakeCopyLen<1>+0
	rel 49+8 t=1 command-line-arguments.SliceMakeCopyLen<1>+134
	rel 70+4 t=31 go:info.[]int<0>+0
	rel 74+4 t=31 <0>+0
	rel 86+4 t=31 go:info.[]int<0>+0
	rel 96+4 t=31 go:info.[]int<0>+0
	rel 100+4 t=31 <0>+141
aux for command-line-arguments.SliceMakeCopyLenPtr<0> SDWARFLOC size=253
	0x0000 ff ff ff ff ff ff ff ff 00 00 00 00 00 00 00 00  ................
	0x0010 00 00 00 00 00 00 00 00 21 00 00 00 00 00 00 00  ........!.......
	0x0020 09 00 50 93 08 53 93 08 52 93 08 21 00 00 00 00  ..P..S..R..!....
	0x0030 00 00 00 2b 00 00 00 00 00 00 00 09 00 50 93 08  ...+.........P..
	0x0040 91 08 93 08 93 08 2b 00 00 00 00 00 00 00 30 00  ......+.......0.
	0x0050 00 00 00 00 00 00 08 00 93 08 91 08 93 08 93 08  ................
	0x0060 30 00 00 00 00 00 00 00 67 00 00 00 00 00 00 00  0.......g.......
	0x0070 08 00 93 08 91 08 93 08 93 08 00 00 00 00 00 00  ................
	0x0080 00 00 00 00 00 00 00 00 00 00 ff ff ff ff ff ff  ................
	0x0090 ff ff 00 00 00 00 00 00 00 00 00 00 00 00 00 00  ................
	0x00a0 00 00 30 00 00 00 00 00 00 00 08 00 93 08 53 93  ..0...........S.
	0x00b0 08 53 93 08 30 00 00 00 00 00 00 00 30 00 00 00  .S..0.......0...
	0x00c0 00 00 00 00 0a 00 93 08 91 08 93 08 91 08 93 08  ................
	0x00d0 30 00 00 00 00 00 00 00 67 00 00 00 00 00 00 00  0.......g.......
	0x00e0 0b 00 50 93 08 91 08 93 08 91 08 93 08 00 00 00  ..P.............
	0x00f0 00 00 00 00 00 00 00 00 00 00 00 00 00           .............
	rel 8+8 t=1 command-line-arguments.SliceMakeCopyLenPtr<1>+0
	rel 146+8 t=1 command-line-arguments.SliceMakeCopyLenPtr<1>+0
aux for command-line-arguments.SliceMakeCopyLenPtr<0> SDWARFLINES size=40
	0x0000 00 09 02 00 00 00 00 00 00 00 00 04 02 03 a0 01  ................
	0x0010 14 0a 4b 06 9b 06 03 05 46 06 41 06 c5 06 41 06  ..K.....F.A...A.
	0x0020 03 78 8d 02 25 00 01 01                          .x..%...
	rel 3+8 t=1 command-line-arguments.SliceMakeCopyLenPtr<1>+0
aux for command-line-arguments.SliceMakeCopyLenPtr<0> SDWARFFCN size=108
	0x0000 03 63 6f 6d 6d 61 6e 64 2d 6c 69 6e 65 2d 61 72  .command-line-ar
	0x0010 67 75 6d 65 6e 74 73 2e 53 6c 69 63 65 4d 61 6b  guments.SliceMak
	0x0020 65 43 6f 70 79 4c 65 6e 50 74 72 00 00 00 00 00  eCopyLenPtr.....
	0x0030 00 00 00 00 00 00 00 00 00 00 00 00 01 9c 02 00  ................
	0x0040 00 00 01 12 73 00 00 a6 01 00 00 00 00 00 00 00  ....s...........
	0x0050 00 11 7e 72 30 00 01 a6 01 00 00 00 00 00 0d 61  ..~r0..........a
	0x0060 00 b0 01 00 00 00 00 00 00 00 00 00              ............
	rel 0+0 t=22 type:[]*int<0>+0
	rel 44+8 t=1 command-line-arguments.SliceMakeCopyLenPtr<1>+0
	rel 52+8 t=1 command-line-arguments.SliceMakeCopyLenPtr<1>+103
	rel 73+4 t=31 go:info.[]*int<0>+0
	rel 77+4 t=31 <0>+0
	rel 89+4 t=31 go:info.[]*int<0>+0
	rel 99+4 t=31 go:info.[]*int<0>+0
	rel 103+4 t=31 <0>+138
aux for command-line-arguments.SliceMakeCopyConst<0> SDWARFLOC size=167
	0x0000 ff ff ff ff ff ff ff ff 00 00 00 00 00 00 00 00  ................
	0x0010 00 00 00 00 00 00 00 00 1c 00 00 00 00 00 00 00  ................
	0x0020 09 00 50 93 08 53 93 08 52 93 08 1c 00 00 00 00  ..P..S..R.......
	0x0030 00 00 00 26 00 00 00 00 00 00 00 08 00 50 93 08  ...&.........P..
	0x0040 53 93 08 93 08 26 00 00 00 00 00 00 00 2b 00 00  S....&.......+..
	0x0050 00 00 00 00 00 07 00 93 08 53 93 08 93 08 00 00  .........S......
	0x0060 00 00 00 00 00 00 00 00 00 00 00 00 00 00 ff ff  ................
	0x0070 ff ff ff ff ff ff 00 00 00 00 00 00 00 00 30 00  ..............0.
	0x0080 00 00 00 00 00 00 67 00 00 00 00 00 00 00 07 00  ......g.........
	0x0090 50 93 08 93 08 93 08 00 00 00 00 00 00 00 00 00  P...............
	0x00a0 00 00 00 00 00 00 00                             .......
	rel 8+8 t=1 command-line-arguments.SliceMakeCopyConst<1>+0
	rel 118+8 t=1 command-line-arguments.SliceMakeCopyConst<1>+0
aux for command-line-arguments.SliceMakeCopyConst<0> SDWARFLINES size=38
	0x0000 00 09 02 00 00 00 00 00 00 00 00 04 02 03 af 01  ................
	0x0010 14 0a 4b 06 9b 06 45 06 2d 06 d9 06 41 06 03 7e  ..K...E.-...A..~
	0x0020 8d 02 25 00 01 01                                ..%...
	rel 3+8 t=1 command-line-arguments.SliceMakeCopyConst<1>+0
aux for command-line-arguments.SliceMakeCopyConst<0> SDWARFFCN size=107
	0x0000 03 63 6f 6d 6d 61 6e 64 2d 6c 69 6e 65 2d 61 72  .command-line-ar
	0x0010 67 75 6d 65 6e 74 73 2e 53 6c 69 63 65 4d 61 6b  guments.SliceMak
	0x0020 65 43 6f 70 79 43 6f 6e 73 74 00 00 00 00 00 00  eCopyConst......
	0x0030 00 00 00 00 00 00 00 00 00 00 00 01 9c 02 00 00  ................
	0x0040 00 01 12 73 00 00 b5 01 00 00 00 00 00 00 00 00  ...s............
	0x0050 11 7e 72 30 00 01 b5 01 00 00 00 00 00 0d 61 00  .~r0..........a.
	0x0060 b9 01 00 00 00 00 00 00 00 00 00                 ...........
	rel 0+0 t=22 type:[]int<0>+0
	rel 43+8 t=1 command-line-arguments.SliceMakeCopyConst<1>+0
	rel 51+8 t=1 command-line-arguments.SliceMakeCopyConst<1>+103
	rel 72+4 t=31 go:info.[]int<0>+0
	rel 76+4 t=31 <0>+0
	rel 88+4 t=31 go:info.[]int<0>+0
	rel 98+4 t=31 go:info.[]int<0>+0
	rel 102+4 t=31 <0>+110
aux for command-line-arguments.SliceMakeCopyConstPtr<0> SDWARFLOC size=167
	0x0000 ff ff ff ff ff ff ff ff 00 00 00 00 00 00 00 00  ................
	0x0010 00 00 00 00 00 00 00 00 1c 00 00 00 00 00 00 00  ................
	0x0020 09 00 50 93 08 53 93 08 52 93 08 1c 00 00 00 00  ..P..S..R.......
	0x0030 00 00 00 26 00 00 00 00 00 00 00 08 00 50 93 08  ...&.........P..
	0x0040 53 93 08 93 08 26 00 00 00 00 00 00 00 2b 00 00  S....&.......+..
	0x0050 00 00 00 00 00 07 00 93 08 53 93 08 93 08 00 00  .........S......
	0x0060 00 00 00 00 00 00 00 00 00 00 00 00 00 00 ff ff  ................
	0x0070 ff ff ff ff ff ff 00 00 00 00 00 00 00 00 30 00  ..............0.
	0x0080 00 00 00 00 00 00 67 00 00 00 00 00 00 00 07 00  ......g.........
	0x0090 50 93 08 93 08 93 08 00 00 00 00 00 00 00 00 00  P...............
	0x00a0 00 00 00 00 00 00 00                             .......
	rel 8+8 t=1 command-line-arguments.SliceMakeCopyConstPtr<1>+0
	rel 118+8 t=1 command-line-arguments.SliceMakeCopyConstPtr<1>+0
aux for command-line-arguments.SliceMakeCopyConstPtr<0> SDWARFLINES size=38
	0x0000 00 09 02 00 00 00 00 00 00 00 00 04 02 03 b8 01  ................
	0x0010 14 0a 4b 06 9b 06 45 06 2d 06 d9 06 41 06 03 7e  ..K...E.-...A..~
	0x0020 8d 02 25 00 01 01                                ..%...
	rel 3+8 t=1 command-line-arguments.SliceMakeCopyConstPtr<1>+0
aux for command-line-arguments.SliceMakeCopyConstPtr<0> SDWARFFCN size=110
	0x0000 03 63 6f 6d 6d 61 6e 64 2d 6c 69 6e 65 2d 61 72  .command-line-ar
	0x0010 67 75 6d 65 6e 74 73 2e 53 6c 69 63 65 4d 61 6b  guments.SliceMak
	0x0020 65 43 6f 70 79 43 6f 6e 73 74 50 74 72 00 00 00  eCopyConstPtr...
	0x0030 00 00 00 00 00 00 00 00 00 00 00 00 00 00 01 9c  ................
	0x0040 02 00 00 00 01 12 73 00 00 be 01 00 00 00 00 00  ......s.........
	0x0050 00 00 00 11 7e 72 30 00 01 be 01 00 00 00 00 00  ....~r0.........
	0x0060 0d 61 00 c2 01 00 00 00 00 00 00 00 00 00        .a............
	rel 0+0 t=22 type:[]*int<0>+0
	rel 46+8 t=1 command-line-arguments.SliceMakeCopyConstPtr<1>+0
	rel 54+8 t=1 command-line-arguments.SliceMakeCopyConstPtr<1>+103
	rel 75+4 t=31 go:info.[]*int<0>+0
	rel 79+4 t=31 <0>+0
	rel 91+4 t=31 go:info.[]*int<0>+0
	rel 101+4 t=31 go:info.[]*int<0>+0
	rel 105+4 t=31 <0>+110
aux for command-line-arguments.SliceMakeCopyNoOptNoDeref<0> SDWARFLOC size=140
	0x0000 ff ff ff ff ff ff ff ff 00 00 00 00 00 00 00 00  ................
	0x0010 00 00 00 00 00 00 00 00 36 00 00 00 00 00 00 00  ........6.......
	0x0020 09 00 50 93 08 53 93 08 52 93 08 36 00 00 00 00  ..P..S..R..6....
	0x0030 00 00 00 3d 00 00 00 00 00 00 00 09 00 9c 93 08  ...=............
	0x0040 91 08 93 08 93 08 3d 00 00 00 00 00 00 00 40 00  ......=.......@.
	0x0050 00 00 00 00 00 00 09 00 9c 93 08 91 08 93 08 93  ................
	0x0060 08 40 00 00 00 00 00 00 00 bb 00 00 00 00 00 00  .@..............
	0x0070 00 09 00 9c 93 08 91 08 93 08 93 08 00 00 00 00  ................
	0x0080 00 00 00 00 00 00 00 00 00 00 00 00              ............
	rel 8+8 t=1 command-line-arguments.SliceMakeCopyNoOptNoDeref<1>+0
aux for command-line-arguments.SliceMakeCopyNoOptNoDeref<0> SDWARFLINES size=47
	0x0000 00 09 02 00 00 00 00 00 00 00 00 04 02 03 c1 01  ................
	0x0010 14 0a 73 06 03 02 a0 06 70 06 66 4e 06 08 d0 06  ..s.....p.fN....
	0x0020 2d 06 eb 42 06 41 06 03 7c d3 02 28 00 01 01     -..B.A..|..(...
	rel 3+8 t=1 command-line-arguments.SliceMakeCopyNoOptNoDeref<1>+0
aux for command-line-arguments.SliceMakeCopyNoOptNoDeref<0> SDWARFFCN size=101
	0x0000 03 63 6f 6d 6d 61 6e 64 2d 6c 69 6e 65 2d 61 72  .command-line-ar
	0x0010 67 75 6d 65 6e 74 73 2e 53 6c 69 63 65 4d 61 6b  guments.SliceMak
	0x0020 65 43 6f 70 79 4e 6f 4f 70 74 4e 6f 44 65 72 65  eCopyNoOptNoDere
	0x0030 66 00 00 00 00 00 00 00 00 00 00 00 00 00 00 00  f...............
	0x0040 00 00 01 9c 02 00 00 00 01 12 73 00 00 c7 01 00  ..........s.....
	0x0050 00 00 00 00 00 00 00 11 7e 72 30 00 01 c7 01 00  ........~r0.....
	0x0060 00 00 00 00 00                                   .....
	rel 0+0 t=22 type:[]*int<0>+0
	rel 50+8 t=1 command-line-arguments.SliceMakeCopyNoOptNoDeref<1>+0
	rel 58+8 t=1 command-line-arguments.SliceMakeCopyNoOptNoDeref<1>+187
	rel 79+4 t=31 go:info.[]*int<0>+0
	rel 83+4 t=31 <0>+0
	rel 95+4 t=31 go:info.[]*int<0>+0
aux for command-line-arguments.SliceMakeCopyNoOptNoVar<0> SDWARFLOC size=140
	0x0000 ff ff ff ff ff ff ff ff 00 00 00 00 00 00 00 00  ................
	0x0010 00 00 00 00 00 00 00 00 36 00 00 00 00 00 00 00  ........6.......
	0x0020 09 00 50 93 08 53 93 08 52 93 08 36 00 00 00 00  ..P..S..R..6....
	0x0030 00 00 00 3d 00 00 00 00 00 00 00 09 00 9c 93 08  ...=............
	0x0040 91 08 93 08 93 08 3d 00 00 00 00 00 00 00 40 00  ......=.......@.
	0x0050 00 00 00 00 00 00 09 00 9c 93 08 91 08 93 08 93  ................
	0x0060 08 40 00 00 00 00 00 00 00 bb 00 00 00 00 00 00  .@..............
	0x0070 00 09 00 9c 93 08 91 08 93 08 93 08 00 00 00 00  ................
	0x0080 00 00 00 00 00 00 00 00 00 00 00 00              ............
	rel 8+8 t=1 command-line-arguments.SliceMakeCopyNoOptNoVar<1>+0
aux for command-line-arguments.SliceMakeCopyNoOptNoVar<0> SDWARFLINES size=47
	0x0000 00 09 02 00 00 00 00 00 00 00 00 04 02 03 cc 01  ................
	0x0010 14 0a 73 06 03 02 a0 06 70 06 66 4e 06 08 d0 06  ..s.....p.fN....
	0x0020 2d 06 eb 42 06 41 06 03 7c d3 02 28 00 01 01     -..B.A..|..(...
	rel 3+8 t=1 command-line-arguments.SliceMakeCopyNoOptNoVar<1>+0
aux for command-line-arguments.SliceMakeCopyNoOptNoVar<0> SDWARFFCN size=99
	0x0000 03 63 6f 6d 6d 61 6e 64 2d 6c 69 6e 65 2d 61 72  .command-line-ar
	0x0010 67 75 6d 65 6e 74 73 2e 53 6c 69 63 65 4d 61 6b  guments.SliceMak
	0x0020 65 43 6f 70 79 4e 6f 4f 70 74 4e 6f 56 61 72 00  eCopyNoOptNoVar.
	0x0030 00 00 00 00 00 00 00 00 00 00 00 00 00 00 00 00  ................
	0x0040 01 9c 02 00 00 00 01 12 73 00 00 d2 01 00 00 00  ........s.......
	0x0050 00 00 00 00 00 11 7e 72 30 00 01 d2 01 00 00 00  ......~r0.......
	0x0060 00 00 00                                         ...
	rel 0+0 t=22 type:[1][]*int<0>+0
	rel 0+0 t=22 type:[]*int<0>+0
	rel 48+8 t=1 command-line-arguments.SliceMakeCopyNoOptNoVar<1>+0
	rel 56+8 t=1 command-line-arguments.SliceMakeCopyNoOptNoVar<1>+187
	rel 77+4 t=31 go:info.[]*int<0>+0
	rel 81+4 t=31 <0>+0
	rel 93+4 t=31 go:info.[]*int<0>+0
aux for command-line-arguments.SliceMakeCopyNoOptBlank<0> SDWARFLOC size=110
	0x0000 ff ff ff ff ff ff ff ff 00 00 00 00 00 00 00 00  ................
	0x0010 00 00 00 00 00 00 00 00 1b 00 00 00 00 00 00 00  ................
	0x0020 09 00 50 93 08 53 93 08 52 93 08 1b 00 00 00 00  ..P..S..R.......
	0x0030 00 00 00 28 00 00 00 00 00 00 00 08 00 50 93 08  ...(.........P..
	0x0040 53 93 08 93 08 28 00 00 00 00 00 00 00 2a 00 00  S....(.......*..
	0x0050 00 00 00 00 00 07 00 93 08 53 93 08 93 08 00 00  .........S......
	0x0060 00 00 00 00 00 00 00 00 00 00 00 00 00 00        ..............
	rel 8+8 t=1 command-line-arguments.SliceMakeCopyNoOptBlank<1>+0
aux for command-line-arguments.SliceMakeCopyNoOptBlank<0> SDWARFLINES size=40
	0x0000 00 09 02 00 00 00 00 00 00 00 00 04 02 03 d7 01  ................
	0x0010 14 0a 4b 06 9b 06 03 01 46 06 23 06 d8 06 23 06  ..K.....F.#...#.
	0x0020 03 7d ab 02 25 00 01 01                          .}..%...
	rel 3+8 t=1 command-line-arguments.SliceMakeCopyNoOptBlank<1>+0
aux for command-line-arguments.SliceMakeCopyNoOptBlank<0> SDWARFFCN size=109
	0x0000 03 63 6f 6d 6d 61 6e 64 2d 6c 69 6e 65 2d 61 72  .command-line-ar
	0x0010 67 75 6d 65 6e 74 73 2e 53 6c 69 63 65 4d 61 6b  guments.SliceMak
	0x0020 65 43 6f 70 79 4e 6f 4f 70 74 42 6c 61 6e 6b 00  eCopyNoOptBlank.
	0x0030 00 00 00 00 00 00 00 00 00 00 00 00 00 00 00 00  ................
	0x0040 01 9c 02 00 00 00 01 12 73 00 00 dd 01 00 00 00  ........s.......
	0x0050 00 00 00 00 00 11 7e 72 30 00 01 dd 01 00 00 00  ......~r0.......
	0x0060 00 00 0c 61 00 de 01 00 00 00 00 00 00           ...a.........
	rel 0+0 t=22 type:[]*int<0>+0
	rel 48+8 t=1 command-line-arguments.SliceMakeCopyNoOptBlank<1>+0
	rel 56+8 t=1 command-line-arguments.SliceMakeCopyNoOptBlank<1>+102
	rel 77+4 t=31 go:info.[]*int<0>+0
	rel 81+4 t=31 <0>+0
	rel 93+4 t=31 go:info.[]*int<0>+0
	rel 103+4 t=31 go:info.[]*int<0>+0
aux for command-line-arguments.SliceMakeCopyNoOptNoMake<0> SDWARFLOC size=110
	0x0000 ff ff ff ff ff ff ff ff 00 00 00 00 00 00 00 00  ................
	0x0010 00 00 00 00 00 00 00 00 1b 00 00 00 00 00 00 00  ................
	0x0020 09 00 50 93 08 53 93 08 52 93 08 1b 00 00 00 00  ..P..S..R.......
	0x0030 00 00 00 28 00 00 00 00 00 00 00 08 00 50 93 08  ...(.........P..
	0x0040 53 93 08 93 08 28 00 00 00 00 00 00 00 2a 00 00  S....(.......*..
	0x0050 00 00 00 00 00 07 00 93 08 53 93 08 93 08 00 00  .........S......
	0x0060 00 00 00 00 00 00 00 00 00 00 00 00 00 00        ..............
	rel 8+8 t=1 command-line-arguments.SliceMakeCopyNoOptNoMake<1>+0
aux for command-line-arguments.SliceMakeCopyNoOptNoMake<0> SDWARFLINES size=40
	0x0000 00 09 02 00 00 00 00 00 00 00 00 04 02 03 e1 01  ................
	0x0010 14 0a 4b 06 9b 06 03 01 46 06 23 06 d8 06 23 06  ..K.....F.#...#.
	0x0020 03 7d ab 02 25 00 01 01                          .}..%...
	rel 3+8 t=1 command-line-arguments.SliceMakeCopyNoOptNoMake<1>+0
aux for command-line-arguments.SliceMakeCopyNoOptNoMake<0> SDWARFFCN size=100
	0x0000 03 63 6f 6d 6d 61 6e 64 2d 6c 69 6e 65 2d 61 72  .command-line-ar
	0x0010 67 75 6d 65 6e 74 73 2e 53 6c 69 63 65 4d 61 6b  guments.SliceMak
	0x0020 65 43 6f 70 79 4e 6f 4f 70 74 4e 6f 4d 61 6b 65  eCopyNoOptNoMake
	0x0030 00 00 00 00 00 00 00 00 00 00 00 00 00 00 00 00  ................
	0x0040 00 01 9c 02 00 00 00 01 12 73 00 00 e7 01 00 00  .........s......
	0x0050 00 00 00 00 00 00 11 7e 72 30 00 01 e7 01 00 00  .......~r0......
	0x0060 00 00 00 00                                      ....
	rel 0+0 t=22 type:[]*int<0>+0
	rel 49+8 t=1 command-line-arguments.SliceMakeCopyNoOptNoMake<1>+0
	rel 57+8 t=1 command-line-arguments.SliceMakeCopyNoOptNoMake<1>+102
	rel 78+4 t=31 go:info.[]*int<0>+0
	rel 82+4 t=31 <0>+0
	rel 94+4 t=31 go:info.[]*int<0>+0
aux for command-line-arguments.SliceMakeCopyNoOptNoHeapAlloc<0> SDWARFLOC size=110
	0x0000 ff ff ff ff ff ff ff ff 00 00 00 00 00 00 00 00  ................
	0x0010 00 00 00 00 00 00 00 00 2a 00 00 00 00 00 00 00  ........*.......
	0x0020 09 00 50 93 08 53 93 08 52 93 08 2a 00 00 00 00  ..P..S..R..*....
	0x0030 00 00 00 37 00 00 00 00 00 00 00 08 00 50 93 08  ...7.........P..
	0x0040 53 93 08 93 08 37 00 00 00 00 00 00 00 3c 00 00  S....7.......<..
	0x0050 00 00 00 00 00 07 00 93 08 53 93 08 93 08 00 00  .........S......
	0x0060 00 00 00 00 00 00 00 00 00 00 00 00 00 00        ..............
	rel 8+8 t=1 command-line-arguments.SliceMakeCopyNoOptNoHeapAlloc<1>+0
aux for command-line-arguments.SliceMakeCopyNoOptNoHeapAlloc<0> SDWARFLINES size=43
	0x0000 00 09 02 00 00 00 00 00 00 00 00 04 02 03 eb 01  ................
	0x0010 14 0a 4b 06 9b 06 43 06 4b 06 4e 06 41 06 eb 42  ..K...C.K.N.A..B
	0x0020 06 41 06 03 7e 6f 02 25 00 01 01                 .A..~o.%...
	rel 3+8 t=1 command-line-arguments.SliceMakeCopyNoOptNoHeapAlloc<1>+0
aux for command-line-arguments.SliceMakeCopyNoOptNoHeapAlloc<0> SDWARFFCN size=115
	0x0000 03 63 6f 6d 6d 61 6e 64 2d 6c 69 6e 65 2d 61 72  .command-line-ar
	0x0010 67 75 6d 65 6e 74 73 2e 53 6c 69 63 65 4d 61 6b  guments.SliceMak
	0x0020 65 43 6f 70 79 4e 6f 4f 70 74 4e 6f 48 65 61 70  eCopyNoOptNoHeap
	0x0030 41 6c 6c 6f 63 00 00 00 00 00 00 00 00 00 00 00  Alloc...........
	0x0040 00 00 00 00 00 00 01 9c 02 00 00 00 01 12 73 00  ..............s.
	0x0050 00 f1 01 00 00 00 00 00 00 00 00 11 7e 72 30 00  ............~r0.
	0x0060 01 f1 01 00 00 00 00 00 0c 61 00 f3 01 00 00 00  .........a......
	0x0070 00 00 00                                         ...
	rel 0+0 t=22 type:[4]*int<0>+0
	rel 0+0 t=22 type:int<0>+0
	rel 54+8 t=1 command-line-arguments.SliceMakeCopyNoOptNoHeapAlloc<1>+0
	rel 62+8 t=1 command-line-arguments.SliceMakeCopyNoOptNoHeapAlloc<1>+121
	rel 83+4 t=31 go:info.[]*int<0>+0
	rel 87+4 t=31 <0>+0
	rel 99+4 t=31 go:info.int<0>+0
	rel 109+4 t=31 go:info.[]*int<0>+0
aux for command-line-arguments.SliceMakeCopyNoOptNoCap<0> SDWARFLOC size=223
	0x0000 ff ff ff ff ff ff ff ff 00 00 00 00 00 00 00 00  ................
	0x0010 00 00 00 00 00 00 00 00 23 00 00 00 00 00 00 00  ........#.......
	0x0020 09 00 50 93 08 53 93 08 52 93 08 23 00 00 00 00  ..P..S..R..#....
	0x0030 00 00 00 2a 00 00 00 00 00 00 00 09 00 9c 93 08  ...*............
	0x0040 91 08 93 08 93 08 2a 00 00 00 00 00 00 00 2c 00  ......*.......,.
	0x0050 00 00 00 00 00 00 09 00 9c 93 08 91 08 93 08 93  ................
	0x0060 08 2c 00 00 00 00 00 00 00 8f 00 00 00 00 00 00  .,..............
	0x0070 00 09 00 9c 93 08 91 08 93 08 93 08 00 00 00 00  ................
	0x0080 00 00 00 00 00 00 00 00 00 00 00 00 ff ff ff ff  ................
	0x0090 ff ff ff ff 00 00 00 00 00 00 00 00 31 00 00 00  ............1...
	0x00a0 00 00 00 00 4c 00 00 00 00 00 00 00 07 00 50 93  ....L.........P.
	0x00b0 08 93 08 93 08 4c 00 00 00 00 00 00 00 8f 00 00  .....L..........
	0x00c0 00 00 00 00 00 08 00 91 68 93 08 93 08 93 08 00  ........h.......
	0x00d0 00 00 00 00 00 00 00 00 00 00 00 00 00 00 00     ...............
	rel 8+8 t=1 command-line-arguments.SliceMakeCopyNoOptNoCap<1>+0
	rel 148+8 t=1 command-line-arguments.SliceMakeCopyNoOptNoCap<1>+0
aux for command-line-arguments.SliceMakeCopyNoOptNoCap<0> SDWARFLINES size=45
	0x0000 00 09 02 00 00 00 00 00 00 00 00 04 02 03 f4 01  ................
	0x0010 14 0a 4b 06 03 01 a0 06 70 06 41 06 d0 06 2d 06  ..K.....p.A...-.
	0x0020 cd 42 06 41 06 03 7d b5 02 28 00 01 01           .B.A..}..(...
	rel 3+8 t=1 command-line-arguments.SliceMakeCopyNoOptNoCap<1>+0
aux for command-line-arguments.SliceMakeCopyNoOptNoCap<0> SDWARFFCN size=112
	0x0000 03 63 6f 6d 6d 61 6e 64 2d 6c 69 6e 65 2d 61 72  .command-line-ar
	0x0010 67 75 6d 65 6e 74 73 2e 53 6c 69 63 65 4d 61 6b  guments.SliceMak
	0x0020 65 43 6f 70 79 4e 6f 4f 70 74 4e 6f 43 61 70 00  eCopyNoOptNoCap.
	0x0030 00 00 00 00 00 00 00 00 00 00 00 00 00 00 00 00  ................
	0x0040 01 9c 02 00 00 00 01 12 73 00 00 fa 01 00 00 00  ........s.......
	0x0050 00 00 00 00 00 11 7e 72 30 00 01 fa 01 00 00 00  ......~r0.......
	0x0060 00 00 0d 61 00 fd 01 00 00 00 00 00 00 00 00 00  ...a............
	rel 0+0 t=22 type:[]*int<0>+0
	rel 0+0 t=22 type:unsafe.Pointer<0>+0
	rel 48+8 t=1 command-line-arguments.SliceMakeCopyNoOptNoCap<1>+0
	rel 56+8 t=1 command-line-arguments.SliceMakeCopyNoOptNoCap<1>+143
	rel 77+4 t=31 go:info.[]*int<0>+0
	rel 81+4 t=31 <0>+0
	rel 93+4 t=31 go:info.[]*int<0>+0
	rel 103+4 t=31 go:info.[]*int<0>+0
	rel 107+4 t=31 <0>+140
aux for command-line-arguments.SliceMakeCopyNoOptNoCopy<0> SDWARFLOC size=167
	0x0000 ff ff ff ff ff ff ff ff 00 00 00 00 00 00 00 00  ................
	0x0010 00 00 00 00 00 00 00 00 1b 00 00 00 00 00 00 00  ................
	0x0020 09 00 50 93 08 53 93 08 52 93 08 1b 00 00 00 00  ..P..S..R.......
	0x0030 00 00 00 20 00 00 00 00 00 00 00 08 00 93 08 53  ... ...........S
	0x0040 93 08 52 93 08 20 00 00 00 00 00 00 00 23 00 00  ..R.. .......#..
	0x0050 00 00 00 00 00 07 00 93 08 93 08 52 93 08 00 00  ...........R....
	0x0060 00 00 00 00 00 00 00 00 00 00 00 00 00 00 ff ff  ................
	0x0070 ff ff ff ff ff ff 00 00 00 00 00 00 00 00 28 00  ..............(.
	0x0080 00 00 00 00 00 00 42 00 00 00 00 00 00 00 07 00  ......B.........
	0x0090 50 93 08 93 08 93 08 00 00 00 00 00 00 00 00 00  P...............
	0x00a0 00 00 00 00 00 00 00                             .......
	rel 8+8 t=1 command-line-arguments.SliceMakeCopyNoOptNoCopy<1>+0
	rel 118+8 t=1 command-line-arguments.SliceMakeCopyNoOptNoCopy<1>+0
aux for command-line-arguments.SliceMakeCopyNoOptNoCopy<0> SDWARFLINES size=39
	0x0000 00 09 02 00 00 00 00 00 00 00 00 04 02 03 fe 01  ................
	0x0010 14 0a 4b 9f 06 55 06 94 06 41 06 03 7d 8d 06 41  ..K..U...A..}..A
	0x0020 06 19 02 02 00 01 01                             .......
	rel 3+8 t=1 command-line-arguments.SliceMakeCopyNoOptNoCopy<1>+0
aux for command-line-arguments.SliceMakeCopyNoOptNoCopy<0> SDWARFFCN size=113
	0x0000 03 63 6f 6d 6d 61 6e 64 2d 6c 69 6e 65 2d 61 72  .command-line-ar
	0x0010 67 75 6d 65 6e 74 73 2e 53 6c 69 63 65 4d 61 6b  guments.SliceMak
	0x0020 65 43 6f 70 79 4e 6f 4f 70 74 4e 6f 43 6f 70 79  eCopyNoOptNoCopy
	0x0030 00 00 00 00 00 00 00 00 00 00 00 00 00 00 00 00  ................
	0x0040 00 01 9c 02 00 00 00 01 12 73 00 00 84 02 00 00  .........s......
	0x0050 00 00 00 00 00 00 11 7e 72 30 00 01 84 02 00 00  .......~r0......
	0x0060 00 00 00 0d 61 00 88 02 00 00 00 00 00 00 00 00  ....a...........
	0x0070 00                                               .
	rel 0+0 t=22 type:[]*int<0>+0
	rel 49+8 t=1 command-line-arguments.SliceMakeCopyNoOptNoCopy<1>+0
	rel 57+8 t=1 command-line-arguments.SliceMakeCopyNoOptNoCopy<1>+66
	rel 78+4 t=31 go:info.[]*int<0>+0
	rel 82+4 t=31 <0>+0
	rel 94+4 t=31 go:info.[]*int<0>+0
	rel 104+4 t=31 go:info.[]*int<0>+0
	rel 108+4 t=31 <0>+110
aux for command-line-arguments.SliceMakeCopyNoOptWrongOrder<0> SDWARFLOC size=223
	0x0000 ff ff ff ff ff ff ff ff 00 00 00 00 00 00 00 00  ................
	0x0010 00 00 00 00 00 00 00 00 23 00 00 00 00 00 00 00  ........#.......
	0x0020 09 00 50 93 08 53 93 08 52 93 08 23 00 00 00 00  ..P..S..R..#....
	0x0030 00 00 00 2a 00 00 00 00 00 00 00 09 00 9c 93 08  ...*............
	0x0040 91 08 93 08 93 08 2a 00 00 00 00 00 00 00 2d 00  ......*.......-.
	0x0050 00 00 00 00 00 00 09 00 9c 93 08 91 08 93 08 93  ................
	0x0060 08 2d 00 00 00 00 00 00 00 99 00 00 00 00 00 00  .-..............
	0x0070 00 09 00 9c 93 08 91 08 93 08 93 08 00 00 00 00  ................
	0x0080 00 00 00 00 00 00 00 00 00 00 00 00 ff ff ff ff  ................
	0x0090 ff ff ff ff 00 00 00 00 00 00 00 00 32 00 00 00  ............2...
	0x00a0 00 00 00 00 50 00 00 00 00 00 00 00 07 00 50 93  ....P.........P.
	0x00b0 08 93 08 93 08 50 00 00 00 00 00 00 00 99 00 00  .....P..........
	0x00c0 00 00 00 00 00 08 00 91 68 93 08 93 08 93 08 00  ........h.......
	0x00d0 00 00 00 00 00 00 00 00 00 00 00 00 00 00 00     ...............
	rel 8+8 t=1 command-line-arguments.SliceMakeCopyNoOptWrongOrder<1>+0
	rel 148+8 t=1 command-line-arguments.SliceMakeCopyNoOptWrongOrder<1>+0
aux for command-line-arguments.SliceMakeCopyNoOptWrongOrder<0> SDWARFLINES size=49
	0x0000 00 09 02 00 00 00 00 00 00 00 00 04 02 03 88 02  ................
	0x0010 14 0a 4b 06 03 01 a0 06 70 06 41 06 da 06 41 06  ..K.....p.A...A.
	0x0020 d7 42 06 41 06 03 7d bf 06 a5 06 41 02 19 00 01  .B.A..}....A....
	0x0030 01                                               .
	rel 3+8 t=1 command-line-arguments.SliceMakeCopyNoOptWrongOrder<1>+0
aux for command-line-arguments.SliceMakeCopyNoOptWrongOrder<0> SDWARFFCN size=117
	0x0000 03 63 6f 6d 6d 61 6e 64 2d 6c 69 6e 65 2d 61 72  .command-line-ar
	0x0010 67 75 6d 65 6e 74 73 2e 53 6c 69 63 65 4d 61 6b  guments.SliceMak
	0x0020 65 43 6f 70 79 4e 6f 4f 70 74 57 72 6f 6e 67 4f  eCopyNoOptWrongO
	0x0030 72 64 65 72 00 00 00 00 00 00 00 00 00 00 00 00  rder............
	0x0040 00 00 00 00 00 01 9c 02 00 00 00 01 12 73 00 00  .............s..
	0x0050 8e 02 00 00 00 00 00 00 00 00 11 7e 72 30 00 01  ...........~r0..
	0x0060 8e 02 00 00 00 00 00 0d 61 00 91 02 00 00 00 00  ........a.......
	0x0070 00 00 00 00 00                                   .....
	rel 0+0 t=22 type:[]*int<0>+0
	rel 0+0 t=22 type:unsafe.Pointer<0>+0
	rel 53+8 t=1 command-line-arguments.SliceMakeCopyNoOptWrongOrder<1>+0
	rel 61+8 t=1 command-line-arguments.SliceMakeCopyNoOptWrongOrder<1>+153
	rel 82+4 t=31 go:info.[]*int<0>+0
	rel 86+4 t=31 <0>+0
	rel 98+4 t=31 go:info.[]*int<0>+0
	rel 108+4 t=31 go:info.[]*int<0>+0
	rel 112+4 t=31 <0>+140
aux for command-line-arguments.SliceMakeCopyNoOptWrongAssign<0> SDWARFLOC size=83
	0x0000 ff ff ff ff ff ff ff ff 00 00 00 00 00 00 00 00  ................
	0x0010 28 00 00 00 00 00 00 00 40 00 00 00 00 00 00 00  (.......@.......
	0x0020 07 00 50 93 08 93 08 93 08 40 00 00 00 00 00 00  ..P......@......
	0x0030 00 67 00 00 00 00 00 00 00 08 00 91 68 93 08 93  .g..........h...
	0x0040 08 93 08 00 00 00 00 00 00 00 00 00 00 00 00 00  ................
	0x0050 00 00 00                                         ...
	rel 8+8 t=1 command-line-arguments.SliceMakeCopyNoOptWrongAssign<1>+0
aux for command-line-arguments.SliceMakeCopyNoOptWrongAssign<0> SDWARFLINES size=41
	0x0000 00 09 02 00 00 00 00 00 00 00 00 04 02 03 92 02  ................
	0x0010 14 0a 4b 9f 06 55 06 c6 06 23 06 b9 42 06 41 03  ..K..U...#..B.A.
	0x0020 7c bf 06 37 02 07 00 01 01                       |..7.....
	rel 3+8 t=1 command-line-arguments.SliceMakeCopyNoOptWrongAssign<1>+0
aux for command-line-arguments.SliceMakeCopyNoOptWrongAssign<0> SDWARFFCN size=115
	0x0000 03 63 6f 6d 6d 61 6e 64 2d 6c 69 6e 65 2d 61 72  .command-line-ar
	0x0010 67 75 6d 65 6e 74 73 2e 53 6c 69 63 65 4d 61 6b  guments.SliceMak
	0x0020 65 43 6f 70 79 4e 6f 4f 70 74 57 72 6f 6e 67 41  eCopyNoOptWrongA
	0x0030 73 73 69 67 6e 00 00 00 00 00 00 00 00 00 00 00  ssign...........
	0x0040 00 00 00 00 00 00 01 9c 02 00 00 00 01 12 73 00  ..............s.
	0x0050 00 98 02 00 00 00 00 00 00 00 00 11 7e 72 30 00  ............~r0.
	0x0060 01 98 02 00 00 00 00 00 0c 61 00 99 02 00 00 00  .........a......
	0x0070 00 00 00                                         ...
	rel 0+0 t=22 type:[]*int<0>+0
	rel 0+0 t=22 type:unsafe.Pointer<0>+0
	rel 54+8 t=1 command-line-arguments.SliceMakeCopyNoOptWrongAssign<1>+0
	rel 62+8 t=1 command-line-arguments.SliceMakeCopyNoOptWrongAssign<1>+103
	rel 83+4 t=31 go:info.[]*int<0>+0
	rel 87+4 t=31 <0>+0
	rel 99+4 t=31 go:info.[]*int<0>+0
	rel 109+4 t=31 go:info.[]*int<0>+0
aux for command-line-arguments.SliceMakeCopyNoOptCopyLength<0> SDWARFLOC size=274
	0x0000 ff ff ff ff ff ff ff ff 00 00 00 00 00 00 00 00  ................
	0x0010 00 00 00 00 00 00 00 00 23 00 00 00 00 00 00 00  ........#.......
	0x0020 09 00 50 93 08 53 93 08 52 93 08 23 00 00 00 00  ..P..S..R..#....
	0x0030 00 00 00 2a 00 00 00 00 00 00 00 09 00 9c 93 08  ...*............
	0x0040 91 08 93 08 93 08 2a 00 00 00 00 00 00 00 2d 00  ......*.......-.
	0x0050 00 00 00 00 00 00 09 00 9c 93 08 91 08 93 08 93  ................
	0x0060 08 2d 00 00 00 00 00 00 00 99 00 00 00 00 00 00  .-..............
	0x0070 00 09 00 9c 93 08 91 08 93 08 93 08 00 00 00 00  ................
	0x0080 00 00 00 00 00 00 00 00 00 00 00 00 ff ff ff ff  ................
	0x0090 ff ff ff ff 00 00 00 00 00 00 00 00 55 00 00 00  ............U...
	0x00a0 00 00 00 00 99 00 00 00 00 00 00 00 01 00 50 00  ..............P.
	0x00b0 00 00 00 00 00 00 00 00 00 00 00 00 00 00 00 ff  ................
	0x00c0 ff ff ff ff ff ff ff 00 00 00 00 00 00 00 00 32  ...............2
	0x00d0 00 00 00 00 00 00 00 50 00 00 00 00 00 00 00 07  .......P........
	0x00e0 00 50 93 08 93 08 93 08 50 00 00 00 00 00 00 00  .P......P.......
	0x00f0 99 00 00 00 00 00 00 00 08 00 91 68 93 08 93 08  ...........h....
	0x0100 93 08 00 00 00 00 00 00 00 00 00 00 00 00 00 00  ................
	0x0110 00 00                                            ..
	rel 8+8 t=1 command-line-arguments.SliceMakeCopyNoOptCopyLength<1>+0
	rel 148+8 t=1 command-line-arguments.SliceMakeCopyNoOptCopyLength<1>+0
	rel 199+8 t=1 command-line-arguments.SliceMakeCopyNoOptCopyLength<1>+0
aux for command-line-arguments.SliceMakeCopyNoOptCopyLength<0> SDWARFLINES size=49
	0x0000 00 09 02 00 00 00 00 00 00 00 00 04 02 03 9d 02  ................
	0x0010 14 0a 4b 06 03 01 a0 06 70 06 41 06 da 06 2d 06  ..K.....p.A...-.
	0x0020 eb 42 06 41 06 03 7d bf 06 a5 06 41 02 19 00 01  .B.A..}....A....
	0x0030 01                                               .
	rel 3+8 t=1 command-line-arguments.SliceMakeCopyNoOptCopyLength<1>+0
aux for command-line-arguments.SliceMakeCopyNoOptCopyLength<0> SDWARFFCN size=143
	0x0000 03 63 6f 6d 6d 61 6e 64 2d 6c 69 6e 65 2d 61 72  .command-line-ar
	0x0010 67 75 6d 65 6e 74 73 2e 53 6c 69 63 65 4d 61 6b  guments.SliceMak
	0x0020 65 43 6f 70 79 4e 6f 4f 70 74 43 6f 70 79 4c 65  eCopyNoOptCopyLe
	0x0030 6e 67 74 68 00 00 00 00 00 00 00 00 00 00 00 00  ngth............
	0x0040 00 00 00 00 00 01 9c 02 00 00 00 01 12 73 00 00  .............s..
	0x0050 a3 02 00 00 00 00 00 00 00 00 11 7e 72 30 00 01  ...........~r0..
	0x0060 a3 02 00 00 00 00 00 11 7e 72 31 00 01 a3 02 00  ........~r1.....
	0x0070 00 00 00 00 0d 6e 00 a9 02 00 00 00 00 00 00 00  .....n..........
	0x0080 00 0d 61 00 a6 02 00 00 00 00 00 00 00 00 00     ..a............
	rel 0+0 t=22 type:[]*int<0>+0
	rel 0+0 t=22 type:int<0>+0
	rel 0+0 t=22 type:unsafe.Pointer<0>+0
	rel 53+8 t=1 command-line-arguments.SliceMakeCopyNoOptCopyLength<1>+0
	rel 61+8 t=1 command-line-arguments.SliceMakeCopyNoOptCopyLength<1>+153
	rel 82+4 t=31 go:info.[]*int<0>+0
	rel 86+4 t=31 <0>+0
	rel 98+4 t=31 go:info.int<0>+0
	rel 111+4 t=31 go:info.[]*int<0>+0
	rel 121+4 t=31 go:info.int<0>+0
	rel 125+4 t=31 <0>+140
	rel 134+4 t=31 go:info.[]*int<0>+0
	rel 138+4 t=31 <0>+191
aux for command-line-arguments.SliceMakeCopyNoOptSelfCopy<0> SDWARFLOC size=193
	0x0000 ff ff ff ff ff ff ff ff 00 00 00 00 00 00 00 00  ................
	0x0010 00 00 00 00 00 00 00 00 1b 00 00 00 00 00 00 00  ................
	0x0020 09 00 50 93 08 53 93 08 52 93 08 1b 00 00 00 00  ..P..S..R.......
	0x0030 00 00 00 20 00 00 00 00 00 00 00 08 00 93 08 53  ... ...........S
	0x0040 93 08 52 93 08 20 00 00 00 00 00 00 00 23 00 00  ..R.. .......#..
	0x0050 00 00 00 00 00 07 00 93 08 93 08 52 93 08 00 00  ...........R....
	0x0060 00 00 00 00 00 00 00 00 00 00 00 00 00 00 ff ff  ................
	0x0070 ff ff ff ff ff ff 00 00 00 00 00 00 00 00 28 00  ..............(.
	0x0080 00 00 00 00 00 00 42 00 00 00 00 00 00 00 07 00  ......B.........
	0x0090 50 93 08 93 08 93 08 42 00 00 00 00 00 00 00 67  P......B.......g
	0x00a0 00 00 00 00 00 00 00 08 00 91 68 93 08 93 08 93  ..........h.....
	0x00b0 08 00 00 00 00 00 00 00 00 00 00 00 00 00 00 00  ................
	0x00c0 00                                               .
	rel 8+8 t=1 command-line-arguments.SliceMakeCopyNoOptSelfCopy<1>+0
	rel 118+8 t=1 command-line-arguments.SliceMakeCopyNoOptSelfCopy<1>+0
aux for command-line-arguments.SliceMakeCopyNoOptSelfCopy<0> SDWARFLINES size=41
	0x0000 00 09 02 00 00 00 00 00 00 00 00 04 02 03 a7 02  ................
	0x0010 14 0a 4b 9e 06 55 06 c6 06 2d 06 c3 42 06 41 03  ..K..U...-..B.A.
	0x0020 7d bf 06 23 02 07 00 01 01                       }..#.....
	rel 3+8 t=1 command-line-arguments.SliceMakeCopyNoOptSelfCopy<1>+0
aux for command-line-arguments.SliceMakeCopyNoOptSelfCopy<0> SDWARFFCN size=115
	0x0000 03 63 6f 6d 6d 61 6e 64 2d 6c 69 6e 65 2d 61 72  .command-line-ar
	0x0010 67 75 6d 65 6e 74 73 2e 53 6c 69 63 65 4d 61 6b  guments.SliceMak
	0x0020 65 43 6f 70 79 4e 6f 4f 70 74 53 65 6c 66 43 6f  eCopyNoOptSelfCo
	0x0030 70 79 00 00 00 00 00 00 00 00 00 00 00 00 00 00  py..............
	0x0040 00 00 00 01 9c 02 00 00 00 01 12 73 00 00 ad 02  ...........s....
	0x0050 00 00 00 00 00 00 00 00 11 7e 72 30 00 01 ad 02  .........~r0....
	0x0060 00 00 00 00 00 0d 61 00 b0 02 00 00 00 00 00 00  ......a.........
	0x0070 00 00 00                                         ...
	rel 0+0 t=22 type:[]*int<0>+0
	rel 0+0 t=22 type:unsafe.Pointer<0>+0
	rel 51+8 t=1 command-line-arguments.SliceMakeCopyNoOptSelfCopy<1>+0
	rel 59+8 t=1 command-line-arguments.SliceMakeCopyNoOptSelfCopy<1>+103
	rel 80+4 t=31 go:info.[]*int<0>+0
	rel 84+4 t=31 <0>+0
	rel 96+4 t=31 go:info.[]*int<0>+0
	rel 106+4 t=31 go:info.[]*int<0>+0
	rel 110+4 t=31 <0>+110
aux for command-line-arguments.SliceMakeCopyNoOptTargetReference<0> SDWARFLOC size=248
	0x0000 ff ff ff ff ff ff ff ff 00 00 00 00 00 00 00 00  ................
	0x0010 00 00 00 00 00 00 00 00 23 00 00 00 00 00 00 00  ........#.......
	0x0020 09 00 50 93 08 53 93 08 52 93 08 23 00 00 00 00  ..P..S..R..#....
	0x0030 00 00 00 2a 00 00 00 00 00 00 00 09 00 9c 93 08  ...*............
	0x0040 93 08 91 10 93 08 2a 00 00 00 00 00 00 00 2d 00  ......*.......-.
	0x0050 00 00 00 00 00 00 09 00 9c 93 08 93 08 91 10 93  ................
	0x0060 08 2d 00 00 00 00 00 00 00 a8 00 00 00 00 00 00  .-..............
	0x0070 00 09 00 9c 93 08 93 08 91 10 93 08 00 00 00 00  ................
	0x0080 00 00 00 00 00 00 00 00 00 00 00 00 ff ff ff ff  ................
	0x0090 ff ff ff ff 00 00 00 00 00 00 00 00 32 00 00 00  ............2...
	0x00a0 00 00 00 00 59 00 00 00 00 00 00 00 07 00 50 93  ....Y.........P.
	0x00b0 08 93 08 93 08 59 00 00 00 00 00 00 00 75 00 00  .....Y.......u..
	0x00c0 00 00 00 00 00 08 00 91 68 93 08 93 08 93 08 75  ........h......u
	0x00d0 00 00 00 00 00 00 00 a8 00 00 00 00 00 00 00 07  ................
	0x00e0 00 50 93 08 93 08 93 08 00 00 00 00 00 00 00 00  .P..............
	0x00f0 00 00 00 00 00 00 00 00                          ........
	rel 8+8 t=1 command-line-arguments.SliceMakeCopyNoOptTargetReference<1>+0
	rel 148+8 t=1 command-line-arguments.SliceMakeCopyNoOptTargetReference<1>+0
aux for command-line-arguments.SliceMakeCopyNoOptTargetReference<0> SDWARFLINES size=49
	0x0000 00 09 02 00 00 00 00 00 00 00 00 04 02 03 b1 02  ................
	0x0010 14 0a 4b 06 03 01 a0 06 70 06 41 a8 7a 06 44 06  ..K.....p.A.z.D.
	0x0020 2d 06 d7 42 06 41 c2 06 73 03 7e 15 02 28 00 01  -..B.A..s.~..(..
	0x0030 01                                               .
	rel 3+8 t=1 command-line-arguments.SliceMakeCopyNoOptTargetReference<1>+0
aux for command-line-arguments.SliceMakeCopyNoOptTargetReference<0> SDWARFFCN size=122
	0x0000 03 63 6f 6d 6d 61 6e 64 2d 6c 69 6e 65 2d 61 72  .command-line-ar
	0x0010 67 75 6d 65 6e 74 73 2e 53 6c 69 63 65 4d 61 6b  guments.SliceMak
	0x0020 65 43 6f 70 79 4e 6f 4f 70 74 54 61 72 67 65 74  eCopyNoOptTarget
	0x0030 52 65 66 65 72 65 6e 63 65 00 00 00 00 00 00 00  Reference.......
	0x0040 00 00 00 00 00 00 00 00 00 00 01 9c 02 00 00 00  ................
	0x0050 01 12 73 00 00 b7 02 00 00 00 00 00 00 00 00 11  ..s.............
	0x0060 7e 72 30 00 01 b7 02 00 00 00 00 00 0d 61 00 ba  ~r0..........a..
	0x0070 02 00 00 00 00 00 00 00 00 00                    ..........
	rel 0+0 t=22 type:[]*int<0>+0
	rel 0+0 t=22 type:unsafe.Pointer<0>+0
	rel 58+8 t=1 command-line-arguments.SliceMakeCopyNoOptTargetReference<1>+0
	rel 66+8 t=1 command-line-arguments.SliceMakeCopyNoOptTargetReference<1>+168
	rel 87+4 t=31 go:info.[]*int<0>+0
	rel 91+4 t=31 <0>+0
	rel 103+4 t=31 go:info.[]*int<0>+0
	rel 113+4 t=31 go:info.[]*int<0>+0
	rel 117+4 t=31 <0>+140
aux for command-line-arguments.SliceMakeCopyNoOptCap<0> SDWARFLOC size=305
	0x0000 ff ff ff ff ff ff ff ff 00 00 00 00 00 00 00 00  ................
	0x0010 00 00 00 00 00 00 00 00 23 00 00 00 00 00 00 00  ........#.......
	0x0020 09 00 50 93 08 53 93 08 52 93 08 23 00 00 00 00  ..P..S..R..#....
	0x0030 00 00 00 2a 00 00 00 00 00 00 00 09 00 9c 93 08  ...*............
	0x0040 91 08 93 08 93 08 2a 00 00 00 00 00 00 00 2f 00  ......*......./.
	0x0050 00 00 00 00 00 00 09 00 9c 93 08 91 08 93 08 93  ................
	0x0060 08 2f 00 00 00 00 00 00 00 8d 00 00 00 00 00 00  ./..............
	0x0070 00 09 00 9c 93 08 91 08 93 08 93 08 00 00 00 00  ................
	0x0080 00 00 00 00 00 00 00 00 00 00 00 00 ff ff ff ff  ................
	0x0090 ff ff ff ff 00 00 00 00 00 00 00 00 00 00 00 00  ................
	0x00a0 00 00 00 00 2f 00 00 00 00 00 00 00 07 00 93 08  ..../...........
	0x00b0 53 93 08 93 08 2f 00 00 00 00 00 00 00 2f 00 00  S..../......./..
	0x00c0 00 00 00 00 00 08 00 93 08 91 08 93 08 93 08 2f  .............../
	0x00d0 00 00 00 00 00 00 00 4c 00 00 00 00 00 00 00 09  .......L........
	0x00e0 00 50 93 08 91 08 93 08 93 08 4c 00 00 00 00 00  .P........L.....
	0x00f0 00 00 51 00 00 00 00 00 00 00 0a 00 91 68 93 08  ..Q..........h..
	0x0100 91 08 93 08 93 08 51 00 00 00 00 00 00 00 8d 00  ......Q.........
	0x0110 00 00 00 00 00 00 09 00 50 93 08 91 08 93 08 93  ........P.......
	0x0120 08 00 00 00 00 00 00 00 00 00 00 00 00 00 00 00  ................
	0x0130 00                                               .
	rel 8+8 t=1 command-line-arguments.SliceMakeCopyNoOptCap<1>+0
	rel 148+8 t=1 command-line-arguments.SliceMakeCopyNoOptCap<1>+0
aux for command-line-arguments.SliceMakeCopyNoOptCap<0> SDWARFLINES size=46
	0x0000 00 09 02 00 00 00 00 00 00 00 00 04 02 03 bb 02  ................
	0x0010 14 0a 4b 06 9e 3e 06 44 06 41 06 8a 06 41 3e 44  ..K..>.D.A...A>D
	0x0020 9c 06 41 06 41 06 03 7d a1 02 28 00 01 01        ..A.A..}..(...
	rel 3+8 t=1 command-line-arguments.SliceMakeCopyNoOptCap<1>+0
aux for command-line-arguments.SliceMakeCopyNoOptCap<0> SDWARFFCN size=110
	0x0000 03 63 6f 6d 6d 61 6e 64 2d 6c 69 6e 65 2d 61 72  .command-line-ar
	0x0010 67 75 6d 65 6e 74 73 2e 53 6c 69 63 65 4d 61 6b  guments.SliceMak
	0x0020 65 43 6f 70 79 4e 6f 4f 70 74 43 61 70 00 00 00  eCopyNoOptCap...
	0x0030 00 00 00 00 00 00 00 00 00 00 00 00 00 00 01 9c  ................
	0x0040 02 00 00 00 01 12 73 00 00 c1 02 00 00 00 00 00  ......s.........
	0x0050 00 00 00 11 7e 72 30 00 01 c1 02 00 00 00 00 00  ....~r0.........
	0x0060 0d 61 00 c4 02 00 00 00 00 00 00 00 00 00        .a............
	rel 0+0 t=22 type:[]int<0>+0
	rel 0+0 t=22 type:unsafe.Pointer<0>+0
	rel 46+8 t=1 command-line-arguments.SliceMakeCopyNoOptCap<1>+0
	rel 54+8 t=1 command-line-arguments.SliceMakeCopyNoOptCap<1>+141
	rel 75+4 t=31 go:info.[]int<0>+0
	rel 79+4 t=31 <0>+0
	rel 91+4 t=31 go:info.[]int<0>+0
	rel 101+4 t=31 go:info.[]int<0>+0
	rel 105+4 t=31 <0>+140
aux for command-line-arguments.SliceMakeCopyNoMemmoveDifferentLen<0> SDWARFLOC size=225
	0x0000 ff ff ff ff ff ff ff ff 00 00 00 00 00 00 00 00  ................
	0x0010 00 00 00 00 00 00 00 00 25 00 00 00 00 00 00 00  ........%.......
	0x0020 09 00 50 93 08 53 93 08 52 93 08 25 00 00 00 00  ..P..S..R..%....
	0x0030 00 00 00 2f 00 00 00 00 00 00 00 08 00 50 93 08  .../.........P..
	0x0040 53 93 08 93 08 2f 00 00 00 00 00 00 00 32 00 00  S..../.......2..
	0x0050 00 00 00 00 00 07 00 93 08 53 93 08 93 08 00 00  .........S......
	0x0060 00 00 00 00 00 00 00 00 00 00 00 00 00 00 ff ff  ................
	0x0070 ff ff ff ff ff ff 00 00 00 00 00 00 00 00 1d 00  ................
	0x0080 00 00 00 00 00 00 37 00 00 00 00 00 00 00 08 00  ......7.........
	0x0090 93 08 51 93 08 51 93 08 37 00 00 00 00 00 00 00  ..Q..Q..7.......
	0x00a0 37 00 00 00 00 00 00 00 0a 00 93 08 91 68 93 08  7............h..
	0x00b0 91 68 93 08 37 00 00 00 00 00 00 00 6e 00 00 00  .h..7.......n...
	0x00c0 00 00 00 00 0b 00 50 93 08 91 68 93 08 91 68 93  ......P...h...h.
	0x00d0 08 00 00 00 00 00 00 00 00 00 00 00 00 00 00 00  ................
	0x00e0 00                                               .
	rel 8+8 t=1 command-line-arguments.SliceMakeCopyNoMemmoveDifferentLen<1>+0
	rel 118+8 t=1 command-line-arguments.SliceMakeCopyNoMemmoveDifferentLen<1>+0
aux for command-line-arguments.SliceMakeCopyNoMemmoveDifferentLen<0> SDWARFLINES size=39
	0x0000 00 09 02 00 00 00 00 00 00 00 00 04 02 03 c5 02  ................
	0x0010 14 0a 4b 06 9b 06 44 06 37 06 08 26 06 41 06 03  ..K...D.7..&.A..
	0x0020 7e 8d 02 25 00 01 01                             ~..%...
	rel 3+8 t=1 command-line-arguments.SliceMakeCopyNoMemmoveDifferentLen<1>+0
aux for command-line-arguments.SliceMakeCopyNoMemmoveDifferentLen<0> SDWARFFCN size=123
	0x0000 03 63 6f 6d 6d 61 6e 64 2d 6c 69 6e 65 2d 61 72  .command-line-ar
	0x0010 67 75 6d 65 6e 74 73 2e 53 6c 69 63 65 4d 61 6b  guments.SliceMak
	0x0020 65 43 6f 70 79 4e 6f 4d 65 6d 6d 6f 76 65 44 69  eCopyNoMemmoveDi
	0x0030 66 66 65 72 65 6e 74 4c 65 6e 00 00 00 00 00 00  fferentLen......
	0x0040 00 00 00 00 00 00 00 00 00 00 00 01 9c 02 00 00  ................
	0x0050 00 01 12 73 00 00 cb 02 00 00 00 00 00 00 00 00  ...s............
	0x0060 11 7e 72 30 00 01 cb 02 00 00 00 00 00 0d 61 00  .~r0..........a.
	0x0070 ce 02 00 00 00 00 00 00 00 00 00                 ...........
	rel 0+0 t=22 type:[]int<0>+0
	rel 0+0 t=22 type:int<0>+0
	rel 59+8 t=1 command-line-arguments.SliceMakeCopyNoMemmoveDifferentLen<1>+0
	rel 67+8 t=1 command-line-arguments.SliceMakeCopyNoMemmoveDifferentLen<1>+110
	rel 88+4 t=31 go:info.[]int<0>+0
	rel 92+4 t=31 <0>+0
	rel 104+4 t=31 go:info.[]int<0>+0
	rel 114+4 t=31 go:info.[]int<0>+0
	rel 118+4 t=31 <0>+110
aux for command-line-arguments.SliceNilCheck<0> SDWARFLOC size=110
	0x0000 ff ff ff ff ff ff ff ff 00 00 00 00 00 00 00 00  ................
	0x0010 00 00 00 00 00 00 00 00 24 00 00 00 00 00 00 00  ........$.......
	0x0020 09 00 50 93 08 53 93 08 52 93 08 24 00 00 00 00  ..P..S..R..$....
	0x0030 00 00 00 27 00 00 00 00 00 00 00 08 00 93 08 53  ...'...........S
	0x0040 93 08 52 93 08 27 00 00 00 00 00 00 00 2d 00 00  ..R..'.......-..
	0x0050 00 00 00 00 00 07 00 93 08 53 93 08 93 08 00 00  .........S......
	0x0060 00 00 00 00 00 00 00 00 00 00 00 00 00 00        ..............
	rel 8+8 t=1 command-line-arguments.SliceNilCheck<1>+0
aux for command-line-arguments.SliceNilCheck<0> SDWARFLINES size=35
	0x0000 00 09 02 00 00 00 00 00 00 00 00 04 02 0a 03 d2  ................
	0x0010 02 14 06 9b 06 42 06 2d 06 26 06 70 06 73 02 01  .....B.-.&.p.s..
	0x0020 00 01 01                                         ...
	rel 3+8 t=1 command-line-arguments.SliceNilCheck<1>+0
aux for command-line-arguments.SliceNilCheck<0> SDWARFFCN size=76
	0x0000 03 63 6f 6d 6d 61 6e 64 2d 6c 69 6e 65 2d 61 72  .command-line-ar
	0x0010 67 75 6d 65 6e 74 73 2e 53 6c 69 63 65 4e 69 6c  guments.SliceNil
	0x0020 43 68 65 63 6b 00 00 00 00 00 00 00 00 00 00 00  Check...........
	0x0030 00 00 00 00 00 00 01 9c 02 00 00 00 01 12 73 00  ..............s.
	0x0040 00 d8 02 00 00 00 00 00 00 00 00 00              ............
	rel 38+8 t=1 command-line-arguments.SliceNilCheck<1>+0
	rel 46+8 t=1 command-line-arguments.SliceNilCheck<1>+45
	rel 67+4 t=31 go:info.[]int<0>+0
	rel 71+4 t=31 <0>+0
aux for command-line-arguments.InitSmallSliceLiteral<0> SDWARFLINES size=31
	0x0000 00 09 02 00 00 00 00 00 00 00 00 04 02 03 dc 02  ................
	0x0010 14 0a 4b 9d 06 55 08 7b 06 23 02 07 00 01 01     ..K..U.{.#.....
	rel 3+8 t=1 command-line-arguments.InitSmallSliceLiteral<1>+0
aux for command-line-arguments.InitSmallSliceLiteral<0> SDWARFFCN size=83
	0x0000 03 63 6f 6d 6d 61 6e 64 2d 6c 69 6e 65 2d 61 72  .command-line-ar
	0x0010 67 75 6d 65 6e 74 73 2e 49 6e 69 74 53 6d 61 6c  guments.InitSmal
	0x0020 6c 53 6c 69 63 65 4c 69 74 65 72 61 6c 00 00 00  lSliceLiteral...
	0x0030 00 00 00 00 00 00 00 00 00 00 00 00 00 00 01 9c  ................
	0x0040 02 00 00 00 01 11 7e 72 30 00 01 e2 02 00 00 00  ......~r0.......
	0x0050 00 00 00                                         ...
	rel 0+0 t=22 type:[]int<0>+0
	rel 46+8 t=1 command-line-arguments.InitSmallSliceLiteral<1>+0
	rel 54+8 t=1 command-line-arguments.InitSmallSliceLiteral<1>+71
	rel 77+4 t=31 go:info.[]int<0>+0
aux for command-line-arguments.InitNotSmallSliceLiteral<0> SDWARFLINES size=31
	0x0000 00 09 02 00 00 00 00 00 00 00 00 04 02 03 e1 02  ................
	0x0010 14 0a 4b 9d 06 55 06 02 32 fd 02 07 00 01 01     ..K..U..2......
	rel 3+8 t=1 command-line-arguments.InitNotSmallSliceLiteral<1>+0
aux for command-line-arguments.InitNotSmallSliceLiteral<0> SDWARFFCN size=86
	0x0000 03 63 6f 6d 6d 61 6e 64 2d 6c 69 6e 65 2d 61 72  .command-line-ar
	0x0010 67 75 6d 65 6e 74 73 2e 49 6e 69 74 4e 6f 74 53  guments.InitNotS
	0x0020 6d 61 6c 6c 53 6c 69 63 65 4c 69 74 65 72 61 6c  mallSliceLiteral
	0x0030 00 00 00 00 00 00 00 00 00 00 00 00 00 00 00 00  ................
	0x0040 00 01 9c 02 00 00 00 01 11 7e 72 30 00 01 e7 02  .........~r0....
	0x0050 00 00 00 00 00 00                                ......
	rel 0+0 t=22 type:[]int<0>+0
	rel 49+8 t=1 command-line-arguments.InitNotSmallSliceLiteral<1>+0
	rel 57+8 t=1 command-line-arguments.InitNotSmallSliceLiteral<1>+108
	rel 80+4 t=31 go:info.[]int<0>+0
aux for command-line-arguments.SliceWithConstCompare<0> SDWARFLOC size=245
	0x0000 ff ff ff ff ff ff ff ff 00 00 00 00 00 00 00 00  ................
	0x0010 00 00 00 00 00 00 00 00 33 00 00 00 00 00 00 00  ........3.......
	0x0020 09 00 50 93 08 53 93 08 52 93 08 33 00 00 00 00  ..P..S..R..3....
	0x0030 00 00 00 38 00 00 00 00 00 00 00 0b 00 9c 93 08  ...8............
	0x0040 91 08 93 08 91 10 93 08 38 00 00 00 00 00 00 00  ........8.......
	0x0050 f8 00 00 00 00 00 00 00 0b 00 9c 93 08 91 08 93  ................
	0x0060 08 91 10 93 08 00 00 00 00 00 00 00 00 00 00 00  ................
	0x0070 00 00 00 00 00 ff ff ff ff ff ff ff ff 00 00 00  ................
	0x0080 00 00 00 00 00 00 00 00 00 00 00 00 00 38 00 00  .............8..
	0x0090 00 00 00 00 00 01 00 55 38 00 00 00 00 00 00 00  .......U8.......
	0x00a0 f8 00 00 00 00 00 00 00 02 00 91 18 00 00 00 00  ................
	0x00b0 00 00 00 00 00 00 00 00 00 00 00 00 ff ff ff ff  ................
	0x00c0 ff ff ff ff 00 00 00 00 00 00 00 00 38 00 00 00  ............8...
	0x00d0 00 00 00 00 8e 00 00 00 00 00 00 00 07 00 50 93  ..............P.
	0x00e0 08 93 08 93 08 00 00 00 00 00 00 00 00 00 00 00  ................
	0x00f0 00 00 00 00 00                                   .....
	rel 8+8 t=1 command-line-arguments.SliceWithConstCompare<1>+0
	rel 125+8 t=1 command-line-arguments.SliceWithConstCompare<1>+0
	rel 196+8 t=1 command-line-arguments.SliceWithConstCompare<1>+0
aux for command-line-arguments.SliceWithConstCompare<0> SDWARFLINES size=54
	0x0000 00 09 02 00 00 00 00 00 00 00 00 04 02 03 90 03  ................
	0x0010 14 0a 73 06 9b 06 d8 06 55 06 08 d8 06 41 06 a8  ..s.....U....A..
	0x0020 06 37 06 23 06 37 06 08 89 06 41 a3 06 af 03 7f  .7.#.7....A.....
	0x0030 15 02 32 00 01 01                                ..2...
	rel 3+8 t=1 command-line-arguments.SliceWithConstCompare<1>+0
aux for command-line-arguments.SliceWithConstCompare<0> SDWARFFCN size=124
	0x0000 03 63 6f 6d 6d 61 6e 64 2d 6c 69 6e 65 2d 61 72  .command-line-ar
	0x0010 67 75 6d 65 6e 74 73 2e 53 6c 69 63 65 57 69 74  guments.SliceWit
	0x0020 68 43 6f 6e 73 74 43 6f 6d 70 61 72 65 00 00 00  hConstCompare...
	0x0030 00 00 00 00 00 00 00 00 00 00 00 00 00 00 01 9c  ................
	0x0040 02 00 00 00 01 12 61 00 00 96 03 00 00 00 00 00  ......a.........
	0x0050 00 00 00 12 62 00 00 96 03 00 00 00 00 00 00 00  ....b...........
	0x0060 00 11 7e 72 30 00 01 96 03 00 00 00 00 00 0d 63  ..~r0..........c
	0x0070 00 97 03 00 00 00 00 00 00 00 00 00              ............
	rel 0+0 t=22 type:[]int<0>+0
	rel 46+8 t=1 command-line-arguments.SliceWithConstCompare<1>+0
	rel 54+8 t=1 command-line-arguments.SliceWithConstCompare<1>+248
	rel 75+4 t=31 go:info.[]int<0>+0
	rel 79+4 t=31 <0>+0
	rel 89+4 t=31 go:info.int<0>+0
	rel 93+4 t=31 <0>+117
	rel 105+4 t=31 go:info.[]int<0>+0
	rel 115+4 t=31 go:info.[]int<0>+0
	rel 119+4 t=31 <0>+188
aux for command-line-arguments.SliceWithSubtractBound<0> SDWARFLOC size=212
	0x0000 ff ff ff ff ff ff ff ff 00 00 00 00 00 00 00 00  ................
	0x0010 00 00 00 00 00 00 00 00 27 00 00 00 00 00 00 00  ........'.......
	0x0020 09 00 50 93 08 53 93 08 52 93 08 27 00 00 00 00  ..P..S..R..'....
	0x0030 00 00 00 2f 00 00 00 00 00 00 00 08 00 50 93 08  .../.........P..
	0x0040 53 93 08 93 08 2f 00 00 00 00 00 00 00 43 00 00  S..../.......C..
	0x0050 00 00 00 00 00 07 00 50 93 08 93 08 93 08 53 00  .......P......S.
	0x0060 00 00 00 00 00 00 56 00 00 00 00 00 00 00 08 00  ......V.........
	0x0070 93 08 53 93 08 52 93 08 56 00 00 00 00 00 00 00  ..S..R..V.......
	0x0080 5c 00 00 00 00 00 00 00 07 00 93 08 53 93 08 93  \...........S...
	0x0090 08 00 00 00 00 00 00 00 00 00 00 00 00 00 00 00  ................
	0x00a0 00 ff ff ff ff ff ff ff ff 00 00 00 00 00 00 00  ................
	0x00b0 00 00 00 00 00 00 00 00 00 5c 00 00 00 00 00 00  .........\......
	0x00c0 00 01 00 55 00 00 00 00 00 00 00 00 00 00 00 00  ...U............
	0x00d0 00 00 00 00                                      ....
	rel 8+8 t=1 command-line-arguments.SliceWithSubtractBound<1>+0
	rel 169+8 t=1 command-line-arguments.SliceWithSubtractBound<1>+0
aux for command-line-arguments.SliceWithSubtractBound<0> SDWARFLINES size=37
	0x0000 00 09 02 00 00 00 00 00 00 00 00 04 02 0a 03 9a  ................
	0x0010 03 14 06 9b 06 44 06 37 06 5f 06 37 06 02 20 ff  .....D.7._.7.. .
	0x0020 02 01 00 01 01                                   .....
	rel 3+8 t=1 command-line-arguments.SliceWithSubtractBound<1>+0
aux for command-line-arguments.SliceWithSubtractBound<0> SDWARFFCN size=112
	0x0000 03 63 6f 6d 6d 61 6e 64 2d 6c 69 6e 65 2d 61 72  .command-line-ar
	0x0010 67 75 6d 65 6e 74 73 2e 53 6c 69 63 65 57 69 74  guments.SliceWit
	0x0020 68 53 75 62 74 72 61 63 74 42 6f 75 6e 64 00 00  hSubtractBound..
	0x0030 00 00 00 00 00 00 00 00 00 00 00 00 00 00 00 01  ................
	0x0040 9c 02 00 00 00 01 12 61 00 00 a0 03 00 00 00 00  .......a........
	0x0050 00 00 00 00 12 62 00 00 a0 03 00 00 00 00 00 00  .....b..........
	0x0060 00 00 11 7e 72 30 00 01 a0 03 00 00 00 00 00 00  ...~r0..........
	rel 0+0 t=22 type:[]int<0>+0
	rel 47+8 t=1 command-line-arguments.SliceWithSubtractBound<1>+0
	rel 55+8 t=1 command-line-arguments.SliceWithSubtractBound<1>+92
	rel 76+4 t=31 go:info.[]int<0>+0
	rel 80+4 t=31 <0>+0
	rel 90+4 t=31 go:info.int<0>+0
	rel 94+4 t=31 <0>+161
	rel 106+4 t=31 go:info.[]int<0>+0
aux for command-line-arguments.Slice1<0> SDWARFLOC size=102
	0x0000 ff ff ff ff ff ff ff ff 00 00 00 00 00 00 00 00  ................
	0x0010 00 00 00 00 00 00 00 00 20 00 00 00 00 00 00 00  ........ .......
	0x0020 01 00 50 00 00 00 00 00 00 00 00 00 00 00 00 00  ..P.............
	0x0030 00 00 00 ff ff ff ff ff ff ff ff 00 00 00 00 00  ................
	0x0040 00 00 00 00 00 00 00 00 00 00 00 40 00 00 00 00  ...........@....
	0x0050 00 00 00 01 00 53 00 00 00 00 00 00 00 00 00 00  .....S..........
	0x0060 00 00 00 00 00 00                                ......
	rel 8+8 t=1 command-line-arguments.Slice1<1>+0
	rel 59+8 t=1 command-line-arguments.Slice1<1>+0
aux for command-line-arguments.Slice1<0> SDWARFLINES size=35
	0x0000 00 09 02 00 00 00 00 00 00 00 00 04 02 03 a4 03  ................
	0x0010 14 0a 4b 89 06 2d 06 af 06 2d 06 08 73 17 02 1b  ..K..-...-..s...
	0x0020 00 01 01                                         ...
	rel 3+8 t=1 command-line-arguments.Slice1<1>+0
aux for command-line-arguments.Slice1<0> SDWARFFCN size=96
	0x0000 03 63 6f 6d 6d 61 6e 64 2d 6c 69 6e 65 2d 61 72  .command-line-ar
	0x0010 67 75 6d 65 6e 74 73 2e 53 6c 69 63 65 31 00 00  guments.Slice1..
	0x0020 00 00 00 00 00 00 00 00 00 00 00 00 00 00 00 01  ................
	0x0030 9c 02 00 00 00 01 12 70 00 00 aa 03 00 00 00 00  .......p........
	0x0040 00 00 00 00 12 69 00 00 aa 03 00 00 00 00 00 00  .....i..........
	0x0050 00 00 11 7e 72 30 00 01 aa 03 00 00 00 00 00 00  ...~r0..........
	rel 0+0 t=22 type:[]uint8<0>+0
	rel 31+8 t=1 command-line-arguments.Slice1<1>+0
	rel 39+8 t=1 command-line-arguments.Slice1<1>+102
	rel 60+4 t=31 go:info.*uint8<0>+0
	rel 64+4 t=31 <0>+0
	rel 74+4 t=31 go:info.int<0>+0
	rel 78+4 t=31 <0>+51
	rel 90+4 t=31 go:info.[]uint8<0>+0
aux for command-line-arguments.Slice0<0> SDWARFLOC size=102
	0x0000 ff ff ff ff ff ff ff ff 00 00 00 00 00 00 00 00  ................
	0x0010 00 00 00 00 00 00 00 00 36 00 00 00 00 00 00 00  ........6.......
	0x0020 01 00 50 00 00 00 00 00 00 00 00 00 00 00 00 00  ..P.............
	0x0030 00 00 00 ff ff ff ff ff ff ff ff 00 00 00 00 00  ................
	0x0040 00 00 00 00 00 00 00 00 00 00 00 36 00 00 00 00  ...........6....
	0x0050 00 00 00 01 00 53 00 00 00 00 00 00 00 00 00 00  .....S..........
	0x0060 00 00 00 00 00 00                                ......
	rel 8+8 t=1 command-line-arguments.Slice0<1>+0
	rel 59+8 t=1 command-line-arguments.Slice0<1>+0
aux for command-line-arguments.Slice0<0> SDWARFLINES size=34
	0x0000 00 09 02 00 00 00 00 00 00 00 00 04 02 03 a8 03  ................
	0x0010 14 0a 4b 89 06 2d 06 af 06 2d 06 cd 17 02 1b 00  ..K..-...-......
	0x0020 01 01                                            ..
	rel 3+8 t=1 command-line-arguments.Slice0<1>+0
aux for command-line-arguments.Slice0<0> SDWARFFCN size=96
	0x0000 03 63 6f 6d 6d 61 6e 64 2d 6c 69 6e 65 2d 61 72  .command-line-ar
	0x0010 67 75 6d 65 6e 74 73 2e 53 6c 69 63 65 30 00 00  guments.Slice0..
	0x0020 00 00 00 00 00 00 00 00 00 00 00 00 00 00 00 01  ................
	0x0030 9c 02 00 00 00 01 12 70 00 00 ae 03 00 00 00 00  .......p........
	0x0040 00 00 00 00 12 69 00 00 ae 03 00 00 00 00 00 00  .....i..........
	0x0050 00 00 11 7e 72 30 00 01 ae 03 00 00 00 00 00 00  ...~r0..........
	rel 0+0 t=22 type:[]struct {}<0>+0
	rel 31+8 t=1 command-line-arguments.Slice0<1>+0
	rel 39+8 t=1 command-line-arguments.Slice0<1>+87
	rel 60+4 t=31 go:info.*struct {}<0>+0
	rel 64+4 t=31 <0>+0
	rel 74+4 t=31 go:info.int<0>+0
	rel 78+4 t=31 <0>+51
	rel 90+4 t=31 go:info.[]struct {}<0>+0
aux for command-line-arguments.SliceMakeCopyNoOptNoCopy.func1<0> SDWARFLOC size=118
	0x0000 ff ff ff ff ff ff ff ff 00 00 00 00 00 00 00 00  ................
	0x0010 00 00 00 00 00 00 00 00 01 00 00 00 00 00 00 00  ................
	0x0020 09 00 50 93 08 53 93 08 52 93 08 00 00 00 00 00  ..P..S..R.......
	0x0030 00 00 00 00 00 00 00 00 00 00 00 ff ff ff ff ff  ................
	0x0040 ff ff ff 00 00 00 00 00 00 00 00 00 00 00 00 00  ................
	0x0050 00 00 00 01 00 00 00 00 00 00 00 09 00 55 93 08  .............U..
	0x0060 54 93 08 58 93 08 00 00 00 00 00 00 00 00 00 00  T..X............
	0x0070 00 00 00 00 00 00                                ......
	rel 8+8 t=1 command-line-arguments.SliceMakeCopyNoOptNoCopy.func1<1>+0
	rel 67+8 t=1 command-line-arguments.SliceMakeCopyNoOptNoCopy.func1<1>+0
aux for command-line-arguments.SliceMakeCopyNoOptNoCopy.func1<0> SDWARFLINES size=22
	0x0000 00 09 02 00 00 00 00 00 00 00 00 04 02 03 ff 01  ................
	0x0010 14 02 01 00 01 01                                ......
	rel 3+8 t=1 command-line-arguments.SliceMakeCopyNoOptNoCopy.func1<1>+0
aux for command-line-arguments.SliceMakeCopyNoOptNoCopy.func1<0> SDWARFFCN size=42
	0x0000 06 00 00 00 00 00 00 00 00 00 00 00 00 00 00 00  ................
	0x0010 00 00 00 00 00 01 9c 15 00 00 00 00 00 00 00 00  ................
	0x0020 15 00 00 00 00 00 00 00 00 00                    ..........
	rel 1+4 t=31 go:info.command-line-arguments.SliceMakeCopyNoOptNoCopy.func1$abstract<0>+0
	rel 5+8 t=1 command-line-arguments.SliceMakeCopyNoOptNoCopy.func1<1>+0
	rel 13+8 t=1 command-line-arguments.SliceMakeCopyNoOptNoCopy.func1<1>+1
	rel 24+4 t=31 go:info.command-line-arguments.SliceMakeCopyNoOptNoCopy.func1$abstract<0>+57
	rel 28+4 t=31 <0>+0
	rel 33+4 t=31 go:info.command-line-arguments.SliceMakeCopyNoOptNoCopy.func1$abstract<0>+65
	rel 37+4 t=31 <0>+59
