# command-line-arguments
command-line-arguments.AccessInt1<1> STEXT size=70 args=0x8 locals=0x20 funcid=0x0 align=0x0
	0x0000 00000 (/bigdata/qiuhan/codet5/usage/goroot/test/codegen/maps.go:18)	TEXT	command-line-arguments.AccessInt1(SB), ABIInternal, $32-8
	0x0000 00000 (/bigdata/qiuhan/codet5/usage/goroot/test/codegen/maps.go:18)	CMPQ	SP, 16(R14)
	0x0004 00004 (/bigdata/qiuhan/codet5/usage/goroot/test/codegen/maps.go:18)	PCDATA	$0, $-2
	0x0004 00004 (/bigdata/qiuhan/codet5/usage/goroot/test/codegen/maps.go:18)	JLS	53
	0x0006 00006 (/bigdata/qiuhan/codet5/usage/goroot/test/codegen/maps.go:18)	PCDATA	$0, $-1
	0x0006 00006 (/bigdata/qiuhan/codet5/usage/goroot/test/codegen/maps.go:18)	SUBQ	$32, SP
	0x000a 00010 (/bigdata/qiuhan/codet5/usage/goroot/test/codegen/maps.go:18)	MOVQ	BP, 24(SP)
	0x000f 00015 (/bigdata/qiuhan/codet5/usage/goroot/test/codegen/maps.go:18)	LEAQ	24(SP), BP
	0x0014 00020 (/bigdata/qiuhan/codet5/usage/goroot/test/codegen/maps.go:18)	FUNCDATA	$0, gclocals·wgcWObbY2HYnK2SU/U22lA==(SB)
	0x0014 00020 (/bigdata/qiuhan/codet5/usage/goroot/test/codegen/maps.go:18)	FUNCDATA	$1, gclocals·J5F+7Qw7O7ve2QcWC7DpeQ==(SB)
	0x0014 00020 (/bigdata/qiuhan/codet5/usage/goroot/test/codegen/maps.go:18)	FUNCDATA	$5, command-line-arguments.AccessInt1.arginfo1(SB)
	0x0014 00020 (/bigdata/qiuhan/codet5/usage/goroot/test/codegen/maps.go:18)	FUNCDATA	$6, command-line-arguments.AccessInt1.argliveinfo(SB)
	0x0014 00020 (/bigdata/qiuhan/codet5/usage/goroot/test/codegen/maps.go:18)	PCDATA	$3, $1
	0x0014 00020 (/bigdata/qiuhan/codet5/usage/goroot/test/codegen/maps.go:20)	MOVQ	AX, BX
	0x0017 00023 (/bigdata/qiuhan/codet5/usage/goroot/test/codegen/maps.go:20)	MOVL	$5, CX
	0x001c 00028 (/bigdata/qiuhan/codet5/usage/goroot/test/codegen/maps.go:20)	LEAQ	type:map[int]int(SB), AX
	0x0023 00035 (/bigdata/qiuhan/codet5/usage/goroot/test/codegen/maps.go:20)	PCDATA	$1, $1
	0x0023 00035 (/bigdata/qiuhan/codet5/usage/goroot/test/codegen/maps.go:20)	CALL	runtime.mapaccess1_fast64(SB)
	0x0028 00040 (/bigdata/qiuhan/codet5/usage/goroot/test/codegen/maps.go:20)	MOVQ	(AX), AX
	0x002b 00043 (/bigdata/qiuhan/codet5/usage/goroot/test/codegen/maps.go:20)	MOVQ	24(SP), BP
	0x0030 00048 (/bigdata/qiuhan/codet5/usage/goroot/test/codegen/maps.go:20)	ADDQ	$32, SP
	0x0034 00052 (/bigdata/qiuhan/codet5/usage/goroot/test/codegen/maps.go:20)	RET
	0x0035 00053 (/bigdata/qiuhan/codet5/usage/goroot/test/codegen/maps.go:20)	NOP
	0x0035 00053 (/bigdata/qiuhan/codet5/usage/goroot/test/codegen/maps.go:18)	PCDATA	$1, $-1
	0x0035 00053 (/bigdata/qiuhan/codet5/usage/goroot/test/codegen/maps.go:18)	PCDATA	$0, $-2
	0x0035 00053 (/bigdata/qiuhan/codet5/usage/goroot/test/codegen/maps.go:18)	MOVQ	AX, 8(SP)
	0x003a 00058 (/bigdata/qiuhan/codet5/usage/goroot/test/codegen/maps.go:18)	CALL	runtime.morestack_noctxt(SB)
	0x003f 00063 (/bigdata/qiuhan/codet5/usage/goroot/test/codegen/maps.go:18)	MOVQ	8(SP), AX
	0x0044 00068 (/bigdata/qiuhan/codet5/usage/goroot/test/codegen/maps.go:18)	PCDATA	$0, $-1
	0x0044 00068 (/bigdata/qiuhan/codet5/usage/goroot/test/codegen/maps.go:18)	JMP	0
	0x0000 49 3b 66 10 76 2f 48 83 ec 20 48 89 6c 24 18 48  I;f.v/H.. H.l$.H
	0x0010 8d 6c 24 18 48 89 c3 b9 05 00 00 00 48 8d 05 00  .l$.H.......H...
	0x0020 00 00 00 e8 00 00 00 00 48 8b 00 48 8b 6c 24 18  ........H..H.l$.
	0x0030 48 83 c4 20 c3 48 89 44 24 08 e8 00 00 00 00 48  H.. .H.D$......H
	0x0040 8b 44 24 08 eb ba                                .D$...
	rel 31+4 t=14 type:map[int]int<0>+0
	rel 36+4 t=7 runtime.mapaccess1_fast64<1>+0
	rel 59+4 t=7 runtime.morestack_noctxt<0>+0
command-line-arguments.AccessInt2<1> STEXT size=69 args=0x8 locals=0x20 funcid=0x0 align=0x0
	0x0000 00000 (/bigdata/qiuhan/codet5/usage/goroot/test/codegen/maps.go:23)	TEXT	command-line-arguments.AccessInt2(SB), ABIInternal, $32-8
	0x0000 00000 (/bigdata/qiuhan/codet5/usage/goroot/test/codegen/maps.go:23)	CMPQ	SP, 16(R14)
	0x0004 00004 (/bigdata/qiuhan/codet5/usage/goroot/test/codegen/maps.go:23)	PCDATA	$0, $-2
	0x0004 00004 (/bigdata/qiuhan/codet5/usage/goroot/test/codegen/maps.go:23)	JLS	52
	0x0006 00006 (/bigdata/qiuhan/codet5/usage/goroot/test/codegen/maps.go:23)	PCDATA	$0, $-1
	0x0006 00006 (/bigdata/qiuhan/codet5/usage/goroot/test/codegen/maps.go:23)	SUBQ	$32, SP
	0x000a 00010 (/bigdata/qiuhan/codet5/usage/goroot/test/codegen/maps.go:23)	MOVQ	BP, 24(SP)
	0x000f 00015 (/bigdata/qiuhan/codet5/usage/goroot/test/codegen/maps.go:23)	LEAQ	24(SP), BP
	0x0014 00020 (/bigdata/qiuhan/codet5/usage/goroot/test/codegen/maps.go:23)	FUNCDATA	$0, gclocals·wgcWObbY2HYnK2SU/U22lA==(SB)
	0x0014 00020 (/bigdata/qiuhan/codet5/usage/goroot/test/codegen/maps.go:23)	FUNCDATA	$1, gclocals·J5F+7Qw7O7ve2QcWC7DpeQ==(SB)
	0x0014 00020 (/bigdata/qiuhan/codet5/usage/goroot/test/codegen/maps.go:23)	FUNCDATA	$5, command-line-arguments.AccessInt2.arginfo1(SB)
	0x0014 00020 (/bigdata/qiuhan/codet5/usage/goroot/test/codegen/maps.go:23)	FUNCDATA	$6, command-line-arguments.AccessInt2.argliveinfo(SB)
	0x0014 00020 (/bigdata/qiuhan/codet5/usage/goroot/test/codegen/maps.go:23)	PCDATA	$3, $1
	0x0014 00020 (/bigdata/qiuhan/codet5/usage/goroot/test/codegen/maps.go:25)	MOVQ	AX, BX
	0x0017 00023 (/bigdata/qiuhan/codet5/usage/goroot/test/codegen/maps.go:25)	MOVL	$5, CX
	0x001c 00028 (/bigdata/qiuhan/codet5/usage/goroot/test/codegen/maps.go:25)	LEAQ	type:map[int]int(SB), AX
	0x0023 00035 (/bigdata/qiuhan/codet5/usage/goroot/test/codegen/maps.go:25)	PCDATA	$1, $1
	0x0023 00035 (/bigdata/qiuhan/codet5/usage/goroot/test/codegen/maps.go:25)	CALL	runtime.mapaccess2_fast64(SB)
	0x0028 00040 (/bigdata/qiuhan/codet5/usage/goroot/test/codegen/maps.go:26)	MOVL	BX, AX
	0x002a 00042 (/bigdata/qiuhan/codet5/usage/goroot/test/codegen/maps.go:26)	MOVQ	24(SP), BP
	0x002f 00047 (/bigdata/qiuhan/codet5/usage/goroot/test/codegen/maps.go:26)	ADDQ	$32, SP
	0x0033 00051 (/bigdata/qiuhan/codet5/usage/goroot/test/codegen/maps.go:26)	RET
	0x0034 00052 (/bigdata/qiuhan/codet5/usage/goroot/test/codegen/maps.go:26)	NOP
	0x0034 00052 (/bigdata/qiuhan/codet5/usage/goroot/test/codegen/maps.go:23)	PCDATA	$1, $-1
	0x0034 00052 (/bigdata/qiuhan/codet5/usage/goroot/test/codegen/maps.go:23)	PCDATA	$0, $-2
	0x0034 00052 (/bigdata/qiuhan/codet5/usage/goroot/test/codegen/maps.go:23)	MOVQ	AX, 8(SP)
	0x0039 00057 (/bigdata/qiuhan/codet5/usage/goroot/test/codegen/maps.go:23)	CALL	runtime.morestack_noctxt(SB)
	0x003e 00062 (/bigdata/qiuhan/codet5/usage/goroot/test/codegen/maps.go:23)	MOVQ	8(SP), AX
	0x0043 00067 (/bigdata/qiuhan/codet5/usage/goroot/test/codegen/maps.go:23)	PCDATA	$0, $-1
	0x0043 00067 (/bigdata/qiuhan/codet5/usage/goroot/test/codegen/maps.go:23)	JMP	0
	0x0000 49 3b 66 10 76 2e 48 83 ec 20 48 89 6c 24 18 48  I;f.v.H.. H.l$.H
	0x0010 8d 6c 24 18 48 89 c3 b9 05 00 00 00 48 8d 05 00  .l$.H.......H...
	0x0020 00 00 00 e8 00 00 00 00 89 d8 48 8b 6c 24 18 48  ..........H.l$.H
	0x0030 83 c4 20 c3 48 89 44 24 08 e8 00 00 00 00 48 8b  .. .H.D$......H.
	0x0040 44 24 08 eb bb                                   D$...
	rel 31+4 t=14 type:map[int]int<0>+0
	rel 36+4 t=7 runtime.mapaccess2_fast64<1>+0
	rel 58+4 t=7 runtime.morestack_noctxt<0>+0
command-line-arguments.AccessString1<1> STEXT size=77 args=0x8 locals=0x28 funcid=0x0 align=0x0
	0x0000 00000 (/bigdata/qiuhan/codet5/usage/goroot/test/codegen/maps.go:29)	TEXT	command-line-arguments.AccessString1(SB), ABIInternal, $40-8
	0x0000 00000 (/bigdata/qiuhan/codet5/usage/goroot/test/codegen/maps.go:29)	CMPQ	SP, 16(R14)
	0x0004 00004 (/bigdata/qiuhan/codet5/usage/goroot/test/codegen/maps.go:29)	PCDATA	$0, $-2
	0x0004 00004 (/bigdata/qiuhan/codet5/usage/goroot/test/codegen/maps.go:29)	JLS	60
	0x0006 00006 (/bigdata/qiuhan/codet5/usage/goroot/test/codegen/maps.go:29)	PCDATA	$0, $-1
	0x0006 00006 (/bigdata/qiuhan/codet5/usage/goroot/test/codegen/maps.go:29)	SUBQ	$40, SP
	0x000a 00010 (/bigdata/qiuhan/codet5/usage/goroot/test/codegen/maps.go:29)	MOVQ	BP, 32(SP)
	0x000f 00015 (/bigdata/qiuhan/codet5/usage/goroot/test/codegen/maps.go:29)	LEAQ	32(SP), BP
	0x0014 00020 (/bigdata/qiuhan/codet5/usage/goroot/test/codegen/maps.go:29)	FUNCDATA	$0, gclocals·wgcWObbY2HYnK2SU/U22lA==(SB)
	0x0014 00020 (/bigdata/qiuhan/codet5/usage/goroot/test/codegen/maps.go:29)	FUNCDATA	$1, gclocals·J5F+7Qw7O7ve2QcWC7DpeQ==(SB)
	0x0014 00020 (/bigdata/qiuhan/codet5/usage/goroot/test/codegen/maps.go:29)	FUNCDATA	$5, command-line-arguments.AccessString1.arginfo1(SB)
	0x0014 00020 (/bigdata/qiuhan/codet5/usage/goroot/test/codegen/maps.go:29)	FUNCDATA	$6, command-line-arguments.AccessString1.argliveinfo(SB)
	0x0014 00020 (/bigdata/qiuhan/codet5/usage/goroot/test/codegen/maps.go:29)	PCDATA	$3, $1
	0x0014 00020 (/bigdata/qiuhan/codet5/usage/goroot/test/codegen/maps.go:31)	MOVQ	AX, BX
	0x0017 00023 (/bigdata/qiuhan/codet5/usage/goroot/test/codegen/maps.go:31)	LEAQ	go:string."abc"(SB), CX
	0x001e 00030 (/bigdata/qiuhan/codet5/usage/goroot/test/codegen/maps.go:31)	MOVL	$3, DI
	0x0023 00035 (/bigdata/qiuhan/codet5/usage/goroot/test/codegen/maps.go:31)	LEAQ	type:map[string]int(SB), AX
	0x002a 00042 (/bigdata/qiuhan/codet5/usage/goroot/test/codegen/maps.go:31)	PCDATA	$1, $1
	0x002a 00042 (/bigdata/qiuhan/codet5/usage/goroot/test/codegen/maps.go:31)	CALL	runtime.mapaccess1_faststr(SB)
	0x002f 00047 (/bigdata/qiuhan/codet5/usage/goroot/test/codegen/maps.go:31)	MOVQ	(AX), AX
	0x0032 00050 (/bigdata/qiuhan/codet5/usage/goroot/test/codegen/maps.go:31)	MOVQ	32(SP), BP
	0x0037 00055 (/bigdata/qiuhan/codet5/usage/goroot/test/codegen/maps.go:31)	ADDQ	$40, SP
	0x003b 00059 (/bigdata/qiuhan/codet5/usage/goroot/test/codegen/maps.go:31)	RET
	0x003c 00060 (/bigdata/qiuhan/codet5/usage/goroot/test/codegen/maps.go:31)	NOP
	0x003c 00060 (/bigdata/qiuhan/codet5/usage/goroot/test/codegen/maps.go:29)	PCDATA	$1, $-1
	0x003c 00060 (/bigdata/qiuhan/codet5/usage/goroot/test/codegen/maps.go:29)	PCDATA	$0, $-2
	0x003c 00060 (/bigdata/qiuhan/codet5/usage/goroot/test/codegen/maps.go:29)	MOVQ	AX, 8(SP)
	0x0041 00065 (/bigdata/qiuhan/codet5/usage/goroot/test/codegen/maps.go:29)	CALL	runtime.morestack_noctxt(SB)
	0x0046 00070 (/bigdata/qiuhan/codet5/usage/goroot/test/codegen/maps.go:29)	MOVQ	8(SP), AX
	0x004b 00075 (/bigdata/qiuhan/codet5/usage/goroot/test/codegen/maps.go:29)	PCDATA	$0, $-1
	0x004b 00075 (/bigdata/qiuhan/codet5/usage/goroot/test/codegen/maps.go:29)	JMP	0
	0x0000 49 3b 66 10 76 36 48 83 ec 28 48 89 6c 24 20 48  I;f.v6H..(H.l$ H
	0x0010 8d 6c 24 20 48 89 c3 48 8d 0d 00 00 00 00 bf 03  .l$ H..H........
	0x0020 00 00 00 48 8d 05 00 00 00 00 e8 00 00 00 00 48  ...H...........H
	0x0030 8b 00 48 8b 6c 24 20 48 83 c4 28 c3 48 89 44 24  ..H.l$ H..(.H.D$
	0x0040 08 e8 00 00 00 00 48 8b 44 24 08 eb b3           ......H.D$...
	rel 26+4 t=14 go:string."abc"<0>+0
	rel 38+4 t=14 type:map[string]int<0>+0
	rel 43+4 t=7 runtime.mapaccess1_faststr<1>+0
	rel 66+4 t=7 runtime.morestack_noctxt<0>+0
command-line-arguments.AccessString2<1> STEXT size=76 args=0x8 locals=0x28 funcid=0x0 align=0x0
	0x0000 00000 (/bigdata/qiuhan/codet5/usage/goroot/test/codegen/maps.go:34)	TEXT	command-line-arguments.AccessString2(SB), ABIInternal, $40-8
	0x0000 00000 (/bigdata/qiuhan/codet5/usage/goroot/test/codegen/maps.go:34)	CMPQ	SP, 16(R14)
	0x0004 00004 (/bigdata/qiuhan/codet5/usage/goroot/test/codegen/maps.go:34)	PCDATA	$0, $-2
	0x0004 00004 (/bigdata/qiuhan/codet5/usage/goroot/test/codegen/maps.go:34)	JLS	59
	0x0006 00006 (/bigdata/qiuhan/codet5/usage/goroot/test/codegen/maps.go:34)	PCDATA	$0, $-1
	0x0006 00006 (/bigdata/qiuhan/codet5/usage/goroot/test/codegen/maps.go:34)	SUBQ	$40, SP
	0x000a 00010 (/bigdata/qiuhan/codet5/usage/goroot/test/codegen/maps.go:34)	MOVQ	BP, 32(SP)
	0x000f 00015 (/bigdata/qiuhan/codet5/usage/goroot/test/codegen/maps.go:34)	LEAQ	32(SP), BP
	0x0014 00020 (/bigdata/qiuhan/codet5/usage/goroot/test/codegen/maps.go:34)	FUNCDATA	$0, gclocals·wgcWObbY2HYnK2SU/U22lA==(SB)
	0x0014 00020 (/bigdata/qiuhan/codet5/usage/goroot/test/codegen/maps.go:34)	FUNCDATA	$1, gclocals·J5F+7Qw7O7ve2QcWC7DpeQ==(SB)
	0x0014 00020 (/bigdata/qiuhan/codet5/usage/goroot/test/codegen/maps.go:34)	FUNCDATA	$5, command-line-arguments.AccessString2.arginfo1(SB)
	0x0014 00020 (/bigdata/qiuhan/codet5/usage/goroot/test/codegen/maps.go:34)	FUNCDATA	$6, command-line-arguments.AccessString2.argliveinfo(SB)
	0x0014 00020 (/bigdata/qiuhan/codet5/usage/goroot/test/codegen/maps.go:34)	PCDATA	$3, $1
	0x0014 00020 (/bigdata/qiuhan/codet5/usage/goroot/test/codegen/maps.go:36)	MOVQ	AX, BX
	0x0017 00023 (/bigdata/qiuhan/codet5/usage/goroot/test/codegen/maps.go:36)	LEAQ	go:string."abc"(SB), CX
	0x001e 00030 (/bigdata/qiuhan/codet5/usage/goroot/test/codegen/maps.go:36)	MOVL	$3, DI
	0x0023 00035 (/bigdata/qiuhan/codet5/usage/goroot/test/codegen/maps.go:36)	LEAQ	type:map[string]int(SB), AX
	0x002a 00042 (/bigdata/qiuhan/codet5/usage/goroot/test/codegen/maps.go:36)	PCDATA	$1, $1
	0x002a 00042 (/bigdata/qiuhan/codet5/usage/goroot/test/codegen/maps.go:36)	CALL	runtime.mapaccess2_faststr(SB)
	0x002f 00047 (/bigdata/qiuhan/codet5/usage/goroot/test/codegen/maps.go:37)	MOVL	BX, AX
	0x0031 00049 (/bigdata/qiuhan/codet5/usage/goroot/test/codegen/maps.go:37)	MOVQ	32(SP), BP
	0x0036 00054 (/bigdata/qiuhan/codet5/usage/goroot/test/codegen/maps.go:37)	ADDQ	$40, SP
	0x003a 00058 (/bigdata/qiuhan/codet5/usage/goroot/test/codegen/maps.go:37)	RET
	0x003b 00059 (/bigdata/qiuhan/codet5/usage/goroot/test/codegen/maps.go:37)	NOP
	0x003b 00059 (/bigdata/qiuhan/codet5/usage/goroot/test/codegen/maps.go:34)	PCDATA	$1, $-1
	0x003b 00059 (/bigdata/qiuhan/codet5/usage/goroot/test/codegen/maps.go:34)	PCDATA	$0, $-2
	0x003b 00059 (/bigdata/qiuhan/codet5/usage/goroot/test/codegen/maps.go:34)	MOVQ	AX, 8(SP)
	0x0040 00064 (/bigdata/qiuhan/codet5/usage/goroot/test/codegen/maps.go:34)	CALL	runtime.morestack_noctxt(SB)
	0x0045 00069 (/bigdata/qiuhan/codet5/usage/goroot/test/codegen/maps.go:34)	MOVQ	8(SP), AX
	0x004a 00074 (/bigdata/qiuhan/codet5/usage/goroot/test/codegen/maps.go:34)	PCDATA	$0, $-1
	0x004a 00074 (/bigdata/qiuhan/codet5/usage/goroot/test/codegen/maps.go:34)	JMP	0
	0x0000 49 3b 66 10 76 35 48 83 ec 28 48 89 6c 24 20 48  I;f.v5H..(H.l$ H
	0x0010 8d 6c 24 20 48 89 c3 48 8d 0d 00 00 00 00 bf 03  .l$ H..H........
	0x0020 00 00 00 48 8d 05 00 00 00 00 e8 00 00 00 00 89  ...H............
	0x0030 d8 48 8b 6c 24 20 48 83 c4 28 c3 48 89 44 24 08  .H.l$ H..(.H.D$.
	0x0040 e8 00 00 00 00 48 8b 44 24 08 eb b4              .....H.D$...
	rel 26+4 t=14 go:string."abc"<0>+0
	rel 38+4 t=14 type:map[string]int<0>+0
	rel 43+4 t=7 runtime.mapaccess2_faststr<1>+0
	rel 65+4 t=7 runtime.morestack_noctxt<0>+0
command-line-arguments.LookupStringConversionSimple<1> STEXT size=106 args=0x20 locals=0x28 funcid=0x0 align=0x0
	0x0000 00000 (/bigdata/qiuhan/codet5/usage/goroot/test/codegen/maps.go:44)	TEXT	command-line-arguments.LookupStringConversionSimple(SB), ABIInternal, $40-32
	0x0000 00000 (/bigdata/qiuhan/codet5/usage/goroot/test/codegen/maps.go:44)	CMPQ	SP, 16(R14)
	0x0004 00004 (/bigdata/qiuhan/codet5/usage/goroot/test/codegen/maps.go:44)	PCDATA	$0, $-2
	0x0004 00004 (/bigdata/qiuhan/codet5/usage/goroot/test/codegen/maps.go:44)	JLS	59
	0x0006 00006 (/bigdata/qiuhan/codet5/usage/goroot/test/codegen/maps.go:44)	PCDATA	$0, $-1
	0x0006 00006 (/bigdata/qiuhan/codet5/usage/goroot/test/codegen/maps.go:44)	SUBQ	$40, SP
	0x000a 00010 (/bigdata/qiuhan/codet5/usage/goroot/test/codegen/maps.go:44)	MOVQ	BP, 32(SP)
	0x000f 00015 (/bigdata/qiuhan/codet5/usage/goroot/test/codegen/maps.go:44)	LEAQ	32(SP), BP
	0x0014 00020 (/bigdata/qiuhan/codet5/usage/goroot/test/codegen/maps.go:44)	MOVQ	BX, command-line-arguments.bytes+56(FP)
	0x0019 00025 (/bigdata/qiuhan/codet5/usage/goroot/test/codegen/maps.go:44)	FUNCDATA	$0, gclocals·TjPuuCwdlCpTaRQGRKTrYw==(SB)
	0x0019 00025 (/bigdata/qiuhan/codet5/usage/goroot/test/codegen/maps.go:44)	FUNCDATA	$1, gclocals·J5F+7Qw7O7ve2QcWC7DpeQ==(SB)
	0x0019 00025 (/bigdata/qiuhan/codet5/usage/goroot/test/codegen/maps.go:44)	FUNCDATA	$5, command-line-arguments.LookupStringConversionSimple.arginfo1(SB)
	0x0019 00025 (/bigdata/qiuhan/codet5/usage/goroot/test/codegen/maps.go:44)	FUNCDATA	$6, command-line-arguments.LookupStringConversionSimple.argliveinfo(SB)
	0x0019 00025 (/bigdata/qiuhan/codet5/usage/goroot/test/codegen/maps.go:44)	PCDATA	$3, $1
	0x0019 00025 (/bigdata/qiuhan/codet5/usage/goroot/test/codegen/maps.go:46)	MOVQ	CX, DI
	0x001c 00028 (/bigdata/qiuhan/codet5/usage/goroot/test/codegen/maps.go:46)	MOVQ	BX, CX
	0x001f 00031 (/bigdata/qiuhan/codet5/usage/goroot/test/codegen/maps.go:46)	MOVQ	AX, BX
	0x0022 00034 (/bigdata/qiuhan/codet5/usage/goroot/test/codegen/maps.go:46)	LEAQ	type:map[string]int(SB), AX
	0x0029 00041 (/bigdata/qiuhan/codet5/usage/goroot/test/codegen/maps.go:46)	PCDATA	$1, $1
	0x0029 00041 (/bigdata/qiuhan/codet5/usage/goroot/test/codegen/maps.go:46)	CALL	runtime.mapaccess1_faststr(SB)
	0x002e 00046 (/bigdata/qiuhan/codet5/usage/goroot/test/codegen/maps.go:46)	MOVQ	(AX), AX
	0x0031 00049 (/bigdata/qiuhan/codet5/usage/goroot/test/codegen/maps.go:46)	MOVQ	32(SP), BP
	0x0036 00054 (/bigdata/qiuhan/codet5/usage/goroot/test/codegen/maps.go:46)	ADDQ	$40, SP
	0x003a 00058 (/bigdata/qiuhan/codet5/usage/goroot/test/codegen/maps.go:46)	RET
	0x003b 00059 (/bigdata/qiuhan/codet5/usage/goroot/test/codegen/maps.go:46)	NOP
	0x003b 00059 (/bigdata/qiuhan/codet5/usage/goroot/test/codegen/maps.go:44)	PCDATA	$1, $-1
	0x003b 00059 (/bigdata/qiuhan/codet5/usage/goroot/test/codegen/maps.go:44)	PCDATA	$0, $-2
	0x003b 00059 (/bigdata/qiuhan/codet5/usage/goroot/test/codegen/maps.go:44)	MOVQ	AX, 8(SP)
	0x0040 00064 (/bigdata/qiuhan/codet5/usage/goroot/test/codegen/maps.go:44)	MOVQ	BX, 16(SP)
	0x0045 00069 (/bigdata/qiuhan/codet5/usage/goroot/test/codegen/maps.go:44)	MOVQ	CX, 24(SP)
	0x004a 00074 (/bigdata/qiuhan/codet5/usage/goroot/test/codegen/maps.go:44)	MOVQ	DI, 32(SP)
	0x004f 00079 (/bigdata/qiuhan/codet5/usage/goroot/test/codegen/maps.go:44)	CALL	runtime.morestack_noctxt(SB)
	0x0054 00084 (/bigdata/qiuhan/codet5/usage/goroot/test/codegen/maps.go:44)	MOVQ	8(SP), AX
	0x0059 00089 (/bigdata/qiuhan/codet5/usage/goroot/test/codegen/maps.go:44)	MOVQ	16(SP), BX
	0x005e 00094 (/bigdata/qiuhan/codet5/usage/goroot/test/codegen/maps.go:44)	MOVQ	24(SP), CX
	0x0063 00099 (/bigdata/qiuhan/codet5/usage/goroot/test/codegen/maps.go:44)	MOVQ	32(SP), DI
	0x0068 00104 (/bigdata/qiuhan/codet5/usage/goroot/test/codegen/maps.go:44)	PCDATA	$0, $-1
	0x0068 00104 (/bigdata/qiuhan/codet5/usage/goroot/test/codegen/maps.go:44)	JMP	0
	0x0000 49 3b 66 10 76 35 48 83 ec 28 48 89 6c 24 20 48  I;f.v5H..(H.l$ H
	0x0010 8d 6c 24 20 48 89 5c 24 38 48 89 cf 48 89 d9 48  .l$ H.\$8H..H..H
	0x0020 89 c3 48 8d 05 00 00 00 00 e8 00 00 00 00 48 8b  ..H...........H.
	0x0030 00 48 8b 6c 24 20 48 83 c4 28 c3 48 89 44 24 08  .H.l$ H..(.H.D$.
	0x0040 48 89 5c 24 10 48 89 4c 24 18 48 89 7c 24 20 e8  H.\$.H.L$.H.|$ .
	0x0050 00 00 00 00 48 8b 44 24 08 48 8b 5c 24 10 48 8b  ....H.D$.H.\$.H.
	0x0060 4c 24 18 48 8b 7c 24 20 eb 96                    L$.H.|$ ..
	rel 37+4 t=14 type:map[string]int<0>+0
	rel 42+4 t=7 runtime.mapaccess1_faststr<1>+0
	rel 80+4 t=7 runtime.morestack_noctxt<0>+0
command-line-arguments.LookupStringConversionStructLit<1> STEXT size=106 args=0x20 locals=0x28 funcid=0x0 align=0x0
	0x0000 00000 (/bigdata/qiuhan/codet5/usage/goroot/test/codegen/maps.go:49)	TEXT	command-line-arguments.LookupStringConversionStructLit(SB), ABIInternal, $40-32
	0x0000 00000 (/bigdata/qiuhan/codet5/usage/goroot/test/codegen/maps.go:49)	CMPQ	SP, 16(R14)
	0x0004 00004 (/bigdata/qiuhan/codet5/usage/goroot/test/codegen/maps.go:49)	PCDATA	$0, $-2
	0x0004 00004 (/bigdata/qiuhan/codet5/usage/goroot/test/codegen/maps.go:49)	JLS	59
	0x0006 00006 (/bigdata/qiuhan/codet5/usage/goroot/test/codegen/maps.go:49)	PCDATA	$0, $-1
	0x0006 00006 (/bigdata/qiuhan/codet5/usage/goroot/test/codegen/maps.go:49)	SUBQ	$40, SP
	0x000a 00010 (/bigdata/qiuhan/codet5/usage/goroot/test/codegen/maps.go:49)	MOVQ	BP, 32(SP)
	0x000f 00015 (/bigdata/qiuhan/codet5/usage/goroot/test/codegen/maps.go:49)	LEAQ	32(SP), BP
	0x0014 00020 (/bigdata/qiuhan/codet5/usage/goroot/test/codegen/maps.go:49)	MOVQ	BX, command-line-arguments.bytes+56(FP)
	0x0019 00025 (/bigdata/qiuhan/codet5/usage/goroot/test/codegen/maps.go:49)	FUNCDATA	$0, gclocals·TjPuuCwdlCpTaRQGRKTrYw==(SB)
	0x0019 00025 (/bigdata/qiuhan/codet5/usage/goroot/test/codegen/maps.go:49)	FUNCDATA	$1, gclocals·J5F+7Qw7O7ve2QcWC7DpeQ==(SB)
	0x0019 00025 (/bigdata/qiuhan/codet5/usage/goroot/test/codegen/maps.go:49)	FUNCDATA	$5, command-line-arguments.LookupStringConversionStructLit.arginfo1(SB)
	0x0019 00025 (/bigdata/qiuhan/codet5/usage/goroot/test/codegen/maps.go:49)	FUNCDATA	$6, command-line-arguments.LookupStringConversionStructLit.argliveinfo(SB)
	0x0019 00025 (/bigdata/qiuhan/codet5/usage/goroot/test/codegen/maps.go:49)	PCDATA	$3, $1
	0x0019 00025 (/bigdata/qiuhan/codet5/usage/goroot/test/codegen/maps.go:51)	MOVQ	CX, DI
	0x001c 00028 (/bigdata/qiuhan/codet5/usage/goroot/test/codegen/maps.go:51)	MOVQ	BX, CX
	0x001f 00031 (/bigdata/qiuhan/codet5/usage/goroot/test/codegen/maps.go:51)	MOVQ	AX, BX
	0x0022 00034 (/bigdata/qiuhan/codet5/usage/goroot/test/codegen/maps.go:51)	LEAQ	type:map[struct { command-line-arguments.string = string }]int(SB), AX
	0x0029 00041 (/bigdata/qiuhan/codet5/usage/goroot/test/codegen/maps.go:51)	PCDATA	$1, $1
	0x0029 00041 (/bigdata/qiuhan/codet5/usage/goroot/test/codegen/maps.go:51)	CALL	runtime.mapaccess1_faststr(SB)
	0x002e 00046 (/bigdata/qiuhan/codet5/usage/goroot/test/codegen/maps.go:51)	MOVQ	(AX), AX
	0x0031 00049 (/bigdata/qiuhan/codet5/usage/goroot/test/codegen/maps.go:51)	MOVQ	32(SP), BP
	0x0036 00054 (/bigdata/qiuhan/codet5/usage/goroot/test/codegen/maps.go:51)	ADDQ	$40, SP
	0x003a 00058 (/bigdata/qiuhan/codet5/usage/goroot/test/codegen/maps.go:51)	RET
	0x003b 00059 (/bigdata/qiuhan/codet5/usage/goroot/test/codegen/maps.go:51)	NOP
	0x003b 00059 (/bigdata/qiuhan/codet5/usage/goroot/test/codegen/maps.go:49)	PCDATA	$1, $-1
	0x003b 00059 (/bigdata/qiuhan/codet5/usage/goroot/test/codegen/maps.go:49)	PCDATA	$0, $-2
	0x003b 00059 (/bigdata/qiuhan/codet5/usage/goroot/test/codegen/maps.go:49)	MOVQ	AX, 8(SP)
	0x0040 00064 (/bigdata/qiuhan/codet5/usage/goroot/test/codegen/maps.go:49)	MOVQ	BX, 16(SP)
	0x0045 00069 (/bigdata/qiuhan/codet5/usage/goroot/test/codegen/maps.go:49)	MOVQ	CX, 24(SP)
	0x004a 00074 (/bigdata/qiuhan/codet5/usage/goroot/test/codegen/maps.go:49)	MOVQ	DI, 32(SP)
	0x004f 00079 (/bigdata/qiuhan/codet5/usage/goroot/test/codegen/maps.go:49)	CALL	runtime.morestack_noctxt(SB)
	0x0054 00084 (/bigdata/qiuhan/codet5/usage/goroot/test/codegen/maps.go:49)	MOVQ	8(SP), AX
	0x0059 00089 (/bigdata/qiuhan/codet5/usage/goroot/test/codegen/maps.go:49)	MOVQ	16(SP), BX
	0x005e 00094 (/bigdata/qiuhan/codet5/usage/goroot/test/codegen/maps.go:49)	MOVQ	24(SP), CX
	0x0063 00099 (/bigdata/qiuhan/codet5/usage/goroot/test/codegen/maps.go:49)	MOVQ	32(SP), DI
	0x0068 00104 (/bigdata/qiuhan/codet5/usage/goroot/test/codegen/maps.go:49)	PCDATA	$0, $-1
	0x0068 00104 (/bigdata/qiuhan/codet5/usage/goroot/test/codegen/maps.go:49)	JMP	0
	0x0000 49 3b 66 10 76 35 48 83 ec 28 48 89 6c 24 20 48  I;f.v5H..(H.l$ H
	0x0010 8d 6c 24 20 48 89 5c 24 38 48 89 cf 48 89 d9 48  .l$ H.\$8H..H..H
	0x0020 89 c3 48 8d 05 00 00 00 00 e8 00 00 00 00 48 8b  ..H...........H.
	0x0030 00 48 8b 6c 24 20 48 83 c4 28 c3 48 89 44 24 08  .H.l$ H..(.H.D$.
	0x0040 48 89 5c 24 10 48 89 4c 24 18 48 89 7c 24 20 e8  H.\$.H.L$.H.|$ .
	0x0050 00 00 00 00 48 8b 44 24 08 48 8b 5c 24 10 48 8b  ....H.D$.H.\$.H.
	0x0060 4c 24 18 48 8b 7c 24 20 eb 96                    L$.H.|$ ..
	rel 37+4 t=14 type:map[struct { command-line-arguments.string = string }]int<0>+0
	rel 42+4 t=7 runtime.mapaccess1_faststr<1>+0
	rel 80+4 t=7 runtime.morestack_noctxt<0>+0
command-line-arguments.LookupStringConversionArrayLit<1> STEXT size=140 args=0x20 locals=0x40 funcid=0x0 align=0x0
	0x0000 00000 (/bigdata/qiuhan/codet5/usage/goroot/test/codegen/maps.go:54)	TEXT	command-line-arguments.LookupStringConversionArrayLit(SB), ABIInternal, $64-32
	0x0000 00000 (/bigdata/qiuhan/codet5/usage/goroot/test/codegen/maps.go:54)	CMPQ	SP, 16(R14)
	0x0004 00004 (/bigdata/qiuhan/codet5/usage/goroot/test/codegen/maps.go:54)	PCDATA	$0, $-2
	0x0004 00004 (/bigdata/qiuhan/codet5/usage/goroot/test/codegen/maps.go:54)	JLS	90
	0x0006 00006 (/bigdata/qiuhan/codet5/usage/goroot/test/codegen/maps.go:54)	PCDATA	$0, $-1
	0x0006 00006 (/bigdata/qiuhan/codet5/usage/goroot/test/codegen/maps.go:54)	SUBQ	$64, SP
	0x000a 00010 (/bigdata/qiuhan/codet5/usage/goroot/test/codegen/maps.go:54)	MOVQ	BP, 56(SP)
	0x000f 00015 (/bigdata/qiuhan/codet5/usage/goroot/test/codegen/maps.go:54)	LEAQ	56(SP), BP
	0x0014 00020 (/bigdata/qiuhan/codet5/usage/goroot/test/codegen/maps.go:54)	MOVQ	BX, command-line-arguments.bytes+80(FP)
	0x0019 00025 (/bigdata/qiuhan/codet5/usage/goroot/test/codegen/maps.go:54)	FUNCDATA	$0, gclocals·TjPuuCwdlCpTaRQGRKTrYw==(SB)
	0x0019 00025 (/bigdata/qiuhan/codet5/usage/goroot/test/codegen/maps.go:54)	FUNCDATA	$1, gclocals·EXTrhv4b3ahawRWAszmcVw==(SB)
	0x0019 00025 (/bigdata/qiuhan/codet5/usage/goroot/test/codegen/maps.go:54)	FUNCDATA	$2, command-line-arguments.LookupStringConversionArrayLit.stkobj(SB)
	0x0019 00025 (/bigdata/qiuhan/codet5/usage/goroot/test/codegen/maps.go:54)	FUNCDATA	$5, command-line-arguments.LookupStringConversionArrayLit.arginfo1(SB)
	0x0019 00025 (/bigdata/qiuhan/codet5/usage/goroot/test/codegen/maps.go:54)	FUNCDATA	$6, command-line-arguments.LookupStringConversionArrayLit.argliveinfo(SB)
	0x0019 00025 (/bigdata/qiuhan/codet5/usage/goroot/test/codegen/maps.go:54)	PCDATA	$3, $1
	0x0019 00025 (/bigdata/qiuhan/codet5/usage/goroot/test/codegen/maps.go:56)	MOVUPS	X15, command-line-arguments..autotmp_3+24(SP)
	0x001f 00031 (/bigdata/qiuhan/codet5/usage/goroot/test/codegen/maps.go:56)	MOVUPS	X15, command-line-arguments..autotmp_3+40(SP)
	0x0025 00037 (/bigdata/qiuhan/codet5/usage/goroot/test/codegen/maps.go:56)	MOVQ	BX, command-line-arguments..autotmp_3+24(SP)
	0x002a 00042 (/bigdata/qiuhan/codet5/usage/goroot/test/codegen/maps.go:56)	MOVQ	CX, command-line-arguments..autotmp_3+32(SP)
	0x002f 00047 (/bigdata/qiuhan/codet5/usage/goroot/test/codegen/maps.go:56)	MOVQ	BX, command-line-arguments..autotmp_3+40(SP)
	0x0034 00052 (/bigdata/qiuhan/codet5/usage/goroot/test/codegen/maps.go:56)	MOVQ	CX, command-line-arguments..autotmp_3+48(SP)
	0x0039 00057 (/bigdata/qiuhan/codet5/usage/goroot/test/codegen/maps.go:56)	MOVQ	AX, BX
	0x003c 00060 (/bigdata/qiuhan/codet5/usage/goroot/test/codegen/maps.go:56)	LEAQ	command-line-arguments..autotmp_3+24(SP), CX
	0x0041 00065 (/bigdata/qiuhan/codet5/usage/goroot/test/codegen/maps.go:56)	LEAQ	type:map[[2]string]int(SB), AX
	0x0048 00072 (/bigdata/qiuhan/codet5/usage/goroot/test/codegen/maps.go:56)	PCDATA	$1, $1
	0x0048 00072 (/bigdata/qiuhan/codet5/usage/goroot/test/codegen/maps.go:56)	CALL	runtime.mapaccess1(SB)
	0x004d 00077 (/bigdata/qiuhan/codet5/usage/goroot/test/codegen/maps.go:56)	MOVQ	(AX), AX
	0x0050 00080 (/bigdata/qiuhan/codet5/usage/goroot/test/codegen/maps.go:56)	MOVQ	56(SP), BP
	0x0055 00085 (/bigdata/qiuhan/codet5/usage/goroot/test/codegen/maps.go:56)	ADDQ	$64, SP
	0x0059 00089 (/bigdata/qiuhan/codet5/usage/goroot/test/codegen/maps.go:56)	RET
	0x005a 00090 (/bigdata/qiuhan/codet5/usage/goroot/test/codegen/maps.go:56)	NOP
	0x005a 00090 (/bigdata/qiuhan/codet5/usage/goroot/test/codegen/maps.go:54)	PCDATA	$1, $-1
	0x005a 00090 (/bigdata/qiuhan/codet5/usage/goroot/test/codegen/maps.go:54)	PCDATA	$0, $-2
	0x005a 00090 (/bigdata/qiuhan/codet5/usage/goroot/test/codegen/maps.go:54)	MOVQ	AX, 8(SP)
	0x005f 00095 (/bigdata/qiuhan/codet5/usage/goroot/test/codegen/maps.go:54)	MOVQ	BX, 16(SP)
	0x0064 00100 (/bigdata/qiuhan/codet5/usage/goroot/test/codegen/maps.go:54)	MOVQ	CX, 24(SP)
	0x0069 00105 (/bigdata/qiuhan/codet5/usage/goroot/test/codegen/maps.go:54)	MOVQ	DI, 32(SP)
	0x006e 00110 (/bigdata/qiuhan/codet5/usage/goroot/test/codegen/maps.go:54)	CALL	runtime.morestack_noctxt(SB)
	0x0073 00115 (/bigdata/qiuhan/codet5/usage/goroot/test/codegen/maps.go:54)	MOVQ	8(SP), AX
	0x0078 00120 (/bigdata/qiuhan/codet5/usage/goroot/test/codegen/maps.go:54)	MOVQ	16(SP), BX
	0x007d 00125 (/bigdata/qiuhan/codet5/usage/goroot/test/codegen/maps.go:54)	MOVQ	24(SP), CX
	0x0082 00130 (/bigdata/qiuhan/codet5/usage/goroot/test/codegen/maps.go:54)	MOVQ	32(SP), DI
	0x0087 00135 (/bigdata/qiuhan/codet5/usage/goroot/test/codegen/maps.go:54)	PCDATA	$0, $-1
	0x0087 00135 (/bigdata/qiuhan/codet5/usage/goroot/test/codegen/maps.go:54)	JMP	0
	0x0000 49 3b 66 10 76 54 48 83 ec 40 48 89 6c 24 38 48  I;f.vTH..@H.l$8H
	0x0010 8d 6c 24 38 48 89 5c 24 50 44 0f 11 7c 24 18 44  .l$8H.\$PD..|$.D
	0x0020 0f 11 7c 24 28 48 89 5c 24 18 48 89 4c 24 20 48  ..|$(H.\$.H.L$ H
	0x0030 89 5c 24 28 48 89 4c 24 30 48 89 c3 48 8d 4c 24  .\$(H.L$0H..H.L$
	0x0040 18 48 8d 05 00 00 00 00 e8 00 00 00 00 48 8b 00  .H...........H..
	0x0050 48 8b 6c 24 38 48 83 c4 40 c3 48 89 44 24 08 48  H.l$8H..@.H.D$.H
	0x0060 89 5c 24 10 48 89 4c 24 18 48 89 7c 24 20 e8 00  .\$.H.L$.H.|$ ..
	0x0070 00 00 00 48 8b 44 24 08 48 8b 5c 24 10 48 8b 4c  ...H.D$.H.\$.H.L
	0x0080 24 18 48 8b 7c 24 20 e9 74 ff ff ff              $.H.|$ .t...
	rel 68+4 t=14 type:map[[2]string]int<0>+0
	rel 73+4 t=7 runtime.mapaccess1<1>+0
	rel 111+4 t=7 runtime.morestack_noctxt<0>+0
command-line-arguments.LookupStringConversionNestedLit<1> STEXT size=106 args=0x20 locals=0x28 funcid=0x0 align=0x0
	0x0000 00000 (/bigdata/qiuhan/codet5/usage/goroot/test/codegen/maps.go:59)	TEXT	command-line-arguments.LookupStringConversionNestedLit(SB), ABIInternal, $40-32
	0x0000 00000 (/bigdata/qiuhan/codet5/usage/goroot/test/codegen/maps.go:59)	CMPQ	SP, 16(R14)
	0x0004 00004 (/bigdata/qiuhan/codet5/usage/goroot/test/codegen/maps.go:59)	PCDATA	$0, $-2
	0x0004 00004 (/bigdata/qiuhan/codet5/usage/goroot/test/codegen/maps.go:59)	JLS	59
	0x0006 00006 (/bigdata/qiuhan/codet5/usage/goroot/test/codegen/maps.go:59)	PCDATA	$0, $-1
	0x0006 00006 (/bigdata/qiuhan/codet5/usage/goroot/test/codegen/maps.go:59)	SUBQ	$40, SP
	0x000a 00010 (/bigdata/qiuhan/codet5/usage/goroot/test/codegen/maps.go:59)	MOVQ	BP, 32(SP)
	0x000f 00015 (/bigdata/qiuhan/codet5/usage/goroot/test/codegen/maps.go:59)	LEAQ	32(SP), BP
	0x0014 00020 (/bigdata/qiuhan/codet5/usage/goroot/test/codegen/maps.go:59)	MOVQ	BX, command-line-arguments.bytes+56(FP)
	0x0019 00025 (/bigdata/qiuhan/codet5/usage/goroot/test/codegen/maps.go:59)	FUNCDATA	$0, gclocals·TjPuuCwdlCpTaRQGRKTrYw==(SB)
	0x0019 00025 (/bigdata/qiuhan/codet5/usage/goroot/test/codegen/maps.go:59)	FUNCDATA	$1, gclocals·J5F+7Qw7O7ve2QcWC7DpeQ==(SB)
	0x0019 00025 (/bigdata/qiuhan/codet5/usage/goroot/test/codegen/maps.go:59)	FUNCDATA	$5, command-line-arguments.LookupStringConversionNestedLit.arginfo1(SB)
	0x0019 00025 (/bigdata/qiuhan/codet5/usage/goroot/test/codegen/maps.go:59)	FUNCDATA	$6, command-line-arguments.LookupStringConversionNestedLit.argliveinfo(SB)
	0x0019 00025 (/bigdata/qiuhan/codet5/usage/goroot/test/codegen/maps.go:59)	PCDATA	$3, $1
	0x0019 00025 (/bigdata/qiuhan/codet5/usage/goroot/test/codegen/maps.go:61)	MOVQ	CX, DI
	0x001c 00028 (/bigdata/qiuhan/codet5/usage/goroot/test/codegen/maps.go:61)	MOVQ	BX, CX
	0x001f 00031 (/bigdata/qiuhan/codet5/usage/goroot/test/codegen/maps.go:61)	MOVQ	AX, BX
	0x0022 00034 (/bigdata/qiuhan/codet5/usage/goroot/test/codegen/maps.go:61)	LEAQ	type:map[[1]struct { command-line-arguments.s [1]string }]int(SB), AX
	0x0029 00041 (/bigdata/qiuhan/codet5/usage/goroot/test/codegen/maps.go:61)	PCDATA	$1, $1
	0x0029 00041 (/bigdata/qiuhan/codet5/usage/goroot/test/codegen/maps.go:61)	CALL	runtime.mapaccess1_faststr(SB)
	0x002e 00046 (/bigdata/qiuhan/codet5/usage/goroot/test/codegen/maps.go:61)	MOVQ	(AX), AX
	0x0031 00049 (/bigdata/qiuhan/codet5/usage/goroot/test/codegen/maps.go:61)	MOVQ	32(SP), BP
	0x0036 00054 (/bigdata/qiuhan/codet5/usage/goroot/test/codegen/maps.go:61)	ADDQ	$40, SP
	0x003a 00058 (/bigdata/qiuhan/codet5/usage/goroot/test/codegen/maps.go:61)	RET
	0x003b 00059 (/bigdata/qiuhan/codet5/usage/goroot/test/codegen/maps.go:61)	NOP
	0x003b 00059 (/bigdata/qiuhan/codet5/usage/goroot/test/codegen/maps.go:59)	PCDATA	$1, $-1
	0x003b 00059 (/bigdata/qiuhan/codet5/usage/goroot/test/codegen/maps.go:59)	PCDATA	$0, $-2
	0x003b 00059 (/bigdata/qiuhan/codet5/usage/goroot/test/codegen/maps.go:59)	MOVQ	AX, 8(SP)
	0x0040 00064 (/bigdata/qiuhan/codet5/usage/goroot/test/codegen/maps.go:59)	MOVQ	BX, 16(SP)
	0x0045 00069 (/bigdata/qiuhan/codet5/usage/goroot/test/codegen/maps.go:59)	MOVQ	CX, 24(SP)
	0x004a 00074 (/bigdata/qiuhan/codet5/usage/goroot/test/codegen/maps.go:59)	MOVQ	DI, 32(SP)
	0x004f 00079 (/bigdata/qiuhan/codet5/usage/goroot/test/codegen/maps.go:59)	CALL	runtime.morestack_noctxt(SB)
	0x0054 00084 (/bigdata/qiuhan/codet5/usage/goroot/test/codegen/maps.go:59)	MOVQ	8(SP), AX
	0x0059 00089 (/bigdata/qiuhan/codet5/usage/goroot/test/codegen/maps.go:59)	MOVQ	16(SP), BX
	0x005e 00094 (/bigdata/qiuhan/codet5/usage/goroot/test/codegen/maps.go:59)	MOVQ	24(SP), CX
	0x0063 00099 (/bigdata/qiuhan/codet5/usage/goroot/test/codegen/maps.go:59)	MOVQ	32(SP), DI
	0x0068 00104 (/bigdata/qiuhan/codet5/usage/goroot/test/codegen/maps.go:59)	PCDATA	$0, $-1
	0x0068 00104 (/bigdata/qiuhan/codet5/usage/goroot/test/codegen/maps.go:59)	JMP	0
	0x0000 49 3b 66 10 76 35 48 83 ec 28 48 89 6c 24 20 48  I;f.v5H..(H.l$ H
	0x0010 8d 6c 24 20 48 89 5c 24 38 48 89 cf 48 89 d9 48  .l$ H.\$8H..H..H
	0x0020 89 c3 48 8d 05 00 00 00 00 e8 00 00 00 00 48 8b  ..H...........H.
	0x0030 00 48 8b 6c 24 20 48 83 c4 28 c3 48 89 44 24 08  .H.l$ H..(.H.D$.
	0x0040 48 89 5c 24 10 48 89 4c 24 18 48 89 7c 24 20 e8  H.\$.H.L$.H.|$ .
	0x0050 00 00 00 00 48 8b 44 24 08 48 8b 5c 24 10 48 8b  ....H.D$.H.\$.H.
	0x0060 4c 24 18 48 8b 7c 24 20 eb 96                    L$.H.|$ ..
	rel 37+4 t=14 type:map[[1]struct { command-line-arguments.s [1]string }]int<0>+0
	rel 42+4 t=7 runtime.mapaccess1_faststr<1>+0
	rel 80+4 t=7 runtime.morestack_noctxt<0>+0
command-line-arguments.LookupStringConversionKeyedArrayLit<1> STEXT size=133 args=0x20 locals=0x40 funcid=0x0 align=0x0
	0x0000 00000 (/bigdata/qiuhan/codet5/usage/goroot/test/codegen/maps.go:64)	TEXT	command-line-arguments.LookupStringConversionKeyedArrayLit(SB), ABIInternal, $64-32
	0x0000 00000 (/bigdata/qiuhan/codet5/usage/goroot/test/codegen/maps.go:64)	CMPQ	SP, 16(R14)
	0x0004 00004 (/bigdata/qiuhan/codet5/usage/goroot/test/codegen/maps.go:64)	PCDATA	$0, $-2
	0x0004 00004 (/bigdata/qiuhan/codet5/usage/goroot/test/codegen/maps.go:64)	JLS	82
	0x0006 00006 (/bigdata/qiuhan/codet5/usage/goroot/test/codegen/maps.go:64)	PCDATA	$0, $-1
	0x0006 00006 (/bigdata/qiuhan/codet5/usage/goroot/test/codegen/maps.go:64)	SUBQ	$64, SP
	0x000a 00010 (/bigdata/qiuhan/codet5/usage/goroot/test/codegen/maps.go:64)	MOVQ	BP, 56(SP)
	0x000f 00015 (/bigdata/qiuhan/codet5/usage/goroot/test/codegen/maps.go:64)	LEAQ	56(SP), BP
	0x0014 00020 (/bigdata/qiuhan/codet5/usage/goroot/test/codegen/maps.go:64)	MOVQ	BX, command-line-arguments.bytes+80(FP)
	0x0019 00025 (/bigdata/qiuhan/codet5/usage/goroot/test/codegen/maps.go:64)	FUNCDATA	$0, gclocals·TjPuuCwdlCpTaRQGRKTrYw==(SB)
	0x0019 00025 (/bigdata/qiuhan/codet5/usage/goroot/test/codegen/maps.go:64)	FUNCDATA	$1, gclocals·EXTrhv4b3ahawRWAszmcVw==(SB)
	0x0019 00025 (/bigdata/qiuhan/codet5/usage/goroot/test/codegen/maps.go:64)	FUNCDATA	$2, command-line-arguments.LookupStringConversionKeyedArrayLit.stkobj(SB)
	0x0019 00025 (/bigdata/qiuhan/codet5/usage/goroot/test/codegen/maps.go:64)	FUNCDATA	$5, command-line-arguments.LookupStringConversionKeyedArrayLit.arginfo1(SB)
	0x0019 00025 (/bigdata/qiuhan/codet5/usage/goroot/test/codegen/maps.go:64)	FUNCDATA	$6, command-line-arguments.LookupStringConversionKeyedArrayLit.argliveinfo(SB)
	0x0019 00025 (/bigdata/qiuhan/codet5/usage/goroot/test/codegen/maps.go:64)	PCDATA	$3, $1
	0x0019 00025 (/bigdata/qiuhan/codet5/usage/goroot/test/codegen/maps.go:66)	MOVUPS	X15, command-line-arguments..autotmp_3+24(SP)
	0x001f 00031 (/bigdata/qiuhan/codet5/usage/goroot/test/codegen/maps.go:66)	MOVUPS	X15, command-line-arguments..autotmp_3+40(SP)
	0x0025 00037 (/bigdata/qiuhan/codet5/usage/goroot/test/codegen/maps.go:66)	MOVQ	BX, command-line-arguments..autotmp_3+24(SP)
	0x002a 00042 (/bigdata/qiuhan/codet5/usage/goroot/test/codegen/maps.go:66)	MOVQ	CX, command-line-arguments..autotmp_3+32(SP)
	0x002f 00047 (/bigdata/qiuhan/codet5/usage/goroot/test/codegen/maps.go:66)	MOVQ	AX, BX
	0x0032 00050 (/bigdata/qiuhan/codet5/usage/goroot/test/codegen/maps.go:66)	LEAQ	command-line-arguments..autotmp_3+24(SP), CX
	0x0037 00055 (/bigdata/qiuhan/codet5/usage/goroot/test/codegen/maps.go:66)	LEAQ	type:map[[2]string]int(SB), AX
	0x003e 00062 (/bigdata/qiuhan/codet5/usage/goroot/test/codegen/maps.go:66)	PCDATA	$1, $1
	0x003e 00062 (/bigdata/qiuhan/codet5/usage/goroot/test/codegen/maps.go:66)	NOP
	0x0040 00064 (/bigdata/qiuhan/codet5/usage/goroot/test/codegen/maps.go:66)	CALL	runtime.mapaccess1(SB)
	0x0045 00069 (/bigdata/qiuhan/codet5/usage/goroot/test/codegen/maps.go:66)	MOVQ	(AX), AX
	0x0048 00072 (/bigdata/qiuhan/codet5/usage/goroot/test/codegen/maps.go:66)	MOVQ	56(SP), BP
	0x004d 00077 (/bigdata/qiuhan/codet5/usage/goroot/test/codegen/maps.go:66)	ADDQ	$64, SP
	0x0051 00081 (/bigdata/qiuhan/codet5/usage/goroot/test/codegen/maps.go:66)	RET
	0x0052 00082 (/bigdata/qiuhan/codet5/usage/goroot/test/codegen/maps.go:66)	NOP
	0x0052 00082 (/bigdata/qiuhan/codet5/usage/goroot/test/codegen/maps.go:64)	PCDATA	$1, $-1
	0x0052 00082 (/bigdata/qiuhan/codet5/usage/goroot/test/codegen/maps.go:64)	PCDATA	$0, $-2
	0x0052 00082 (/bigdata/qiuhan/codet5/usage/goroot/test/codegen/maps.go:64)	MOVQ	AX, 8(SP)
	0x0057 00087 (/bigdata/qiuhan/codet5/usage/goroot/test/codegen/maps.go:64)	MOVQ	BX, 16(SP)
	0x005c 00092 (/bigdata/qiuhan/codet5/usage/goroot/test/codegen/maps.go:64)	MOVQ	CX, 24(SP)
	0x0061 00097 (/bigdata/qiuhan/codet5/usage/goroot/test/codegen/maps.go:64)	MOVQ	DI, 32(SP)
	0x0066 00102 (/bigdata/qiuhan/codet5/usage/goroot/test/codegen/maps.go:64)	CALL	runtime.morestack_noctxt(SB)
	0x006b 00107 (/bigdata/qiuhan/codet5/usage/goroot/test/codegen/maps.go:64)	MOVQ	8(SP), AX
	0x0070 00112 (/bigdata/qiuhan/codet5/usage/goroot/test/codegen/maps.go:64)	MOVQ	16(SP), BX
	0x0075 00117 (/bigdata/qiuhan/codet5/usage/goroot/test/codegen/maps.go:64)	MOVQ	24(SP), CX
	0x007a 00122 (/bigdata/qiuhan/codet5/usage/goroot/test/codegen/maps.go:64)	MOVQ	32(SP), DI
	0x007f 00127 (/bigdata/qiuhan/codet5/usage/goroot/test/codegen/maps.go:64)	PCDATA	$0, $-1
	0x007f 00127 (/bigdata/qiuhan/codet5/usage/goroot/test/codegen/maps.go:64)	NOP
	0x0080 00128 (/bigdata/qiuhan/codet5/usage/goroot/test/codegen/maps.go:64)	JMP	0
	0x0000 49 3b 66 10 76 4c 48 83 ec 40 48 89 6c 24 38 48  I;f.vLH..@H.l$8H
	0x0010 8d 6c 24 38 48 89 5c 24 50 44 0f 11 7c 24 18 44  .l$8H.\$PD..|$.D
	0x0020 0f 11 7c 24 28 48 89 5c 24 18 48 89 4c 24 20 48  ..|$(H.\$.H.L$ H
	0x0030 89 c3 48 8d 4c 24 18 48 8d 05 00 00 00 00 66 90  ..H.L$.H......f.
	0x0040 e8 00 00 00 00 48 8b 00 48 8b 6c 24 38 48 83 c4  .....H..H.l$8H..
	0x0050 40 c3 48 89 44 24 08 48 89 5c 24 10 48 89 4c 24  @.H.D$.H.\$.H.L$
	0x0060 18 48 89 7c 24 20 e8 00 00 00 00 48 8b 44 24 08  .H.|$ .....H.D$.
	0x0070 48 8b 5c 24 10 48 8b 4c 24 18 48 8b 7c 24 20 90  H.\$.H.L$.H.|$ .
	0x0080 e9 7b ff ff ff                                   .{...
	rel 58+4 t=14 type:map[[2]string]int<0>+0
	rel 65+4 t=7 runtime.mapaccess1<1>+0
	rel 103+4 t=7 runtime.morestack_noctxt<0>+0
command-line-arguments.MapClearReflexive<1> STEXT size=66 args=0x8 locals=0x18 funcid=0x0 align=0x0
	0x0000 00000 (/bigdata/qiuhan/codet5/usage/goroot/test/codegen/maps.go:75)	TEXT	command-line-arguments.MapClearReflexive(SB), ABIInternal, $24-8
	0x0000 00000 (/bigdata/qiuhan/codet5/usage/goroot/test/codegen/maps.go:75)	CMPQ	SP, 16(R14)
	0x0004 00004 (/bigdata/qiuhan/codet5/usage/goroot/test/codegen/maps.go:75)	PCDATA	$0, $-2
	0x0004 00004 (/bigdata/qiuhan/codet5/usage/goroot/test/codegen/maps.go:75)	JLS	47
	0x0006 00006 (/bigdata/qiuhan/codet5/usage/goroot/test/codegen/maps.go:75)	PCDATA	$0, $-1
	0x0006 00006 (/bigdata/qiuhan/codet5/usage/goroot/test/codegen/maps.go:75)	SUBQ	$24, SP
	0x000a 00010 (/bigdata/qiuhan/codet5/usage/goroot/test/codegen/maps.go:75)	MOVQ	BP, 16(SP)
	0x000f 00015 (/bigdata/qiuhan/codet5/usage/goroot/test/codegen/maps.go:75)	LEAQ	16(SP), BP
	0x0014 00020 (/bigdata/qiuhan/codet5/usage/goroot/test/codegen/maps.go:75)	FUNCDATA	$0, gclocals·wgcWObbY2HYnK2SU/U22lA==(SB)
	0x0014 00020 (/bigdata/qiuhan/codet5/usage/goroot/test/codegen/maps.go:75)	FUNCDATA	$1, gclocals·J5F+7Qw7O7ve2QcWC7DpeQ==(SB)
	0x0014 00020 (/bigdata/qiuhan/codet5/usage/goroot/test/codegen/maps.go:75)	FUNCDATA	$5, command-line-arguments.MapClearReflexive.arginfo1(SB)
	0x0014 00020 (/bigdata/qiuhan/codet5/usage/goroot/test/codegen/maps.go:75)	FUNCDATA	$6, command-line-arguments.MapClearReflexive.argliveinfo(SB)
	0x0014 00020 (/bigdata/qiuhan/codet5/usage/goroot/test/codegen/maps.go:75)	PCDATA	$3, $1
	0x0014 00020 (/bigdata/qiuhan/codet5/usage/goroot/test/codegen/maps.go:78)	MOVQ	AX, BX
	0x0017 00023 (/bigdata/qiuhan/codet5/usage/goroot/test/codegen/maps.go:78)	LEAQ	type:map[int]int(SB), AX
	0x001e 00030 (/bigdata/qiuhan/codet5/usage/goroot/test/codegen/maps.go:78)	PCDATA	$1, $1
	0x001e 00030 (/bigdata/qiuhan/codet5/usage/goroot/test/codegen/maps.go:78)	NOP
	0x0020 00032 (/bigdata/qiuhan/codet5/usage/goroot/test/codegen/maps.go:78)	CALL	runtime.mapclear(SB)
	0x0025 00037 (/bigdata/qiuhan/codet5/usage/goroot/test/codegen/maps.go:81)	MOVQ	16(SP), BP
	0x002a 00042 (/bigdata/qiuhan/codet5/usage/goroot/test/codegen/maps.go:81)	ADDQ	$24, SP
	0x002e 00046 (/bigdata/qiuhan/codet5/usage/goroot/test/codegen/maps.go:81)	RET
	0x002f 00047 (/bigdata/qiuhan/codet5/usage/goroot/test/codegen/maps.go:81)	NOP
	0x002f 00047 (/bigdata/qiuhan/codet5/usage/goroot/test/codegen/maps.go:75)	PCDATA	$1, $-1
	0x002f 00047 (/bigdata/qiuhan/codet5/usage/goroot/test/codegen/maps.go:75)	PCDATA	$0, $-2
	0x002f 00047 (/bigdata/qiuhan/codet5/usage/goroot/test/codegen/maps.go:75)	MOVQ	AX, 8(SP)
	0x0034 00052 (/bigdata/qiuhan/codet5/usage/goroot/test/codegen/maps.go:75)	CALL	runtime.morestack_noctxt(SB)
	0x0039 00057 (/bigdata/qiuhan/codet5/usage/goroot/test/codegen/maps.go:75)	MOVQ	8(SP), AX
	0x003e 00062 (/bigdata/qiuhan/codet5/usage/goroot/test/codegen/maps.go:75)	PCDATA	$0, $-1
	0x003e 00062 (/bigdata/qiuhan/codet5/usage/goroot/test/codegen/maps.go:75)	NOP
	0x0040 00064 (/bigdata/qiuhan/codet5/usage/goroot/test/codegen/maps.go:75)	JMP	0
	0x0000 49 3b 66 10 76 29 48 83 ec 18 48 89 6c 24 10 48  I;f.v)H...H.l$.H
	0x0010 8d 6c 24 10 48 89 c3 48 8d 05 00 00 00 00 66 90  .l$.H..H......f.
	0x0020 e8 00 00 00 00 48 8b 6c 24 10 48 83 c4 18 c3 48  .....H.l$.H....H
	0x0030 89 44 24 08 e8 00 00 00 00 48 8b 44 24 08 66 90  .D$......H.D$.f.
	0x0040 eb be                                            ..
	rel 26+4 t=14 type:map[int]int<0>+0
	rel 33+4 t=7 runtime.mapclear<1>+0
	rel 53+4 t=7 runtime.morestack_noctxt<0>+0
command-line-arguments.MapClearIndirect<1> STEXT size=66 args=0x8 locals=0x18 funcid=0x0 align=0x0
	0x0000 00000 (/bigdata/qiuhan/codet5/usage/goroot/test/codegen/maps.go:83)	TEXT	command-line-arguments.MapClearIndirect(SB), ABIInternal, $24-8
	0x0000 00000 (/bigdata/qiuhan/codet5/usage/goroot/test/codegen/maps.go:83)	CMPQ	SP, 16(R14)
	0x0004 00004 (/bigdata/qiuhan/codet5/usage/goroot/test/codegen/maps.go:83)	PCDATA	$0, $-2
	0x0004 00004 (/bigdata/qiuhan/codet5/usage/goroot/test/codegen/maps.go:83)	JLS	47
	0x0006 00006 (/bigdata/qiuhan/codet5/usage/goroot/test/codegen/maps.go:83)	PCDATA	$0, $-1
	0x0006 00006 (/bigdata/qiuhan/codet5/usage/goroot/test/codegen/maps.go:83)	SUBQ	$24, SP
	0x000a 00010 (/bigdata/qiuhan/codet5/usage/goroot/test/codegen/maps.go:83)	MOVQ	BP, 16(SP)
	0x000f 00015 (/bigdata/qiuhan/codet5/usage/goroot/test/codegen/maps.go:83)	LEAQ	16(SP), BP
	0x0014 00020 (/bigdata/qiuhan/codet5/usage/goroot/test/codegen/maps.go:83)	FUNCDATA	$0, gclocals·wgcWObbY2HYnK2SU/U22lA==(SB)
	0x0014 00020 (/bigdata/qiuhan/codet5/usage/goroot/test/codegen/maps.go:83)	FUNCDATA	$1, gclocals·J5F+7Qw7O7ve2QcWC7DpeQ==(SB)
	0x0014 00020 (/bigdata/qiuhan/codet5/usage/goroot/test/codegen/maps.go:83)	FUNCDATA	$5, command-line-arguments.MapClearIndirect.arginfo1(SB)
	0x0014 00020 (/bigdata/qiuhan/codet5/usage/goroot/test/codegen/maps.go:83)	FUNCDATA	$6, command-line-arguments.MapClearIndirect.argliveinfo(SB)
	0x0014 00020 (/bigdata/qiuhan/codet5/usage/goroot/test/codegen/maps.go:83)	PCDATA	$3, $1
	0x0014 00020 (/bigdata/qiuhan/codet5/usage/goroot/test/codegen/maps.go:87)	MOVQ	AX, BX
	0x0017 00023 (/bigdata/qiuhan/codet5/usage/goroot/test/codegen/maps.go:87)	LEAQ	type:map[int]int(SB), AX
	0x001e 00030 (/bigdata/qiuhan/codet5/usage/goroot/test/codegen/maps.go:87)	PCDATA	$1, $1
	0x001e 00030 (/bigdata/qiuhan/codet5/usage/goroot/test/codegen/maps.go:87)	NOP
	0x0020 00032 (/bigdata/qiuhan/codet5/usage/goroot/test/codegen/maps.go:87)	CALL	runtime.mapclear(SB)
	0x0025 00037 (/bigdata/qiuhan/codet5/usage/goroot/test/codegen/maps.go:90)	MOVQ	16(SP), BP
	0x002a 00042 (/bigdata/qiuhan/codet5/usage/goroot/test/codegen/maps.go:90)	ADDQ	$24, SP
	0x002e 00046 (/bigdata/qiuhan/codet5/usage/goroot/test/codegen/maps.go:90)	RET
	0x002f 00047 (/bigdata/qiuhan/codet5/usage/goroot/test/codegen/maps.go:90)	NOP
	0x002f 00047 (/bigdata/qiuhan/codet5/usage/goroot/test/codegen/maps.go:83)	PCDATA	$1, $-1
	0x002f 00047 (/bigdata/qiuhan/codet5/usage/goroot/test/codegen/maps.go:83)	PCDATA	$0, $-2
	0x002f 00047 (/bigdata/qiuhan/codet5/usage/goroot/test/codegen/maps.go:83)	MOVQ	AX, 8(SP)
	0x0034 00052 (/bigdata/qiuhan/codet5/usage/goroot/test/codegen/maps.go:83)	CALL	runtime.morestack_noctxt(SB)
	0x0039 00057 (/bigdata/qiuhan/codet5/usage/goroot/test/codegen/maps.go:83)	MOVQ	8(SP), AX
	0x003e 00062 (/bigdata/qiuhan/codet5/usage/goroot/test/codegen/maps.go:83)	PCDATA	$0, $-1
	0x003e 00062 (/bigdata/qiuhan/codet5/usage/goroot/test/codegen/maps.go:83)	NOP
	0x0040 00064 (/bigdata/qiuhan/codet5/usage/goroot/test/codegen/maps.go:83)	JMP	0
	0x0000 49 3b 66 10 76 29 48 83 ec 18 48 89 6c 24 10 48  I;f.v)H...H.l$.H
	0x0010 8d 6c 24 10 48 89 c3 48 8d 05 00 00 00 00 66 90  .l$.H..H......f.
	0x0020 e8 00 00 00 00 48 8b 6c 24 10 48 83 c4 18 c3 48  .....H.l$.H....H
	0x0030 89 44 24 08 e8 00 00 00 00 48 8b 44 24 08 66 90  .D$......H.D$.f.
	0x0040 eb be                                            ..
	rel 26+4 t=14 type:map[int]int<0>+0
	rel 33+4 t=7 runtime.mapclear<1>+0
	rel 53+4 t=7 runtime.morestack_noctxt<0>+0
command-line-arguments.MapClearPointer<1> STEXT size=66 args=0x8 locals=0x18 funcid=0x0 align=0x0
	0x0000 00000 (/bigdata/qiuhan/codet5/usage/goroot/test/codegen/maps.go:92)	TEXT	command-line-arguments.MapClearPointer(SB), ABIInternal, $24-8
	0x0000 00000 (/bigdata/qiuhan/codet5/usage/goroot/test/codegen/maps.go:92)	CMPQ	SP, 16(R14)
	0x0004 00004 (/bigdata/qiuhan/codet5/usage/goroot/test/codegen/maps.go:92)	PCDATA	$0, $-2
	0x0004 00004 (/bigdata/qiuhan/codet5/usage/goroot/test/codegen/maps.go:92)	JLS	47
	0x0006 00006 (/bigdata/qiuhan/codet5/usage/goroot/test/codegen/maps.go:92)	PCDATA	$0, $-1
	0x0006 00006 (/bigdata/qiuhan/codet5/usage/goroot/test/codegen/maps.go:92)	SUBQ	$24, SP
	0x000a 00010 (/bigdata/qiuhan/codet5/usage/goroot/test/codegen/maps.go:92)	MOVQ	BP, 16(SP)
	0x000f 00015 (/bigdata/qiuhan/codet5/usage/goroot/test/codegen/maps.go:92)	LEAQ	16(SP), BP
	0x0014 00020 (/bigdata/qiuhan/codet5/usage/goroot/test/codegen/maps.go:92)	FUNCDATA	$0, gclocals·wgcWObbY2HYnK2SU/U22lA==(SB)
	0x0014 00020 (/bigdata/qiuhan/codet5/usage/goroot/test/codegen/maps.go:92)	FUNCDATA	$1, gclocals·J5F+7Qw7O7ve2QcWC7DpeQ==(SB)
	0x0014 00020 (/bigdata/qiuhan/codet5/usage/goroot/test/codegen/maps.go:92)	FUNCDATA	$5, command-line-arguments.MapClearPointer.arginfo1(SB)
	0x0014 00020 (/bigdata/qiuhan/codet5/usage/goroot/test/codegen/maps.go:92)	FUNCDATA	$6, command-line-arguments.MapClearPointer.argliveinfo(SB)
	0x0014 00020 (/bigdata/qiuhan/codet5/usage/goroot/test/codegen/maps.go:92)	PCDATA	$3, $1
	0x0014 00020 (/bigdata/qiuhan/codet5/usage/goroot/test/codegen/maps.go:95)	MOVQ	AX, BX
	0x0017 00023 (/bigdata/qiuhan/codet5/usage/goroot/test/codegen/maps.go:95)	LEAQ	type:map[*uint8]int(SB), AX
	0x001e 00030 (/bigdata/qiuhan/codet5/usage/goroot/test/codegen/maps.go:95)	PCDATA	$1, $1
	0x001e 00030 (/bigdata/qiuhan/codet5/usage/goroot/test/codegen/maps.go:95)	NOP
	0x0020 00032 (/bigdata/qiuhan/codet5/usage/goroot/test/codegen/maps.go:95)	CALL	runtime.mapclear(SB)
	0x0025 00037 (/bigdata/qiuhan/codet5/usage/goroot/test/codegen/maps.go:98)	MOVQ	16(SP), BP
	0x002a 00042 (/bigdata/qiuhan/codet5/usage/goroot/test/codegen/maps.go:98)	ADDQ	$24, SP
	0x002e 00046 (/bigdata/qiuhan/codet5/usage/goroot/test/codegen/maps.go:98)	RET
	0x002f 00047 (/bigdata/qiuhan/codet5/usage/goroot/test/codegen/maps.go:98)	NOP
	0x002f 00047 (/bigdata/qiuhan/codet5/usage/goroot/test/codegen/maps.go:92)	PCDATA	$1, $-1
	0x002f 00047 (/bigdata/qiuhan/codet5/usage/goroot/test/codegen/maps.go:92)	PCDATA	$0, $-2
	0x002f 00047 (/bigdata/qiuhan/codet5/usage/goroot/test/codegen/maps.go:92)	MOVQ	AX, 8(SP)
	0x0034 00052 (/bigdata/qiuhan/codet5/usage/goroot/test/codegen/maps.go:92)	CALL	runtime.morestack_noctxt(SB)
	0x0039 00057 (/bigdata/qiuhan/codet5/usage/goroot/test/codegen/maps.go:92)	MOVQ	8(SP), AX
	0x003e 00062 (/bigdata/qiuhan/codet5/usage/goroot/test/codegen/maps.go:92)	PCDATA	$0, $-1
	0x003e 00062 (/bigdata/qiuhan/codet5/usage/goroot/test/codegen/maps.go:92)	NOP
	0x0040 00064 (/bigdata/qiuhan/codet5/usage/goroot/test/codegen/maps.go:92)	JMP	0
	0x0000 49 3b 66 10 76 29 48 83 ec 18 48 89 6c 24 10 48  I;f.v)H...H.l$.H
	0x0010 8d 6c 24 10 48 89 c3 48 8d 05 00 00 00 00 66 90  .l$.H..H......f.
	0x0020 e8 00 00 00 00 48 8b 6c 24 10 48 83 c4 18 c3 48  .....H.l$.H....H
	0x0030 89 44 24 08 e8 00 00 00 00 48 8b 44 24 08 66 90  .D$......H.D$.f.
	0x0040 eb be                                            ..
	rel 26+4 t=14 type:map[*uint8]int<0>+0
	rel 33+4 t=7 runtime.mapclear<1>+0
	rel 53+4 t=7 runtime.morestack_noctxt<0>+0
command-line-arguments.MapClearNotReflexive<1> STEXT size=197 args=0x8 locals=0x90 funcid=0x0 align=0x0
	0x0000 00000 (/bigdata/qiuhan/codet5/usage/goroot/test/codegen/maps.go:100)	TEXT	command-line-arguments.MapClearNotReflexive(SB), ABIInternal, $144-8
	0x0000 00000 (/bigdata/qiuhan/codet5/usage/goroot/test/codegen/maps.go:100)	LEAQ	-16(SP), R12
	0x0005 00005 (/bigdata/qiuhan/codet5/usage/goroot/test/codegen/maps.go:100)	CMPQ	R12, 16(R14)
	0x0009 00009 (/bigdata/qiuhan/codet5/usage/goroot/test/codegen/maps.go:100)	PCDATA	$0, $-2
	0x0009 00009 (/bigdata/qiuhan/codet5/usage/goroot/test/codegen/maps.go:100)	JLS	173
	0x000f 00015 (/bigdata/qiuhan/codet5/usage/goroot/test/codegen/maps.go:100)	PCDATA	$0, $-1
	0x000f 00015 (/bigdata/qiuhan/codet5/usage/goroot/test/codegen/maps.go:100)	SUBQ	$144, SP
	0x0016 00022 (/bigdata/qiuhan/codet5/usage/goroot/test/codegen/maps.go:100)	MOVQ	BP, 136(SP)
	0x001e 00030 (/bigdata/qiuhan/codet5/usage/goroot/test/codegen/maps.go:100)	LEAQ	136(SP), BP
	0x0026 00038 (/bigdata/qiuhan/codet5/usage/goroot/test/codegen/maps.go:100)	FUNCDATA	$0, gclocals·ZzMiPAiVBg7DJ6dh/CjSag==(SB)
	0x0026 00038 (/bigdata/qiuhan/codet5/usage/goroot/test/codegen/maps.go:100)	FUNCDATA	$1, gclocals·83lDYLU2FBjEJR90n9PzOQ==(SB)
	0x0026 00038 (/bigdata/qiuhan/codet5/usage/goroot/test/codegen/maps.go:100)	FUNCDATA	$2, command-line-arguments.MapClearNotReflexive.stkobj(SB)
	0x0026 00038 (/bigdata/qiuhan/codet5/usage/goroot/test/codegen/maps.go:100)	FUNCDATA	$5, command-line-arguments.MapClearNotReflexive.arginfo1(SB)
	0x0026 00038 (/bigdata/qiuhan/codet5/usage/goroot/test/codegen/maps.go:100)	FUNCDATA	$6, command-line-arguments.MapClearNotReflexive.argliveinfo(SB)
	0x0026 00038 (/bigdata/qiuhan/codet5/usage/goroot/test/codegen/maps.go:100)	PCDATA	$3, $1
	0x0026 00038 (/bigdata/qiuhan/codet5/usage/goroot/test/codegen/maps.go:100)	MOVQ	AX, command-line-arguments..autotmp_4+32(SP)
	0x002b 00043 (/bigdata/qiuhan/codet5/usage/goroot/test/codegen/maps.go:103)	LEAQ	command-line-arguments..autotmp_3+40(SP), DI
	0x0030 00048 (/bigdata/qiuhan/codet5/usage/goroot/test/codegen/maps.go:103)	PCDATA	$0, $-2
	0x0030 00048 (/bigdata/qiuhan/codet5/usage/goroot/test/codegen/maps.go:103)	LEAQ	-32(DI), DI
	0x0034 00052 (/bigdata/qiuhan/codet5/usage/goroot/test/codegen/maps.go:103)	NOP
	0x0040 00064 (/bigdata/qiuhan/codet5/usage/goroot/test/codegen/maps.go:103)	DUFFZERO	$331
	0x0053 00083 (/bigdata/qiuhan/codet5/usage/goroot/test/codegen/maps.go:103)	PCDATA	$0, $-1
	0x0053 00083 (/bigdata/qiuhan/codet5/usage/goroot/test/codegen/maps.go:103)	MOVQ	AX, BX
	0x0056 00086 (/bigdata/qiuhan/codet5/usage/goroot/test/codegen/maps.go:103)	LEAQ	command-line-arguments..autotmp_3+40(SP), CX
	0x005b 00091 (/bigdata/qiuhan/codet5/usage/goroot/test/codegen/maps.go:103)	LEAQ	type:map[float64]int(SB), AX
	0x0062 00098 (/bigdata/qiuhan/codet5/usage/goroot/test/codegen/maps.go:103)	PCDATA	$1, $1
	0x0062 00098 (/bigdata/qiuhan/codet5/usage/goroot/test/codegen/maps.go:103)	CALL	runtime.mapiterinit(SB)
	0x0067 00103 (/bigdata/qiuhan/codet5/usage/goroot/test/codegen/maps.go:103)	JMP	147
	0x0069 00105 (/bigdata/qiuhan/codet5/usage/goroot/test/codegen/maps.go:103)	MOVSD	(DX), X0
	0x006d 00109 (/bigdata/qiuhan/codet5/usage/goroot/test/codegen/maps.go:103)	MOVSD	X0, command-line-arguments.k+24(SP)
	0x0073 00115 (/bigdata/qiuhan/codet5/usage/goroot/test/codegen/maps.go:104)	LEAQ	type:map[float64]int(SB), AX
	0x007a 00122 (/bigdata/qiuhan/codet5/usage/goroot/test/codegen/maps.go:104)	MOVQ	command-line-arguments..autotmp_4+32(SP), BX
	0x007f 00127 (/bigdata/qiuhan/codet5/usage/goroot/test/codegen/maps.go:104)	LEAQ	command-line-arguments.k+24(SP), CX
	0x0084 00132 (/bigdata/qiuhan/codet5/usage/goroot/test/codegen/maps.go:104)	CALL	runtime.mapdelete(SB)
	0x0089 00137 (/bigdata/qiuhan/codet5/usage/goroot/test/codegen/maps.go:103)	LEAQ	command-line-arguments..autotmp_3+40(SP), AX
	0x008e 00142 (/bigdata/qiuhan/codet5/usage/goroot/test/codegen/maps.go:103)	CALL	runtime.mapiternext(SB)
	0x0093 00147 (/bigdata/qiuhan/codet5/usage/goroot/test/codegen/maps.go:103)	MOVQ	command-line-arguments..autotmp_3+40(SP), DX
	0x0098 00152 (/bigdata/qiuhan/codet5/usage/goroot/test/codegen/maps.go:103)	TESTQ	DX, DX
	0x009b 00155 (/bigdata/qiuhan/codet5/usage/goroot/test/codegen/maps.go:103)	JNE	105
	0x009d 00157 (/bigdata/qiuhan/codet5/usage/goroot/test/codegen/maps.go:106)	PCDATA	$1, $-1
	0x009d 00157 (/bigdata/qiuhan/codet5/usage/goroot/test/codegen/maps.go:106)	MOVQ	136(SP), BP
	0x00a5 00165 (/bigdata/qiuhan/codet5/usage/goroot/test/codegen/maps.go:106)	ADDQ	$144, SP
	0x00ac 00172 (/bigdata/qiuhan/codet5/usage/goroot/test/codegen/maps.go:106)	RET
	0x00ad 00173 (/bigdata/qiuhan/codet5/usage/goroot/test/codegen/maps.go:106)	NOP
	0x00ad 00173 (/bigdata/qiuhan/codet5/usage/goroot/test/codegen/maps.go:100)	PCDATA	$1, $-1
	0x00ad 00173 (/bigdata/qiuhan/codet5/usage/goroot/test/codegen/maps.go:100)	PCDATA	$0, $-2
	0x00ad 00173 (/bigdata/qiuhan/codet5/usage/goroot/test/codegen/maps.go:100)	MOVQ	AX, 8(SP)
	0x00b2 00178 (/bigdata/qiuhan/codet5/usage/goroot/test/codegen/maps.go:100)	CALL	runtime.morestack_noctxt(SB)
	0x00b7 00183 (/bigdata/qiuhan/codet5/usage/goroot/test/codegen/maps.go:100)	MOVQ	8(SP), AX
	0x00bc 00188 (/bigdata/qiuhan/codet5/usage/goroot/test/codegen/maps.go:100)	PCDATA	$0, $-1
	0x00bc 00188 (/bigdata/qiuhan/codet5/usage/goroot/test/codegen/maps.go:100)	NOP
	0x00c0 00192 (/bigdata/qiuhan/codet5/usage/goroot/test/codegen/maps.go:100)	JMP	0
	0x0000 4c 8d 64 24 f0 4d 3b 66 10 0f 86 9e 00 00 00 48  L.d$.M;f.......H
	0x0010 81 ec 90 00 00 00 48 89 ac 24 88 00 00 00 48 8d  ......H..$....H.
	0x0020 ac 24 88 00 00 00 48 89 44 24 20 48 8d 7c 24 28  .$....H.D$ H.|$(
	0x0030 48 8d 7f e0 66 0f 1f 84 00 00 00 00 00 0f 1f 00  H...f...........
	0x0040 48 89 6c 24 f0 48 8d 6c 24 f0 e8 00 00 00 00 48  H.l$.H.l$......H
	0x0050 8b 6d 00 48 89 c3 48 8d 4c 24 28 48 8d 05 00 00  .m.H..H.L$(H....
	0x0060 00 00 e8 00 00 00 00 eb 2a f2 0f 10 02 f2 0f 11  ........*.......
	0x0070 44 24 18 48 8d 05 00 00 00 00 48 8b 5c 24 20 48  D$.H......H.\$ H
	0x0080 8d 4c 24 18 e8 00 00 00 00 48 8d 44 24 28 e8 00  .L$......H.D$(..
	0x0090 00 00 00 48 8b 54 24 28 48 85 d2 75 cc 48 8b ac  ...H.T$(H..u.H..
	0x00a0 24 88 00 00 00 48 81 c4 90 00 00 00 c3 48 89 44  $....H.......H.D
	0x00b0 24 08 e8 00 00 00 00 48 8b 44 24 08 0f 1f 40 00  $......H.D$...@.
	0x00c0 e9 3b ff ff ff                                   .;...
	rel 75+4 t=7 runtime.duffzero<1>+331
	rel 94+4 t=14 type:map[float64]int<0>+0
	rel 99+4 t=7 runtime.mapiterinit<1>+0
	rel 118+4 t=14 type:map[float64]int<0>+0
	rel 133+4 t=7 runtime.mapdelete<1>+0
	rel 143+4 t=7 runtime.mapiternext<1>+0
	rel 179+4 t=7 runtime.morestack_noctxt<0>+0
command-line-arguments.MapClearInterface<1> STEXT size=201 args=0x8 locals=0x98 funcid=0x0 align=0x0
	0x0000 00000 (/bigdata/qiuhan/codet5/usage/goroot/test/codegen/maps.go:108)	TEXT	command-line-arguments.MapClearInterface(SB), ABIInternal, $152-8
	0x0000 00000 (/bigdata/qiuhan/codet5/usage/goroot/test/codegen/maps.go:108)	LEAQ	-24(SP), R12
	0x0005 00005 (/bigdata/qiuhan/codet5/usage/goroot/test/codegen/maps.go:108)	CMPQ	R12, 16(R14)
	0x0009 00009 (/bigdata/qiuhan/codet5/usage/goroot/test/codegen/maps.go:108)	PCDATA	$0, $-2
	0x0009 00009 (/bigdata/qiuhan/codet5/usage/goroot/test/codegen/maps.go:108)	JLS	181
	0x000f 00015 (/bigdata/qiuhan/codet5/usage/goroot/test/codegen/maps.go:108)	PCDATA	$0, $-1
	0x000f 00015 (/bigdata/qiuhan/codet5/usage/goroot/test/codegen/maps.go:108)	SUBQ	$152, SP
	0x0016 00022 (/bigdata/qiuhan/codet5/usage/goroot/test/codegen/maps.go:108)	MOVQ	BP, 144(SP)
	0x001e 00030 (/bigdata/qiuhan/codet5/usage/goroot/test/codegen/maps.go:108)	LEAQ	144(SP), BP
	0x0026 00038 (/bigdata/qiuhan/codet5/usage/goroot/test/codegen/maps.go:108)	FUNCDATA	$0, gclocals·ZzMiPAiVBg7DJ6dh/CjSag==(SB)
	0x0026 00038 (/bigdata/qiuhan/codet5/usage/goroot/test/codegen/maps.go:108)	FUNCDATA	$1, gclocals·JwloRDySfgEI+73w66ns8g==(SB)
	0x0026 00038 (/bigdata/qiuhan/codet5/usage/goroot/test/codegen/maps.go:108)	FUNCDATA	$2, command-line-arguments.MapClearInterface.stkobj(SB)
	0x0026 00038 (/bigdata/qiuhan/codet5/usage/goroot/test/codegen/maps.go:108)	FUNCDATA	$5, command-line-arguments.MapClearInterface.arginfo1(SB)
	0x0026 00038 (/bigdata/qiuhan/codet5/usage/goroot/test/codegen/maps.go:108)	FUNCDATA	$6, command-line-arguments.MapClearInterface.argliveinfo(SB)
	0x0026 00038 (/bigdata/qiuhan/codet5/usage/goroot/test/codegen/maps.go:108)	PCDATA	$3, $1
	0x0026 00038 (/bigdata/qiuhan/codet5/usage/goroot/test/codegen/maps.go:108)	MOVQ	AX, command-line-arguments..autotmp_4+24(SP)
	0x002b 00043 (/bigdata/qiuhan/codet5/usage/goroot/test/codegen/maps.go:111)	LEAQ	command-line-arguments..autotmp_3+48(SP), DI
	0x0030 00048 (/bigdata/qiuhan/codet5/usage/goroot/test/codegen/maps.go:111)	PCDATA	$0, $-2
	0x0030 00048 (/bigdata/qiuhan/codet5/usage/goroot/test/codegen/maps.go:111)	LEAQ	-32(DI), DI
	0x0034 00052 (/bigdata/qiuhan/codet5/usage/goroot/test/codegen/maps.go:111)	NOP
	0x0040 00064 (/bigdata/qiuhan/codet5/usage/goroot/test/codegen/maps.go:111)	DUFFZERO	$331
	0x0053 00083 (/bigdata/qiuhan/codet5/usage/goroot/test/codegen/maps.go:111)	PCDATA	$0, $-1
	0x0053 00083 (/bigdata/qiuhan/codet5/usage/goroot/test/codegen/maps.go:111)	MOVQ	AX, BX
	0x0056 00086 (/bigdata/qiuhan/codet5/usage/goroot/test/codegen/maps.go:111)	LEAQ	command-line-arguments..autotmp_3+48(SP), CX
	0x005b 00091 (/bigdata/qiuhan/codet5/usage/goroot/test/codegen/maps.go:111)	LEAQ	type:map[interface {}]int(SB), AX
	0x0062 00098 (/bigdata/qiuhan/codet5/usage/goroot/test/codegen/maps.go:111)	PCDATA	$1, $1
	0x0062 00098 (/bigdata/qiuhan/codet5/usage/goroot/test/codegen/maps.go:111)	CALL	runtime.mapiterinit(SB)
	0x0067 00103 (/bigdata/qiuhan/codet5/usage/goroot/test/codegen/maps.go:111)	JMP	154
	0x0069 00105 (/bigdata/qiuhan/codet5/usage/goroot/test/codegen/maps.go:111)	MOVQ	(DX), SI
	0x006c 00108 (/bigdata/qiuhan/codet5/usage/goroot/test/codegen/maps.go:111)	MOVQ	8(DX), DX
	0x0070 00112 (/bigdata/qiuhan/codet5/usage/goroot/test/codegen/maps.go:111)	MOVQ	SI, command-line-arguments.k+32(SP)
	0x0075 00117 (/bigdata/qiuhan/codet5/usage/goroot/test/codegen/maps.go:111)	MOVQ	DX, command-line-arguments.k+40(SP)
	0x007a 00122 (/bigdata/qiuhan/codet5/usage/goroot/test/codegen/maps.go:112)	LEAQ	type:map[interface {}]int(SB), AX
	0x0081 00129 (/bigdata/qiuhan/codet5/usage/goroot/test/codegen/maps.go:112)	MOVQ	command-line-arguments..autotmp_4+24(SP), BX
	0x0086 00134 (/bigdata/qiuhan/codet5/usage/goroot/test/codegen/maps.go:112)	LEAQ	command-line-arguments.k+32(SP), CX
	0x008b 00139 (/bigdata/qiuhan/codet5/usage/goroot/test/codegen/maps.go:112)	CALL	runtime.mapdelete(SB)
	0x0090 00144 (/bigdata/qiuhan/codet5/usage/goroot/test/codegen/maps.go:111)	LEAQ	command-line-arguments..autotmp_3+48(SP), AX
	0x0095 00149 (/bigdata/qiuhan/codet5/usage/goroot/test/codegen/maps.go:111)	CALL	runtime.mapiternext(SB)
	0x009a 00154 (/bigdata/qiuhan/codet5/usage/goroot/test/codegen/maps.go:111)	MOVQ	command-line-arguments..autotmp_3+48(SP), DX
	0x009f 00159 (/bigdata/qiuhan/codet5/usage/goroot/test/codegen/maps.go:111)	NOP
	0x00a0 00160 (/bigdata/qiuhan/codet5/usage/goroot/test/codegen/maps.go:111)	TESTQ	DX, DX
	0x00a3 00163 (/bigdata/qiuhan/codet5/usage/goroot/test/codegen/maps.go:111)	JNE	105
	0x00a5 00165 (/bigdata/qiuhan/codet5/usage/goroot/test/codegen/maps.go:114)	PCDATA	$1, $-1
	0x00a5 00165 (/bigdata/qiuhan/codet5/usage/goroot/test/codegen/maps.go:114)	MOVQ	144(SP), BP
	0x00ad 00173 (/bigdata/qiuhan/codet5/usage/goroot/test/codegen/maps.go:114)	ADDQ	$152, SP
	0x00b4 00180 (/bigdata/qiuhan/codet5/usage/goroot/test/codegen/maps.go:114)	RET
	0x00b5 00181 (/bigdata/qiuhan/codet5/usage/goroot/test/codegen/maps.go:114)	NOP
	0x00b5 00181 (/bigdata/qiuhan/codet5/usage/goroot/test/codegen/maps.go:108)	PCDATA	$1, $-1
	0x00b5 00181 (/bigdata/qiuhan/codet5/usage/goroot/test/codegen/maps.go:108)	PCDATA	$0, $-2
	0x00b5 00181 (/bigdata/qiuhan/codet5/usage/goroot/test/codegen/maps.go:108)	MOVQ	AX, 8(SP)
	0x00ba 00186 (/bigdata/qiuhan/codet5/usage/goroot/test/codegen/maps.go:108)	CALL	runtime.morestack_noctxt(SB)
	0x00bf 00191 (/bigdata/qiuhan/codet5/usage/goroot/test/codegen/maps.go:108)	MOVQ	8(SP), AX
	0x00c4 00196 (/bigdata/qiuhan/codet5/usage/goroot/test/codegen/maps.go:108)	PCDATA	$0, $-1
	0x00c4 00196 (/bigdata/qiuhan/codet5/usage/goroot/test/codegen/maps.go:108)	JMP	0
	0x0000 4c 8d 64 24 e8 4d 3b 66 10 0f 86 a6 00 00 00 48  L.d$.M;f.......H
	0x0010 81 ec 98 00 00 00 48 89 ac 24 90 00 00 00 48 8d  ......H..$....H.
	0x0020 ac 24 90 00 00 00 48 89 44 24 18 48 8d 7c 24 30  .$....H.D$.H.|$0
	0x0030 48 8d 7f e0 66 0f 1f 84 00 00 00 00 00 0f 1f 00  H...f...........
	0x0040 48 89 6c 24 f0 48 8d 6c 24 f0 e8 00 00 00 00 48  H.l$.H.l$......H
	0x0050 8b 6d 00 48 89 c3 48 8d 4c 24 30 48 8d 05 00 00  .m.H..H.L$0H....
	0x0060 00 00 e8 00 00 00 00 eb 31 48 8b 32 48 8b 52 08  ........1H.2H.R.
	0x0070 48 89 74 24 20 48 89 54 24 28 48 8d 05 00 00 00  H.t$ H.T$(H.....
	0x0080 00 48 8b 5c 24 18 48 8d 4c 24 20 e8 00 00 00 00  .H.\$.H.L$ .....
	0x0090 48 8d 44 24 30 e8 00 00 00 00 48 8b 54 24 30 90  H.D$0.....H.T$0.
	0x00a0 48 85 d2 75 c4 48 8b ac 24 90 00 00 00 48 81 c4  H..u.H..$....H..
	0x00b0 98 00 00 00 c3 48 89 44 24 08 e8 00 00 00 00 48  .....H.D$......H
	0x00c0 8b 44 24 08 e9 37 ff ff ff                       .D$..7...
	rel 75+4 t=7 runtime.duffzero<1>+331
	rel 94+4 t=14 type:map[interface {}]int<0>+0
	rel 99+4 t=7 runtime.mapiterinit<1>+0
	rel 125+4 t=14 type:map[interface {}]int<0>+0
	rel 140+4 t=7 runtime.mapdelete<1>+0
	rel 150+4 t=7 runtime.mapiternext<1>+0
	rel 187+4 t=7 runtime.morestack_noctxt<0>+0
command-line-arguments.MapClearSideEffect<1> STEXT size=197 args=0x8 locals=0x90 funcid=0x0 align=0x0
	0x0000 00000 (/bigdata/qiuhan/codet5/usage/goroot/test/codegen/maps.go:116)	TEXT	command-line-arguments.MapClearSideEffect(SB), ABIInternal, $144-8
	0x0000 00000 (/bigdata/qiuhan/codet5/usage/goroot/test/codegen/maps.go:116)	LEAQ	-16(SP), R12
	0x0005 00005 (/bigdata/qiuhan/codet5/usage/goroot/test/codegen/maps.go:116)	CMPQ	R12, 16(R14)
	0x0009 00009 (/bigdata/qiuhan/codet5/usage/goroot/test/codegen/maps.go:116)	PCDATA	$0, $-2
	0x0009 00009 (/bigdata/qiuhan/codet5/usage/goroot/test/codegen/maps.go:116)	JLS	174
	0x000f 00015 (/bigdata/qiuhan/codet5/usage/goroot/test/codegen/maps.go:116)	PCDATA	$0, $-1
	0x000f 00015 (/bigdata/qiuhan/codet5/usage/goroot/test/codegen/maps.go:116)	SUBQ	$144, SP
	0x0016 00022 (/bigdata/qiuhan/codet5/usage/goroot/test/codegen/maps.go:116)	MOVQ	BP, 136(SP)
	0x001e 00030 (/bigdata/qiuhan/codet5/usage/goroot/test/codegen/maps.go:116)	LEAQ	136(SP), BP
	0x0026 00038 (/bigdata/qiuhan/codet5/usage/goroot/test/codegen/maps.go:116)	FUNCDATA	$0, gclocals·ZzMiPAiVBg7DJ6dh/CjSag==(SB)
	0x0026 00038 (/bigdata/qiuhan/codet5/usage/goroot/test/codegen/maps.go:116)	FUNCDATA	$1, gclocals·83lDYLU2FBjEJR90n9PzOQ==(SB)
	0x0026 00038 (/bigdata/qiuhan/codet5/usage/goroot/test/codegen/maps.go:116)	FUNCDATA	$2, command-line-arguments.MapClearSideEffect.stkobj(SB)
	0x0026 00038 (/bigdata/qiuhan/codet5/usage/goroot/test/codegen/maps.go:116)	FUNCDATA	$5, command-line-arguments.MapClearSideEffect.arginfo1(SB)
	0x0026 00038 (/bigdata/qiuhan/codet5/usage/goroot/test/codegen/maps.go:116)	FUNCDATA	$6, command-line-arguments.MapClearSideEffect.argliveinfo(SB)
	0x0026 00038 (/bigdata/qiuhan/codet5/usage/goroot/test/codegen/maps.go:116)	PCDATA	$3, $1
	0x0026 00038 (/bigdata/qiuhan/codet5/usage/goroot/test/codegen/maps.go:116)	MOVQ	AX, command-line-arguments..autotmp_5+32(SP)
	0x002b 00043 (/bigdata/qiuhan/codet5/usage/goroot/test/codegen/maps.go:120)	LEAQ	command-line-arguments..autotmp_4+40(SP), DI
	0x0030 00048 (/bigdata/qiuhan/codet5/usage/goroot/test/codegen/maps.go:120)	PCDATA	$0, $-2
	0x0030 00048 (/bigdata/qiuhan/codet5/usage/goroot/test/codegen/maps.go:120)	LEAQ	-32(DI), DI
	0x0034 00052 (/bigdata/qiuhan/codet5/usage/goroot/test/codegen/maps.go:120)	NOP
	0x0040 00064 (/bigdata/qiuhan/codet5/usage/goroot/test/codegen/maps.go:120)	DUFFZERO	$331
	0x0053 00083 (/bigdata/qiuhan/codet5/usage/goroot/test/codegen/maps.go:120)	PCDATA	$0, $-1
	0x0053 00083 (/bigdata/qiuhan/codet5/usage/goroot/test/codegen/maps.go:120)	MOVQ	AX, BX
	0x0056 00086 (/bigdata/qiuhan/codet5/usage/goroot/test/codegen/maps.go:120)	LEAQ	command-line-arguments..autotmp_4+40(SP), CX
	0x005b 00091 (/bigdata/qiuhan/codet5/usage/goroot/test/codegen/maps.go:120)	LEAQ	type:map[int]int(SB), AX
	0x0062 00098 (/bigdata/qiuhan/codet5/usage/goroot/test/codegen/maps.go:120)	PCDATA	$1, $1
	0x0062 00098 (/bigdata/qiuhan/codet5/usage/goroot/test/codegen/maps.go:120)	CALL	runtime.mapiterinit(SB)
	0x0067 00103 (/bigdata/qiuhan/codet5/usage/goroot/test/codegen/maps.go:120)	XORL	AX, AX
	0x0069 00105 (/bigdata/qiuhan/codet5/usage/goroot/test/codegen/maps.go:120)	JMP	148
	0x006b 00107 (/bigdata/qiuhan/codet5/usage/goroot/test/codegen/maps.go:120)	MOVQ	(DX), CX
	0x006e 00110 (/bigdata/qiuhan/codet5/usage/goroot/test/codegen/maps.go:120)	MOVQ	CX, command-line-arguments.k+24(SP)
	0x0073 00115 (/bigdata/qiuhan/codet5/usage/goroot/test/codegen/maps.go:121)	LEAQ	type:map[int]int(SB), AX
	0x007a 00122 (/bigdata/qiuhan/codet5/usage/goroot/test/codegen/maps.go:121)	MOVQ	command-line-arguments..autotmp_5+32(SP), BX
	0x007f 00127 (/bigdata/qiuhan/codet5/usage/goroot/test/codegen/maps.go:121)	NOP
	0x0080 00128 (/bigdata/qiuhan/codet5/usage/goroot/test/codegen/maps.go:121)	CALL	runtime.mapdelete_fast64(SB)
	0x0085 00133 (/bigdata/qiuhan/codet5/usage/goroot/test/codegen/maps.go:120)	LEAQ	command-line-arguments..autotmp_4+40(SP), AX
	0x008a 00138 (/bigdata/qiuhan/codet5/usage/goroot/test/codegen/maps.go:120)	CALL	runtime.mapiternext(SB)
	0x008f 00143 (/bigdata/qiuhan/codet5/usage/goroot/test/codegen/maps.go:123)	MOVQ	command-line-arguments.k+24(SP), AX
	0x0094 00148 (/bigdata/qiuhan/codet5/usage/goroot/test/codegen/maps.go:120)	MOVQ	command-line-arguments..autotmp_4+40(SP), DX
	0x0099 00153 (/bigdata/qiuhan/codet5/usage/goroot/test/codegen/maps.go:120)	TESTQ	DX, DX
	0x009c 00156 (/bigdata/qiuhan/codet5/usage/goroot/test/codegen/maps.go:120)	JNE	107
	0x009e 00158 (/bigdata/qiuhan/codet5/usage/goroot/test/codegen/maps.go:123)	PCDATA	$1, $-1
	0x009e 00158 (/bigdata/qiuhan/codet5/usage/goroot/test/codegen/maps.go:123)	MOVQ	136(SP), BP
	0x00a6 00166 (/bigdata/qiuhan/codet5/usage/goroot/test/codegen/maps.go:123)	ADDQ	$144, SP
	0x00ad 00173 (/bigdata/qiuhan/codet5/usage/goroot/test/codegen/maps.go:123)	RET
	0x00ae 00174 (/bigdata/qiuhan/codet5/usage/goroot/test/codegen/maps.go:123)	NOP
	0x00ae 00174 (/bigdata/qiuhan/codet5/usage/goroot/test/codegen/maps.go:116)	PCDATA	$1, $-1
	0x00ae 00174 (/bigdata/qiuhan/codet5/usage/goroot/test/codegen/maps.go:116)	PCDATA	$0, $-2
	0x00ae 00174 (/bigdata/qiuhan/codet5/usage/goroot/test/codegen/maps.go:116)	MOVQ	AX, 8(SP)
	0x00b3 00179 (/bigdata/qiuhan/codet5/usage/goroot/test/codegen/maps.go:116)	CALL	runtime.morestack_noctxt(SB)
	0x00b8 00184 (/bigdata/qiuhan/codet5/usage/goroot/test/codegen/maps.go:116)	MOVQ	8(SP), AX
	0x00bd 00189 (/bigdata/qiuhan/codet5/usage/goroot/test/codegen/maps.go:116)	PCDATA	$0, $-1
	0x00bd 00189 (/bigdata/qiuhan/codet5/usage/goroot/test/codegen/maps.go:116)	NOP
	0x00c0 00192 (/bigdata/qiuhan/codet5/usage/goroot/test/codegen/maps.go:116)	JMP	0
	0x0000 4c 8d 64 24 f0 4d 3b 66 10 0f 86 9f 00 00 00 48  L.d$.M;f.......H
	0x0010 81 ec 90 00 00 00 48 89 ac 24 88 00 00 00 48 8d  ......H..$....H.
	0x0020 ac 24 88 00 00 00 48 89 44 24 20 48 8d 7c 24 28  .$....H.D$ H.|$(
	0x0030 48 8d 7f e0 66 0f 1f 84 00 00 00 00 00 0f 1f 00  H...f...........
	0x0040 48 89 6c 24 f0 48 8d 6c 24 f0 e8 00 00 00 00 48  H.l$.H.l$......H
	0x0050 8b 6d 00 48 89 c3 48 8d 4c 24 28 48 8d 05 00 00  .m.H..H.L$(H....
	0x0060 00 00 e8 00 00 00 00 31 c0 eb 29 48 8b 0a 48 89  .......1..)H..H.
	0x0070 4c 24 18 48 8d 05 00 00 00 00 48 8b 5c 24 20 90  L$.H......H.\$ .
	0x0080 e8 00 00 00 00 48 8d 44 24 28 e8 00 00 00 00 48  .....H.D$(.....H
	0x0090 8b 44 24 18 48 8b 54 24 28 48 85 d2 75 cd 48 8b  .D$.H.T$(H..u.H.
	0x00a0 ac 24 88 00 00 00 48 81 c4 90 00 00 00 c3 48 89  .$....H.......H.
	0x00b0 44 24 08 e8 00 00 00 00 48 8b 44 24 08 0f 1f 00  D$......H.D$....
	0x00c0 e9 3b ff ff ff                                   .;...
	rel 75+4 t=7 runtime.duffzero<1>+331
	rel 94+4 t=14 type:map[int]int<0>+0
	rel 99+4 t=7 runtime.mapiterinit<1>+0
	rel 118+4 t=14 type:map[int]int<0>+0
	rel 129+4 t=7 runtime.mapdelete_fast64<1>+0
	rel 139+4 t=7 runtime.mapiternext<1>+0
	rel 180+4 t=7 runtime.morestack_noctxt<0>+0
command-line-arguments.MapLiteralSizing<1> STEXT size=725 args=0x8 locals=0x30 funcid=0x0 align=0x0
	0x0000 00000 (/bigdata/qiuhan/codet5/usage/goroot/test/codegen/maps.go:126)	TEXT	command-line-arguments.MapLiteralSizing(SB), ABIInternal, $48-8
	0x0000 00000 (/bigdata/qiuhan/codet5/usage/goroot/test/codegen/maps.go:126)	CMPQ	SP, 16(R14)
	0x0004 00004 (/bigdata/qiuhan/codet5/usage/goroot/test/codegen/maps.go:126)	PCDATA	$0, $-2
	0x0004 00004 (/bigdata/qiuhan/codet5/usage/goroot/test/codegen/maps.go:126)	JLS	705
	0x000a 00010 (/bigdata/qiuhan/codet5/usage/goroot/test/codegen/maps.go:126)	PCDATA	$0, $-1
	0x000a 00010 (/bigdata/qiuhan/codet5/usage/goroot/test/codegen/maps.go:126)	SUBQ	$48, SP
	0x000e 00014 (/bigdata/qiuhan/codet5/usage/goroot/test/codegen/maps.go:126)	MOVQ	BP, 40(SP)
	0x0013 00019 (/bigdata/qiuhan/codet5/usage/goroot/test/codegen/maps.go:126)	LEAQ	40(SP), BP
	0x0018 00024 (/bigdata/qiuhan/codet5/usage/goroot/test/codegen/maps.go:126)	FUNCDATA	$0, gclocals·ykHN0vawYuq1dUW4zEe2gA==(SB)
	0x0018 00024 (/bigdata/qiuhan/codet5/usage/goroot/test/codegen/maps.go:126)	FUNCDATA	$1, gclocals·sQxO+jiYy+d9ldxoWSePwQ==(SB)
	0x0018 00024 (/bigdata/qiuhan/codet5/usage/goroot/test/codegen/maps.go:126)	FUNCDATA	$5, command-line-arguments.MapLiteralSizing.arginfo1(SB)
	0x0018 00024 (/bigdata/qiuhan/codet5/usage/goroot/test/codegen/maps.go:126)	FUNCDATA	$6, command-line-arguments.MapLiteralSizing.argliveinfo(SB)
	0x0018 00024 (/bigdata/qiuhan/codet5/usage/goroot/test/codegen/maps.go:126)	PCDATA	$3, $1
	0x0018 00024 (/bigdata/qiuhan/codet5/usage/goroot/test/codegen/maps.go:126)	MOVQ	AX, command-line-arguments.x+56(SP)
	0x001d 00029 (/bigdata/qiuhan/codet5/usage/goroot/test/codegen/maps.go:126)	PCDATA	$3, $-1
	0x001d 00029 (/bigdata/qiuhan/codet5/usage/goroot/test/codegen/maps.go:128)	MOVL	$10, BX
	0x0022 00034 (/bigdata/qiuhan/codet5/usage/goroot/test/codegen/maps.go:128)	XORL	CX, CX
	0x0024 00036 (/bigdata/qiuhan/codet5/usage/goroot/test/codegen/maps.go:128)	LEAQ	type:map[int]int(SB), AX
	0x002b 00043 (/bigdata/qiuhan/codet5/usage/goroot/test/codegen/maps.go:128)	PCDATA	$1, $0
	0x002b 00043 (/bigdata/qiuhan/codet5/usage/goroot/test/codegen/maps.go:128)	CALL	runtime.makemap(SB)
	0x0030 00048 (/bigdata/qiuhan/codet5/usage/goroot/test/codegen/maps.go:128)	MOVQ	AX, command-line-arguments.m+32(SP)
	0x0035 00053 (/bigdata/qiuhan/codet5/usage/goroot/test/codegen/maps.go:129)	MOVQ	AX, BX
	0x0038 00056 (/bigdata/qiuhan/codet5/usage/goroot/test/codegen/maps.go:129)	XORL	CX, CX
	0x003a 00058 (/bigdata/qiuhan/codet5/usage/goroot/test/codegen/maps.go:129)	LEAQ	type:map[int]int(SB), AX
	0x0041 00065 (/bigdata/qiuhan/codet5/usage/goroot/test/codegen/maps.go:129)	PCDATA	$1, $1
	0x0041 00065 (/bigdata/qiuhan/codet5/usage/goroot/test/codegen/maps.go:129)	CALL	runtime.mapassign_fast64(SB)
	0x0046 00070 (/bigdata/qiuhan/codet5/usage/goroot/test/codegen/maps.go:129)	MOVQ	$0, (AX)
	0x004d 00077 (/bigdata/qiuhan/codet5/usage/goroot/test/codegen/maps.go:130)	LEAQ	type:map[int]int(SB), AX
	0x0054 00084 (/bigdata/qiuhan/codet5/usage/goroot/test/codegen/maps.go:130)	MOVQ	command-line-arguments.m+32(SP), BX
	0x0059 00089 (/bigdata/qiuhan/codet5/usage/goroot/test/codegen/maps.go:130)	MOVL	$1, CX
	0x005e 00094 (/bigdata/qiuhan/codet5/usage/goroot/test/codegen/maps.go:130)	NOP
	0x0060 00096 (/bigdata/qiuhan/codet5/usage/goroot/test/codegen/maps.go:130)	CALL	runtime.mapassign_fast64(SB)
	0x0065 00101 (/bigdata/qiuhan/codet5/usage/goroot/test/codegen/maps.go:130)	MOVQ	$1, (AX)
	0x006c 00108 (/bigdata/qiuhan/codet5/usage/goroot/test/codegen/maps.go:131)	LEAQ	type:map[int]int(SB), AX
	0x0073 00115 (/bigdata/qiuhan/codet5/usage/goroot/test/codegen/maps.go:131)	MOVQ	command-line-arguments.m+32(SP), BX
	0x0078 00120 (/bigdata/qiuhan/codet5/usage/goroot/test/codegen/maps.go:131)	MOVL	$2, CX
	0x007d 00125 (/bigdata/qiuhan/codet5/usage/goroot/test/codegen/maps.go:131)	NOP
	0x0080 00128 (/bigdata/qiuhan/codet5/usage/goroot/test/codegen/maps.go:131)	CALL	runtime.mapassign_fast64(SB)
	0x0085 00133 (/bigdata/qiuhan/codet5/usage/goroot/test/codegen/maps.go:131)	MOVQ	$2, (AX)
	0x008c 00140 (/bigdata/qiuhan/codet5/usage/goroot/test/codegen/maps.go:132)	LEAQ	type:map[int]int(SB), AX
	0x0093 00147 (/bigdata/qiuhan/codet5/usage/goroot/test/codegen/maps.go:132)	MOVQ	command-line-arguments.m+32(SP), BX
	0x0098 00152 (/bigdata/qiuhan/codet5/usage/goroot/test/codegen/maps.go:132)	MOVL	$3, CX
	0x009d 00157 (/bigdata/qiuhan/codet5/usage/goroot/test/codegen/maps.go:132)	NOP
	0x00a0 00160 (/bigdata/qiuhan/codet5/usage/goroot/test/codegen/maps.go:132)	CALL	runtime.mapassign_fast64(SB)
	0x00a5 00165 (/bigdata/qiuhan/codet5/usage/goroot/test/codegen/maps.go:132)	MOVQ	$3, (AX)
	0x00ac 00172 (/bigdata/qiuhan/codet5/usage/goroot/test/codegen/maps.go:133)	LEAQ	type:map[int]int(SB), AX
	0x00b3 00179 (/bigdata/qiuhan/codet5/usage/goroot/test/codegen/maps.go:133)	MOVQ	command-line-arguments.m+32(SP), BX
	0x00b8 00184 (/bigdata/qiuhan/codet5/usage/goroot/test/codegen/maps.go:133)	MOVL	$4, CX
	0x00bd 00189 (/bigdata/qiuhan/codet5/usage/goroot/test/codegen/maps.go:133)	NOP
	0x00c0 00192 (/bigdata/qiuhan/codet5/usage/goroot/test/codegen/maps.go:133)	CALL	runtime.mapassign_fast64(SB)
	0x00c5 00197 (/bigdata/qiuhan/codet5/usage/goroot/test/codegen/maps.go:133)	MOVQ	$4, (AX)
	0x00cc 00204 (/bigdata/qiuhan/codet5/usage/goroot/test/codegen/maps.go:134)	LEAQ	type:map[int]int(SB), AX
	0x00d3 00211 (/bigdata/qiuhan/codet5/usage/goroot/test/codegen/maps.go:134)	MOVQ	command-line-arguments.m+32(SP), BX
	0x00d8 00216 (/bigdata/qiuhan/codet5/usage/goroot/test/codegen/maps.go:134)	MOVL	$5, CX
	0x00dd 00221 (/bigdata/qiuhan/codet5/usage/goroot/test/codegen/maps.go:134)	NOP
	0x00e0 00224 (/bigdata/qiuhan/codet5/usage/goroot/test/codegen/maps.go:134)	CALL	runtime.mapassign_fast64(SB)
	0x00e5 00229 (/bigdata/qiuhan/codet5/usage/goroot/test/codegen/maps.go:134)	MOVQ	$5, (AX)
	0x00ec 00236 (/bigdata/qiuhan/codet5/usage/goroot/test/codegen/maps.go:135)	LEAQ	type:map[int]int(SB), AX
	0x00f3 00243 (/bigdata/qiuhan/codet5/usage/goroot/test/codegen/maps.go:135)	MOVQ	command-line-arguments.m+32(SP), BX
	0x00f8 00248 (/bigdata/qiuhan/codet5/usage/goroot/test/codegen/maps.go:135)	MOVL	$6, CX
	0x00fd 00253 (/bigdata/qiuhan/codet5/usage/goroot/test/codegen/maps.go:135)	NOP
	0x0100 00256 (/bigdata/qiuhan/codet5/usage/goroot/test/codegen/maps.go:135)	CALL	runtime.mapassign_fast64(SB)
	0x0105 00261 (/bigdata/qiuhan/codet5/usage/goroot/test/codegen/maps.go:135)	MOVQ	$6, (AX)
	0x010c 00268 (/bigdata/qiuhan/codet5/usage/goroot/test/codegen/maps.go:136)	LEAQ	type:map[int]int(SB), AX
	0x0113 00275 (/bigdata/qiuhan/codet5/usage/goroot/test/codegen/maps.go:136)	MOVQ	command-line-arguments.m+32(SP), BX
	0x0118 00280 (/bigdata/qiuhan/codet5/usage/goroot/test/codegen/maps.go:136)	MOVL	$7, CX
	0x011d 00285 (/bigdata/qiuhan/codet5/usage/goroot/test/codegen/maps.go:136)	NOP
	0x0120 00288 (/bigdata/qiuhan/codet5/usage/goroot/test/codegen/maps.go:136)	CALL	runtime.mapassign_fast64(SB)
	0x0125 00293 (/bigdata/qiuhan/codet5/usage/goroot/test/codegen/maps.go:136)	MOVQ	$7, (AX)
	0x012c 00300 (/bigdata/qiuhan/codet5/usage/goroot/test/codegen/maps.go:137)	LEAQ	type:map[int]int(SB), AX
	0x0133 00307 (/bigdata/qiuhan/codet5/usage/goroot/test/codegen/maps.go:137)	MOVQ	command-line-arguments.m+32(SP), BX
	0x0138 00312 (/bigdata/qiuhan/codet5/usage/goroot/test/codegen/maps.go:137)	MOVL	$8, CX
	0x013d 00317 (/bigdata/qiuhan/codet5/usage/goroot/test/codegen/maps.go:137)	NOP
	0x0140 00320 (/bigdata/qiuhan/codet5/usage/goroot/test/codegen/maps.go:137)	CALL	runtime.mapassign_fast64(SB)
	0x0145 00325 (/bigdata/qiuhan/codet5/usage/goroot/test/codegen/maps.go:137)	MOVQ	$8, (AX)
	0x014c 00332 (/bigdata/qiuhan/codet5/usage/goroot/test/codegen/maps.go:138)	LEAQ	type:map[int]int(SB), AX
	0x0153 00339 (/bigdata/qiuhan/codet5/usage/goroot/test/codegen/maps.go:138)	MOVQ	command-line-arguments.m+32(SP), BX
	0x0158 00344 (/bigdata/qiuhan/codet5/usage/goroot/test/codegen/maps.go:138)	MOVL	$9, CX
	0x015d 00349 (/bigdata/qiuhan/codet5/usage/goroot/test/codegen/maps.go:138)	NOP
	0x0160 00352 (/bigdata/qiuhan/codet5/usage/goroot/test/codegen/maps.go:138)	CALL	runtime.mapassign_fast64(SB)
	0x0165 00357 (/bigdata/qiuhan/codet5/usage/goroot/test/codegen/maps.go:138)	MOVQ	$9, (AX)
	0x016c 00364 (/bigdata/qiuhan/codet5/usage/goroot/test/codegen/maps.go:141)	LEAQ	type:map[int]int(SB), AX
	0x0173 00371 (/bigdata/qiuhan/codet5/usage/goroot/test/codegen/maps.go:141)	MOVL	$10, BX
	0x0178 00376 (/bigdata/qiuhan/codet5/usage/goroot/test/codegen/maps.go:141)	XORL	CX, CX
	0x017a 00378 (/bigdata/qiuhan/codet5/usage/goroot/test/codegen/maps.go:141)	CALL	runtime.makemap(SB)
	0x017f 00383 (/bigdata/qiuhan/codet5/usage/goroot/test/codegen/maps.go:141)	MOVQ	AX, command-line-arguments.n+24(SP)
	0x0184 00388 (/bigdata/qiuhan/codet5/usage/goroot/test/codegen/maps.go:141)	MOVQ	AX, BX
	0x0187 00391 (/bigdata/qiuhan/codet5/usage/goroot/test/codegen/maps.go:141)	XORL	CX, CX
	0x0189 00393 (/bigdata/qiuhan/codet5/usage/goroot/test/codegen/maps.go:141)	LEAQ	type:map[int]int(SB), AX
	0x0190 00400 (/bigdata/qiuhan/codet5/usage/goroot/test/codegen/maps.go:141)	PCDATA	$1, $2
	0x0190 00400 (/bigdata/qiuhan/codet5/usage/goroot/test/codegen/maps.go:141)	CALL	runtime.mapassign_fast64(SB)
	0x0195 00405 (/bigdata/qiuhan/codet5/usage/goroot/test/codegen/maps.go:141)	MOVQ	command-line-arguments.x+56(SP), DX
	0x019a 00410 (/bigdata/qiuhan/codet5/usage/goroot/test/codegen/maps.go:141)	MOVQ	DX, (AX)
	0x019d 00413 (/bigdata/qiuhan/codet5/usage/goroot/test/codegen/maps.go:141)	LEAQ	type:map[int]int(SB), AX
	0x01a4 00420 (/bigdata/qiuhan/codet5/usage/goroot/test/codegen/maps.go:141)	MOVQ	command-line-arguments.n+24(SP), BX
	0x01a9 00425 (/bigdata/qiuhan/codet5/usage/goroot/test/codegen/maps.go:141)	MOVL	$1, CX
	0x01ae 00430 (/bigdata/qiuhan/codet5/usage/goroot/test/codegen/maps.go:141)	CALL	runtime.mapassign_fast64(SB)
	0x01b3 00435 (/bigdata/qiuhan/codet5/usage/goroot/test/codegen/maps.go:141)	MOVQ	command-line-arguments.x+56(SP), DX
	0x01b8 00440 (/bigdata/qiuhan/codet5/usage/goroot/test/codegen/maps.go:141)	MOVQ	DX, (AX)
	0x01bb 00443 (/bigdata/qiuhan/codet5/usage/goroot/test/codegen/maps.go:141)	LEAQ	type:map[int]int(SB), AX
	0x01c2 00450 (/bigdata/qiuhan/codet5/usage/goroot/test/codegen/maps.go:141)	MOVQ	command-line-arguments.n+24(SP), BX
	0x01c7 00455 (/bigdata/qiuhan/codet5/usage/goroot/test/codegen/maps.go:141)	MOVL	$2, CX
	0x01cc 00460 (/bigdata/qiuhan/codet5/usage/goroot/test/codegen/maps.go:141)	CALL	runtime.mapassign_fast64(SB)
	0x01d1 00465 (/bigdata/qiuhan/codet5/usage/goroot/test/codegen/maps.go:141)	MOVQ	command-line-arguments.x+56(SP), DX
	0x01d6 00470 (/bigdata/qiuhan/codet5/usage/goroot/test/codegen/maps.go:141)	MOVQ	DX, (AX)
	0x01d9 00473 (/bigdata/qiuhan/codet5/usage/goroot/test/codegen/maps.go:141)	LEAQ	type:map[int]int(SB), AX
	0x01e0 00480 (/bigdata/qiuhan/codet5/usage/goroot/test/codegen/maps.go:141)	MOVQ	command-line-arguments.n+24(SP), BX
	0x01e5 00485 (/bigdata/qiuhan/codet5/usage/goroot/test/codegen/maps.go:141)	MOVL	$3, CX
	0x01ea 00490 (/bigdata/qiuhan/codet5/usage/goroot/test/codegen/maps.go:141)	CALL	runtime.mapassign_fast64(SB)
	0x01ef 00495 (/bigdata/qiuhan/codet5/usage/goroot/test/codegen/maps.go:141)	MOVQ	command-line-arguments.x+56(SP), DX
	0x01f4 00500 (/bigdata/qiuhan/codet5/usage/goroot/test/codegen/maps.go:141)	MOVQ	DX, (AX)
	0x01f7 00503 (/bigdata/qiuhan/codet5/usage/goroot/test/codegen/maps.go:141)	LEAQ	type:map[int]int(SB), AX
	0x01fe 00510 (/bigdata/qiuhan/codet5/usage/goroot/test/codegen/maps.go:141)	MOVQ	command-line-arguments.n+24(SP), BX
	0x0203 00515 (/bigdata/qiuhan/codet5/usage/goroot/test/codegen/maps.go:141)	MOVL	$4, CX
	0x0208 00520 (/bigdata/qiuhan/codet5/usage/goroot/test/codegen/maps.go:141)	CALL	runtime.mapassign_fast64(SB)
	0x020d 00525 (/bigdata/qiuhan/codet5/usage/goroot/test/codegen/maps.go:141)	MOVQ	command-line-arguments.x+56(SP), DX
	0x0212 00530 (/bigdata/qiuhan/codet5/usage/goroot/test/codegen/maps.go:141)	MOVQ	DX, (AX)
	0x0215 00533 (/bigdata/qiuhan/codet5/usage/goroot/test/codegen/maps.go:141)	LEAQ	type:map[int]int(SB), AX
	0x021c 00540 (/bigdata/qiuhan/codet5/usage/goroot/test/codegen/maps.go:141)	MOVQ	command-line-arguments.n+24(SP), BX
	0x0221 00545 (/bigdata/qiuhan/codet5/usage/goroot/test/codegen/maps.go:141)	MOVL	$5, CX
	0x0226 00550 (/bigdata/qiuhan/codet5/usage/goroot/test/codegen/maps.go:141)	CALL	runtime.mapassign_fast64(SB)
	0x022b 00555 (/bigdata/qiuhan/codet5/usage/goroot/test/codegen/maps.go:141)	MOVQ	command-line-arguments.x+56(SP), DX
	0x0230 00560 (/bigdata/qiuhan/codet5/usage/goroot/test/codegen/maps.go:141)	MOVQ	DX, (AX)
	0x0233 00563 (/bigdata/qiuhan/codet5/usage/goroot/test/codegen/maps.go:141)	LEAQ	type:map[int]int(SB), AX
	0x023a 00570 (/bigdata/qiuhan/codet5/usage/goroot/test/codegen/maps.go:141)	MOVQ	command-line-arguments.n+24(SP), BX
	0x023f 00575 (/bigdata/qiuhan/codet5/usage/goroot/test/codegen/maps.go:141)	MOVL	$6, CX
	0x0244 00580 (/bigdata/qiuhan/codet5/usage/goroot/test/codegen/maps.go:141)	CALL	runtime.mapassign_fast64(SB)
	0x0249 00585 (/bigdata/qiuhan/codet5/usage/goroot/test/codegen/maps.go:141)	MOVQ	command-line-arguments.x+56(SP), DX
	0x024e 00590 (/bigdata/qiuhan/codet5/usage/goroot/test/codegen/maps.go:141)	MOVQ	DX, (AX)
	0x0251 00593 (/bigdata/qiuhan/codet5/usage/goroot/test/codegen/maps.go:141)	LEAQ	type:map[int]int(SB), AX
	0x0258 00600 (/bigdata/qiuhan/codet5/usage/goroot/test/codegen/maps.go:141)	MOVQ	command-line-arguments.n+24(SP), BX
	0x025d 00605 (/bigdata/qiuhan/codet5/usage/goroot/test/codegen/maps.go:141)	MOVL	$7, CX
	0x0262 00610 (/bigdata/qiuhan/codet5/usage/goroot/test/codegen/maps.go:141)	CALL	runtime.mapassign_fast64(SB)
	0x0267 00615 (/bigdata/qiuhan/codet5/usage/goroot/test/codegen/maps.go:141)	MOVQ	command-line-arguments.x+56(SP), DX
	0x026c 00620 (/bigdata/qiuhan/codet5/usage/goroot/test/codegen/maps.go:141)	MOVQ	DX, (AX)
	0x026f 00623 (/bigdata/qiuhan/codet5/usage/goroot/test/codegen/maps.go:141)	LEAQ	type:map[int]int(SB), AX
	0x0276 00630 (/bigdata/qiuhan/codet5/usage/goroot/test/codegen/maps.go:141)	MOVQ	command-line-arguments.n+24(SP), BX
	0x027b 00635 (/bigdata/qiuhan/codet5/usage/goroot/test/codegen/maps.go:141)	MOVL	$8, CX
	0x0280 00640 (/bigdata/qiuhan/codet5/usage/goroot/test/codegen/maps.go:141)	CALL	runtime.mapassign_fast64(SB)
	0x0285 00645 (/bigdata/qiuhan/codet5/usage/goroot/test/codegen/maps.go:141)	MOVQ	command-line-arguments.x+56(SP), DX
	0x028a 00650 (/bigdata/qiuhan/codet5/usage/goroot/test/codegen/maps.go:141)	MOVQ	DX, (AX)
	0x028d 00653 (/bigdata/qiuhan/codet5/usage/goroot/test/codegen/maps.go:141)	LEAQ	type:map[int]int(SB), AX
	0x0294 00660 (/bigdata/qiuhan/codet5/usage/goroot/test/codegen/maps.go:141)	MOVQ	command-line-arguments.n+24(SP), BX
	0x0299 00665 (/bigdata/qiuhan/codet5/usage/goroot/test/codegen/maps.go:141)	MOVL	$9, CX
	0x029e 00670 (/bigdata/qiuhan/codet5/usage/goroot/test/codegen/maps.go:141)	NOP
	0x02a0 00672 (/bigdata/qiuhan/codet5/usage/goroot/test/codegen/maps.go:141)	CALL	runtime.mapassign_fast64(SB)
	0x02a5 00677 (/bigdata/qiuhan/codet5/usage/goroot/test/codegen/maps.go:141)	MOVQ	command-line-arguments.x+56(SP), DX
	0x02aa 00682 (/bigdata/qiuhan/codet5/usage/goroot/test/codegen/maps.go:141)	MOVQ	DX, (AX)
	0x02ad 00685 (/bigdata/qiuhan/codet5/usage/goroot/test/codegen/maps.go:153)	MOVQ	command-line-arguments.m+32(SP), AX
	0x02b2 00690 (/bigdata/qiuhan/codet5/usage/goroot/test/codegen/maps.go:153)	MOVQ	command-line-arguments.n+24(SP), BX
	0x02b7 00695 (/bigdata/qiuhan/codet5/usage/goroot/test/codegen/maps.go:153)	MOVQ	40(SP), BP
	0x02bc 00700 (/bigdata/qiuhan/codet5/usage/goroot/test/codegen/maps.go:153)	ADDQ	$48, SP
	0x02c0 00704 (/bigdata/qiuhan/codet5/usage/goroot/test/codegen/maps.go:153)	RET
	0x02c1 00705 (/bigdata/qiuhan/codet5/usage/goroot/test/codegen/maps.go:153)	NOP
	0x02c1 00705 (/bigdata/qiuhan/codet5/usage/goroot/test/codegen/maps.go:126)	PCDATA	$1, $-1
	0x02c1 00705 (/bigdata/qiuhan/codet5/usage/goroot/test/codegen/maps.go:126)	PCDATA	$0, $-2
	0x02c1 00705 (/bigdata/qiuhan/codet5/usage/goroot/test/codegen/maps.go:126)	MOVQ	AX, 8(SP)
	0x02c6 00710 (/bigdata/qiuhan/codet5/usage/goroot/test/codegen/maps.go:126)	CALL	runtime.morestack_noctxt(SB)
	0x02cb 00715 (/bigdata/qiuhan/codet5/usage/goroot/test/codegen/maps.go:126)	MOVQ	8(SP), AX
	0x02d0 00720 (/bigdata/qiuhan/codet5/usage/goroot/test/codegen/maps.go:126)	PCDATA	$0, $-1
	0x02d0 00720 (/bigdata/qiuhan/codet5/usage/goroot/test/codegen/maps.go:126)	JMP	0
	0x0000 49 3b 66 10 0f 86 b7 02 00 00 48 83 ec 30 48 89  I;f.......H..0H.
	0x0010 6c 24 28 48 8d 6c 24 28 48 89 44 24 38 bb 0a 00  l$(H.l$(H.D$8...
	0x0020 00 00 31 c9 48 8d 05 00 00 00 00 e8 00 00 00 00  ..1.H...........
	0x0030 48 89 44 24 20 48 89 c3 31 c9 48 8d 05 00 00 00  H.D$ H..1.H.....
	0x0040 00 e8 00 00 00 00 48 c7 00 00 00 00 00 48 8d 05  ......H......H..
	0x0050 00 00 00 00 48 8b 5c 24 20 b9 01 00 00 00 66 90  ....H.\$ .....f.
	0x0060 e8 00 00 00 00 48 c7 00 01 00 00 00 48 8d 05 00  .....H......H...
	0x0070 00 00 00 48 8b 5c 24 20 b9 02 00 00 00 0f 1f 00  ...H.\$ ........
	0x0080 e8 00 00 00 00 48 c7 00 02 00 00 00 48 8d 05 00  .....H......H...
	0x0090 00 00 00 48 8b 5c 24 20 b9 03 00 00 00 0f 1f 00  ...H.\$ ........
	0x00a0 e8 00 00 00 00 48 c7 00 03 00 00 00 48 8d 05 00  .....H......H...
	0x00b0 00 00 00 48 8b 5c 24 20 b9 04 00 00 00 0f 1f 00  ...H.\$ ........
	0x00c0 e8 00 00 00 00 48 c7 00 04 00 00 00 48 8d 05 00  .....H......H...
	0x00d0 00 00 00 48 8b 5c 24 20 b9 05 00 00 00 0f 1f 00  ...H.\$ ........
	0x00e0 e8 00 00 00 00 48 c7 00 05 00 00 00 48 8d 05 00  .....H......H...
	0x00f0 00 00 00 48 8b 5c 24 20 b9 06 00 00 00 0f 1f 00  ...H.\$ ........
	0x0100 e8 00 00 00 00 48 c7 00 06 00 00 00 48 8d 05 00  .....H......H...
	0x0110 00 00 00 48 8b 5c 24 20 b9 07 00 00 00 0f 1f 00  ...H.\$ ........
	0x0120 e8 00 00 00 00 48 c7 00 07 00 00 00 48 8d 05 00  .....H......H...
	0x0130 00 00 00 48 8b 5c 24 20 b9 08 00 00 00 0f 1f 00  ...H.\$ ........
	0x0140 e8 00 00 00 00 48 c7 00 08 00 00 00 48 8d 05 00  .....H......H...
	0x0150 00 00 00 48 8b 5c 24 20 b9 09 00 00 00 0f 1f 00  ...H.\$ ........
	0x0160 e8 00 00 00 00 48 c7 00 09 00 00 00 48 8d 05 00  .....H......H...
	0x0170 00 00 00 bb 0a 00 00 00 31 c9 e8 00 00 00 00 48  ........1......H
	0x0180 89 44 24 18 48 89 c3 31 c9 48 8d 05 00 00 00 00  .D$.H..1.H......
	0x0190 e8 00 00 00 00 48 8b 54 24 38 48 89 10 48 8d 05  .....H.T$8H..H..
	0x01a0 00 00 00 00 48 8b 5c 24 18 b9 01 00 00 00 e8 00  ....H.\$........
	0x01b0 00 00 00 48 8b 54 24 38 48 89 10 48 8d 05 00 00  ...H.T$8H..H....
	0x01c0 00 00 48 8b 5c 24 18 b9 02 00 00 00 e8 00 00 00  ..H.\$..........
	0x01d0 00 48 8b 54 24 38 48 89 10 48 8d 05 00 00 00 00  .H.T$8H..H......
	0x01e0 48 8b 5c 24 18 b9 03 00 00 00 e8 00 00 00 00 48  H.\$...........H
	0x01f0 8b 54 24 38 48 89 10 48 8d 05 00 00 00 00 48 8b  .T$8H..H......H.
	0x0200 5c 24 18 b9 04 00 00 00 e8 00 00 00 00 48 8b 54  \$...........H.T
	0x0210 24 38 48 89 10 48 8d 05 00 00 00 00 48 8b 5c 24  $8H..H......H.\$
	0x0220 18 b9 05 00 00 00 e8 00 00 00 00 48 8b 54 24 38  ...........H.T$8
	0x0230 48 89 10 48 8d 05 00 00 00 00 48 8b 5c 24 18 b9  H..H......H.\$..
	0x0240 06 00 00 00 e8 00 00 00 00 48 8b 54 24 38 48 89  .........H.T$8H.
	0x0250 10 48 8d 05 00 00 00 00 48 8b 5c 24 18 b9 07 00  .H......H.\$....
	0x0260 00 00 e8 00 00 00 00 48 8b 54 24 38 48 89 10 48  .......H.T$8H..H
	0x0270 8d 05 00 00 00 00 48 8b 5c 24 18 b9 08 00 00 00  ......H.\$......
	0x0280 e8 00 00 00 00 48 8b 54 24 38 48 89 10 48 8d 05  .....H.T$8H..H..
	0x0290 00 00 00 00 48 8b 5c 24 18 b9 09 00 00 00 66 90  ....H.\$......f.
	0x02a0 e8 00 00 00 00 48 8b 54 24 38 48 89 10 48 8b 44  .....H.T$8H..H.D
	0x02b0 24 20 48 8b 5c 24 18 48 8b 6c 24 28 48 83 c4 30  $ H.\$.H.l$(H..0
	0x02c0 c3 48 89 44 24 08 e8 00 00 00 00 48 8b 44 24 08  .H.D$......H.D$.
	0x02d0 e9 2b fd ff ff                                   .+...
	rel 39+4 t=14 type:map[int]int<0>+0
	rel 44+4 t=7 runtime.makemap<1>+0
	rel 61+4 t=14 type:map[int]int<0>+0
	rel 66+4 t=7 runtime.mapassign_fast64<1>+0
	rel 80+4 t=14 type:map[int]int<0>+0
	rel 97+4 t=7 runtime.mapassign_fast64<1>+0
	rel 111+4 t=14 type:map[int]int<0>+0
	rel 129+4 t=7 runtime.mapassign_fast64<1>+0
	rel 143+4 t=14 type:map[int]int<0>+0
	rel 161+4 t=7 runtime.mapassign_fast64<1>+0
	rel 175+4 t=14 type:map[int]int<0>+0
	rel 193+4 t=7 runtime.mapassign_fast64<1>+0
	rel 207+4 t=14 type:map[int]int<0>+0
	rel 225+4 t=7 runtime.mapassign_fast64<1>+0
	rel 239+4 t=14 type:map[int]int<0>+0
	rel 257+4 t=7 runtime.mapassign_fast64<1>+0
	rel 271+4 t=14 type:map[int]int<0>+0
	rel 289+4 t=7 runtime.mapassign_fast64<1>+0
	rel 303+4 t=14 type:map[int]int<0>+0
	rel 321+4 t=7 runtime.mapassign_fast64<1>+0
	rel 335+4 t=14 type:map[int]int<0>+0
	rel 353+4 t=7 runtime.mapassign_fast64<1>+0
	rel 367+4 t=14 type:map[int]int<0>+0
	rel 379+4 t=7 runtime.makemap<1>+0
	rel 396+4 t=14 type:map[int]int<0>+0
	rel 401+4 t=7 runtime.mapassign_fast64<1>+0
	rel 416+4 t=14 type:map[int]int<0>+0
	rel 431+4 t=7 runtime.mapassign_fast64<1>+0
	rel 446+4 t=14 type:map[int]int<0>+0
	rel 461+4 t=7 runtime.mapassign_fast64<1>+0
	rel 476+4 t=14 type:map[int]int<0>+0
	rel 491+4 t=7 runtime.mapassign_fast64<1>+0
	rel 506+4 t=14 type:map[int]int<0>+0
	rel 521+4 t=7 runtime.mapassign_fast64<1>+0
	rel 536+4 t=14 type:map[int]int<0>+0
	rel 551+4 t=7 runtime.mapassign_fast64<1>+0
	rel 566+4 t=14 type:map[int]int<0>+0
	rel 581+4 t=7 runtime.mapassign_fast64<1>+0
	rel 596+4 t=14 type:map[int]int<0>+0
	rel 611+4 t=7 runtime.mapassign_fast64<1>+0
	rel 626+4 t=14 type:map[int]int<0>+0
	rel 641+4 t=7 runtime.mapassign_fast64<1>+0
	rel 656+4 t=14 type:map[int]int<0>+0
	rel 673+4 t=7 runtime.mapassign_fast64<1>+0
	rel 711+4 t=7 runtime.morestack_noctxt<0>+0
type:.eq.[2]string<1> STEXT dupok size=180 args=0x10 locals=0x28 funcid=0x0 align=0x0
	0x0000 00000 (<autogenerated>:1)	TEXT	type:.eq.[2]string(SB), DUPOK|ABIInternal, $40-16
	0x0000 00000 (<autogenerated>:1)	CMPQ	SP, 16(R14)
	0x0004 00004 (<autogenerated>:1)	PCDATA	$0, $-2
	0x0004 00004 (<autogenerated>:1)	JLS	148
	0x000a 00010 (<autogenerated>:1)	PCDATA	$0, $-1
	0x000a 00010 (<autogenerated>:1)	SUBQ	$40, SP
	0x000e 00014 (<autogenerated>:1)	MOVQ	BP, 32(SP)
	0x0013 00019 (<autogenerated>:1)	LEAQ	32(SP), BP
	0x0018 00024 (<autogenerated>:1)	FUNCDATA	$0, gclocals·TjPuuCwdlCpTaRQGRKTrYw==(SB)
	0x0018 00024 (<autogenerated>:1)	FUNCDATA	$1, gclocals·J5F+7Qw7O7ve2QcWC7DpeQ==(SB)
	0x0018 00024 (<autogenerated>:1)	FUNCDATA	$5, type:.eq.[2]string.arginfo1(SB)
	0x0018 00024 (<autogenerated>:1)	FUNCDATA	$6, type:.eq.[2]string.argliveinfo(SB)
	0x0018 00024 (<autogenerated>:1)	PCDATA	$3, $1
	0x0018 00024 (<autogenerated>:1)	MOVQ	8(BX), DX
	0x001c 00028 (<autogenerated>:1)	NOP
	0x0020 00032 (<autogenerated>:1)	CMPQ	8(AX), DX
	0x0024 00036 (<autogenerated>:1)	JNE	62
	0x0026 00038 (<autogenerated>:1)	MOVQ	24(AX), DX
	0x002a 00042 (<autogenerated>:1)	CMPQ	24(BX), DX
	0x002e 00046 (<autogenerated>:1)	JNE	62
	0x0030 00048 (<autogenerated>:1)	MOVQ	AX, command-line-arguments.p+48(SP)
	0x0035 00053 (<autogenerated>:1)	MOVQ	BX, command-line-arguments.q+56(SP)
	0x003a 00058 (<autogenerated>:1)	PCDATA	$3, $-1
	0x003a 00058 (<autogenerated>:1)	XORL	CX, CX
	0x003c 00060 (<autogenerated>:1)	JMP	96
	0x003e 00062 (<autogenerated>:1)	PCDATA	$3, $1
	0x003e 00062 (<autogenerated>:1)	XORL	AX, AX
	0x0040 00064 (<autogenerated>:1)	MOVQ	32(SP), BP
	0x0045 00069 (<autogenerated>:1)	ADDQ	$40, SP
	0x0049 00073 (<autogenerated>:1)	RET
	0x004a 00074 (<autogenerated>:1)	PCDATA	$3, $-1
	0x004a 00074 (<autogenerated>:1)	MOVQ	command-line-arguments..autotmp_9+24(SP), CX
	0x004f 00079 (<autogenerated>:1)	INCQ	CX
	0x0052 00082 (<autogenerated>:1)	MOVQ	command-line-arguments.p+48(SP), AX
	0x0057 00087 (<autogenerated>:1)	MOVQ	command-line-arguments.q+56(SP), BX
	0x005c 00092 (<autogenerated>:1)	NOP
	0x0060 00096 (<autogenerated>:1)	CMPQ	CX, $2
	0x0064 00100 (<autogenerated>:1)	JGE	141
	0x0066 00102 (<autogenerated>:1)	MOVQ	CX, command-line-arguments..autotmp_9+24(SP)
	0x006b 00107 (<autogenerated>:1)	SHLQ	$4, CX
	0x006f 00111 (<autogenerated>:1)	MOVQ	(CX)(AX*1), SI
	0x0073 00115 (<autogenerated>:1)	MOVQ	(CX)(BX*1), DI
	0x0077 00119 (<autogenerated>:1)	MOVQ	8(AX)(CX*1), CX
	0x007c 00124 (<autogenerated>:1)	MOVQ	SI, AX
	0x007f 00127 (<autogenerated>:1)	MOVQ	DI, BX
	0x0082 00130 (<autogenerated>:1)	PCDATA	$1, $0
	0x0082 00130 (<autogenerated>:1)	CALL	runtime.memequal(SB)
	0x0087 00135 (<autogenerated>:1)	TESTB	AL, AL
	0x0089 00137 (<autogenerated>:1)	JNE	74
	0x008b 00139 (<autogenerated>:1)	JMP	62
	0x008d 00141 (<autogenerated>:1)	MOVL	$1, AX
	0x0092 00146 (<autogenerated>:1)	JMP	64
	0x0094 00148 (<autogenerated>:1)	NOP
	0x0094 00148 (<autogenerated>:1)	PCDATA	$1, $-1
	0x0094 00148 (<autogenerated>:1)	PCDATA	$0, $-2
	0x0094 00148 (<autogenerated>:1)	MOVQ	AX, 8(SP)
	0x0099 00153 (<autogenerated>:1)	MOVQ	BX, 16(SP)
	0x009e 00158 (<autogenerated>:1)	NOP
	0x00a0 00160 (<autogenerated>:1)	CALL	runtime.morestack_noctxt(SB)
	0x00a5 00165 (<autogenerated>:1)	MOVQ	8(SP), AX
	0x00aa 00170 (<autogenerated>:1)	MOVQ	16(SP), BX
	0x00af 00175 (<autogenerated>:1)	PCDATA	$0, $-1
	0x00af 00175 (<autogenerated>:1)	JMP	0
	0x0000 49 3b 66 10 0f 86 8a 00 00 00 48 83 ec 28 48 89  I;f.......H..(H.
	0x0010 6c 24 20 48 8d 6c 24 20 48 8b 53 08 0f 1f 40 00  l$ H.l$ H.S...@.
	0x0020 48 39 50 08 75 18 48 8b 50 18 48 39 53 18 75 0e  H9P.u.H.P.H9S.u.
	0x0030 48 89 44 24 30 48 89 5c 24 38 31 c9 eb 22 31 c0  H.D$0H.\$81.."1.
	0x0040 48 8b 6c 24 20 48 83 c4 28 c3 48 8b 4c 24 18 48  H.l$ H..(.H.L$.H
	0x0050 ff c1 48 8b 44 24 30 48 8b 5c 24 38 0f 1f 40 00  ..H.D$0H.\$8..@.
	0x0060 48 83 f9 02 7d 27 48 89 4c 24 18 48 c1 e1 04 48  H...}'H.L$.H...H
	0x0070 8b 34 01 48 8b 3c 19 48 8b 4c 08 08 48 89 f0 48  .4.H.<.H.L..H..H
	0x0080 89 fb e8 00 00 00 00 84 c0 75 bf eb b1 b8 01 00  .........u......
	0x0090 00 00 eb ac 48 89 44 24 08 48 89 5c 24 10 66 90  ....H.D$.H.\$.f.
	0x00a0 e8 00 00 00 00 48 8b 44 24 08 48 8b 5c 24 10 e9  .....H.D$.H.\$..
	0x00b0 4c ff ff ff                                      L...
	rel 131+4 t=7 runtime.memequal<1>+0
	rel 161+4 t=7 runtime.morestack_noctxt<0>+0
type:.hash.[2]string<1> STEXT dupok size=113 args=0x10 locals=0x20 funcid=0x0 align=0x0
	0x0000 00000 (<autogenerated>:1)	TEXT	type:.hash.[2]string(SB), DUPOK|ABIInternal, $32-16
	0x0000 00000 (<autogenerated>:1)	CMPQ	SP, 16(R14)
	0x0004 00004 (<autogenerated>:1)	PCDATA	$0, $-2
	0x0004 00004 (<autogenerated>:1)	JLS	84
	0x0006 00006 (<autogenerated>:1)	PCDATA	$0, $-1
	0x0006 00006 (<autogenerated>:1)	SUBQ	$32, SP
	0x000a 00010 (<autogenerated>:1)	MOVQ	BP, 24(SP)
	0x000f 00015 (<autogenerated>:1)	LEAQ	24(SP), BP
	0x0014 00020 (<autogenerated>:1)	FUNCDATA	$0, gclocals·wgcWObbY2HYnK2SU/U22lA==(SB)
	0x0014 00020 (<autogenerated>:1)	FUNCDATA	$1, gclocals·J5F+7Qw7O7ve2QcWC7DpeQ==(SB)
	0x0014 00020 (<autogenerated>:1)	FUNCDATA	$5, type:.hash.[2]string.arginfo1(SB)
	0x0014 00020 (<autogenerated>:1)	FUNCDATA	$6, type:.hash.[2]string.argliveinfo(SB)
	0x0014 00020 (<autogenerated>:1)	PCDATA	$3, $1
	0x0014 00020 (<autogenerated>:1)	MOVQ	AX, command-line-arguments.p+40(SP)
	0x0019 00025 (<autogenerated>:1)	PCDATA	$3, $2
	0x0019 00025 (<autogenerated>:1)	XORL	CX, CX
	0x001b 00027 (<autogenerated>:1)	JMP	65
	0x001d 00029 (<autogenerated>:1)	MOVQ	CX, command-line-arguments..autotmp_5+16(SP)
	0x0022 00034 (<autogenerated>:1)	SHLQ	$4, CX
	0x0026 00038 (<autogenerated>:1)	ADDQ	AX, CX
	0x0029 00041 (<autogenerated>:1)	MOVQ	CX, AX
	0x002c 00044 (<autogenerated>:1)	PCDATA	$1, $0
	0x002c 00044 (<autogenerated>:1)	CALL	runtime.strhash(SB)
	0x0031 00049 (<autogenerated>:1)	MOVQ	command-line-arguments..autotmp_5+16(SP), CX
	0x0036 00054 (<autogenerated>:1)	INCQ	CX
	0x0039 00057 (<autogenerated>:1)	MOVQ	AX, BX
	0x003c 00060 (<autogenerated>:1)	MOVQ	command-line-arguments.p+40(SP), AX
	0x0041 00065 (<autogenerated>:1)	CMPQ	CX, $2
	0x0045 00069 (<autogenerated>:1)	JLT	29
	0x0047 00071 (<autogenerated>:1)	MOVQ	BX, AX
	0x004a 00074 (<autogenerated>:1)	MOVQ	24(SP), BP
	0x004f 00079 (<autogenerated>:1)	ADDQ	$32, SP
	0x0053 00083 (<autogenerated>:1)	RET
	0x0054 00084 (<autogenerated>:1)	NOP
	0x0054 00084 (<autogenerated>:1)	PCDATA	$1, $-1
	0x0054 00084 (<autogenerated>:1)	PCDATA	$0, $-2
	0x0054 00084 (<autogenerated>:1)	MOVQ	AX, 8(SP)
	0x0059 00089 (<autogenerated>:1)	MOVQ	BX, 16(SP)
	0x005e 00094 (<autogenerated>:1)	NOP
	0x0060 00096 (<autogenerated>:1)	CALL	runtime.morestack_noctxt(SB)
	0x0065 00101 (<autogenerated>:1)	MOVQ	8(SP), AX
	0x006a 00106 (<autogenerated>:1)	MOVQ	16(SP), BX
	0x006f 00111 (<autogenerated>:1)	PCDATA	$0, $-1
	0x006f 00111 (<autogenerated>:1)	JMP	0
	0x0000 49 3b 66 10 76 4e 48 83 ec 20 48 89 6c 24 18 48  I;f.vNH.. H.l$.H
	0x0010 8d 6c 24 18 48 89 44 24 28 31 c9 eb 24 48 89 4c  .l$.H.D$(1..$H.L
	0x0020 24 10 48 c1 e1 04 48 01 c1 48 89 c8 e8 00 00 00  $.H...H..H......
	0x0030 00 48 8b 4c 24 10 48 ff c1 48 89 c3 48 8b 44 24  .H.L$.H..H..H.D$
	0x0040 28 48 83 f9 02 7c d6 48 89 d8 48 8b 6c 24 18 48  (H...|.H..H.l$.H
	0x0050 83 c4 20 c3 48 89 44 24 08 48 89 5c 24 10 66 90  .. .H.D$.H.\$.f.
	0x0060 e8 00 00 00 00 48 8b 44 24 08 48 8b 5c 24 10 eb  .....H.D$.H.\$..
	0x0070 8f                                               .
	rel 45+4 t=7 runtime.strhash<1>+0
	rel 97+4 t=7 runtime.morestack_noctxt<0>+0
go:cuinfo.producer.command-line-arguments<0> SDWARFCUINFO dupok size=0
	0x0000 72 65 67 61 62 69                                regabi
go:cuinfo.packagename.command-line-arguments<0> SDWARFCUINFO dupok size=0
	0x0000 63 6f 64 65 67 65 6e                             codegen
go:string."abc"<0> SRODATA dupok size=3
	0x0000 61 62 63                                         abc
type:.eqfunc.[2]string<0> SRODATA dupok size=8
	0x0000 00 00 00 00 00 00 00 00                          ........
	rel 0+8 t=1 type:.eq.[2]string<1>+0
runtime.memequal64·f<0> SRODATA dupok size=8
	0x0000 00 00 00 00 00 00 00 00                          ........
	rel 0+8 t=1 runtime.memequal64<1>+0
runtime.gcbits.0100000000000000<0> SRODATA dupok size=8
	0x0000 01 00 00 00 00 00 00 00                          ........
type:.namedata.*[2]string-<0> SRODATA dupok size=12
	0x0000 00 0a 2a 5b 32 5d 73 74 72 69 6e 67              ..*[2]string
type:*[2]string<0> SRODATA dupok size=56
	0x0000 08 00 00 00 00 00 00 00 08 00 00 00 00 00 00 00  ................
	0x0010 d5 e5 67 a6 08 08 08 36 00 00 00 00 00 00 00 00  ..g....6........
	0x0020 00 00 00 00 00 00 00 00 00 00 00 00 00 00 00 00  ................
	0x0030 00 00 00 00 00 00 00 00                          ........
	rel 24+8 t=1 runtime.memequal64·f<0>+0
	rel 32+8 t=1 runtime.gcbits.0100000000000000<0>+0
	rel 40+4 t=5 type:.namedata.*[2]string-<0>+0
	rel 48+8 t=1 type:[2]string<0>+0
runtime.gcbits.0500000000000000<0> SRODATA dupok size=8
	0x0000 05 00 00 00 00 00 00 00                          ........
type:[2]string<0> SRODATA dupok size=72
	0x0000 20 00 00 00 00 00 00 00 18 00 00 00 00 00 00 00   ...............
	0x0010 56 96 d3 dd 02 08 08 11 00 00 00 00 00 00 00 00  V...............
	0x0020 00 00 00 00 00 00 00 00 00 00 00 00 00 00 00 00  ................
	0x0030 00 00 00 00 00 00 00 00 00 00 00 00 00 00 00 00  ................
	0x0040 02 00 00 00 00 00 00 00                          ........
	rel 24+8 t=1 type:.eqfunc.[2]string<0>+0
	rel 32+8 t=1 runtime.gcbits.0500000000000000<0>+0
	rel 40+4 t=5 type:.namedata.*[2]string-<0>+0
	rel 44+4 t=-32763 type:*[2]string<0>+0
	rel 48+8 t=1 type:string<0>+0
	rel 56+8 t=1 type:[]string<0>+0
type:.namedata.*[8]uint8-<0> SRODATA dupok size=11
	0x0000 00 09 2a 5b 38 5d 75 69 6e 74 38                 ..*[8]uint8
type:*[8]uint8<0> SRODATA dupok size=56
	0x0000 08 00 00 00 00 00 00 00 08 00 00 00 00 00 00 00  ................
	0x0010 f8 9a 95 1a 08 08 08 36 00 00 00 00 00 00 00 00  .......6........
	0x0020 00 00 00 00 00 00 00 00 00 00 00 00 00 00 00 00  ................
	0x0030 00 00 00 00 00 00 00 00                          ........
	rel 24+8 t=1 runtime.memequal64·f<0>+0
	rel 32+8 t=1 runtime.gcbits.0100000000000000<0>+0
	rel 40+4 t=5 type:.namedata.*[8]uint8-<0>+0
	rel 48+8 t=1 type:[8]uint8<0>+0
runtime.gcbits.<0> SRODATA dupok size=0
type:[8]uint8<0> SRODATA dupok size=72
	0x0000 08 00 00 00 00 00 00 00 00 00 00 00 00 00 00 00  ................
	0x0010 89 18 9c b4 0a 01 01 11 00 00 00 00 00 00 00 00  ................
	0x0020 00 00 00 00 00 00 00 00 00 00 00 00 00 00 00 00  ................
	0x0030 00 00 00 00 00 00 00 00 00 00 00 00 00 00 00 00  ................
	0x0040 08 00 00 00 00 00 00 00                          ........
	rel 24+8 t=1 runtime.memequal64·f<0>+0
	rel 32+8 t=1 runtime.gcbits.<0>+0
	rel 40+4 t=5 type:.namedata.*[8]uint8-<0>+0
	rel 44+4 t=-32763 type:*[8]uint8<0>+0
	rel 48+8 t=1 type:uint8<0>+0
	rel 56+8 t=1 type:[]uint8<0>+0
type:.namedata.*[]*uint8-<0> SRODATA dupok size=11
	0x0000 00 09 2a 5b 5d 2a 75 69 6e 74 38                 ..*[]*uint8
type:*[]*uint8<0> SRODATA dupok size=56
	0x0000 08 00 00 00 00 00 00 00 08 00 00 00 00 00 00 00  ................
	0x0010 67 fe fa 66 08 08 08 36 00 00 00 00 00 00 00 00  g..f...6........
	0x0020 00 00 00 00 00 00 00 00 00 00 00 00 00 00 00 00  ................
	0x0030 00 00 00 00 00 00 00 00                          ........
	rel 24+8 t=1 runtime.memequal64·f<0>+0
	rel 32+8 t=1 runtime.gcbits.0100000000000000<0>+0
	rel 40+4 t=5 type:.namedata.*[]*uint8-<0>+0
	rel 48+8 t=1 type:[]*uint8<0>+0
type:[]*uint8<0> SRODATA dupok size=56
	0x0000 18 00 00 00 00 00 00 00 08 00 00 00 00 00 00 00  ................
	0x0010 10 e5 81 e8 02 08 08 17 00 00 00 00 00 00 00 00  ................
	0x0020 00 00 00 00 00 00 00 00 00 00 00 00 00 00 00 00  ................
	0x0030 00 00 00 00 00 00 00 00                          ........
	rel 32+8 t=1 runtime.gcbits.0100000000000000<0>+0
	rel 40+4 t=5 type:.namedata.*[]*uint8-<0>+0
	rel 44+4 t=-32763 type:*[]*uint8<0>+0
	rel 48+8 t=1 type:*uint8<0>+0
type:.namedata.*[8]*uint8-<0> SRODATA dupok size=12
	0x0000 00 0a 2a 5b 38 5d 2a 75 69 6e 74 38              ..*[8]*uint8
type:*[8]*uint8<0> SRODATA dupok size=56
	0x0000 08 00 00 00 00 00 00 00 08 00 00 00 00 00 00 00  ................
	0x0010 60 86 d7 63 08 08 08 36 00 00 00 00 00 00 00 00  `..c...6........
	0x0020 00 00 00 00 00 00 00 00 00 00 00 00 00 00 00 00  ................
	0x0030 00 00 00 00 00 00 00 00                          ........
	rel 24+8 t=1 runtime.memequal64·f<0>+0
	rel 32+8 t=1 runtime.gcbits.0100000000000000<0>+0
	rel 40+4 t=5 type:.namedata.*[8]*uint8-<0>+0
	rel 48+8 t=1 type:noalg.[8]*uint8<0>+0
runtime.gcbits.ff00000000000000<0> SRODATA dupok size=8
	0x0000 ff 00 00 00 00 00 00 00                          ........
type:noalg.[8]*uint8<0> SRODATA dupok size=72
	0x0000 40 00 00 00 00 00 00 00 40 00 00 00 00 00 00 00  @.......@.......
	0x0010 1c 2e 65 6a 02 08 08 11 00 00 00 00 00 00 00 00  ..ej............
	0x0020 00 00 00 00 00 00 00 00 00 00 00 00 00 00 00 00  ................
	0x0030 00 00 00 00 00 00 00 00 00 00 00 00 00 00 00 00  ................
	0x0040 08 00 00 00 00 00 00 00                          ........
	rel 32+8 t=1 runtime.gcbits.ff00000000000000<0>+0
	rel 40+4 t=5 type:.namedata.*[8]*uint8-<0>+0
	rel 44+4 t=-32763 type:*[8]*uint8<0>+0
	rel 48+8 t=1 type:*uint8<0>+0
	rel 56+8 t=1 type:[]*uint8<0>+0
type:.namedata.*[8]int-<0> SRODATA dupok size=9
	0x0000 00 07 2a 5b 38 5d 69 6e 74                       ..*[8]int
type:*[8]int<0> SRODATA dupok size=56
	0x0000 08 00 00 00 00 00 00 00 08 00 00 00 00 00 00 00  ................
	0x0010 b2 24 38 0a 08 08 08 36 00 00 00 00 00 00 00 00  .$8....6........
	0x0020 00 00 00 00 00 00 00 00 00 00 00 00 00 00 00 00  ................
	0x0030 00 00 00 00 00 00 00 00                          ........
	rel 24+8 t=1 runtime.memequal64·f<0>+0
	rel 32+8 t=1 runtime.gcbits.0100000000000000<0>+0
	rel 40+4 t=5 type:.namedata.*[8]int-<0>+0
	rel 48+8 t=1 type:noalg.[8]int<0>+0
type:noalg.[8]int<0> SRODATA dupok size=72
	0x0000 40 00 00 00 00 00 00 00 00 00 00 00 00 00 00 00  @...............
	0x0010 94 48 d7 e9 02 08 08 11 00 00 00 00 00 00 00 00  .H..............
	0x0020 00 00 00 00 00 00 00 00 00 00 00 00 00 00 00 00  ................
	0x0030 00 00 00 00 00 00 00 00 00 00 00 00 00 00 00 00  ................
	0x0040 08 00 00 00 00 00 00 00                          ........
	rel 32+8 t=1 runtime.gcbits.<0>+0
	rel 40+4 t=5 type:.namedata.*[8]int-<0>+0
	rel 44+4 t=-32763 type:*[8]int<0>+0
	rel 48+8 t=1 type:int<0>+0
	rel 56+8 t=1 type:[]int<0>+0
type:.namedata.*map.bucket[*uint8]int-<0> SRODATA dupok size=24
	0x0000 00 16 2a 6d 61 70 2e 62 75 63 6b 65 74 5b 2a 75  ..*map.bucket[*u
	0x0010 69 6e 74 38 5d 69 6e 74                          int8]int
type:*map.bucket[*uint8]int<0> SRODATA dupok size=56
	0x0000 08 00 00 00 00 00 00 00 08 00 00 00 00 00 00 00  ................
	0x0010 3e c0 2d 67 08 08 08 36 00 00 00 00 00 00 00 00  >.-g...6........
	0x0020 00 00 00 00 00 00 00 00 00 00 00 00 00 00 00 00  ................
	0x0030 00 00 00 00 00 00 00 00                          ........
	rel 24+8 t=1 runtime.memequal64·f<0>+0
	rel 32+8 t=1 runtime.gcbits.0100000000000000<0>+0
	rel 40+4 t=5 type:.namedata.*map.bucket[*uint8]int-<0>+0
	rel 48+8 t=1 type:noalg.map.bucket[*uint8]int<0>+0
runtime.gcbits.fe01020000000000<0> SRODATA dupok size=8
	0x0000 fe 01 02 00 00 00 00 00                          ........
type:.importpath..<0> SRODATA dupok size=2
	0x0000 00 00                                            ..
type:.namedata.topbits-<0> SRODATA dupok size=9
	0x0000 00 07 74 6f 70 62 69 74 73                       ..topbits
type:.namedata.keys-<0> SRODATA dupok size=6
	0x0000 00 04 6b 65 79 73                                ..keys
type:.namedata.elems-<0> SRODATA dupok size=7
	0x0000 00 05 65 6c 65 6d 73                             ..elems
type:.namedata.overflow-<0> SRODATA dupok size=10
	0x0000 00 08 6f 76 65 72 66 6c 6f 77                    ..overflow
type:noalg.map.bucket[*uint8]int<0> SRODATA dupok size=176
	0x0000 90 00 00 00 00 00 00 00 90 00 00 00 00 00 00 00  ................
	0x0010 8f cc df 80 02 08 08 19 00 00 00 00 00 00 00 00  ................
	0x0020 00 00 00 00 00 00 00 00 00 00 00 00 00 00 00 00  ................
	0x0030 00 00 00 00 00 00 00 00 00 00 00 00 00 00 00 00  ................
	0x0040 04 00 00 00 00 00 00 00 04 00 00 00 00 00 00 00  ................
	0x0050 00 00 00 00 00 00 00 00 00 00 00 00 00 00 00 00  ................
	0x0060 00 00 00 00 00 00 00 00 00 00 00 00 00 00 00 00  ................
	0x0070 00 00 00 00 00 00 00 00 08 00 00 00 00 00 00 00  ................
	0x0080 00 00 00 00 00 00 00 00 00 00 00 00 00 00 00 00  ................
	0x0090 48 00 00 00 00 00 00 00 00 00 00 00 00 00 00 00  H...............
	0x00a0 00 00 00 00 00 00 00 00 88 00 00 00 00 00 00 00  ................
	rel 32+8 t=1 runtime.gcbits.fe01020000000000<0>+0
	rel 40+4 t=5 type:.namedata.*map.bucket[*uint8]int-<0>+0
	rel 44+4 t=-32763 type:*map.bucket[*uint8]int<0>+0
	rel 48+8 t=1 type:.importpath..<0>+0
	rel 56+8 t=1 type:noalg.map.bucket[*uint8]int<0>+80
	rel 80+8 t=1 type:.namedata.topbits-<0>+0
	rel 88+8 t=1 type:[8]uint8<0>+0
	rel 104+8 t=1 type:.namedata.keys-<0>+0
	rel 112+8 t=1 type:noalg.[8]*uint8<0>+0
	rel 128+8 t=1 type:.namedata.elems-<0>+0
	rel 136+8 t=1 type:noalg.[8]int<0>+0
	rel 152+8 t=1 type:.namedata.overflow-<0>+0
	rel 160+8 t=1 type:unsafe.Pointer<0>+0
runtime.memhash64·f<0> SRODATA dupok size=8
	0x0000 00 00 00 00 00 00 00 00                          ........
	rel 0+8 t=1 runtime.memhash64<1>+0
type:.namedata.*map[*uint8]int-<0> SRODATA dupok size=17
	0x0000 00 0f 2a 6d 61 70 5b 2a 75 69 6e 74 38 5d 69 6e  ..*map[*uint8]in
	0x0010 74                                               t
type:*map[*uint8]int<0> SRODATA dupok size=56
	0x0000 08 00 00 00 00 00 00 00 08 00 00 00 00 00 00 00  ................
	0x0010 77 14 e2 b2 08 08 08 36 00 00 00 00 00 00 00 00  w......6........
	0x0020 00 00 00 00 00 00 00 00 00 00 00 00 00 00 00 00  ................
	0x0030 00 00 00 00 00 00 00 00                          ........
	rel 24+8 t=1 runtime.memequal64·f<0>+0
	rel 32+8 t=1 runtime.gcbits.0100000000000000<0>+0
	rel 40+4 t=5 type:.namedata.*map[*uint8]int-<0>+0
	rel 48+8 t=1 type:map[*uint8]int<0>+0
type:map[*uint8]int<0> SRODATA dupok size=88
	0x0000 08 00 00 00 00 00 00 00 08 00 00 00 00 00 00 00  ................
	0x0010 21 c6 fc c2 02 08 08 35 00 00 00 00 00 00 00 00  !......5........
	0x0020 00 00 00 00 00 00 00 00 00 00 00 00 00 00 00 00  ................
	0x0030 00 00 00 00 00 00 00 00 00 00 00 00 00 00 00 00  ................
	0x0040 00 00 00 00 00 00 00 00 00 00 00 00 00 00 00 00  ................
	0x0050 08 08 90 00 04 00 00 00                          ........
	rel 32+8 t=1 runtime.gcbits.0100000000000000<0>+0
	rel 40+4 t=5 type:.namedata.*map[*uint8]int-<0>+0
	rel 44+4 t=-32763 type:*map[*uint8]int<0>+0
	rel 48+8 t=1 type:*uint8<0>+0
	rel 56+8 t=1 type:int<0>+0
	rel 64+8 t=1 type:noalg.map.bucket[*uint8]int<0>+0
	rel 72+8 t=1 runtime.memhash64·f<0>+0
runtime.strequal·f<0> SRODATA dupok size=8
	0x0000 00 00 00 00 00 00 00 00                          ........
	rel 0+8 t=1 runtime.strequal<1>+0
type:.namedata.*[1]string-<0> SRODATA dupok size=12
	0x0000 00 0a 2a 5b 31 5d 73 74 72 69 6e 67              ..*[1]string
type:*[1]string<0> SRODATA dupok size=56
	0x0000 08 00 00 00 00 00 00 00 08 00 00 00 00 00 00 00  ................
	0x0010 71 d9 f3 ae 08 08 08 36 00 00 00 00 00 00 00 00  q......6........
	0x0020 00 00 00 00 00 00 00 00 00 00 00 00 00 00 00 00  ................
	0x0030 00 00 00 00 00 00 00 00                          ........
	rel 24+8 t=1 runtime.memequal64·f<0>+0
	rel 32+8 t=1 runtime.gcbits.0100000000000000<0>+0
	rel 40+4 t=5 type:.namedata.*[1]string-<0>+0
	rel 48+8 t=1 type:[1]string<0>+0
type:[1]string<0> SRODATA dupok size=72
	0x0000 10 00 00 00 00 00 00 00 08 00 00 00 00 00 00 00  ................
	0x0010 1f 6b 63 d1 02 08 08 11 00 00 00 00 00 00 00 00  .kc.............
	0x0020 00 00 00 00 00 00 00 00 00 00 00 00 00 00 00 00  ................
	0x0030 00 00 00 00 00 00 00 00 00 00 00 00 00 00 00 00  ................
	0x0040 01 00 00 00 00 00 00 00                          ........
	rel 24+8 t=1 runtime.strequal·f<0>+0
	rel 32+8 t=1 runtime.gcbits.0100000000000000<0>+0
	rel 40+4 t=5 type:.namedata.*[1]string-<0>+0
	rel 44+4 t=-32763 type:*[1]string<0>+0
	rel 48+8 t=1 type:string<0>+0
	rel 56+8 t=1 type:[]string<0>+0
type:.namedata.*struct { s [1]string }-<0> SRODATA dupok size=25
	0x0000 00 17 2a 73 74 72 75 63 74 20 7b 20 73 20 5b 31  ..*struct { s [1
	0x0010 5d 73 74 72 69 6e 67 20 7d                       ]string }
type:*struct { command-line-arguments.s [1]string }<0> SRODATA dupok size=56
	0x0000 08 00 00 00 00 00 00 00 08 00 00 00 00 00 00 00  ................
	0x0010 28 42 36 0b 08 08 08 36 00 00 00 00 00 00 00 00  (B6....6........
	0x0020 00 00 00 00 00 00 00 00 00 00 00 00 00 00 00 00  ................
	0x0030 00 00 00 00 00 00 00 00                          ........
	rel 24+8 t=1 runtime.memequal64·f<0>+0
	rel 32+8 t=1 runtime.gcbits.0100000000000000<0>+0
	rel 40+4 t=5 type:.namedata.*struct { s [1]string }-<0>+0
	rel 48+8 t=1 type:struct { command-line-arguments.s [1]string }<0>+0
type:.importpath.command-line-arguments.<0> SRODATA dupok size=24
	0x0000 00 16 63 6f 6d 6d 61 6e 64 2d 6c 69 6e 65 2d 61  ..command-line-a
	0x0010 72 67 75 6d 65 6e 74 73                          rguments
type:.namedata.s-<0> SRODATA dupok size=3
	0x0000 00 01 73                                         ..s
type:struct { command-line-arguments.s [1]string }<0> SRODATA dupok size=104
	0x0000 10 00 00 00 00 00 00 00 08 00 00 00 00 00 00 00  ................
	0x0010 29 40 7c 0b 02 08 08 19 00 00 00 00 00 00 00 00  )@|.............
	0x0020 00 00 00 00 00 00 00 00 00 00 00 00 00 00 00 00  ................
	0x0030 00 00 00 00 00 00 00 00 00 00 00 00 00 00 00 00  ................
	0x0040 01 00 00 00 00 00 00 00 01 00 00 00 00 00 00 00  ................
	0x0050 00 00 00 00 00 00 00 00 00 00 00 00 00 00 00 00  ................
	0x0060 00 00 00 00 00 00 00 00                          ........
	rel 24+8 t=1 runtime.strequal·f<0>+0
	rel 32+8 t=1 runtime.gcbits.0100000000000000<0>+0
	rel 40+4 t=5 type:.namedata.*struct { s [1]string }-<0>+0
	rel 44+4 t=-32763 type:*struct { command-line-arguments.s [1]string }<0>+0
	rel 48+8 t=1 type:.importpath.command-line-arguments.<0>+0
	rel 56+8 t=1 type:struct { command-line-arguments.s [1]string }<0>+80
	rel 80+8 t=1 type:.namedata.s-<0>+0
	rel 88+8 t=1 type:[1]string<0>+0
type:.namedata.*[]struct { s [1]string }-<0> SRODATA dupok size=27
	0x0000 00 19 2a 5b 5d 73 74 72 75 63 74 20 7b 20 73 20  ..*[]struct { s 
	0x0010 5b 31 5d 73 74 72 69 6e 67 20 7d                 [1]string }
type:*[]struct { command-line-arguments.s [1]string }<0> SRODATA dupok size=56
	0x0000 08 00 00 00 00 00 00 00 08 00 00 00 00 00 00 00  ................
	0x0010 72 51 1b 67 08 08 08 36 00 00 00 00 00 00 00 00  rQ.g...6........
	0x0020 00 00 00 00 00 00 00 00 00 00 00 00 00 00 00 00  ................
	0x0030 00 00 00 00 00 00 00 00                          ........
	rel 24+8 t=1 runtime.memequal64·f<0>+0
	rel 32+8 t=1 runtime.gcbits.0100000000000000<0>+0
	rel 40+4 t=5 type:.namedata.*[]struct { s [1]string }-<0>+0
	rel 48+8 t=1 type:[]struct { command-line-arguments.s [1]string }<0>+0
type:[]struct { command-line-arguments.s [1]string }<0> SRODATA dupok size=56
	0x0000 18 00 00 00 00 00 00 00 08 00 00 00 00 00 00 00  ................
	0x0010 84 f9 e7 b1 02 08 08 17 00 00 00 00 00 00 00 00  ................
	0x0020 00 00 00 00 00 00 00 00 00 00 00 00 00 00 00 00  ................
	0x0030 00 00 00 00 00 00 00 00                          ........
	rel 32+8 t=1 runtime.gcbits.0100000000000000<0>+0
	rel 40+4 t=5 type:.namedata.*[]struct { s [1]string }-<0>+0
	rel 44+4 t=-32763 type:*[]struct { command-line-arguments.s [1]string }<0>+0
	rel 48+8 t=1 type:struct { command-line-arguments.s [1]string }<0>+0
type:.namedata.*[1]struct { s [1]string }-<0> SRODATA dupok size=28
	0x0000 00 1a 2a 5b 31 5d 73 74 72 75 63 74 20 7b 20 73  ..*[1]struct { s
	0x0010 20 5b 31 5d 73 74 72 69 6e 67 20 7d               [1]string }
type:*[1]struct { command-line-arguments.s [1]string }<0> SRODATA dupok size=56
	0x0000 08 00 00 00 00 00 00 00 08 00 00 00 00 00 00 00  ................
	0x0010 a8 b3 56 53 08 08 08 36 00 00 00 00 00 00 00 00  ..VS...6........
	0x0020 00 00 00 00 00 00 00 00 00 00 00 00 00 00 00 00  ................
	0x0030 00 00 00 00 00 00 00 00                          ........
	rel 24+8 t=1 runtime.memequal64·f<0>+0
	rel 32+8 t=1 runtime.gcbits.0100000000000000<0>+0
	rel 40+4 t=5 type:.namedata.*[1]struct { s [1]string }-<0>+0
	rel 48+8 t=1 type:[1]struct { command-line-arguments.s [1]string }<0>+0
type:[1]struct { command-line-arguments.s [1]string }<0> SRODATA dupok size=72
	0x0000 10 00 00 00 00 00 00 00 08 00 00 00 00 00 00 00  ................
	0x0010 29 11 c3 de 02 08 08 11 00 00 00 00 00 00 00 00  )...............
	0x0020 00 00 00 00 00 00 00 00 00 00 00 00 00 00 00 00  ................
	0x0030 00 00 00 00 00 00 00 00 00 00 00 00 00 00 00 00  ................
	0x0040 01 00 00 00 00 00 00 00                          ........
	rel 24+8 t=1 runtime.strequal·f<0>+0
	rel 32+8 t=1 runtime.gcbits.0100000000000000<0>+0
	rel 40+4 t=5 type:.namedata.*[1]struct { s [1]string }-<0>+0
	rel 44+4 t=-32763 type:*[1]struct { command-line-arguments.s [1]string }<0>+0
	rel 48+8 t=1 type:struct { command-line-arguments.s [1]string }<0>+0
	rel 56+8 t=1 type:[]struct { command-line-arguments.s [1]string }<0>+0
type:.namedata.*[][1]struct { s [1]string }-<0> SRODATA dupok size=30
	0x0000 00 1c 2a 5b 5d 5b 31 5d 73 74 72 75 63 74 20 7b  ..*[][1]struct {
	0x0010 20 73 20 5b 31 5d 73 74 72 69 6e 67 20 7d         s [1]string }
type:*[][1]struct { command-line-arguments.s [1]string }<0> SRODATA dupok size=56
	0x0000 08 00 00 00 00 00 00 00 08 00 00 00 00 00 00 00  ................
	0x0010 b4 a1 2a e9 08 08 08 36 00 00 00 00 00 00 00 00  ..*....6........
	0x0020 00 00 00 00 00 00 00 00 00 00 00 00 00 00 00 00  ................
	0x0030 00 00 00 00 00 00 00 00                          ........
	rel 24+8 t=1 runtime.memequal64·f<0>+0
	rel 32+8 t=1 runtime.gcbits.0100000000000000<0>+0
	rel 40+4 t=5 type:.namedata.*[][1]struct { s [1]string }-<0>+0
	rel 48+8 t=1 type:[][1]struct { command-line-arguments.s [1]string }<0>+0
type:[][1]struct { command-line-arguments.s [1]string }<0> SRODATA dupok size=56
	0x0000 18 00 00 00 00 00 00 00 08 00 00 00 00 00 00 00  ................
	0x0010 84 0c 7a 99 02 08 08 17 00 00 00 00 00 00 00 00  ..z.............
	0x0020 00 00 00 00 00 00 00 00 00 00 00 00 00 00 00 00  ................
	0x0030 00 00 00 00 00 00 00 00                          ........
	rel 32+8 t=1 runtime.gcbits.0100000000000000<0>+0
	rel 40+4 t=5 type:.namedata.*[][1]struct { s [1]string }-<0>+0
	rel 44+4 t=-32763 type:*[][1]struct { command-line-arguments.s [1]string }<0>+0
	rel 48+8 t=1 type:[1]struct { command-line-arguments.s [1]string }<0>+0
type:.namedata.*[8][1]struct { s [1]string }-<0> SRODATA dupok size=31
	0x0000 00 1d 2a 5b 38 5d 5b 31 5d 73 74 72 75 63 74 20  ..*[8][1]struct 
	0x0010 7b 20 73 20 5b 31 5d 73 74 72 69 6e 67 20 7d     { s [1]string }
type:*[8][1]struct { command-line-arguments.s [1]string }<0> SRODATA dupok size=56
	0x0000 08 00 00 00 00 00 00 00 08 00 00 00 00 00 00 00  ................
	0x0010 3c 4b 45 76 08 08 08 36 00 00 00 00 00 00 00 00  <KEv...6........
	0x0020 00 00 00 00 00 00 00 00 00 00 00 00 00 00 00 00  ................
	0x0030 00 00 00 00 00 00 00 00                          ........
	rel 24+8 t=1 runtime.memequal64·f<0>+0
	rel 32+8 t=1 runtime.gcbits.0100000000000000<0>+0
	rel 40+4 t=5 type:.namedata.*[8][1]struct { s [1]string }-<0>+0
	rel 48+8 t=1 type:noalg.[8][1]struct { command-line-arguments.s [1]string }<0>+0
runtime.gcbits.5555000000000000<0> SRODATA dupok size=8
	0x0000 55 55 00 00 00 00 00 00                          UU......
type:noalg.[8][1]struct { command-line-arguments.s [1]string }<0> SRODATA dupok size=72
	0x0000 80 00 00 00 00 00 00 00 78 00 00 00 00 00 00 00  ........x.......
	0x0010 07 e2 bd 85 02 08 08 11 00 00 00 00 00 00 00 00  ................
	0x0020 00 00 00 00 00 00 00 00 00 00 00 00 00 00 00 00  ................
	0x0030 00 00 00 00 00 00 00 00 00 00 00 00 00 00 00 00  ................
	0x0040 08 00 00 00 00 00 00 00                          ........
	rel 32+8 t=1 runtime.gcbits.5555000000000000<0>+0
	rel 40+4 t=5 type:.namedata.*[8][1]struct { s [1]string }-<0>+0
	rel 44+4 t=-32763 type:*[8][1]struct { command-line-arguments.s [1]string }<0>+0
	rel 48+8 t=1 type:[1]struct { command-line-arguments.s [1]string }<0>+0
	rel 56+8 t=1 type:[][1]struct { command-line-arguments.s [1]string }<0>+0
type:.namedata.*map.bucket[[1]struct { s [1]string }]int-<0> SRODATA dupok size=43
	0x0000 00 29 2a 6d 61 70 2e 62 75 63 6b 65 74 5b 5b 31  .)*map.bucket[[1
	0x0010 5d 73 74 72 75 63 74 20 7b 20 73 20 5b 31 5d 73  ]struct { s [1]s
	0x0020 74 72 69 6e 67 20 7d 5d 69 6e 74                 tring }]int
type:*map.bucket[[1]struct { command-line-arguments.s [1]string }]int<0> SRODATA dupok size=56
	0x0000 08 00 00 00 00 00 00 00 08 00 00 00 00 00 00 00  ................
	0x0010 57 08 1c 87 08 08 08 36 00 00 00 00 00 00 00 00  W......6........
	0x0020 00 00 00 00 00 00 00 00 00 00 00 00 00 00 00 00  ................
	0x0030 00 00 00 00 00 00 00 00                          ........
	rel 24+8 t=1 runtime.memequal64·f<0>+0
	rel 32+8 t=1 runtime.gcbits.0100000000000000<0>+0
	rel 40+4 t=5 type:.namedata.*map.bucket[[1]struct { s [1]string }]int-<0>+0
	rel 48+8 t=1 type:noalg.map.bucket[[1]struct { command-line-arguments.s [1]string }]int<0>+0
runtime.gcbits.aaaa000200000000<0> SRODATA dupok size=8
	0x0000 aa aa 00 02 00 00 00 00                          ........
type:noalg.map.bucket[[1]struct { command-line-arguments.s [1]string }]int<0> SRODATA dupok size=176
	0x0000 d0 00 00 00 00 00 00 00 d0 00 00 00 00 00 00 00  ................
	0x0010 32 7c 67 81 02 08 08 19 00 00 00 00 00 00 00 00  2|g.............
	0x0020 00 00 00 00 00 00 00 00 00 00 00 00 00 00 00 00  ................
	0x0030 00 00 00 00 00 00 00 00 00 00 00 00 00 00 00 00  ................
	0x0040 04 00 00 00 00 00 00 00 04 00 00 00 00 00 00 00  ................
	0x0050 00 00 00 00 00 00 00 00 00 00 00 00 00 00 00 00  ................
	0x0060 00 00 00 00 00 00 00 00 00 00 00 00 00 00 00 00  ................
	0x0070 00 00 00 00 00 00 00 00 08 00 00 00 00 00 00 00  ................
	0x0080 00 00 00 00 00 00 00 00 00 00 00 00 00 00 00 00  ................
	0x0090 88 00 00 00 00 00 00 00 00 00 00 00 00 00 00 00  ................
	0x00a0 00 00 00 00 00 00 00 00 c8 00 00 00 00 00 00 00  ................
	rel 32+8 t=1 runtime.gcbits.aaaa000200000000<0>+0
	rel 40+4 t=5 type:.namedata.*map.bucket[[1]struct { s [1]string }]int-<0>+0
	rel 44+4 t=-32763 type:*map.bucket[[1]struct { command-line-arguments.s [1]string }]int<0>+0
	rel 48+8 t=1 type:.importpath..<0>+0
	rel 56+8 t=1 type:noalg.map.bucket[[1]struct { command-line-arguments.s [1]string }]int<0>+80
	rel 80+8 t=1 type:.namedata.topbits-<0>+0
	rel 88+8 t=1 type:[8]uint8<0>+0
	rel 104+8 t=1 type:.namedata.keys-<0>+0
	rel 112+8 t=1 type:noalg.[8][1]struct { command-line-arguments.s [1]string }<0>+0
	rel 128+8 t=1 type:.namedata.elems-<0>+0
	rel 136+8 t=1 type:noalg.[8]int<0>+0
	rel 152+8 t=1 type:.namedata.overflow-<0>+0
	rel 160+8 t=1 type:unsafe.Pointer<0>+0
runtime.strhash·f<0> SRODATA dupok size=8
	0x0000 00 00 00 00 00 00 00 00                          ........
	rel 0+8 t=1 runtime.strhash<1>+0
type:.namedata.*map[[1]struct { s [1]string }]int-<0> SRODATA dupok size=36
	0x0000 00 22 2a 6d 61 70 5b 5b 31 5d 73 74 72 75 63 74  ."*map[[1]struct
	0x0010 20 7b 20 73 20 5b 31 5d 73 74 72 69 6e 67 20 7d   { s [1]string }
	0x0020 5d 69 6e 74                                      ]int
type:*map[[1]struct { command-line-arguments.s [1]string }]int<0> SRODATA dupok size=56
	0x0000 08 00 00 00 00 00 00 00 08 00 00 00 00 00 00 00  ................
	0x0010 ea 2f 4d 22 08 08 08 36 00 00 00 00 00 00 00 00  ./M"...6........
	0x0020 00 00 00 00 00 00 00 00 00 00 00 00 00 00 00 00  ................
	0x0030 00 00 00 00 00 00 00 00                          ........
	rel 24+8 t=1 runtime.memequal64·f<0>+0
	rel 32+8 t=1 runtime.gcbits.0100000000000000<0>+0
	rel 40+4 t=5 type:.namedata.*map[[1]struct { s [1]string }]int-<0>+0
	rel 48+8 t=1 type:map[[1]struct { command-line-arguments.s [1]string }]int<0>+0
type:map[[1]struct { command-line-arguments.s [1]string }]int<0> SRODATA dupok size=88
	0x0000 08 00 00 00 00 00 00 00 08 00 00 00 00 00 00 00  ................
	0x0010 34 32 42 ad 02 08 08 35 00 00 00 00 00 00 00 00  42B....5........
	0x0020 00 00 00 00 00 00 00 00 00 00 00 00 00 00 00 00  ................
	0x0030 00 00 00 00 00 00 00 00 00 00 00 00 00 00 00 00  ................
	0x0040 00 00 00 00 00 00 00 00 00 00 00 00 00 00 00 00  ................
	0x0050 10 08 d0 00 0c 00 00 00                          ........
	rel 32+8 t=1 runtime.gcbits.0100000000000000<0>+0
	rel 40+4 t=5 type:.namedata.*map[[1]struct { s [1]string }]int-<0>+0
	rel 44+4 t=-32763 type:*map[[1]struct { command-line-arguments.s [1]string }]int<0>+0
	rel 48+8 t=1 type:[1]struct { command-line-arguments.s [1]string }<0>+0
	rel 56+8 t=1 type:int<0>+0
	rel 64+8 t=1 type:noalg.map.bucket[[1]struct { command-line-arguments.s [1]string }]int<0>+0
	rel 72+8 t=1 runtime.strhash·f<0>+0
type:.namedata.*[][2]string-<0> SRODATA dupok size=14
	0x0000 00 0c 2a 5b 5d 5b 32 5d 73 74 72 69 6e 67        ..*[][2]string
type:*[][2]string<0> SRODATA dupok size=56
	0x0000 08 00 00 00 00 00 00 00 08 00 00 00 00 00 00 00  ................
	0x0010 81 90 69 d4 08 08 08 36 00 00 00 00 00 00 00 00  ..i....6........
	0x0020 00 00 00 00 00 00 00 00 00 00 00 00 00 00 00 00  ................
	0x0030 00 00 00 00 00 00 00 00                          ........
	rel 24+8 t=1 runtime.memequal64·f<0>+0
	rel 32+8 t=1 runtime.gcbits.0100000000000000<0>+0
	rel 40+4 t=5 type:.namedata.*[][2]string-<0>+0
	rel 48+8 t=1 type:[][2]string<0>+0
type:[][2]string<0> SRODATA dupok size=56
	0x0000 18 00 00 00 00 00 00 00 08 00 00 00 00 00 00 00  ................
	0x0010 35 9f 27 c6 02 08 08 17 00 00 00 00 00 00 00 00  5.'.............
	0x0020 00 00 00 00 00 00 00 00 00 00 00 00 00 00 00 00  ................
	0x0030 00 00 00 00 00 00 00 00                          ........
	rel 32+8 t=1 runtime.gcbits.0100000000000000<0>+0
	rel 40+4 t=5 type:.namedata.*[][2]string-<0>+0
	rel 44+4 t=-32763 type:*[][2]string<0>+0
	rel 48+8 t=1 type:[2]string<0>+0
type:.namedata.*[8][2]string-<0> SRODATA dupok size=15
	0x0000 00 0d 2a 5b 38 5d 5b 32 5d 73 74 72 69 6e 67     ..*[8][2]string
type:*[8][2]string<0> SRODATA dupok size=56
	0x0000 08 00 00 00 00 00 00 00 08 00 00 00 00 00 00 00  ................
	0x0010 48 b5 59 dd 08 08 08 36 00 00 00 00 00 00 00 00  H.Y....6........
	0x0020 00 00 00 00 00 00 00 00 00 00 00 00 00 00 00 00  ................
	0x0030 00 00 00 00 00 00 00 00                          ........
	rel 24+8 t=1 runtime.memequal64·f<0>+0
	rel 32+8 t=1 runtime.gcbits.0100000000000000<0>+0
	rel 40+4 t=5 type:.namedata.*[8][2]string-<0>+0
	rel 48+8 t=1 type:noalg.[8][2]string<0>+0
runtime.gcbits.5555555500000000<0> SRODATA dupok size=8
	0x0000 55 55 55 55 00 00 00 00                          UUUU....
type:noalg.[8][2]string<0> SRODATA dupok size=72
	0x0000 00 01 00 00 00 00 00 00 f8 00 00 00 00 00 00 00  ................
	0x0010 be c1 2a b6 02 08 08 11 00 00 00 00 00 00 00 00  ..*.............
	0x0020 00 00 00 00 00 00 00 00 00 00 00 00 00 00 00 00  ................
	0x0030 00 00 00 00 00 00 00 00 00 00 00 00 00 00 00 00  ................
	0x0040 08 00 00 00 00 00 00 00                          ........
	rel 32+8 t=1 runtime.gcbits.5555555500000000<0>+0
	rel 40+4 t=5 type:.namedata.*[8][2]string-<0>+0
	rel 44+4 t=-32763 type:*[8][2]string<0>+0
	rel 48+8 t=1 type:[2]string<0>+0
	rel 56+8 t=1 type:[][2]string<0>+0
type:.namedata.*map.bucket[[2]string]int-<0> SRODATA dupok size=27
	0x0000 00 19 2a 6d 61 70 2e 62 75 63 6b 65 74 5b 5b 32  ..*map.bucket[[2
	0x0010 5d 73 74 72 69 6e 67 5d 69 6e 74                 ]string]int
type:*map.bucket[[2]string]int<0> SRODATA dupok size=56
	0x0000 08 00 00 00 00 00 00 00 08 00 00 00 00 00 00 00  ................
	0x0010 61 f9 57 4d 08 08 08 36 00 00 00 00 00 00 00 00  a.WM...6........
	0x0020 00 00 00 00 00 00 00 00 00 00 00 00 00 00 00 00  ................
	0x0030 00 00 00 00 00 00 00 00                          ........
	rel 24+8 t=1 runtime.memequal64·f<0>+0
	rel 32+8 t=1 runtime.gcbits.0100000000000000<0>+0
	rel 40+4 t=5 type:.namedata.*map.bucket[[2]string]int-<0>+0
	rel 48+8 t=1 type:noalg.map.bucket[[2]string]int<0>+0
runtime.gcbits.aaaaaaaa00020000<0> SRODATA dupok size=8
	0x0000 aa aa aa aa 00 02 00 00                          ........
type:noalg.map.bucket[[2]string]int<0> SRODATA dupok size=176
	0x0000 50 01 00 00 00 00 00 00 50 01 00 00 00 00 00 00  P.......P.......
	0x0010 3a b9 cf 88 02 08 08 19 00 00 00 00 00 00 00 00  :...............
	0x0020 00 00 00 00 00 00 00 00 00 00 00 00 00 00 00 00  ................
	0x0030 00 00 00 00 00 00 00 00 00 00 00 00 00 00 00 00  ................
	0x0040 04 00 00 00 00 00 00 00 04 00 00 00 00 00 00 00  ................
	0x0050 00 00 00 00 00 00 00 00 00 00 00 00 00 00 00 00  ................
	0x0060 00 00 00 00 00 00 00 00 00 00 00 00 00 00 00 00  ................
	0x0070 00 00 00 00 00 00 00 00 08 00 00 00 00 00 00 00  ................
	0x0080 00 00 00 00 00 00 00 00 00 00 00 00 00 00 00 00  ................
	0x0090 08 01 00 00 00 00 00 00 00 00 00 00 00 00 00 00  ................
	0x00a0 00 00 00 00 00 00 00 00 48 01 00 00 00 00 00 00  ........H.......
	rel 32+8 t=1 runtime.gcbits.aaaaaaaa00020000<0>+0
	rel 40+4 t=5 type:.namedata.*map.bucket[[2]string]int-<0>+0
	rel 44+4 t=-32763 type:*map.bucket[[2]string]int<0>+0
	rel 48+8 t=1 type:.importpath..<0>+0
	rel 56+8 t=1 type:noalg.map.bucket[[2]string]int<0>+80
	rel 80+8 t=1 type:.namedata.topbits-<0>+0
	rel 88+8 t=1 type:[8]uint8<0>+0
	rel 104+8 t=1 type:.namedata.keys-<0>+0
	rel 112+8 t=1 type:noalg.[8][2]string<0>+0
	rel 128+8 t=1 type:.namedata.elems-<0>+0
	rel 136+8 t=1 type:noalg.[8]int<0>+0
	rel 152+8 t=1 type:.namedata.overflow-<0>+0
	rel 160+8 t=1 type:unsafe.Pointer<0>+0
type:.hashfunc.[2]string<0> SRODATA dupok size=8
	0x0000 00 00 00 00 00 00 00 00                          ........
	rel 0+8 t=1 type:.hash.[2]string<1>+0
type:.namedata.*map[[2]string]int-<0> SRODATA dupok size=20
	0x0000 00 12 2a 6d 61 70 5b 5b 32 5d 73 74 72 69 6e 67  ..*map[[2]string
	0x0010 5d 69 6e 74                                      ]int
type:*map[[2]string]int<0> SRODATA dupok size=56
	0x0000 08 00 00 00 00 00 00 00 08 00 00 00 00 00 00 00  ................
	0x0010 bc 3a b5 0a 08 08 08 36 00 00 00 00 00 00 00 00  .:.....6........
	0x0020 00 00 00 00 00 00 00 00 00 00 00 00 00 00 00 00  ................
	0x0030 00 00 00 00 00 00 00 00                          ........
	rel 24+8 t=1 runtime.memequal64·f<0>+0
	rel 32+8 t=1 runtime.gcbits.0100000000000000<0>+0
	rel 40+4 t=5 type:.namedata.*map[[2]string]int-<0>+0
	rel 48+8 t=1 type:map[[2]string]int<0>+0
type:map[[2]string]int<0> SRODATA dupok size=88
	0x0000 08 00 00 00 00 00 00 00 08 00 00 00 00 00 00 00  ................
	0x0010 04 13 a2 59 02 08 08 35 00 00 00 00 00 00 00 00  ...Y...5........
	0x0020 00 00 00 00 00 00 00 00 00 00 00 00 00 00 00 00  ................
	0x0030 00 00 00 00 00 00 00 00 00 00 00 00 00 00 00 00  ................
	0x0040 00 00 00 00 00 00 00 00 00 00 00 00 00 00 00 00  ................
	0x0050 20 08 50 01 0c 00 00 00                           .P.....
	rel 32+8 t=1 runtime.gcbits.0100000000000000<0>+0
	rel 40+4 t=5 type:.namedata.*map[[2]string]int-<0>+0
	rel 44+4 t=-32763 type:*map[[2]string]int<0>+0
	rel 48+8 t=1 type:[2]string<0>+0
	rel 56+8 t=1 type:int<0>+0
	rel 64+8 t=1 type:noalg.map.bucket[[2]string]int<0>+0
	rel 72+8 t=1 type:.hashfunc.[2]string<0>+0
type:.namedata.*[8]float64-<0> SRODATA dupok size=13
	0x0000 00 0b 2a 5b 38 5d 66 6c 6f 61 74 36 34           ..*[8]float64
type:*[8]float64<0> SRODATA dupok size=56
	0x0000 08 00 00 00 00 00 00 00 08 00 00 00 00 00 00 00  ................
	0x0010 de 38 15 8e 08 08 08 36 00 00 00 00 00 00 00 00  .8.....6........
	0x0020 00 00 00 00 00 00 00 00 00 00 00 00 00 00 00 00  ................
	0x0030 00 00 00 00 00 00 00 00                          ........
	rel 24+8 t=1 runtime.memequal64·f<0>+0
	rel 32+8 t=1 runtime.gcbits.0100000000000000<0>+0
	rel 40+4 t=5 type:.namedata.*[8]float64-<0>+0
	rel 48+8 t=1 type:noalg.[8]float64<0>+0
type:noalg.[8]float64<0> SRODATA dupok size=72
	0x0000 40 00 00 00 00 00 00 00 00 00 00 00 00 00 00 00  @...............
	0x0010 94 ec e4 ae 02 08 08 11 00 00 00 00 00 00 00 00  ................
	0x0020 00 00 00 00 00 00 00 00 00 00 00 00 00 00 00 00  ................
	0x0030 00 00 00 00 00 00 00 00 00 00 00 00 00 00 00 00  ................
	0x0040 08 00 00 00 00 00 00 00                          ........
	rel 32+8 t=1 runtime.gcbits.<0>+0
	rel 40+4 t=5 type:.namedata.*[8]float64-<0>+0
	rel 44+4 t=-32763 type:*[8]float64<0>+0
	rel 48+8 t=1 type:float64<0>+0
	rel 56+8 t=1 type:[]float64<0>+0
type:.namedata.*map.bucket[float64]int-<0> SRODATA dupok size=25
	0x0000 00 17 2a 6d 61 70 2e 62 75 63 6b 65 74 5b 66 6c  ..*map.bucket[fl
	0x0010 6f 61 74 36 34 5d 69 6e 74                       oat64]int
type:*map.bucket[float64]int<0> SRODATA dupok size=56
	0x0000 08 00 00 00 00 00 00 00 08 00 00 00 00 00 00 00  ................
	0x0010 eb ca 62 d7 08 08 08 36 00 00 00 00 00 00 00 00  ..b....6........
	0x0020 00 00 00 00 00 00 00 00 00 00 00 00 00 00 00 00  ................
	0x0030 00 00 00 00 00 00 00 00                          ........
	rel 24+8 t=1 runtime.memequal64·f<0>+0
	rel 32+8 t=1 runtime.gcbits.0100000000000000<0>+0
	rel 40+4 t=5 type:.namedata.*map.bucket[float64]int-<0>+0
	rel 48+8 t=1 type:noalg.map.bucket[float64]int<0>+0
type:noalg.map.bucket[float64]int<0> SRODATA dupok size=176
	0x0000 90 00 00 00 00 00 00 00 00 00 00 00 00 00 00 00  ................
	0x0010 04 c4 22 74 02 08 08 19 00 00 00 00 00 00 00 00  .."t............
	0x0020 00 00 00 00 00 00 00 00 00 00 00 00 00 00 00 00  ................
	0x0030 00 00 00 00 00 00 00 00 00 00 00 00 00 00 00 00  ................
	0x0040 04 00 00 00 00 00 00 00 04 00 00 00 00 00 00 00  ................
	0x0050 00 00 00 00 00 00 00 00 00 00 00 00 00 00 00 00  ................
	0x0060 00 00 00 00 00 00 00 00 00 00 00 00 00 00 00 00  ................
	0x0070 00 00 00 00 00 00 00 00 08 00 00 00 00 00 00 00  ................
	0x0080 00 00 00 00 00 00 00 00 00 00 00 00 00 00 00 00  ................
	0x0090 48 00 00 00 00 00 00 00 00 00 00 00 00 00 00 00  H...............
	0x00a0 00 00 00 00 00 00 00 00 88 00 00 00 00 00 00 00  ................
	rel 32+8 t=1 runtime.gcbits.<0>+0
	rel 40+4 t=5 type:.namedata.*map.bucket[float64]int-<0>+0
	rel 44+4 t=-32763 type:*map.bucket[float64]int<0>+0
	rel 48+8 t=1 type:.importpath..<0>+0
	rel 56+8 t=1 type:noalg.map.bucket[float64]int<0>+80
	rel 80+8 t=1 type:.namedata.topbits-<0>+0
	rel 88+8 t=1 type:[8]uint8<0>+0
	rel 104+8 t=1 type:.namedata.keys-<0>+0
	rel 112+8 t=1 type:noalg.[8]float64<0>+0
	rel 128+8 t=1 type:.namedata.elems-<0>+0
	rel 136+8 t=1 type:noalg.[8]int<0>+0
	rel 152+8 t=1 type:.namedata.overflow-<0>+0
	rel 160+8 t=1 type:uintptr<0>+0
runtime.f64hash·f<0> SRODATA dupok size=8
	0x0000 00 00 00 00 00 00 00 00                          ........
	rel 0+8 t=1 runtime.f64hash<1>+0
type:.namedata.*map[float64]int-<0> SRODATA dupok size=18
	0x0000 00 10 2a 6d 61 70 5b 66 6c 6f 61 74 36 34 5d 69  ..*map[float64]i
	0x0010 6e 74                                            nt
type:*map[float64]int<0> SRODATA dupok size=56
	0x0000 08 00 00 00 00 00 00 00 08 00 00 00 00 00 00 00  ................
	0x0010 32 6c cf 05 08 08 08 36 00 00 00 00 00 00 00 00  2l.....6........
	0x0020 00 00 00 00 00 00 00 00 00 00 00 00 00 00 00 00  ................
	0x0030 00 00 00 00 00 00 00 00                          ........
	rel 24+8 t=1 runtime.memequal64·f<0>+0
	rel 32+8 t=1 runtime.gcbits.0100000000000000<0>+0
	rel 40+4 t=5 type:.namedata.*map[float64]int-<0>+0
	rel 48+8 t=1 type:map[float64]int<0>+0
type:map[float64]int<0> SRODATA dupok size=88
	0x0000 08 00 00 00 00 00 00 00 08 00 00 00 00 00 00 00  ................
	0x0010 fd 05 7a 6e 02 08 08 35 00 00 00 00 00 00 00 00  ..zn...5........
	0x0020 00 00 00 00 00 00 00 00 00 00 00 00 00 00 00 00  ................
	0x0030 00 00 00 00 00 00 00 00 00 00 00 00 00 00 00 00  ................
	0x0040 00 00 00 00 00 00 00 00 00 00 00 00 00 00 00 00  ................
	0x0050 08 08 90 00 08 00 00 00                          ........
	rel 32+8 t=1 runtime.gcbits.0100000000000000<0>+0
	rel 40+4 t=5 type:.namedata.*map[float64]int-<0>+0
	rel 44+4 t=-32763 type:*map[float64]int<0>+0
	rel 48+8 t=1 type:float64<0>+0
	rel 56+8 t=1 type:int<0>+0
	rel 64+8 t=1 type:noalg.map.bucket[float64]int<0>+0
	rel 72+8 t=1 runtime.f64hash·f<0>+0
type:.namedata.*map.bucket[int]int-<0> SRODATA dupok size=21
	0x0000 00 13 2a 6d 61 70 2e 62 75 63 6b 65 74 5b 69 6e  ..*map.bucket[in
	0x0010 74 5d 69 6e 74                                   t]int
type:*map.bucket[int]int<0> SRODATA dupok size=56
	0x0000 08 00 00 00 00 00 00 00 08 00 00 00 00 00 00 00  ................
	0x0010 fa 47 83 b9 08 08 08 36 00 00 00 00 00 00 00 00  .G.....6........
	0x0020 00 00 00 00 00 00 00 00 00 00 00 00 00 00 00 00  ................
	0x0030 00 00 00 00 00 00 00 00                          ........
	rel 24+8 t=1 runtime.memequal64·f<0>+0
	rel 32+8 t=1 runtime.gcbits.0100000000000000<0>+0
	rel 40+4 t=5 type:.namedata.*map.bucket[int]int-<0>+0
	rel 48+8 t=1 type:noalg.map.bucket[int]int<0>+0
type:noalg.map.bucket[int]int<0> SRODATA dupok size=176
	0x0000 90 00 00 00 00 00 00 00 00 00 00 00 00 00 00 00  ................
	0x0010 95 ac 1c dd 02 08 08 19 00 00 00 00 00 00 00 00  ................
	0x0020 00 00 00 00 00 00 00 00 00 00 00 00 00 00 00 00  ................
	0x0030 00 00 00 00 00 00 00 00 00 00 00 00 00 00 00 00  ................
	0x0040 04 00 00 00 00 00 00 00 04 00 00 00 00 00 00 00  ................
	0x0050 00 00 00 00 00 00 00 00 00 00 00 00 00 00 00 00  ................
	0x0060 00 00 00 00 00 00 00 00 00 00 00 00 00 00 00 00  ................
	0x0070 00 00 00 00 00 00 00 00 08 00 00 00 00 00 00 00  ................
	0x0080 00 00 00 00 00 00 00 00 00 00 00 00 00 00 00 00  ................
	0x0090 48 00 00 00 00 00 00 00 00 00 00 00 00 00 00 00  H...............
	0x00a0 00 00 00 00 00 00 00 00 88 00 00 00 00 00 00 00  ................
	rel 32+8 t=1 runtime.gcbits.<0>+0
	rel 40+4 t=5 type:.namedata.*map.bucket[int]int-<0>+0
	rel 44+4 t=-32763 type:*map.bucket[int]int<0>+0
	rel 48+8 t=1 type:.importpath..<0>+0
	rel 56+8 t=1 type:noalg.map.bucket[int]int<0>+80
	rel 80+8 t=1 type:.namedata.topbits-<0>+0
	rel 88+8 t=1 type:[8]uint8<0>+0
	rel 104+8 t=1 type:.namedata.keys-<0>+0
	rel 112+8 t=1 type:noalg.[8]int<0>+0
	rel 128+8 t=1 type:.namedata.elems-<0>+0
	rel 136+8 t=1 type:noalg.[8]int<0>+0
	rel 152+8 t=1 type:.namedata.overflow-<0>+0
	rel 160+8 t=1 type:uintptr<0>+0
type:.namedata.*map[int]int-<0> SRODATA dupok size=14
	0x0000 00 0c 2a 6d 61 70 5b 69 6e 74 5d 69 6e 74        ..*map[int]int
type:*map[int]int<0> SRODATA dupok size=56
	0x0000 08 00 00 00 00 00 00 00 08 00 00 00 00 00 00 00  ................
	0x0010 74 ae 48 51 08 08 08 36 00 00 00 00 00 00 00 00  t.HQ...6........
	0x0020 00 00 00 00 00 00 00 00 00 00 00 00 00 00 00 00  ................
	0x0030 00 00 00 00 00 00 00 00                          ........
	rel 24+8 t=1 runtime.memequal64·f<0>+0
	rel 32+8 t=1 runtime.gcbits.0100000000000000<0>+0
	rel 40+4 t=5 type:.namedata.*map[int]int-<0>+0
	rel 48+8 t=1 type:map[int]int<0>+0
type:map[int]int<0> SRODATA dupok size=88
	0x0000 08 00 00 00 00 00 00 00 08 00 00 00 00 00 00 00  ................
	0x0010 9e 66 a5 a2 02 08 08 35 00 00 00 00 00 00 00 00  .f.....5........
	0x0020 00 00 00 00 00 00 00 00 00 00 00 00 00 00 00 00  ................
	0x0030 00 00 00 00 00 00 00 00 00 00 00 00 00 00 00 00  ................
	0x0040 00 00 00 00 00 00 00 00 00 00 00 00 00 00 00 00  ................
	0x0050 08 08 90 00 04 00 00 00                          ........
	rel 32+8 t=1 runtime.gcbits.0100000000000000<0>+0
	rel 40+4 t=5 type:.namedata.*map[int]int-<0>+0
	rel 44+4 t=-32763 type:*map[int]int<0>+0
	rel 48+8 t=1 type:int<0>+0
	rel 56+8 t=1 type:int<0>+0
	rel 64+8 t=1 type:noalg.map.bucket[int]int<0>+0
	rel 72+8 t=1 runtime.memhash64·f<0>+0
type:.namedata.*[8]interface {}-<0> SRODATA dupok size=18
	0x0000 00 10 2a 5b 38 5d 69 6e 74 65 72 66 61 63 65 20  ..*[8]interface 
	0x0010 7b 7d                                            {}
type:*[8]interface {}<0> SRODATA dupok size=56
	0x0000 08 00 00 00 00 00 00 00 08 00 00 00 00 00 00 00  ................
	0x0010 87 f5 0a 47 08 08 08 36 00 00 00 00 00 00 00 00  ...G...6........
	0x0020 00 00 00 00 00 00 00 00 00 00 00 00 00 00 00 00  ................
	0x0030 00 00 00 00 00 00 00 00                          ........
	rel 24+8 t=1 runtime.memequal64·f<0>+0
	rel 32+8 t=1 runtime.gcbits.0100000000000000<0>+0
	rel 40+4 t=5 type:.namedata.*[8]interface {}-<0>+0
	rel 48+8 t=1 type:noalg.[8]interface {}<0>+0
runtime.gcbits.aaaa000000000000<0> SRODATA dupok size=8
	0x0000 aa aa 00 00 00 00 00 00                          ........
type:noalg.[8]interface {}<0> SRODATA dupok size=72
	0x0000 80 00 00 00 00 00 00 00 80 00 00 00 00 00 00 00  ................
	0x0010 e8 ee 24 73 02 08 08 11 00 00 00 00 00 00 00 00  ..$s............
	0x0020 00 00 00 00 00 00 00 00 00 00 00 00 00 00 00 00  ................
	0x0030 00 00 00 00 00 00 00 00 00 00 00 00 00 00 00 00  ................
	0x0040 08 00 00 00 00 00 00 00                          ........
	rel 32+8 t=1 runtime.gcbits.aaaa000000000000<0>+0
	rel 40+4 t=5 type:.namedata.*[8]interface {}-<0>+0
	rel 44+4 t=-32763 type:*[8]interface {}<0>+0
	rel 48+8 t=1 type:interface {}<0>+0
	rel 56+8 t=1 type:[]interface {}<0>+0
type:.namedata.*map.bucket[interface {}]int-<0> SRODATA dupok size=30
	0x0000 00 1c 2a 6d 61 70 2e 62 75 63 6b 65 74 5b 69 6e  ..*map.bucket[in
	0x0010 74 65 72 66 61 63 65 20 7b 7d 5d 69 6e 74        terface {}]int
type:*map.bucket[interface {}]int<0> SRODATA dupok size=56
	0x0000 08 00 00 00 00 00 00 00 08 00 00 00 00 00 00 00  ................
	0x0010 48 39 6b c7 08 08 08 36 00 00 00 00 00 00 00 00  H9k....6........
	0x0020 00 00 00 00 00 00 00 00 00 00 00 00 00 00 00 00  ................
	0x0030 00 00 00 00 00 00 00 00                          ........
	rel 24+8 t=1 runtime.memequal64·f<0>+0
	rel 32+8 t=1 runtime.gcbits.0100000000000000<0>+0
	rel 40+4 t=5 type:.namedata.*map.bucket[interface {}]int-<0>+0
	rel 48+8 t=1 type:noalg.map.bucket[interface {}]int<0>+0
runtime.gcbits.5455010200000000<0> SRODATA dupok size=8
	0x0000 54 55 01 02 00 00 00 00                          TU......
type:noalg.map.bucket[interface {}]int<0> SRODATA dupok size=176
	0x0000 d0 00 00 00 00 00 00 00 d0 00 00 00 00 00 00 00  ................
	0x0010 f0 36 a0 a6 02 08 08 19 00 00 00 00 00 00 00 00  .6..............
	0x0020 00 00 00 00 00 00 00 00 00 00 00 00 00 00 00 00  ................
	0x0030 00 00 00 00 00 00 00 00 00 00 00 00 00 00 00 00  ................
	0x0040 04 00 00 00 00 00 00 00 04 00 00 00 00 00 00 00  ................
	0x0050 00 00 00 00 00 00 00 00 00 00 00 00 00 00 00 00  ................
	0x0060 00 00 00 00 00 00 00 00 00 00 00 00 00 00 00 00  ................
	0x0070 00 00 00 00 00 00 00 00 08 00 00 00 00 00 00 00  ................
	0x0080 00 00 00 00 00 00 00 00 00 00 00 00 00 00 00 00  ................
	0x0090 88 00 00 00 00 00 00 00 00 00 00 00 00 00 00 00  ................
	0x00a0 00 00 00 00 00 00 00 00 c8 00 00 00 00 00 00 00  ................
	rel 32+8 t=1 runtime.gcbits.5455010200000000<0>+0
	rel 40+4 t=5 type:.namedata.*map.bucket[interface {}]int-<0>+0
	rel 44+4 t=-32763 type:*map.bucket[interface {}]int<0>+0
	rel 48+8 t=1 type:.importpath..<0>+0
	rel 56+8 t=1 type:noalg.map.bucket[interface {}]int<0>+80
	rel 80+8 t=1 type:.namedata.topbits-<0>+0
	rel 88+8 t=1 type:[8]uint8<0>+0
	rel 104+8 t=1 type:.namedata.keys-<0>+0
	rel 112+8 t=1 type:noalg.[8]interface {}<0>+0
	rel 128+8 t=1 type:.namedata.elems-<0>+0
	rel 136+8 t=1 type:noalg.[8]int<0>+0
	rel 152+8 t=1 type:.namedata.overflow-<0>+0
	rel 160+8 t=1 type:unsafe.Pointer<0>+0
runtime.nilinterhash·f<0> SRODATA dupok size=8
	0x0000 00 00 00 00 00 00 00 00                          ........
	rel 0+8 t=1 runtime.nilinterhash<1>+0
type:.namedata.*map[interface {}]int-<0> SRODATA dupok size=23
	0x0000 00 15 2a 6d 61 70 5b 69 6e 74 65 72 66 61 63 65  ..*map[interface
	0x0010 20 7b 7d 5d 69 6e 74                              {}]int
type:*map[interface {}]int<0> SRODATA dupok size=56
	0x0000 08 00 00 00 00 00 00 00 08 00 00 00 00 00 00 00  ................
	0x0010 78 f3 ae 24 08 08 08 36 00 00 00 00 00 00 00 00  x..$...6........
	0x0020 00 00 00 00 00 00 00 00 00 00 00 00 00 00 00 00  ................
	0x0030 00 00 00 00 00 00 00 00                          ........
	rel 24+8 t=1 runtime.memequal64·f<0>+0
	rel 32+8 t=1 runtime.gcbits.0100000000000000<0>+0
	rel 40+4 t=5 type:.namedata.*map[interface {}]int-<0>+0
	rel 48+8 t=1 type:map[interface {}]int<0>+0
type:map[interface {}]int<0> SRODATA dupok size=88
	0x0000 08 00 00 00 00 00 00 00 08 00 00 00 00 00 00 00  ................
	0x0010 46 8e 52 38 02 08 08 35 00 00 00 00 00 00 00 00  F.R8...5........
	0x0020 00 00 00 00 00 00 00 00 00 00 00 00 00 00 00 00  ................
	0x0030 00 00 00 00 00 00 00 00 00 00 00 00 00 00 00 00  ................
	0x0040 00 00 00 00 00 00 00 00 00 00 00 00 00 00 00 00  ................
	0x0050 10 08 d0 00 18 00 00 00                          ........
	rel 32+8 t=1 runtime.gcbits.0100000000000000<0>+0
	rel 40+4 t=5 type:.namedata.*map[interface {}]int-<0>+0
	rel 44+4 t=-32763 type:*map[interface {}]int<0>+0
	rel 48+8 t=1 type:interface {}<0>+0
	rel 56+8 t=1 type:int<0>+0
	rel 64+8 t=1 type:noalg.map.bucket[interface {}]int<0>+0
	rel 72+8 t=1 runtime.nilinterhash·f<0>+0
type:.namedata.*[8]string-<0> SRODATA dupok size=12
	0x0000 00 0a 2a 5b 38 5d 73 74 72 69 6e 67              ..*[8]string
type:*[8]string<0> SRODATA dupok size=56
	0x0000 08 00 00 00 00 00 00 00 08 00 00 00 00 00 00 00  ................
	0x0010 e3 bf d7 63 08 08 08 36 00 00 00 00 00 00 00 00  ...c...6........
	0x0020 00 00 00 00 00 00 00 00 00 00 00 00 00 00 00 00  ................
	0x0030 00 00 00 00 00 00 00 00                          ........
	rel 24+8 t=1 runtime.memequal64·f<0>+0
	rel 32+8 t=1 runtime.gcbits.0100000000000000<0>+0
	rel 40+4 t=5 type:.namedata.*[8]string-<0>+0
	rel 48+8 t=1 type:noalg.[8]string<0>+0
type:noalg.[8]string<0> SRODATA dupok size=72
	0x0000 80 00 00 00 00 00 00 00 78 00 00 00 00 00 00 00  ........x.......
	0x0010 0c 1c ff 04 02 08 08 11 00 00 00 00 00 00 00 00  ................
	0x0020 00 00 00 00 00 00 00 00 00 00 00 00 00 00 00 00  ................
	0x0030 00 00 00 00 00 00 00 00 00 00 00 00 00 00 00 00  ................
	0x0040 08 00 00 00 00 00 00 00                          ........
	rel 32+8 t=1 runtime.gcbits.5555000000000000<0>+0
	rel 40+4 t=5 type:.namedata.*[8]string-<0>+0
	rel 44+4 t=-32763 type:*[8]string<0>+0
	rel 48+8 t=1 type:string<0>+0
	rel 56+8 t=1 type:[]string<0>+0
type:.namedata.*map.bucket[string]int-<0> SRODATA dupok size=24
	0x0000 00 16 2a 6d 61 70 2e 62 75 63 6b 65 74 5b 73 74  ..*map.bucket[st
	0x0010 72 69 6e 67 5d 69 6e 74                          ring]int
type:*map.bucket[string]int<0> SRODATA dupok size=56
	0x0000 08 00 00 00 00 00 00 00 08 00 00 00 00 00 00 00  ................
	0x0010 1b 82 81 a9 08 08 08 36 00 00 00 00 00 00 00 00  .......6........
	0x0020 00 00 00 00 00 00 00 00 00 00 00 00 00 00 00 00  ................
	0x0030 00 00 00 00 00 00 00 00                          ........
	rel 24+8 t=1 runtime.memequal64·f<0>+0
	rel 32+8 t=1 runtime.gcbits.0100000000000000<0>+0
	rel 40+4 t=5 type:.namedata.*map.bucket[string]int-<0>+0
	rel 48+8 t=1 type:noalg.map.bucket[string]int<0>+0
type:noalg.map.bucket[string]int<0> SRODATA dupok size=176
	0x0000 d0 00 00 00 00 00 00 00 d0 00 00 00 00 00 00 00  ................
	0x0010 58 b8 d1 2e 02 08 08 19 00 00 00 00 00 00 00 00  X...............
	0x0020 00 00 00 00 00 00 00 00 00 00 00 00 00 00 00 00  ................
	0x0030 00 00 00 00 00 00 00 00 00 00 00 00 00 00 00 00  ................
	0x0040 04 00 00 00 00 00 00 00 04 00 00 00 00 00 00 00  ................
	0x0050 00 00 00 00 00 00 00 00 00 00 00 00 00 00 00 00  ................
	0x0060 00 00 00 00 00 00 00 00 00 00 00 00 00 00 00 00  ................
	0x0070 00 00 00 00 00 00 00 00 08 00 00 00 00 00 00 00  ................
	0x0080 00 00 00 00 00 00 00 00 00 00 00 00 00 00 00 00  ................
	0x0090 88 00 00 00 00 00 00 00 00 00 00 00 00 00 00 00  ................
	0x00a0 00 00 00 00 00 00 00 00 c8 00 00 00 00 00 00 00  ................
	rel 32+8 t=1 runtime.gcbits.aaaa000200000000<0>+0
	rel 40+4 t=5 type:.namedata.*map.bucket[string]int-<0>+0
	rel 44+4 t=-32763 type:*map.bucket[string]int<0>+0
	rel 48+8 t=1 type:.importpath..<0>+0
	rel 56+8 t=1 type:noalg.map.bucket[string]int<0>+80
	rel 80+8 t=1 type:.namedata.topbits-<0>+0
	rel 88+8 t=1 type:[8]uint8<0>+0
	rel 104+8 t=1 type:.namedata.keys-<0>+0
	rel 112+8 t=1 type:noalg.[8]string<0>+0
	rel 128+8 t=1 type:.namedata.elems-<0>+0
	rel 136+8 t=1 type:noalg.[8]int<0>+0
	rel 152+8 t=1 type:.namedata.overflow-<0>+0
	rel 160+8 t=1 type:unsafe.Pointer<0>+0
type:.namedata.*map[string]int-<0> SRODATA dupok size=17
	0x0000 00 0f 2a 6d 61 70 5b 73 74 72 69 6e 67 5d 69 6e  ..*map[string]in
	0x0010 74                                               t
type:*map[string]int<0> SRODATA dupok size=56
	0x0000 08 00 00 00 00 00 00 00 08 00 00 00 00 00 00 00  ................
	0x0010 71 fe f3 d3 08 08 08 36 00 00 00 00 00 00 00 00  q......6........
	0x0020 00 00 00 00 00 00 00 00 00 00 00 00 00 00 00 00  ................
	0x0030 00 00 00 00 00 00 00 00                          ........
	rel 24+8 t=1 runtime.memequal64·f<0>+0
	rel 32+8 t=1 runtime.gcbits.0100000000000000<0>+0
	rel 40+4 t=5 type:.namedata.*map[string]int-<0>+0
	rel 48+8 t=1 type:map[string]int<0>+0
type:map[string]int<0> SRODATA dupok size=88
	0x0000 08 00 00 00 00 00 00 00 08 00 00 00 00 00 00 00  ................
	0x0010 3d f1 1f ce 02 08 08 35 00 00 00 00 00 00 00 00  =......5........
	0x0020 00 00 00 00 00 00 00 00 00 00 00 00 00 00 00 00  ................
	0x0030 00 00 00 00 00 00 00 00 00 00 00 00 00 00 00 00  ................
	0x0040 00 00 00 00 00 00 00 00 00 00 00 00 00 00 00 00  ................
	0x0050 10 08 d0 00 0c 00 00 00                          ........
	rel 32+8 t=1 runtime.gcbits.0100000000000000<0>+0
	rel 40+4 t=5 type:.namedata.*map[string]int-<0>+0
	rel 44+4 t=-32763 type:*map[string]int<0>+0
	rel 48+8 t=1 type:string<0>+0
	rel 56+8 t=1 type:int<0>+0
	rel 64+8 t=1 type:noalg.map.bucket[string]int<0>+0
	rel 72+8 t=1 runtime.strhash·f<0>+0
type:.namedata.*struct { string }-<0> SRODATA dupok size=20
	0x0000 00 12 2a 73 74 72 75 63 74 20 7b 20 73 74 72 69  ..*struct { stri
	0x0010 6e 67 20 7d                                      ng }
type:*struct { command-line-arguments.string = string }<0> SRODATA dupok size=56
	0x0000 08 00 00 00 00 00 00 00 08 00 00 00 00 00 00 00  ................
	0x0010 11 40 2a 3c 08 08 08 36 00 00 00 00 00 00 00 00  .@*<...6........
	0x0020 00 00 00 00 00 00 00 00 00 00 00 00 00 00 00 00  ................
	0x0030 00 00 00 00 00 00 00 00                          ........
	rel 24+8 t=1 runtime.memequal64·f<0>+0
	rel 32+8 t=1 runtime.gcbits.0100000000000000<0>+0
	rel 40+4 t=5 type:.namedata.*struct { string }-<0>+0
	rel 48+8 t=1 type:struct { command-line-arguments.string = string }<0>+0
type:.namedata.string-.embedded<0> SRODATA dupok size=8
	0x0000 08 06 73 74 72 69 6e 67                          ..string
type:struct { command-line-arguments.string = string }<0> SRODATA dupok size=104
	0x0000 10 00 00 00 00 00 00 00 08 00 00 00 00 00 00 00  ................
	0x0010 bb 30 be ee 02 08 08 19 00 00 00 00 00 00 00 00  .0..............
	0x0020 00 00 00 00 00 00 00 00 00 00 00 00 00 00 00 00  ................
	0x0030 00 00 00 00 00 00 00 00 00 00 00 00 00 00 00 00  ................
	0x0040 01 00 00 00 00 00 00 00 01 00 00 00 00 00 00 00  ................
	0x0050 00 00 00 00 00 00 00 00 00 00 00 00 00 00 00 00  ................
	0x0060 00 00 00 00 00 00 00 00                          ........
	rel 24+8 t=1 runtime.strequal·f<0>+0
	rel 32+8 t=1 runtime.gcbits.0100000000000000<0>+0
	rel 40+4 t=5 type:.namedata.*struct { string }-<0>+0
	rel 44+4 t=-32763 type:*struct { command-line-arguments.string = string }<0>+0
	rel 48+8 t=1 type:.importpath.command-line-arguments.<0>+0
	rel 56+8 t=1 type:struct { command-line-arguments.string = string }<0>+80
	rel 80+8 t=1 type:.namedata.string-.embedded<0>+0
	rel 88+8 t=1 type:string<0>+0
type:.namedata.*[]struct { string }-<0> SRODATA dupok size=22
	0x0000 00 14 2a 5b 5d 73 74 72 75 63 74 20 7b 20 73 74  ..*[]struct { st
	0x0010 72 69 6e 67 20 7d                                ring }
type:*[]struct { command-line-arguments.string = string }<0> SRODATA dupok size=56
	0x0000 08 00 00 00 00 00 00 00 08 00 00 00 00 00 00 00  ................
	0x0010 1d ed 5d 15 08 08 08 36 00 00 00 00 00 00 00 00  ..]....6........
	0x0020 00 00 00 00 00 00 00 00 00 00 00 00 00 00 00 00  ................
	0x0030 00 00 00 00 00 00 00 00                          ........
	rel 24+8 t=1 runtime.memequal64·f<0>+0
	rel 32+8 t=1 runtime.gcbits.0100000000000000<0>+0
	rel 40+4 t=5 type:.namedata.*[]struct { string }-<0>+0
	rel 48+8 t=1 type:[]struct { command-line-arguments.string = string }<0>+0
type:[]struct { command-line-arguments.string = string }<0> SRODATA dupok size=56
	0x0000 18 00 00 00 00 00 00 00 08 00 00 00 00 00 00 00  ................
	0x0010 08 85 c4 f7 02 08 08 17 00 00 00 00 00 00 00 00  ................
	0x0020 00 00 00 00 00 00 00 00 00 00 00 00 00 00 00 00  ................
	0x0030 00 00 00 00 00 00 00 00                          ........
	rel 32+8 t=1 runtime.gcbits.0100000000000000<0>+0
	rel 40+4 t=5 type:.namedata.*[]struct { string }-<0>+0
	rel 44+4 t=-32763 type:*[]struct { command-line-arguments.string = string }<0>+0
	rel 48+8 t=1 type:struct { command-line-arguments.string = string }<0>+0
type:.namedata.*[8]struct { string }-<0> SRODATA dupok size=23
	0x0000 00 15 2a 5b 38 5d 73 74 72 75 63 74 20 7b 20 73  ..*[8]struct { s
	0x0010 74 72 69 6e 67 20 7d                             tring }
type:*[8]struct { command-line-arguments.string = string }<0> SRODATA dupok size=56
	0x0000 08 00 00 00 00 00 00 00 08 00 00 00 00 00 00 00  ................
	0x0010 e9 15 3e 1a 08 08 08 36 00 00 00 00 00 00 00 00  ..>....6........
	0x0020 00 00 00 00 00 00 00 00 00 00 00 00 00 00 00 00  ................
	0x0030 00 00 00 00 00 00 00 00                          ........
	rel 24+8 t=1 runtime.memequal64·f<0>+0
	rel 32+8 t=1 runtime.gcbits.0100000000000000<0>+0
	rel 40+4 t=5 type:.namedata.*[8]struct { string }-<0>+0
	rel 48+8 t=1 type:noalg.[8]struct { command-line-arguments.string = string }<0>+0
type:noalg.[8]struct { command-line-arguments.string = string }<0> SRODATA dupok size=72
	0x0000 80 00 00 00 00 00 00 00 78 00 00 00 00 00 00 00  ........x.......
	0x0010 4c c6 42 a6 02 08 08 11 00 00 00 00 00 00 00 00  L.B.............
	0x0020 00 00 00 00 00 00 00 00 00 00 00 00 00 00 00 00  ................
	0x0030 00 00 00 00 00 00 00 00 00 00 00 00 00 00 00 00  ................
	0x0040 08 00 00 00 00 00 00 00                          ........
	rel 32+8 t=1 runtime.gcbits.5555000000000000<0>+0
	rel 40+4 t=5 type:.namedata.*[8]struct { string }-<0>+0
	rel 44+4 t=-32763 type:*[8]struct { command-line-arguments.string = string }<0>+0
	rel 48+8 t=1 type:struct { command-line-arguments.string = string }<0>+0
	rel 56+8 t=1 type:[]struct { command-line-arguments.string = string }<0>+0
type:.namedata.*map.bucket[struct { string }]int-<0> SRODATA dupok size=35
	0x0000 00 21 2a 6d 61 70 2e 62 75 63 6b 65 74 5b 73 74  .!*map.bucket[st
	0x0010 72 75 63 74 20 7b 20 73 74 72 69 6e 67 20 7d 5d  ruct { string }]
	0x0020 69 6e 74                                         int
type:*map.bucket[struct { command-line-arguments.string = string }]int<0> SRODATA dupok size=56
	0x0000 08 00 00 00 00 00 00 00 08 00 00 00 00 00 00 00  ................
	0x0010 1f ec 60 f0 08 08 08 36 00 00 00 00 00 00 00 00  ..`....6........
	0x0020 00 00 00 00 00 00 00 00 00 00 00 00 00 00 00 00  ................
	0x0030 00 00 00 00 00 00 00 00                          ........
	rel 24+8 t=1 runtime.memequal64·f<0>+0
	rel 32+8 t=1 runtime.gcbits.0100000000000000<0>+0
	rel 40+4 t=5 type:.namedata.*map.bucket[struct { string }]int-<0>+0
	rel 48+8 t=1 type:noalg.map.bucket[struct { command-line-arguments.string = string }]int<0>+0
type:noalg.map.bucket[struct { command-line-arguments.string = string }]int<0> SRODATA dupok size=176
	0x0000 d0 00 00 00 00 00 00 00 d0 00 00 00 00 00 00 00  ................
	0x0010 b4 05 4d b3 02 08 08 19 00 00 00 00 00 00 00 00  ..M.............
	0x0020 00 00 00 00 00 00 00 00 00 00 00 00 00 00 00 00  ................
	0x0030 00 00 00 00 00 00 00 00 00 00 00 00 00 00 00 00  ................
	0x0040 04 00 00 00 00 00 00 00 04 00 00 00 00 00 00 00  ................
	0x0050 00 00 00 00 00 00 00 00 00 00 00 00 00 00 00 00  ................
	0x0060 00 00 00 00 00 00 00 00 00 00 00 00 00 00 00 00  ................
	0x0070 00 00 00 00 00 00 00 00 08 00 00 00 00 00 00 00  ................
	0x0080 00 00 00 00 00 00 00 00 00 00 00 00 00 00 00 00  ................
	0x0090 88 00 00 00 00 00 00 00 00 00 00 00 00 00 00 00  ................
	0x00a0 00 00 00 00 00 00 00 00 c8 00 00 00 00 00 00 00  ................
	rel 32+8 t=1 runtime.gcbits.aaaa000200000000<0>+0
	rel 40+4 t=5 type:.namedata.*map.bucket[struct { string }]int-<0>+0
	rel 44+4 t=-32763 type:*map.bucket[struct { command-line-arguments.string = string }]int<0>+0
	rel 48+8 t=1 type:.importpath..<0>+0
	rel 56+8 t=1 type:noalg.map.bucket[struct { command-line-arguments.string = string }]int<0>+80
	rel 80+8 t=1 type:.namedata.topbits-<0>+0
	rel 88+8 t=1 type:[8]uint8<0>+0
	rel 104+8 t=1 type:.namedata.keys-<0>+0
	rel 112+8 t=1 type:noalg.[8]struct { command-line-arguments.string = string }<0>+0
	rel 128+8 t=1 type:.namedata.elems-<0>+0
	rel 136+8 t=1 type:noalg.[8]int<0>+0
	rel 152+8 t=1 type:.namedata.overflow-<0>+0
	rel 160+8 t=1 type:unsafe.Pointer<0>+0
type:.namedata.*map[struct { string }]int-<0> SRODATA dupok size=28
	0x0000 00 1a 2a 6d 61 70 5b 73 74 72 75 63 74 20 7b 20  ..*map[struct { 
	0x0010 73 74 72 69 6e 67 20 7d 5d 69 6e 74              string }]int
type:*map[struct { command-line-arguments.string = string }]int<0> SRODATA dupok size=56
	0x0000 08 00 00 00 00 00 00 00 08 00 00 00 00 00 00 00  ................
	0x0010 bf 3a e7 15 08 08 08 36 00 00 00 00 00 00 00 00  .:.....6........
	0x0020 00 00 00 00 00 00 00 00 00 00 00 00 00 00 00 00  ................
	0x0030 00 00 00 00 00 00 00 00                          ........
	rel 24+8 t=1 runtime.memequal64·f<0>+0
	rel 32+8 t=1 runtime.gcbits.0100000000000000<0>+0
	rel 40+4 t=5 type:.namedata.*map[struct { string }]int-<0>+0
	rel 48+8 t=1 type:map[struct { command-line-arguments.string = string }]int<0>+0
type:map[struct { command-line-arguments.string = string }]int<0> SRODATA dupok size=88
	0x0000 08 00 00 00 00 00 00 00 08 00 00 00 00 00 00 00  ................
	0x0010 64 a5 cf 34 02 08 08 35 00 00 00 00 00 00 00 00  d..4...5........
	0x0020 00 00 00 00 00 00 00 00 00 00 00 00 00 00 00 00  ................
	0x0030 00 00 00 00 00 00 00 00 00 00 00 00 00 00 00 00  ................
	0x0040 00 00 00 00 00 00 00 00 00 00 00 00 00 00 00 00  ................
	0x0050 10 08 d0 00 0c 00 00 00                          ........
	rel 32+8 t=1 runtime.gcbits.0100000000000000<0>+0
	rel 40+4 t=5 type:.namedata.*map[struct { string }]int-<0>+0
	rel 44+4 t=-32763 type:*map[struct { command-line-arguments.string = string }]int<0>+0
	rel 48+8 t=1 type:struct { command-line-arguments.string = string }<0>+0
	rel 56+8 t=1 type:int<0>+0
	rel 64+8 t=1 type:noalg.map.bucket[struct { command-line-arguments.string = string }]int<0>+0
	rel 72+8 t=1 runtime.strhash·f<0>+0
runtime.gcbits.2c00000000000000<0> SRODATA dupok size=8
	0x0000 2c 00 00 00 00 00 00 00                          ,.......
type:.namedata.*map.hdr[float64]int-<0> SRODATA dupok size=22
	0x0000 00 14 2a 6d 61 70 2e 68 64 72 5b 66 6c 6f 61 74  ..*map.hdr[float
	0x0010 36 34 5d 69 6e 74                                64]int
type:.namedata.count-<0> SRODATA dupok size=7
	0x0000 00 05 63 6f 75 6e 74                             ..count
type:.namedata.flags-<0> SRODATA dupok size=7
	0x0000 00 05 66 6c 61 67 73                             ..flags
type:.namedata.B.<0> SRODATA dupok size=3
	0x0000 01 01 42                                         ..B
type:.namedata.noverflow-<0> SRODATA dupok size=11
	0x0000 00 09 6e 6f 76 65 72 66 6c 6f 77                 ..noverflow
type:.namedata.hash0-<0> SRODATA dupok size=7
	0x0000 00 05 68 61 73 68 30                             ..hash0
type:.namedata.buckets-<0> SRODATA dupok size=9
	0x0000 00 07 62 75 63 6b 65 74 73                       ..buckets
type:.namedata.oldbuckets-<0> SRODATA dupok size=12
	0x0000 00 0a 6f 6c 64 62 75 63 6b 65 74 73              ..oldbuckets
type:.namedata.nevacuate-<0> SRODATA dupok size=11
	0x0000 00 09 6e 65 76 61 63 75 61 74 65                 ..nevacuate
type:.namedata.extra-<0> SRODATA dupok size=7
	0x0000 00 05 65 78 74 72 61                             ..extra
type:noalg.map.hdr[float64]int<0> SRODATA dupok size=296
	0x0000 30 00 00 00 00 00 00 00 30 00 00 00 00 00 00 00  0.......0.......
	0x0010 91 15 3d 3c 02 08 08 19 00 00 00 00 00 00 00 00  ..=<............
	0x0020 00 00 00 00 00 00 00 00 00 00 00 00 00 00 00 00  ................
	0x0030 00 00 00 00 00 00 00 00 00 00 00 00 00 00 00 00  ................
	0x0040 09 00 00 00 00 00 00 00 09 00 00 00 00 00 00 00  ................
	0x0050 00 00 00 00 00 00 00 00 00 00 00 00 00 00 00 00  ................
	0x0060 00 00 00 00 00 00 00 00 00 00 00 00 00 00 00 00  ................
	0x0070 00 00 00 00 00 00 00 00 08 00 00 00 00 00 00 00  ................
	0x0080 00 00 00 00 00 00 00 00 00 00 00 00 00 00 00 00  ................
	0x0090 09 00 00 00 00 00 00 00 00 00 00 00 00 00 00 00  ................
	0x00a0 00 00 00 00 00 00 00 00 0a 00 00 00 00 00 00 00  ................
	0x00b0 00 00 00 00 00 00 00 00 00 00 00 00 00 00 00 00  ................
	0x00c0 0c 00 00 00 00 00 00 00 00 00 00 00 00 00 00 00  ................
	0x00d0 00 00 00 00 00 00 00 00 10 00 00 00 00 00 00 00  ................
	0x00e0 00 00 00 00 00 00 00 00 00 00 00 00 00 00 00 00  ................
	0x00f0 18 00 00 00 00 00 00 00 00 00 00 00 00 00 00 00  ................
	0x0100 00 00 00 00 00 00 00 00 20 00 00 00 00 00 00 00  ........ .......
	0x0110 00 00 00 00 00 00 00 00 00 00 00 00 00 00 00 00  ................
	0x0120 28 00 00 00 00 00 00 00                          (.......
	rel 32+8 t=1 runtime.gcbits.2c00000000000000<0>+0
	rel 40+4 t=5 type:.namedata.*map.hdr[float64]int-<0>+0
	rel 44+4 t=-32763 type:*map.hdr[float64]int<0>+0
	rel 48+8 t=1 type:.importpath..<0>+0
	rel 56+8 t=1 type:noalg.map.hdr[float64]int<0>+80
	rel 80+8 t=1 type:.namedata.count-<0>+0
	rel 88+8 t=1 type:int<0>+0
	rel 104+8 t=1 type:.namedata.flags-<0>+0
	rel 112+8 t=1 type:uint8<0>+0
	rel 128+8 t=1 type:.namedata.B.<0>+0
	rel 136+8 t=1 type:uint8<0>+0
	rel 152+8 t=1 type:.namedata.noverflow-<0>+0
	rel 160+8 t=1 type:uint16<0>+0
	rel 176+8 t=1 type:.namedata.hash0-<0>+0
	rel 184+8 t=1 type:uint32<0>+0
	rel 200+8 t=1 type:.namedata.buckets-<0>+0
	rel 208+8 t=1 type:*map.bucket[float64]int<0>+0
	rel 224+8 t=1 type:.namedata.oldbuckets-<0>+0
	rel 232+8 t=1 type:*map.bucket[float64]int<0>+0
	rel 248+8 t=1 type:.namedata.nevacuate-<0>+0
	rel 256+8 t=1 type:uintptr<0>+0
	rel 272+8 t=1 type:.namedata.extra-<0>+0
	rel 280+8 t=1 type:unsafe.Pointer<0>+0
type:*map.hdr[float64]int<0> SRODATA dupok size=56
	0x0000 08 00 00 00 00 00 00 00 08 00 00 00 00 00 00 00  ................
	0x0010 01 87 4a 7c 08 08 08 36 00 00 00 00 00 00 00 00  ..J|...6........
	0x0020 00 00 00 00 00 00 00 00 00 00 00 00 00 00 00 00  ................
	0x0030 00 00 00 00 00 00 00 00                          ........
	rel 24+8 t=1 runtime.memequal64·f<0>+0
	rel 32+8 t=1 runtime.gcbits.0100000000000000<0>+0
	rel 40+4 t=5 type:.namedata.*map.hdr[float64]int-<0>+0
	rel 48+8 t=1 type:noalg.map.hdr[float64]int<0>+0
type:.namedata.*map.iter[float64]int-<0> SRODATA dupok size=23
	0x0000 00 15 2a 6d 61 70 2e 69 74 65 72 5b 66 6c 6f 61  ..*map.iter[floa
	0x0010 74 36 34 5d 69 6e 74                             t64]int
type:*map.iter[float64]int<0> SRODATA dupok size=56
	0x0000 08 00 00 00 00 00 00 00 08 00 00 00 00 00 00 00  ................
	0x0010 d1 ca 6d ef 08 08 08 36 00 00 00 00 00 00 00 00  ..m....6........
	0x0020 00 00 00 00 00 00 00 00 00 00 00 00 00 00 00 00  ................
	0x0030 00 00 00 00 00 00 00 00                          ........
	rel 24+8 t=1 runtime.memequal64·f<0>+0
	rel 32+8 t=1 runtime.gcbits.0100000000000000<0>+0
	rel 40+4 t=5 type:.namedata.*map.iter[float64]int-<0>+0
	rel 48+8 t=1 type:noalg.map.iter[float64]int<0>+0
type:.namedata.key-<0> SRODATA dupok size=5
	0x0000 00 03 6b 65 79                                   ..key
type:.namedata.elem-<0> SRODATA dupok size=6
	0x0000 00 04 65 6c 65 6d                                ..elem
type:.namedata.t-<0> SRODATA dupok size=3
	0x0000 00 01 74                                         ..t
type:.namedata.h-<0> SRODATA dupok size=3
	0x0000 00 01 68                                         ..h
type:.namedata.bptr-<0> SRODATA dupok size=6
	0x0000 00 04 62 70 74 72                                ..bptr
type:.namedata.oldoverflow-<0> SRODATA dupok size=13
	0x0000 00 0b 6f 6c 64 6f 76 65 72 66 6c 6f 77           ..oldoverflow
type:.namedata.startBucket-<0> SRODATA dupok size=13
	0x0000 00 0b 73 74 61 72 74 42 75 63 6b 65 74           ..startBucket
type:.namedata.offset-<0> SRODATA dupok size=8
	0x0000 00 06 6f 66 66 73 65 74                          ..offset
type:.namedata.wrapped-<0> SRODATA dupok size=9
	0x0000 00 07 77 72 61 70 70 65 64                       ..wrapped
type:.namedata.i-<0> SRODATA dupok size=3
	0x0000 00 01 69                                         ..i
type:.namedata.bucket-<0> SRODATA dupok size=8
	0x0000 00 06 62 75 63 6b 65 74                          ..bucket
type:.namedata.checkBucket-<0> SRODATA dupok size=13
	0x0000 00 0b 63 68 65 63 6b 42 75 63 6b 65 74           ..checkBucket
type:noalg.map.iter[float64]int<0> SRODATA dupok size=440
	0x0000 60 00 00 00 00 00 00 00 40 00 00 00 00 00 00 00  `.......@.......
	0x0010 a1 46 05 18 02 08 08 19 00 00 00 00 00 00 00 00  .F..............
	0x0020 00 00 00 00 00 00 00 00 00 00 00 00 00 00 00 00  ................
	0x0030 00 00 00 00 00 00 00 00 00 00 00 00 00 00 00 00  ................
	0x0040 0f 00 00 00 00 00 00 00 0f 00 00 00 00 00 00 00  ................
	0x0050 00 00 00 00 00 00 00 00 00 00 00 00 00 00 00 00  ................
	0x0060 00 00 00 00 00 00 00 00 00 00 00 00 00 00 00 00  ................
	0x0070 00 00 00 00 00 00 00 00 08 00 00 00 00 00 00 00  ................
	0x0080 00 00 00 00 00 00 00 00 00 00 00 00 00 00 00 00  ................
	0x0090 10 00 00 00 00 00 00 00 00 00 00 00 00 00 00 00  ................
	0x00a0 00 00 00 00 00 00 00 00 18 00 00 00 00 00 00 00  ................
	0x00b0 00 00 00 00 00 00 00 00 00 00 00 00 00 00 00 00  ................
	0x00c0 20 00 00 00 00 00 00 00 00 00 00 00 00 00 00 00   ...............
	0x00d0 00 00 00 00 00 00 00 00 28 00 00 00 00 00 00 00  ........(.......
	0x00e0 00 00 00 00 00 00 00 00 00 00 00 00 00 00 00 00  ................
	0x00f0 30 00 00 00 00 00 00 00 00 00 00 00 00 00 00 00  0...............
	0x0100 00 00 00 00 00 00 00 00 38 00 00 00 00 00 00 00  ........8.......
	0x0110 00 00 00 00 00 00 00 00 00 00 00 00 00 00 00 00  ................
	0x0120 40 00 00 00 00 00 00 00 00 00 00 00 00 00 00 00  @...............
	0x0130 00 00 00 00 00 00 00 00 48 00 00 00 00 00 00 00  ........H.......
	0x0140 00 00 00 00 00 00 00 00 00 00 00 00 00 00 00 00  ................
	0x0150 49 00 00 00 00 00 00 00 00 00 00 00 00 00 00 00  I...............
	0x0160 00 00 00 00 00 00 00 00 4a 00 00 00 00 00 00 00  ........J.......
	0x0170 00 00 00 00 00 00 00 00 00 00 00 00 00 00 00 00  ................
	0x0180 4b 00 00 00 00 00 00 00 00 00 00 00 00 00 00 00  K...............
	0x0190 00 00 00 00 00 00 00 00 50 00 00 00 00 00 00 00  ........P.......
	0x01a0 00 00 00 00 00 00 00 00 00 00 00 00 00 00 00 00  ................
	0x01b0 58 00 00 00 00 00 00 00                          X.......
	rel 32+8 t=1 runtime.gcbits.ff00000000000000<0>+0
	rel 40+4 t=5 type:.namedata.*map.iter[float64]int-<0>+0
	rel 44+4 t=-32763 type:*map.iter[float64]int<0>+0
	rel 48+8 t=1 type:.importpath..<0>+0
	rel 56+8 t=1 type:noalg.map.iter[float64]int<0>+80
	rel 80+8 t=1 type:.namedata.key-<0>+0
	rel 88+8 t=1 type:*float64<0>+0
	rel 104+8 t=1 type:.namedata.elem-<0>+0
	rel 112+8 t=1 type:*int<0>+0
	rel 128+8 t=1 type:.namedata.t-<0>+0
	rel 136+8 t=1 type:unsafe.Pointer<0>+0
	rel 152+8 t=1 type:.namedata.h-<0>+0
	rel 160+8 t=1 type:*map.hdr[float64]int<0>+0
	rel 176+8 t=1 type:.namedata.buckets-<0>+0
	rel 184+8 t=1 type:*map.bucket[float64]int<0>+0
	rel 200+8 t=1 type:.namedata.bptr-<0>+0
	rel 208+8 t=1 type:*map.bucket[float64]int<0>+0
	rel 224+8 t=1 type:.namedata.overflow-<0>+0
	rel 232+8 t=1 type:unsafe.Pointer<0>+0
	rel 248+8 t=1 type:.namedata.oldoverflow-<0>+0
	rel 256+8 t=1 type:unsafe.Pointer<0>+0
	rel 272+8 t=1 type:.namedata.startBucket-<0>+0
	rel 280+8 t=1 type:uintptr<0>+0
	rel 296+8 t=1 type:.namedata.offset-<0>+0
	rel 304+8 t=1 type:uint8<0>+0
	rel 320+8 t=1 type:.namedata.wrapped-<0>+0
	rel 328+8 t=1 type:bool<0>+0
	rel 344+8 t=1 type:.namedata.B.<0>+0
	rel 352+8 t=1 type:uint8<0>+0
	rel 368+8 t=1 type:.namedata.i-<0>+0
	rel 376+8 t=1 type:uint8<0>+0
	rel 392+8 t=1 type:.namedata.bucket-<0>+0
	rel 400+8 t=1 type:uintptr<0>+0
	rel 416+8 t=1 type:.namedata.checkBucket-<0>+0
	rel 424+8 t=1 type:uintptr<0>+0
type:.namedata.*map.hdr[int]int-<0> SRODATA dupok size=18
	0x0000 00 10 2a 6d 61 70 2e 68 64 72 5b 69 6e 74 5d 69  ..*map.hdr[int]i
	0x0010 6e 74                                            nt
type:noalg.map.hdr[int]int<0> SRODATA dupok size=296
	0x0000 30 00 00 00 00 00 00 00 30 00 00 00 00 00 00 00  0.......0.......
	0x0010 72 a1 9f b1 02 08 08 19 00 00 00 00 00 00 00 00  r...............
	0x0020 00 00 00 00 00 00 00 00 00 00 00 00 00 00 00 00  ................
	0x0030 00 00 00 00 00 00 00 00 00 00 00 00 00 00 00 00  ................
	0x0040 09 00 00 00 00 00 00 00 09 00 00 00 00 00 00 00  ................
	0x0050 00 00 00 00 00 00 00 00 00 00 00 00 00 00 00 00  ................
	0x0060 00 00 00 00 00 00 00 00 00 00 00 00 00 00 00 00  ................
	0x0070 00 00 00 00 00 00 00 00 08 00 00 00 00 00 00 00  ................
	0x0080 00 00 00 00 00 00 00 00 00 00 00 00 00 00 00 00  ................
	0x0090 09 00 00 00 00 00 00 00 00 00 00 00 00 00 00 00  ................
	0x00a0 00 00 00 00 00 00 00 00 0a 00 00 00 00 00 00 00  ................
	0x00b0 00 00 00 00 00 00 00 00 00 00 00 00 00 00 00 00  ................
	0x00c0 0c 00 00 00 00 00 00 00 00 00 00 00 00 00 00 00  ................
	0x00d0 00 00 00 00 00 00 00 00 10 00 00 00 00 00 00 00  ................
	0x00e0 00 00 00 00 00 00 00 00 00 00 00 00 00 00 00 00  ................
	0x00f0 18 00 00 00 00 00 00 00 00 00 00 00 00 00 00 00  ................
	0x0100 00 00 00 00 00 00 00 00 20 00 00 00 00 00 00 00  ........ .......
	0x0110 00 00 00 00 00 00 00 00 00 00 00 00 00 00 00 00  ................
	0x0120 28 00 00 00 00 00 00 00                          (.......
	rel 32+8 t=1 runtime.gcbits.2c00000000000000<0>+0
	rel 40+4 t=5 type:.namedata.*map.hdr[int]int-<0>+0
	rel 44+4 t=-32763 type:*map.hdr[int]int<0>+0
	rel 48+8 t=1 type:.importpath..<0>+0
	rel 56+8 t=1 type:noalg.map.hdr[int]int<0>+80
	rel 80+8 t=1 type:.namedata.count-<0>+0
	rel 88+8 t=1 type:int<0>+0
	rel 104+8 t=1 type:.namedata.flags-<0>+0
	rel 112+8 t=1 type:uint8<0>+0
	rel 128+8 t=1 type:.namedata.B.<0>+0
	rel 136+8 t=1 type:uint8<0>+0
	rel 152+8 t=1 type:.namedata.noverflow-<0>+0
	rel 160+8 t=1 type:uint16<0>+0
	rel 176+8 t=1 type:.namedata.hash0-<0>+0
	rel 184+8 t=1 type:uint32<0>+0
	rel 200+8 t=1 type:.namedata.buckets-<0>+0
	rel 208+8 t=1 type:*map.bucket[int]int<0>+0
	rel 224+8 t=1 type:.namedata.oldbuckets-<0>+0
	rel 232+8 t=1 type:*map.bucket[int]int<0>+0
	rel 248+8 t=1 type:.namedata.nevacuate-<0>+0
	rel 256+8 t=1 type:uintptr<0>+0
	rel 272+8 t=1 type:.namedata.extra-<0>+0
	rel 280+8 t=1 type:unsafe.Pointer<0>+0
type:*map.hdr[int]int<0> SRODATA dupok size=56
	0x0000 08 00 00 00 00 00 00 00 08 00 00 00 00 00 00 00  ................
	0x0010 03 2c fc e5 08 08 08 36 00 00 00 00 00 00 00 00  .,.....6........
	0x0020 00 00 00 00 00 00 00 00 00 00 00 00 00 00 00 00  ................
	0x0030 00 00 00 00 00 00 00 00                          ........
	rel 24+8 t=1 runtime.memequal64·f<0>+0
	rel 32+8 t=1 runtime.gcbits.0100000000000000<0>+0
	rel 40+4 t=5 type:.namedata.*map.hdr[int]int-<0>+0
	rel 48+8 t=1 type:noalg.map.hdr[int]int<0>+0
type:.namedata.*map.iter[int]int-<0> SRODATA dupok size=19
	0x0000 00 11 2a 6d 61 70 2e 69 74 65 72 5b 69 6e 74 5d  ..*map.iter[int]
	0x0010 69 6e 74                                         int
type:*map.iter[int]int<0> SRODATA dupok size=56
	0x0000 08 00 00 00 00 00 00 00 08 00 00 00 00 00 00 00  ................
	0x0010 a3 b9 b0 a0 08 08 08 36 00 00 00 00 00 00 00 00  .......6........
	0x0020 00 00 00 00 00 00 00 00 00 00 00 00 00 00 00 00  ................
	0x0030 00 00 00 00 00 00 00 00                          ........
	rel 24+8 t=1 runtime.memequal64·f<0>+0
	rel 32+8 t=1 runtime.gcbits.0100000000000000<0>+0
	rel 40+4 t=5 type:.namedata.*map.iter[int]int-<0>+0
	rel 48+8 t=1 type:noalg.map.iter[int]int<0>+0
type:noalg.map.iter[int]int<0> SRODATA dupok size=440
	0x0000 60 00 00 00 00 00 00 00 40 00 00 00 00 00 00 00  `.......@.......
	0x0010 30 cc ef bc 02 08 08 19 00 00 00 00 00 00 00 00  0...............
	0x0020 00 00 00 00 00 00 00 00 00 00 00 00 00 00 00 00  ................
	0x0030 00 00 00 00 00 00 00 00 00 00 00 00 00 00 00 00  ................
	0x0040 0f 00 00 00 00 00 00 00 0f 00 00 00 00 00 00 00  ................
	0x0050 00 00 00 00 00 00 00 00 00 00 00 00 00 00 00 00  ................
	0x0060 00 00 00 00 00 00 00 00 00 00 00 00 00 00 00 00  ................
	0x0070 00 00 00 00 00 00 00 00 08 00 00 00 00 00 00 00  ................
	0x0080 00 00 00 00 00 00 00 00 00 00 00 00 00 00 00 00  ................
	0x0090 10 00 00 00 00 00 00 00 00 00 00 00 00 00 00 00  ................
	0x00a0 00 00 00 00 00 00 00 00 18 00 00 00 00 00 00 00  ................
	0x00b0 00 00 00 00 00 00 00 00 00 00 00 00 00 00 00 00  ................
	0x00c0 20 00 00 00 00 00 00 00 00 00 00 00 00 00 00 00   ...............
	0x00d0 00 00 00 00 00 00 00 00 28 00 00 00 00 00 00 00  ........(.......
	0x00e0 00 00 00 00 00 00 00 00 00 00 00 00 00 00 00 00  ................
	0x00f0 30 00 00 00 00 00 00 00 00 00 00 00 00 00 00 00  0...............
	0x0100 00 00 00 00 00 00 00 00 38 00 00 00 00 00 00 00  ........8.......
	0x0110 00 00 00 00 00 00 00 00 00 00 00 00 00 00 00 00  ................
	0x0120 40 00 00 00 00 00 00 00 00 00 00 00 00 00 00 00  @...............
	0x0130 00 00 00 00 00 00 00 00 48 00 00 00 00 00 00 00  ........H.......
	0x0140 00 00 00 00 00 00 00 00 00 00 00 00 00 00 00 00  ................
	0x0150 49 00 00 00 00 00 00 00 00 00 00 00 00 00 00 00  I...............
	0x0160 00 00 00 00 00 00 00 00 4a 00 00 00 00 00 00 00  ........J.......
	0x0170 00 00 00 00 00 00 00 00 00 00 00 00 00 00 00 00  ................
	0x0180 4b 00 00 00 00 00 00 00 00 00 00 00 00 00 00 00  K...............
	0x0190 00 00 00 00 00 00 00 00 50 00 00 00 00 00 00 00  ........P.......
	0x01a0 00 00 00 00 00 00 00 00 00 00 00 00 00 00 00 00  ................
	0x01b0 58 00 00 00 00 00 00 00                          X.......
	rel 32+8 t=1 runtime.gcbits.ff00000000000000<0>+0
	rel 40+4 t=5 type:.namedata.*map.iter[int]int-<0>+0
	rel 44+4 t=-32763 type:*map.iter[int]int<0>+0
	rel 48+8 t=1 type:.importpath..<0>+0
	rel 56+8 t=1 type:noalg.map.iter[int]int<0>+80
	rel 80+8 t=1 type:.namedata.key-<0>+0
	rel 88+8 t=1 type:*int<0>+0
	rel 104+8 t=1 type:.namedata.elem-<0>+0
	rel 112+8 t=1 type:*int<0>+0
	rel 128+8 t=1 type:.namedata.t-<0>+0
	rel 136+8 t=1 type:unsafe.Pointer<0>+0
	rel 152+8 t=1 type:.namedata.h-<0>+0
	rel 160+8 t=1 type:*map.hdr[int]int<0>+0
	rel 176+8 t=1 type:.namedata.buckets-<0>+0
	rel 184+8 t=1 type:*map.bucket[int]int<0>+0
	rel 200+8 t=1 type:.namedata.bptr-<0>+0
	rel 208+8 t=1 type:*map.bucket[int]int<0>+0
	rel 224+8 t=1 type:.namedata.overflow-<0>+0
	rel 232+8 t=1 type:unsafe.Pointer<0>+0
	rel 248+8 t=1 type:.namedata.oldoverflow-<0>+0
	rel 256+8 t=1 type:unsafe.Pointer<0>+0
	rel 272+8 t=1 type:.namedata.startBucket-<0>+0
	rel 280+8 t=1 type:uintptr<0>+0
	rel 296+8 t=1 type:.namedata.offset-<0>+0
	rel 304+8 t=1 type:uint8<0>+0
	rel 320+8 t=1 type:.namedata.wrapped-<0>+0
	rel 328+8 t=1 type:bool<0>+0
	rel 344+8 t=1 type:.namedata.B.<0>+0
	rel 352+8 t=1 type:uint8<0>+0
	rel 368+8 t=1 type:.namedata.i-<0>+0
	rel 376+8 t=1 type:uint8<0>+0
	rel 392+8 t=1 type:.namedata.bucket-<0>+0
	rel 400+8 t=1 type:uintptr<0>+0
	rel 416+8 t=1 type:.namedata.checkBucket-<0>+0
	rel 424+8 t=1 type:uintptr<0>+0
type:.namedata.*interface {}-<0> SRODATA dupok size=15
	0x0000 00 0d 2a 69 6e 74 65 72 66 61 63 65 20 7b 7d     ..*interface {}
type:*interface {}<0> SRODATA dupok size=56
	0x0000 08 00 00 00 00 00 00 00 08 00 00 00 00 00 00 00  ................
	0x0010 3b fc f8 8f 08 08 08 36 00 00 00 00 00 00 00 00  ;......6........
	0x0020 00 00 00 00 00 00 00 00 00 00 00 00 00 00 00 00  ................
	0x0030 00 00 00 00 00 00 00 00                          ........
	rel 24+8 t=1 runtime.memequal64·f<0>+0
	rel 32+8 t=1 runtime.gcbits.0100000000000000<0>+0
	rel 40+4 t=5 type:.namedata.*interface {}-<0>+0
	rel 48+8 t=1 type:interface {}<0>+0
type:.namedata.*map.hdr[interface {}]int-<0> SRODATA dupok size=27
	0x0000 00 19 2a 6d 61 70 2e 68 64 72 5b 69 6e 74 65 72  ..*map.hdr[inter
	0x0010 66 61 63 65 20 7b 7d 5d 69 6e 74                 face {}]int
type:noalg.map.hdr[interface {}]int<0> SRODATA dupok size=296
	0x0000 30 00 00 00 00 00 00 00 30 00 00 00 00 00 00 00  0.......0.......
	0x0010 bd ea 78 b1 02 08 08 19 00 00 00 00 00 00 00 00  ..x.............
	0x0020 00 00 00 00 00 00 00 00 00 00 00 00 00 00 00 00  ................
	0x0030 00 00 00 00 00 00 00 00 00 00 00 00 00 00 00 00  ................
	0x0040 09 00 00 00 00 00 00 00 09 00 00 00 00 00 00 00  ................
	0x0050 00 00 00 00 00 00 00 00 00 00 00 00 00 00 00 00  ................
	0x0060 00 00 00 00 00 00 00 00 00 00 00 00 00 00 00 00  ................
	0x0070 00 00 00 00 00 00 00 00 08 00 00 00 00 00 00 00  ................
	0x0080 00 00 00 00 00 00 00 00 00 00 00 00 00 00 00 00  ................
	0x0090 09 00 00 00 00 00 00 00 00 00 00 00 00 00 00 00  ................
	0x00a0 00 00 00 00 00 00 00 00 0a 00 00 00 00 00 00 00  ................
	0x00b0 00 00 00 00 00 00 00 00 00 00 00 00 00 00 00 00  ................
	0x00c0 0c 00 00 00 00 00 00 00 00 00 00 00 00 00 00 00  ................
	0x00d0 00 00 00 00 00 00 00 00 10 00 00 00 00 00 00 00  ................
	0x00e0 00 00 00 00 00 00 00 00 00 00 00 00 00 00 00 00  ................
	0x00f0 18 00 00 00 00 00 00 00 00 00 00 00 00 00 00 00  ................
	0x0100 00 00 00 00 00 00 00 00 20 00 00 00 00 00 00 00  ........ .......
	0x0110 00 00 00 00 00 00 00 00 00 00 00 00 00 00 00 00  ................
	0x0120 28 00 00 00 00 00 00 00                          (.......
	rel 32+8 t=1 runtime.gcbits.2c00000000000000<0>+0
	rel 40+4 t=5 type:.namedata.*map.hdr[interface {}]int-<0>+0
	rel 44+4 t=-32763 type:*map.hdr[interface {}]int<0>+0
	rel 48+8 t=1 type:.importpath..<0>+0
	rel 56+8 t=1 type:noalg.map.hdr[interface {}]int<0>+80
	rel 80+8 t=1 type:.namedata.count-<0>+0
	rel 88+8 t=1 type:int<0>+0
	rel 104+8 t=1 type:.namedata.flags-<0>+0
	rel 112+8 t=1 type:uint8<0>+0
	rel 128+8 t=1 type:.namedata.B.<0>+0
	rel 136+8 t=1 type:uint8<0>+0
	rel 152+8 t=1 type:.namedata.noverflow-<0>+0
	rel 160+8 t=1 type:uint16<0>+0
	rel 176+8 t=1 type:.namedata.hash0-<0>+0
	rel 184+8 t=1 type:uint32<0>+0
	rel 200+8 t=1 type:.namedata.buckets-<0>+0
	rel 208+8 t=1 type:*map.bucket[interface {}]int<0>+0
	rel 224+8 t=1 type:.namedata.oldbuckets-<0>+0
	rel 232+8 t=1 type:*map.bucket[interface {}]int<0>+0
	rel 248+8 t=1 type:.namedata.nevacuate-<0>+0
	rel 256+8 t=1 type:uintptr<0>+0
	rel 272+8 t=1 type:.namedata.extra-<0>+0
	rel 280+8 t=1 type:unsafe.Pointer<0>+0
type:*map.hdr[interface {}]int<0> SRODATA dupok size=56
	0x0000 08 00 00 00 00 00 00 00 08 00 00 00 00 00 00 00  ................
	0x0010 3c 82 eb 78 08 08 08 36 00 00 00 00 00 00 00 00  <..x...6........
	0x0020 00 00 00 00 00 00 00 00 00 00 00 00 00 00 00 00  ................
	0x0030 00 00 00 00 00 00 00 00                          ........
	rel 24+8 t=1 runtime.memequal64·f<0>+0
	rel 32+8 t=1 runtime.gcbits.0100000000000000<0>+0
	rel 40+4 t=5 type:.namedata.*map.hdr[interface {}]int-<0>+0
	rel 48+8 t=1 type:noalg.map.hdr[interface {}]int<0>+0
type:.namedata.*map.iter[interface {}]int-<0> SRODATA dupok size=28
	0x0000 00 1a 2a 6d 61 70 2e 69 74 65 72 5b 69 6e 74 65  ..*map.iter[inte
	0x0010 72 66 61 63 65 20 7b 7d 5d 69 6e 74              rface {}]int
type:*map.iter[interface {}]int<0> SRODATA dupok size=56
	0x0000 08 00 00 00 00 00 00 00 08 00 00 00 00 00 00 00  ................
	0x0010 cf 94 a1 56 08 08 08 36 00 00 00 00 00 00 00 00  ...V...6........
	0x0020 00 00 00 00 00 00 00 00 00 00 00 00 00 00 00 00  ................
	0x0030 00 00 00 00 00 00 00 00                          ........
	rel 24+8 t=1 runtime.memequal64·f<0>+0
	rel 32+8 t=1 runtime.gcbits.0100000000000000<0>+0
	rel 40+4 t=5 type:.namedata.*map.iter[interface {}]int-<0>+0
	rel 48+8 t=1 type:noalg.map.iter[interface {}]int<0>+0
type:noalg.map.iter[interface {}]int<0> SRODATA dupok size=440
	0x0000 60 00 00 00 00 00 00 00 40 00 00 00 00 00 00 00  `.......@.......
	0x0010 05 f0 34 c6 02 08 08 19 00 00 00 00 00 00 00 00  ..4.............
	0x0020 00 00 00 00 00 00 00 00 00 00 00 00 00 00 00 00  ................
	0x0030 00 00 00 00 00 00 00 00 00 00 00 00 00 00 00 00  ................
	0x0040 0f 00 00 00 00 00 00 00 0f 00 00 00 00 00 00 00  ................
	0x0050 00 00 00 00 00 00 00 00 00 00 00 00 00 00 00 00  ................
	0x0060 00 00 00 00 00 00 00 00 00 00 00 00 00 00 00 00  ................
	0x0070 00 00 00 00 00 00 00 00 08 00 00 00 00 00 00 00  ................
	0x0080 00 00 00 00 00 00 00 00 00 00 00 00 00 00 00 00  ................
	0x0090 10 00 00 00 00 00 00 00 00 00 00 00 00 00 00 00  ................
	0x00a0 00 00 00 00 00 00 00 00 18 00 00 00 00 00 00 00  ................
	0x00b0 00 00 00 00 00 00 00 00 00 00 00 00 00 00 00 00  ................
	0x00c0 20 00 00 00 00 00 00 00 00 00 00 00 00 00 00 00   ...............
	0x00d0 00 00 00 00 00 00 00 00 28 00 00 00 00 00 00 00  ........(.......
	0x00e0 00 00 00 00 00 00 00 00 00 00 00 00 00 00 00 00  ................
	0x00f0 30 00 00 00 00 00 00 00 00 00 00 00 00 00 00 00  0...............
	0x0100 00 00 00 00 00 00 00 00 38 00 00 00 00 00 00 00  ........8.......
	0x0110 00 00 00 00 00 00 00 00 00 00 00 00 00 00 00 00  ................
	0x0120 40 00 00 00 00 00 00 00 00 00 00 00 00 00 00 00  @...............
	0x0130 00 00 00 00 00 00 00 00 48 00 00 00 00 00 00 00  ........H.......
	0x0140 00 00 00 00 00 00 00 00 00 00 00 00 00 00 00 00  ................
	0x0150 49 00 00 00 00 00 00 00 00 00 00 00 00 00 00 00  I...............
	0x0160 00 00 00 00 00 00 00 00 4a 00 00 00 00 00 00 00  ........J.......
	0x0170 00 00 00 00 00 00 00 00 00 00 00 00 00 00 00 00  ................
	0x0180 4b 00 00 00 00 00 00 00 00 00 00 00 00 00 00 00  K...............
	0x0190 00 00 00 00 00 00 00 00 50 00 00 00 00 00 00 00  ........P.......
	0x01a0 00 00 00 00 00 00 00 00 00 00 00 00 00 00 00 00  ................
	0x01b0 58 00 00 00 00 00 00 00                          X.......
	rel 32+8 t=1 runtime.gcbits.ff00000000000000<0>+0
	rel 40+4 t=5 type:.namedata.*map.iter[interface {}]int-<0>+0
	rel 44+4 t=-32763 type:*map.iter[interface {}]int<0>+0
	rel 48+8 t=1 type:.importpath..<0>+0
	rel 56+8 t=1 type:noalg.map.iter[interface {}]int<0>+80
	rel 80+8 t=1 type:.namedata.key-<0>+0
	rel 88+8 t=1 type:*interface {}<0>+0
	rel 104+8 t=1 type:.namedata.elem-<0>+0
	rel 112+8 t=1 type:*int<0>+0
	rel 128+8 t=1 type:.namedata.t-<0>+0
	rel 136+8 t=1 type:unsafe.Pointer<0>+0
	rel 152+8 t=1 type:.namedata.h-<0>+0
	rel 160+8 t=1 type:*map.hdr[interface {}]int<0>+0
	rel 176+8 t=1 type:.namedata.buckets-<0>+0
	rel 184+8 t=1 type:*map.bucket[interface {}]int<0>+0
	rel 200+8 t=1 type:.namedata.bptr-<0>+0
	rel 208+8 t=1 type:*map.bucket[interface {}]int<0>+0
	rel 224+8 t=1 type:.namedata.overflow-<0>+0
	rel 232+8 t=1 type:unsafe.Pointer<0>+0
	rel 248+8 t=1 type:.namedata.oldoverflow-<0>+0
	rel 256+8 t=1 type:unsafe.Pointer<0>+0
	rel 272+8 t=1 type:.namedata.startBucket-<0>+0
	rel 280+8 t=1 type:uintptr<0>+0
	rel 296+8 t=1 type:.namedata.offset-<0>+0
	rel 304+8 t=1 type:uint8<0>+0
	rel 320+8 t=1 type:.namedata.wrapped-<0>+0
	rel 328+8 t=1 type:bool<0>+0
	rel 344+8 t=1 type:.namedata.B.<0>+0
	rel 352+8 t=1 type:uint8<0>+0
	rel 368+8 t=1 type:.namedata.i-<0>+0
	rel 376+8 t=1 type:uint8<0>+0
	rel 392+8 t=1 type:.namedata.bucket-<0>+0
	rel 400+8 t=1 type:uintptr<0>+0
	rel 416+8 t=1 type:.namedata.checkBucket-<0>+0
	rel 424+8 t=1 type:uintptr<0>+0
runtime.gcbits.0200000000000000<0> SRODATA dupok size=8
	0x0000 02 00 00 00 00 00 00 00                          ........
gclocals·wgcWObbY2HYnK2SU/U22lA==<0> SRODATA dupok size=10
	0x0000 02 00 00 00 01 00 00 00 01 00                    ..........
gclocals·J5F+7Qw7O7ve2QcWC7DpeQ==<0> SRODATA dupok size=8
	0x0000 02 00 00 00 00 00 00 00                          ........
command-line-arguments.AccessInt1.arginfo1<0> SRODATA static dupok size=3
	0x0000 00 08 ff                                         ...
command-line-arguments.AccessInt1.argliveinfo<0> SRODATA static dupok size=2
	0x0000 00 00                                            ..
command-line-arguments.AccessInt2.arginfo1<0> SRODATA static dupok size=3
	0x0000 00 08 ff                                         ...
command-line-arguments.AccessInt2.argliveinfo<0> SRODATA static dupok size=2
	0x0000 00 00                                            ..
command-line-arguments.AccessString1.arginfo1<0> SRODATA static dupok size=3
	0x0000 00 08 ff                                         ...
command-line-arguments.AccessString1.argliveinfo<0> SRODATA static dupok size=2
	0x0000 00 00                                            ..
command-line-arguments.AccessString2.arginfo1<0> SRODATA static dupok size=3
	0x0000 00 08 ff                                         ...
command-line-arguments.AccessString2.argliveinfo<0> SRODATA static dupok size=2
	0x0000 00 00                                            ..
gclocals·TjPuuCwdlCpTaRQGRKTrYw==<0> SRODATA dupok size=10
	0x0000 02 00 00 00 02 00 00 00 03 00                    ..........
command-line-arguments.LookupStringConversionSimple.arginfo1<0> SRODATA static dupok size=11
	0x0000 00 08 fe 08 08 10 08 18 08 fd ff                 ...........
command-line-arguments.LookupStringConversionSimple.argliveinfo<0> SRODATA static dupok size=2
	0x0000 00 00                                            ..
command-line-arguments.LookupStringConversionStructLit.arginfo1<0> SRODATA static dupok size=11
	0x0000 00 08 fe 08 08 10 08 18 08 fd ff                 ...........
command-line-arguments.LookupStringConversionStructLit.argliveinfo<0> SRODATA static dupok size=2
	0x0000 00 00                                            ..
gclocals·EXTrhv4b3ahawRWAszmcVw==<0> SRODATA dupok size=10
	0x0000 02 00 00 00 04 00 00 00 00 00                    ..........
command-line-arguments.LookupStringConversionArrayLit.stkobj<0> SRODATA static size=24
	0x0000 01 00 00 00 00 00 00 00 e0 ff ff ff 20 00 00 00  ............ ...
	0x0010 18 00 00 00 00 00 00 00                          ........
	rel 20+4 t=5 runtime.gcbits.0500000000000000<0>+0
command-line-arguments.LookupStringConversionArrayLit.arginfo1<0> SRODATA static dupok size=11
	0x0000 00 08 fe 08 08 10 08 18 08 fd ff                 ...........
command-line-arguments.LookupStringConversionArrayLit.argliveinfo<0> SRODATA static dupok size=2
	0x0000 00 00                                            ..
command-line-arguments.LookupStringConversionNestedLit.arginfo1<0> SRODATA static dupok size=11
	0x0000 00 08 fe 08 08 10 08 18 08 fd ff                 ...........
command-line-arguments.LookupStringConversionNestedLit.argliveinfo<0> SRODATA static dupok size=2
	0x0000 00 00                                            ..
command-line-arguments.LookupStringConversionKeyedArrayLit.stkobj<0> SRODATA static size=24
	0x0000 01 00 00 00 00 00 00 00 e0 ff ff ff 20 00 00 00  ............ ...
	0x0010 18 00 00 00 00 00 00 00                          ........
	rel 20+4 t=5 runtime.gcbits.0500000000000000<0>+0
command-line-arguments.LookupStringConversionKeyedArrayLit.arginfo1<0> SRODATA static dupok size=11
	0x0000 00 08 fe 08 08 10 08 18 08 fd ff                 ...........
command-line-arguments.LookupStringConversionKeyedArrayLit.argliveinfo<0> SRODATA static dupok size=2
	0x0000 00 00                                            ..
command-line-arguments.MapClearReflexive.arginfo1<0> SRODATA static dupok size=3
	0x0000 00 08 ff                                         ...
command-line-arguments.MapClearReflexive.argliveinfo<0> SRODATA static dupok size=2
	0x0000 00 00                                            ..
command-line-arguments.MapClearIndirect.arginfo1<0> SRODATA static dupok size=3
	0x0000 00 08 ff                                         ...
command-line-arguments.MapClearIndirect.argliveinfo<0> SRODATA static dupok size=2
	0x0000 00 00                                            ..
command-line-arguments.MapClearPointer.arginfo1<0> SRODATA static dupok size=3
	0x0000 00 08 ff                                         ...
command-line-arguments.MapClearPointer.argliveinfo<0> SRODATA static dupok size=2
	0x0000 00 00                                            ..
gclocals·ZzMiPAiVBg7DJ6dh/CjSag==<0> SRODATA dupok size=11
	0x0000 03 00 00 00 01 00 00 00 01 00 00                 ...........
gclocals·83lDYLU2FBjEJR90n9PzOQ==<0> SRODATA dupok size=14
	0x0000 03 00 00 00 0d 00 00 00 00 00 ff 01 00 00        ..............
command-line-arguments.MapClearNotReflexive.stkobj<0> SRODATA static size=24
	0x0000 01 00 00 00 00 00 00 00 a0 ff ff ff 60 00 00 00  ............`...
	0x0010 40 00 00 00 00 00 00 00                          @.......
	rel 20+4 t=5 runtime.gcbits.ff00000000000000<0>+0
command-line-arguments.MapClearNotReflexive.arginfo1<0> SRODATA static dupok size=3
	0x0000 00 08 ff                                         ...
command-line-arguments.MapClearNotReflexive.argliveinfo<0> SRODATA static dupok size=2
	0x0000 00 00                                            ..
gclocals·JwloRDySfgEI+73w66ns8g==<0> SRODATA dupok size=14
	0x0000 03 00 00 00 0f 00 00 00 00 00 f9 07 00 00        ..............
command-line-arguments.MapClearInterface.stkobj<0> SRODATA static size=40
	0x0000 02 00 00 00 00 00 00 00 90 ff ff ff 10 00 00 00  ................
	0x0010 10 00 00 00 00 00 00 00 a0 ff ff ff 60 00 00 00  ............`...
	0x0020 40 00 00 00 00 00 00 00                          @.......
	rel 20+4 t=5 runtime.gcbits.0200000000000000<0>+0
	rel 36+4 t=5 runtime.gcbits.ff00000000000000<0>+0
command-line-arguments.MapClearInterface.arginfo1<0> SRODATA static dupok size=3
	0x0000 00 08 ff                                         ...
command-line-arguments.MapClearInterface.argliveinfo<0> SRODATA static dupok size=2
	0x0000 00 00                                            ..
command-line-arguments.MapClearSideEffect.stkobj<0> SRODATA static size=24
	0x0000 01 00 00 00 00 00 00 00 a0 ff ff ff 60 00 00 00  ............`...
	0x0010 40 00 00 00 00 00 00 00                          @.......
	rel 20+4 t=5 runtime.gcbits.ff00000000000000<0>+0
command-line-arguments.MapClearSideEffect.arginfo1<0> SRODATA static dupok size=3
	0x0000 00 08 ff                                         ...
command-line-arguments.MapClearSideEffect.argliveinfo<0> SRODATA static dupok size=2
	0x0000 00 00                                            ..
gclocals·ykHN0vawYuq1dUW4zEe2gA==<0> SRODATA dupok size=8
	0x0000 03 00 00 00 00 00 00 00                          ........
gclocals·sQxO+jiYy+d9ldxoWSePwQ==<0> SRODATA dupok size=11
	0x0000 03 00 00 00 02 00 00 00 00 02 03                 ...........
command-line-arguments.MapLiteralSizing.arginfo1<0> SRODATA static dupok size=3
	0x0000 00 08 ff                                         ...
command-line-arguments.MapLiteralSizing.argliveinfo<0> SRODATA static dupok size=2
	0x0000 00 00                                            ..
type:.eq.[2]string.arginfo1<0> SRODATA static dupok size=3
	0x0000 08 08 ff                                         ...
type:.eq.[2]string.argliveinfo<0> SRODATA static dupok size=2
	0x0000 00 00                                            ..
type:.hash.[2]string.arginfo1<0> SRODATA static dupok size=3
	0x0000 08 08 ff                                         ...
type:.hash.[2]string.argliveinfo<0> SRODATA static dupok size=3
	0x0000 00 00 01                                         ...
aux for command-line-arguments.AccessInt1<0> SDWARFLOC size=51
	0x0000 ff ff ff ff ff ff ff ff 00 00 00 00 00 00 00 00  ................
	0x0010 00 00 00 00 00 00 00 00 23 00 00 00 00 00 00 00  ........#.......
	0x0020 01 00 50 00 00 00 00 00 00 00 00 00 00 00 00 00  ..P.............
	0x0030 00 00 00                                         ...
	rel 8+8 t=1 command-line-arguments.AccessInt1<1>+0
aux for command-line-arguments.AccessInt1<0> SDWARFLINES size=29
	0x0000 00 09 02 00 00 00 00 00 00 00 00 04 02 03 0c 14  ................
	0x0010 0a 4b 9d 06 2d 06 08 49 02 11 00 01 01           .K..-..I.....
	rel 3+8 t=1 command-line-arguments.AccessInt1<1>+0
aux for command-line-arguments.AccessInt1<0> SDWARFFCN size=84
	0x0000 03 63 6f 6d 6d 61 6e 64 2d 6c 69 6e 65 2d 61 72  .command-line-ar
	0x0010 67 75 6d 65 6e 74 73 2e 41 63 63 65 73 73 49 6e  guments.AccessIn
	0x0020 74 31 00 00 00 00 00 00 00 00 00 00 00 00 00 00  t1..............
	0x0030 00 00 00 01 9c 02 00 00 00 01 12 6d 00 00 12 00  ...........m....
	0x0040 00 00 00 00 00 00 00 11 7e 72 30 00 01 12 00 00  ........~r0.....
	0x0050 00 00 00 00                                      ....
	rel 0+0 t=22 type:int<0>+0
	rel 35+8 t=1 command-line-arguments.AccessInt1<1>+0
	rel 43+8 t=1 command-line-arguments.AccessInt1<1>+70
	rel 63+4 t=31 go:info.map[int]int<0>+0
	rel 67+4 t=31 <0>+0
	rel 78+4 t=31 go:info.int<0>+0
aux for command-line-arguments.AccessInt2<0> SDWARFLOC size=102
	0x0000 ff ff ff ff ff ff ff ff 00 00 00 00 00 00 00 00  ................
	0x0010 00 00 00 00 00 00 00 00 23 00 00 00 00 00 00 00  ........#.......
	0x0020 01 00 50 00 00 00 00 00 00 00 00 00 00 00 00 00  ..P.............
	0x0030 00 00 00 ff ff ff ff ff ff ff ff 00 00 00 00 00  ................
	0x0040 00 00 00 28 00 00 00 00 00 00 00 45 00 00 00 00  ...(.......E....
	0x0050 00 00 00 01 00 53 00 00 00 00 00 00 00 00 00 00  .....S..........
	0x0060 00 00 00 00 00 00                                ......
	rel 8+8 t=1 command-line-arguments.AccessInt2<1>+0
	rel 59+8 t=1 command-line-arguments.AccessInt2<1>+0
aux for command-line-arguments.AccessInt2<0> SDWARFLINES size=32
	0x0000 00 09 02 00 00 00 00 00 00 00 00 04 02 03 11 14  ................
	0x0010 0a 4b 9d 06 2d 06 ba 06 23 06 70 02 11 00 01 01  .K..-...#.p.....
	rel 3+8 t=1 command-line-arguments.AccessInt2<1>+0
aux for command-line-arguments.AccessInt2<0> SDWARFFCN size=97
	0x0000 03 63 6f 6d 6d 61 6e 64 2d 6c 69 6e 65 2d 61 72  .command-line-ar
	0x0010 67 75 6d 65 6e 74 73 2e 41 63 63 65 73 73 49 6e  guments.AccessIn
	0x0020 74 32 00 00 00 00 00 00 00 00 00 00 00 00 00 00  t2..............
	0x0030 00 00 00 01 9c 02 00 00 00 01 12 6d 00 00 17 00  ...........m....
	0x0040 00 00 00 00 00 00 00 11 7e 72 30 00 01 17 00 00  ........~r0.....
	0x0050 00 00 00 0d 6f 6b 00 19 00 00 00 00 00 00 00 00  ....ok..........
	0x0060 00                                               .
	rel 0+0 t=22 type:bool<0>+0
	rel 35+8 t=1 command-line-arguments.AccessInt2<1>+0
	rel 43+8 t=1 command-line-arguments.AccessInt2<1>+69
	rel 63+4 t=31 go:info.map[int]int<0>+0
	rel 67+4 t=31 <0>+0
	rel 78+4 t=31 go:info.bool<0>+0
	rel 88+4 t=31 go:info.bool<0>+0
	rel 92+4 t=31 <0>+51
aux for command-line-arguments.AccessString1<0> SDWARFLOC size=51
	0x0000 ff ff ff ff ff ff ff ff 00 00 00 00 00 00 00 00  ................
	0x0010 00 00 00 00 00 00 00 00 2a 00 00 00 00 00 00 00  ........*.......
	0x0020 01 00 50 00 00 00 00 00 00 00 00 00 00 00 00 00  ..P.............
	0x0030 00 00 00                                         ...
	rel 8+8 t=1 command-line-arguments.AccessString1<1>+0
aux for command-line-arguments.AccessString1<0> SDWARFLINES size=29
	0x0000 00 09 02 00 00 00 00 00 00 00 00 04 02 03 17 14  ................
	0x0010 0a 4b 9d 06 2d 06 08 8f 02 11 00 01 01           .K..-........
	rel 3+8 t=1 command-line-arguments.AccessString1<1>+0
aux for command-line-arguments.AccessString1<0> SDWARFFCN size=87
	0x0000 03 63 6f 6d 6d 61 6e 64 2d 6c 69 6e 65 2d 61 72  .command-line-ar
	0x0010 67 75 6d 65 6e 74 73 2e 41 63 63 65 73 73 53 74  guments.AccessSt
	0x0020 72 69 6e 67 31 00 00 00 00 00 00 00 00 00 00 00  ring1...........
	0x0030 00 00 00 00 00 00 01 9c 02 00 00 00 01 12 6d 00  ..............m.
	0x0040 00 1d 00 00 00 00 00 00 00 00 11 7e 72 30 00 01  ...........~r0..
	0x0050 1d 00 00 00 00 00 00                             .......
	rel 0+0 t=22 type:int<0>+0
	rel 38+8 t=1 command-line-arguments.AccessString1<1>+0
	rel 46+8 t=1 command-line-arguments.AccessString1<1>+77
	rel 66+4 t=31 go:info.map[string]int<0>+0
	rel 70+4 t=31 <0>+0
	rel 81+4 t=31 go:info.int<0>+0
aux for command-line-arguments.AccessString2<0> SDWARFLOC size=102
	0x0000 ff ff ff ff ff ff ff ff 00 00 00 00 00 00 00 00  ................
	0x0010 00 00 00 00 00 00 00 00 2a 00 00 00 00 00 00 00  ........*.......
	0x0020 01 00 50 00 00 00 00 00 00 00 00 00 00 00 00 00  ..P.............
	0x0030 00 00 00 ff ff ff ff ff ff ff ff 00 00 00 00 00  ................
	0x0040 00 00 00 2f 00 00 00 00 00 00 00 4c 00 00 00 00  .../.......L....
	0x0050 00 00 00 01 00 53 00 00 00 00 00 00 00 00 00 00  .....S..........
	0x0060 00 00 00 00 00 00                                ......
	rel 8+8 t=1 command-line-arguments.AccessString2<1>+0
	rel 59+8 t=1 command-line-arguments.AccessString2<1>+0
aux for command-line-arguments.AccessString2<0> SDWARFLINES size=33
	0x0000 00 09 02 00 00 00 00 00 00 00 00 04 02 03 1c 14  ................
	0x0010 0a 4b 9d 06 2d 06 08 10 06 23 06 70 02 11 00 01  .K..-....#.p....
	0x0020 01                                               .
	rel 3+8 t=1 command-line-arguments.AccessString2<1>+0
aux for command-line-arguments.AccessString2<0> SDWARFFCN size=100
	0x0000 03 63 6f 6d 6d 61 6e 64 2d 6c 69 6e 65 2d 61 72  .command-line-ar
	0x0010 67 75 6d 65 6e 74 73 2e 41 63 63 65 73 73 53 74  guments.AccessSt
	0x0020 72 69 6e 67 32 00 00 00 00 00 00 00 00 00 00 00  ring2...........
	0x0030 00 00 00 00 00 00 01 9c 02 00 00 00 01 12 6d 00  ..............m.
	0x0040 00 22 00 00 00 00 00 00 00 00 11 7e 72 30 00 01  .".........~r0..
	0x0050 22 00 00 00 00 00 0d 6f 6b 00 24 00 00 00 00 00  "......ok.$.....
	0x0060 00 00 00 00                                      ....
	rel 0+0 t=22 type:bool<0>+0
	rel 38+8 t=1 command-line-arguments.AccessString2<1>+0
	rel 46+8 t=1 command-line-arguments.AccessString2<1>+76
	rel 66+4 t=31 go:info.map[string]int<0>+0
	rel 70+4 t=31 <0>+0
	rel 81+4 t=31 go:info.bool<0>+0
	rel 91+4 t=31 go:info.bool<0>+0
	rel 95+4 t=31 <0>+51
aux for command-line-arguments.LookupStringConversionSimple<0> SDWARFLOC size=161
	0x0000 ff ff ff ff ff ff ff ff 00 00 00 00 00 00 00 00  ................
	0x0010 00 00 00 00 00 00 00 00 29 00 00 00 00 00 00 00  ........).......
	0x0020 01 00 50 00 00 00 00 00 00 00 00 00 00 00 00 00  ..P.............
	0x0030 00 00 00 ff ff ff ff ff ff ff ff 00 00 00 00 00  ................
	0x0040 00 00 00 00 00 00 00 00 00 00 00 1c 00 00 00 00  ................
	0x0050 00 00 00 09 00 53 93 08 52 93 08 55 93 08 1c 00  .....S..R..U....
	0x0060 00 00 00 00 00 00 1f 00 00 00 00 00 00 00 08 00  ................
	0x0070 53 93 08 52 93 08 93 08 1f 00 00 00 00 00 00 00  S..R............
	0x0080 22 00 00 00 00 00 00 00 07 00 53 93 08 93 08 93  ".........S.....
	0x0090 08 00 00 00 00 00 00 00 00 00 00 00 00 00 00 00  ................
	0x00a0 00                                               .
	rel 8+8 t=1 command-line-arguments.LookupStringConversionSimple<1>+0
	rel 59+8 t=1 command-line-arguments.LookupStringConversionSimple<1>+0
aux for command-line-arguments.LookupStringConversionSimple<0> SDWARFLINES size=32
	0x0000 00 09 02 00 00 00 00 00 00 00 00 04 02 03 26 14  ..............&.
	0x0010 0a 4b 06 9b 06 43 06 2d 06 08 53 02 2f 00 01 01  .K...C.-..S./...
	rel 3+8 t=1 command-line-arguments.LookupStringConversionSimple<1>+0
aux for command-line-arguments.LookupStringConversionSimple<0> SDWARFFCN size=119
	0x0000 03 63 6f 6d 6d 61 6e 64 2d 6c 69 6e 65 2d 61 72  .command-line-ar
	0x0010 67 75 6d 65 6e 74 73 2e 4c 6f 6f 6b 75 70 53 74  guments.LookupSt
	0x0020 72 69 6e 67 43 6f 6e 76 65 72 73 69 6f 6e 53 69  ringConversionSi
	0x0030 6d 70 6c 65 00 00 00 00 00 00 00 00 00 00 00 00  mple............
	0x0040 00 00 00 00 00 01 9c 02 00 00 00 01 12 6d 00 00  .............m..
	0x0050 2c 00 00 00 00 00 00 00 00 12 62 79 74 65 73 00  ,.........bytes.
	0x0060 00 2c 00 00 00 00 00 00 00 00 11 7e 72 30 00 01  .,.........~r0..
	0x0070 2c 00 00 00 00 00 00                             ,......
	rel 0+0 t=22 type:int<0>+0
	rel 53+8 t=1 command-line-arguments.LookupStringConversionSimple<1>+0
	rel 61+8 t=1 command-line-arguments.LookupStringConversionSimple<1>+106
	rel 81+4 t=31 go:info.map[string]int<0>+0
	rel 85+4 t=31 <0>+0
	rel 98+4 t=31 go:info.[]uint8<0>+0
	rel 102+4 t=31 <0>+51
	rel 113+4 t=31 go:info.int<0>+0
aux for command-line-arguments.LookupStringConversionStructLit<0> SDWARFLOC size=161
	0x0000 ff ff ff ff ff ff ff ff 00 00 00 00 00 00 00 00  ................
	0x0010 00 00 00 00 00 00 00 00 29 00 00 00 00 00 00 00  ........).......
	0x0020 01 00 50 00 00 00 00 00 00 00 00 00 00 00 00 00  ..P.............
	0x0030 00 00 00 ff ff ff ff ff ff ff ff 00 00 00 00 00  ................
	0x0040 00 00 00 00 00 00 00 00 00 00 00 1c 00 00 00 00  ................
	0x0050 00 00 00 09 00 53 93 08 52 93 08 55 93 08 1c 00  .....S..R..U....
	0x0060 00 00 00 00 00 00 1f 00 00 00 00 00 00 00 08 00  ................
	0x0070 53 93 08 52 93 08 93 08 1f 00 00 00 00 00 00 00  S..R............
	0x0080 22 00 00 00 00 00 00 00 07 00 53 93 08 93 08 93  ".........S.....
	0x0090 08 00 00 00 00 00 00 00 00 00 00 00 00 00 00 00  ................
	0x00a0 00                                               .
	rel 8+8 t=1 command-line-arguments.LookupStringConversionStructLit<1>+0
	rel 59+8 t=1 command-line-arguments.LookupStringConversionStructLit<1>+0
aux for command-line-arguments.LookupStringConversionStructLit<0> SDWARFLINES size=32
	0x0000 00 09 02 00 00 00 00 00 00 00 00 04 02 03 2b 14  ..............+.
	0x0010 0a 4b 06 9b 06 43 06 2d 06 08 53 02 2f 00 01 01  .K...C.-..S./...
	rel 3+8 t=1 command-line-arguments.LookupStringConversionStructLit<1>+0
aux for command-line-arguments.LookupStringConversionStructLit<0> SDWARFFCN size=122
	0x0000 03 63 6f 6d 6d 61 6e 64 2d 6c 69 6e 65 2d 61 72  .command-line-ar
	0x0010 67 75 6d 65 6e 74 73 2e 4c 6f 6f 6b 75 70 53 74  guments.LookupSt
	0x0020 72 69 6e 67 43 6f 6e 76 65 72 73 69 6f 6e 53 74  ringConversionSt
	0x0030 72 75 63 74 4c 69 74 00 00 00 00 00 00 00 00 00  ructLit.........
	0x0040 00 00 00 00 00 00 00 00 01 9c 02 00 00 00 01 12  ................
	0x0050 6d 00 00 31 00 00 00 00 00 00 00 00 12 62 79 74  m..1.........byt
	0x0060 65 73 00 00 31 00 00 00 00 00 00 00 00 11 7e 72  es..1.........~r
	0x0070 30 00 01 31 00 00 00 00 00 00                    0..1......
	rel 0+0 t=22 type:int<0>+0
	rel 56+8 t=1 command-line-arguments.LookupStringConversionStructLit<1>+0
	rel 64+8 t=1 command-line-arguments.LookupStringConversionStructLit<1>+106
	rel 84+4 t=31 go:info.map[struct { command-line-arguments.string = string }]int<0>+0
	rel 88+4 t=31 <0>+0
	rel 101+4 t=31 go:info.[]uint8<0>+0
	rel 105+4 t=31 <0>+51
	rel 116+4 t=31 go:info.int<0>+0
aux for command-line-arguments.LookupStringConversionArrayLit<0> SDWARFLOC size=161
	0x0000 ff ff ff ff ff ff ff ff 00 00 00 00 00 00 00 00  ................
	0x0010 00 00 00 00 00 00 00 00 48 00 00 00 00 00 00 00  ........H.......
	0x0020 01 00 50 00 00 00 00 00 00 00 00 00 00 00 00 00  ..P.............
	0x0030 00 00 00 ff ff ff ff ff ff ff ff 00 00 00 00 00  ................
	0x0040 00 00 00 00 00 00 00 00 00 00 00 3c 00 00 00 00  ...........<....
	0x0050 00 00 00 09 00 53 93 08 52 93 08 55 93 08 3c 00  .....S..R..U..<.
	0x0060 00 00 00 00 00 00 41 00 00 00 00 00 00 00 08 00  ......A.........
	0x0070 93 08 52 93 08 55 93 08 41 00 00 00 00 00 00 00  ..R..U..A.......
	0x0080 4d 00 00 00 00 00 00 00 07 00 93 08 93 08 55 93  M.............U.
	0x0090 08 00 00 00 00 00 00 00 00 00 00 00 00 00 00 00  ................
	0x00a0 00                                               .
	rel 8+8 t=1 command-line-arguments.LookupStringConversionArrayLit<1>+0
	rel 59+8 t=1 command-line-arguments.LookupStringConversionArrayLit<1>+0
aux for command-line-arguments.LookupStringConversionArrayLit<0> SDWARFLINES size=33
	0x0000 00 09 02 00 00 00 00 00 00 00 00 04 02 03 30 14  ..............0.
	0x0010 0a 4b 06 9b 06 43 06 4b 06 02 23 fd 02 32 00 01  .K...C.K..#..2..
	0x0020 01                                               .
	rel 3+8 t=1 command-line-arguments.LookupStringConversionArrayLit<1>+0
aux for command-line-arguments.LookupStringConversionArrayLit<0> SDWARFFCN size=121
	0x0000 03 63 6f 6d 6d 61 6e 64 2d 6c 69 6e 65 2d 61 72  .command-line-ar
	0x0010 67 75 6d 65 6e 74 73 2e 4c 6f 6f 6b 75 70 53 74  guments.LookupSt
	0x0020 72 69 6e 67 43 6f 6e 76 65 72 73 69 6f 6e 41 72  ringConversionAr
	0x0030 72 61 79 4c 69 74 00 00 00 00 00 00 00 00 00 00  rayLit..........
	0x0040 00 00 00 00 00 00 00 01 9c 02 00 00 00 01 12 6d  ...............m
	0x0050 00 00 36 00 00 00 00 00 00 00 00 12 62 79 74 65  ..6.........byte
	0x0060 73 00 00 36 00 00 00 00 00 00 00 00 11 7e 72 30  s..6.........~r0
	0x0070 00 01 36 00 00 00 00 00 00                       ..6......
	rel 0+0 t=22 type:[2]string<0>+0
	rel 0+0 t=22 type:int<0>+0
	rel 55+8 t=1 command-line-arguments.LookupStringConversionArrayLit<1>+0
	rel 63+8 t=1 command-line-arguments.LookupStringConversionArrayLit<1>+140
	rel 83+4 t=31 go:info.map[[2]string]int<0>+0
	rel 87+4 t=31 <0>+0
	rel 100+4 t=31 go:info.[]uint8<0>+0
	rel 104+4 t=31 <0>+51
	rel 115+4 t=31 go:info.int<0>+0
aux for command-line-arguments.LookupStringConversionNestedLit<0> SDWARFLOC size=161
	0x0000 ff ff ff ff ff ff ff ff 00 00 00 00 00 00 00 00  ................
	0x0010 00 00 00 00 00 00 00 00 29 00 00 00 00 00 00 00  ........).......
	0x0020 01 00 50 00 00 00 00 00 00 00 00 00 00 00 00 00  ..P.............
	0x0030 00 00 00 ff ff ff ff ff ff ff ff 00 00 00 00 00  ................
	0x0040 00 00 00 00 00 00 00 00 00 00 00 1c 00 00 00 00  ................
	0x0050 00 00 00 09 00 53 93 08 52 93 08 55 93 08 1c 00  .....S..R..U....
	0x0060 00 00 00 00 00 00 1f 00 00 00 00 00 00 00 08 00  ................
	0x0070 53 93 08 52 93 08 93 08 1f 00 00 00 00 00 00 00  S..R............
	0x0080 22 00 00 00 00 00 00 00 07 00 53 93 08 93 08 93  ".........S.....
	0x0090 08 00 00 00 00 00 00 00 00 00 00 00 00 00 00 00  ................
	0x00a0 00                                               .
	rel 8+8 t=1 command-line-arguments.LookupStringConversionNestedLit<1>+0
	rel 59+8 t=1 command-line-arguments.LookupStringConversionNestedLit<1>+0
aux for command-line-arguments.LookupStringConversionNestedLit<0> SDWARFLINES size=32
	0x0000 00 09 02 00 00 00 00 00 00 00 00 04 02 03 35 14  ..............5.
	0x0010 0a 4b 06 9b 06 43 06 2d 06 08 53 02 2f 00 01 01  .K...C.-..S./...
	rel 3+8 t=1 command-line-arguments.LookupStringConversionNestedLit<1>+0
aux for command-line-arguments.LookupStringConversionNestedLit<0> SDWARFFCN size=122
	0x0000 03 63 6f 6d 6d 61 6e 64 2d 6c 69 6e 65 2d 61 72  .command-line-ar
	0x0010 67 75 6d 65 6e 74 73 2e 4c 6f 6f 6b 75 70 53 74  guments.LookupSt
	0x0020 72 69 6e 67 43 6f 6e 76 65 72 73 69 6f 6e 4e 65  ringConversionNe
	0x0030 73 74 65 64 4c 69 74 00 00 00 00 00 00 00 00 00  stedLit.........
	0x0040 00 00 00 00 00 00 00 00 01 9c 02 00 00 00 01 12  ................
	0x0050 6d 00 00 3b 00 00 00 00 00 00 00 00 12 62 79 74  m..;.........byt
	0x0060 65 73 00 00 3b 00 00 00 00 00 00 00 00 11 7e 72  es..;.........~r
	0x0070 30 00 01 3b 00 00 00 00 00 00                    0..;......
	rel 0+0 t=22 type:int<0>+0
	rel 56+8 t=1 command-line-arguments.LookupStringConversionNestedLit<1>+0
	rel 64+8 t=1 command-line-arguments.LookupStringConversionNestedLit<1>+106
	rel 84+4 t=31 go:info.map[[1]struct { command-line-arguments.s [1]string }]int<0>+0
	rel 88+4 t=31 <0>+0
	rel 101+4 t=31 go:info.[]uint8<0>+0
	rel 105+4 t=31 <0>+51
	rel 116+4 t=31 go:info.int<0>+0
aux for command-line-arguments.LookupStringConversionKeyedArrayLit<0> SDWARFLOC size=161
	0x0000 ff ff ff ff ff ff ff ff 00 00 00 00 00 00 00 00  ................
	0x0010 00 00 00 00 00 00 00 00 3e 00 00 00 00 00 00 00  ........>.......
	0x0020 01 00 50 00 00 00 00 00 00 00 00 00 00 00 00 00  ..P.............
	0x0030 00 00 00 ff ff ff ff ff ff ff ff 00 00 00 00 00  ................
	0x0040 00 00 00 00 00 00 00 00 00 00 00 32 00 00 00 00  ...........2....
	0x0050 00 00 00 09 00 53 93 08 52 93 08 55 93 08 32 00  .....S..R..U..2.
	0x0060 00 00 00 00 00 00 37 00 00 00 00 00 00 00 08 00  ......7.........
	0x0070 93 08 52 93 08 55 93 08 37 00 00 00 00 00 00 00  ..R..U..7.......
	0x0080 45 00 00 00 00 00 00 00 07 00 93 08 93 08 55 93  E.............U.
	0x0090 08 00 00 00 00 00 00 00 00 00 00 00 00 00 00 00  ................
	0x00a0 00                                               .
	rel 8+8 t=1 command-line-arguments.LookupStringConversionKeyedArrayLit<1>+0
	rel 59+8 t=1 command-line-arguments.LookupStringConversionKeyedArrayLit<1>+0
aux for command-line-arguments.LookupStringConversionKeyedArrayLit<0> SDWARFLINES size=38
	0x0000 00 09 02 00 00 00 00 00 00 00 00 04 02 03 3a 14  ..............:.
	0x0010 0a 4b 06 9b 06 43 06 4b 06 02 1b fd 06 08 e1 06  .K...C.K........
	0x0020 19 02 05 00 01 01                                ......
	rel 3+8 t=1 command-line-arguments.LookupStringConversionKeyedArrayLit<1>+0
aux for command-line-arguments.LookupStringConversionKeyedArrayLit<0> SDWARFFCN size=126
	0x0000 03 63 6f 6d 6d 61 6e 64 2d 6c 69 6e 65 2d 61 72  .command-line-ar
	0x0010 67 75 6d 65 6e 74 73 2e 4c 6f 6f 6b 75 70 53 74  guments.LookupSt
	0x0020 72 69 6e 67 43 6f 6e 76 65 72 73 69 6f 6e 4b 65  ringConversionKe
	0x0030 79 65 64 41 72 72 61 79 4c 69 74 00 00 00 00 00  yedArrayLit.....
	0x0040 00 00 00 00 00 00 00 00 00 00 00 00 01 9c 02 00  ................
	0x0050 00 00 01 12 6d 00 00 40 00 00 00 00 00 00 00 00  ....m..@........
	0x0060 12 62 79 74 65 73 00 00 40 00 00 00 00 00 00 00  .bytes..@.......
	0x0070 00 11 7e 72 30 00 01 40 00 00 00 00 00 00        ..~r0..@......
	rel 0+0 t=22 type:[2]string<0>+0
	rel 0+0 t=22 type:int<0>+0
	rel 60+8 t=1 command-line-arguments.LookupStringConversionKeyedArrayLit<1>+0
	rel 68+8 t=1 command-line-arguments.LookupStringConversionKeyedArrayLit<1>+133
	rel 88+4 t=31 go:info.map[[2]string]int<0>+0
	rel 92+4 t=31 <0>+0
	rel 105+4 t=31 go:info.[]uint8<0>+0
	rel 109+4 t=31 <0>+51
	rel 120+4 t=31 go:info.int<0>+0
aux for command-line-arguments.MapClearReflexive<0> SDWARFLOC size=51
	0x0000 ff ff ff ff ff ff ff ff 00 00 00 00 00 00 00 00  ................
	0x0010 00 00 00 00 00 00 00 00 1e 00 00 00 00 00 00 00  ................
	0x0020 01 00 50 00 00 00 00 00 00 00 00 00 00 00 00 00  ..P.............
	0x0030 00 00 00                                         ...
	rel 8+8 t=1 command-line-arguments.MapClearReflexive<1>+0
aux for command-line-arguments.MapClearReflexive<0> SDWARFLINES size=36
	0x0000 00 09 02 00 00 00 00 00 00 00 00 04 02 03 c5 00  ................
	0x0010 14 0a 4b 9e 06 2d 06 9e 03 7e 6f 06 a5 06 23 02  ..K..-...~o...#.
	0x0020 02 00 01 01                                      ....
	rel 3+8 t=1 command-line-arguments.MapClearReflexive<1>+0
aux for command-line-arguments.MapClearReflexive<0> SDWARFFCN size=79
	0x0000 03 63 6f 6d 6d 61 6e 64 2d 6c 69 6e 65 2d 61 72  .command-line-ar
	0x0010 67 75 6d 65 6e 74 73 2e 4d 61 70 43 6c 65 61 72  guments.MapClear
	0x0020 52 65 66 6c 65 78 69 76 65 00 00 00 00 00 00 00  Reflexive.......
	0x0030 00 00 00 00 00 00 00 00 00 00 01 9c 02 00 00 00  ................
	0x0040 01 12 6d 00 00 4b 00 00 00 00 00 00 00 00 00     ..m..K.........
	rel 42+8 t=1 command-line-arguments.MapClearReflexive<1>+0
	rel 50+8 t=1 command-line-arguments.MapClearReflexive<1>+66
	rel 70+4 t=31 go:info.map[int]int<0>+0
	rel 74+4 t=31 <0>+0
aux for command-line-arguments.MapClearIndirect<0> SDWARFLOC size=51
	0x0000 ff ff ff ff ff ff ff ff 00 00 00 00 00 00 00 00  ................
	0x0010 00 00 00 00 00 00 00 00 1e 00 00 00 00 00 00 00  ................
	0x0020 01 00 50 00 00 00 00 00 00 00 00 00 00 00 00 00  ..P.............
	0x0030 00 00 00                                         ...
	rel 8+8 t=1 command-line-arguments.MapClearIndirect<1>+0
aux for command-line-arguments.MapClearIndirect<0> SDWARFLINES size=36
	0x0000 00 09 02 00 00 00 00 00 00 00 00 04 02 03 cd 00  ................
	0x0010 14 0a 4b 9f 06 2d 06 9e 03 7d 6f 06 a5 06 23 02  ..K..-...}o...#.
	0x0020 02 00 01 01                                      ....
	rel 3+8 t=1 command-line-arguments.MapClearIndirect<1>+0
aux for command-line-arguments.MapClearIndirect<0> SDWARFFCN size=78
	0x0000 03 63 6f 6d 6d 61 6e 64 2d 6c 69 6e 65 2d 61 72  .command-line-ar
	0x0010 67 75 6d 65 6e 74 73 2e 4d 61 70 43 6c 65 61 72  guments.MapClear
	0x0020 49 6e 64 69 72 65 63 74 00 00 00 00 00 00 00 00  Indirect........
	0x0030 00 00 00 00 00 00 00 00 00 01 9c 02 00 00 00 01  ................
	0x0040 12 6d 00 00 53 00 00 00 00 00 00 00 00 00        .m..S.........
	rel 41+8 t=1 command-line-arguments.MapClearIndirect<1>+0
	rel 49+8 t=1 command-line-arguments.MapClearIndirect<1>+66
	rel 69+4 t=31 go:info.map[int]int<0>+0
	rel 73+4 t=31 <0>+0
aux for command-line-arguments.MapClearPointer<0> SDWARFLOC size=51
	0x0000 ff ff ff ff ff ff ff ff 00 00 00 00 00 00 00 00  ................
	0x0010 00 00 00 00 00 00 00 00 1e 00 00 00 00 00 00 00  ................
	0x0020 01 00 50 00 00 00 00 00 00 00 00 00 00 00 00 00  ..P.............
	0x0030 00 00 00                                         ...
	rel 8+8 t=1 command-line-arguments.MapClearPointer<1>+0
aux for command-line-arguments.MapClearPointer<0> SDWARFLINES size=36
	0x0000 00 09 02 00 00 00 00 00 00 00 00 04 02 03 d6 00  ................
	0x0010 14 0a 4b 9e 06 2d 06 9e 03 7e 6f 06 a5 06 23 02  ..K..-...~o...#.
	0x0020 02 00 01 01                                      ....
	rel 3+8 t=1 command-line-arguments.MapClearPointer<1>+0
aux for command-line-arguments.MapClearPointer<0> SDWARFFCN size=77
	0x0000 03 63 6f 6d 6d 61 6e 64 2d 6c 69 6e 65 2d 61 72  .command-line-ar
	0x0010 67 75 6d 65 6e 74 73 2e 4d 61 70 43 6c 65 61 72  guments.MapClear
	0x0020 50 6f 69 6e 74 65 72 00 00 00 00 00 00 00 00 00  Pointer.........
	0x0030 00 00 00 00 00 00 00 00 01 9c 02 00 00 00 01 12  ................
	0x0040 6d 00 00 5c 00 00 00 00 00 00 00 00 00           m..\.........
	rel 40+8 t=1 command-line-arguments.MapClearPointer<1>+0
	rel 48+8 t=1 command-line-arguments.MapClearPointer<1>+66
	rel 68+4 t=31 go:info.map[*uint8]int<0>+0
	rel 72+4 t=31 <0>+0
aux for command-line-arguments.MapClearNotReflexive<0> SDWARFLOC size=72
	0x0000 ff ff ff ff ff ff ff ff 00 00 00 00 00 00 00 00  ................
	0x0010 00 00 00 00 00 00 00 00 62 00 00 00 00 00 00 00  ........b.......
	0x0020 01 00 50 62 00 00 00 00 00 00 00 c5 00 00 00 00  ..Pb............
	0x0030 00 00 00 03 00 91 88 7f 00 00 00 00 00 00 00 00  ................
	0x0040 00 00 00 00 00 00 00 00                          ........
	rel 8+8 t=1 command-line-arguments.MapClearNotReflexive<1>+0
aux for command-line-arguments.MapClearNotReflexive<0> SDWARFLINES size=50
	0x0000 00 09 02 00 00 00 00 00 00 00 00 04 02 03 de 00  ................
	0x0010 14 0a a5 06 f5 06 44 06 41 06 02 2c f6 06 55 06  ......D.A..,..U.
	0x0020 73 40 06 a5 06 44 03 7e ab 06 a5 06 37 02 05 00  s@...D.~....7...
	0x0030 01 01                                            ..
	rel 3+8 t=1 command-line-arguments.MapClearNotReflexive<1>+0
aux for command-line-arguments.MapClearNotReflexive<0> SDWARFFCN size=109
	0x0000 03 63 6f 6d 6d 61 6e 64 2d 6c 69 6e 65 2d 61 72  .command-line-ar
	0x0010 67 75 6d 65 6e 74 73 2e 4d 61 70 43 6c 65 61 72  guments.MapClear
	0x0020 4e 6f 74 52 65 66 6c 65 78 69 76 65 00 00 00 00  NotReflexive....
	0x0030 00 00 00 00 00 00 00 00 00 00 00 00 00 01 9c 02  ................
	0x0040 00 00 00 01 12 6d 00 00 64 00 00 00 00 00 00 00  .....m..d.......
	0x0050 00 17 00 00 00 00 00 00 00 00 00 00 00 00 00 00  ................
	0x0060 00 00 0c 6b 00 67 00 00 00 00 00 00 00           ...k.g.......
	rel 0+0 t=22 type:float64<0>+0
	rel 0+0 t=22 type:noalg.map.iter[float64]int<0>+0
	rel 45+8 t=1 command-line-arguments.MapClearNotReflexive<1>+0
	rel 53+8 t=1 command-line-arguments.MapClearNotReflexive<1>+197
	rel 73+4 t=31 go:info.map[float64]int<0>+0
	rel 77+4 t=31 <0>+0
	rel 82+8 t=1 command-line-arguments.MapClearNotReflexive<1>+43
	rel 90+8 t=1 command-line-arguments.MapClearNotReflexive<1>+157
	rel 102+4 t=31 go:info.float64<0>+0
aux for command-line-arguments.MapClearInterface<0> SDWARFLOC size=125
	0x0000 ff ff ff ff ff ff ff ff 00 00 00 00 00 00 00 00  ................
	0x0010 00 00 00 00 00 00 00 00 62 00 00 00 00 00 00 00  ........b.......
	0x0020 01 00 50 62 00 00 00 00 00 00 00 c9 00 00 00 00  ..Pb............
	0x0030 00 00 00 03 00 91 f8 7e 00 00 00 00 00 00 00 00  .......~........
	0x0040 00 00 00 00 00 00 00 00 ff ff ff ff ff ff ff ff  ................
	0x0050 00 00 00 00 00 00 00 00 75 00 00 00 00 00 00 00  ........u.......
	0x0060 9a 00 00 00 00 00 00 00 03 00 91 80 7f 00 00 00  ................
	0x0070 00 00 00 00 00 00 00 00 00 00 00 00 00           .............
	rel 8+8 t=1 command-line-arguments.MapClearInterface<1>+0
	rel 80+8 t=1 command-line-arguments.MapClearInterface<1>+0
aux for command-line-arguments.MapClearInterface<0> SDWARFLINES size=46
	0x0000 00 09 02 00 00 00 00 00 00 00 00 04 02 03 e6 00  ................
	0x0010 14 0a a5 06 f5 06 44 06 41 06 02 33 f6 06 55 06  ......D.A..3..U.
	0x0020 73 40 06 a5 06 4e 03 7e ab 02 14 00 01 01        s@...N.~......
	rel 3+8 t=1 command-line-arguments.MapClearInterface<1>+0
aux for command-line-arguments.MapClearInterface<0> SDWARFFCN size=109
	0x0000 03 63 6f 6d 6d 61 6e 64 2d 6c 69 6e 65 2d 61 72  .command-line-ar
	0x0010 67 75 6d 65 6e 74 73 2e 4d 61 70 43 6c 65 61 72  guments.MapClear
	0x0020 49 6e 74 65 72 66 61 63 65 00 00 00 00 00 00 00  Interface.......
	0x0030 00 00 00 00 00 00 00 00 00 00 01 9c 02 00 00 00  ................
	0x0040 01 12 6d 00 00 6c 00 00 00 00 00 00 00 00 17 00  ..m..l..........
	0x0050 00 00 00 00 00 00 00 00 00 00 00 00 00 00 00 0d  ................
	0x0060 6b 00 6f 00 00 00 00 00 00 00 00 00 00           k.o..........
	rel 0+0 t=22 type:noalg.map.iter[interface {}]int<0>+0
	rel 42+8 t=1 command-line-arguments.MapClearInterface<1>+0
	rel 50+8 t=1 command-line-arguments.MapClearInterface<1>+201
	rel 70+4 t=31 go:info.map[interface {}]int<0>+0
	rel 74+4 t=31 <0>+0
	rel 79+8 t=1 command-line-arguments.MapClearInterface<1>+43
	rel 87+8 t=1 command-line-arguments.MapClearInterface<1>+165
	rel 99+4 t=31 go:info.interface {}<0>+0
	rel 103+4 t=31 <0>+72
aux for command-line-arguments.MapClearSideEffect<0> SDWARFLOC size=184
	0x0000 ff ff ff ff ff ff ff ff 00 00 00 00 00 00 00 00  ................
	0x0010 00 00 00 00 00 00 00 00 62 00 00 00 00 00 00 00  ........b.......
	0x0020 01 00 50 62 00 00 00 00 00 00 00 c5 00 00 00 00  ..Pb............
	0x0030 00 00 00 03 00 91 88 7f 00 00 00 00 00 00 00 00  ................
	0x0040 00 00 00 00 00 00 00 00 ff ff ff ff ff ff ff ff  ................
	0x0050 00 00 00 00 00 00 00 00 6e 00 00 00 00 00 00 00  ........n.......
	0x0060 7a 00 00 00 00 00 00 00 01 00 50 7a 00 00 00 00  z.........Pz....
	0x0070 00 00 00 85 00 00 00 00 00 00 00 03 00 91 80 7f  ................
	0x0080 85 00 00 00 00 00 00 00 94 00 00 00 00 00 00 00  ................
	0x0090 03 00 91 80 7f 94 00 00 00 00 00 00 00 c5 00 00  ................
	0x00a0 00 00 00 00 00 01 00 50 00 00 00 00 00 00 00 00  .......P........
	0x00b0 00 00 00 00 00 00 00 00                          ........
	rel 8+8 t=1 command-line-arguments.MapClearSideEffect<1>+0
	rel 80+8 t=1 command-line-arguments.MapClearSideEffect<1>+0
aux for command-line-arguments.MapClearSideEffect<0> SDWARFLINES size=54
	0x0000 00 09 02 00 00 00 00 00 00 00 00 04 02 03 ee 00  ................
	0x0010 14 0a a5 06 f5 06 45 06 41 06 02 2c f6 06 55 06  ......E.A..,..U.
	0x0020 4b 40 06 76 06 3e 06 41 06 44 03 7d ab 06 a5 06  K@.v.>.A.D.}....
	0x0030 2d 02 05 00 01 01                                -.....
	rel 3+8 t=1 command-line-arguments.MapClearSideEffect<1>+0
aux for command-line-arguments.MapClearSideEffect<0> SDWARFFCN size=104
	0x0000 03 63 6f 6d 6d 61 6e 64 2d 6c 69 6e 65 2d 61 72  .command-line-ar
	0x0010 67 75 6d 65 6e 74 73 2e 4d 61 70 43 6c 65 61 72  guments.MapClear
	0x0020 53 69 64 65 45 66 66 65 63 74 00 00 00 00 00 00  SideEffect......
	0x0030 00 00 00 00 00 00 00 00 00 00 00 01 9c 02 00 00  ................
	0x0040 00 01 12 6d 00 00 74 00 00 00 00 00 00 00 00 11  ...m..t.........
	0x0050 7e 72 30 00 01 74 00 00 00 00 00 0d 6b 00 75 00  ~r0..t......k.u.
	0x0060 00 00 00 00 00 00 00 00                          ........
	rel 0+0 t=22 type:int<0>+0
	rel 0+0 t=22 type:noalg.map.iter[int]int<0>+0
	rel 43+8 t=1 command-line-arguments.MapClearSideEffect<1>+0
	rel 51+8 t=1 command-line-arguments.MapClearSideEffect<1>+197
	rel 71+4 t=31 go:info.map[int]int<0>+0
	rel 75+4 t=31 <0>+0
	rel 86+4 t=31 go:info.int<0>+0
	rel 95+4 t=31 go:info.int<0>+0
	rel 99+4 t=31 <0>+72
aux for command-line-arguments.MapLiteralSizing<0> SDWARFLOC size=212
	0x0000 ff ff ff ff ff ff ff ff 00 00 00 00 00 00 00 00  ................
	0x0010 00 00 00 00 00 00 00 00 2b 00 00 00 00 00 00 00  ........+.......
	0x0020 01 00 50 2b 00 00 00 00 00 00 00 d5 02 00 00 00  ..P+............
	0x0030 00 00 00 01 00 9c 00 00 00 00 00 00 00 00 00 00  ................
	0x0040 00 00 00 00 00 00 ff ff ff ff ff ff ff ff 00 00  ................
	0x0050 00 00 00 00 00 00 30 00 00 00 00 00 00 00 41 00  ......0.......A.
	0x0060 00 00 00 00 00 00 01 00 50 41 00 00 00 00 00 00  ........PA......
	0x0070 00 d5 02 00 00 00 00 00 00 02 00 91 68 00 00 00  ............h...
	0x0080 00 00 00 00 00 00 00 00 00 00 00 00 00 ff ff ff  ................
	0x0090 ff ff ff ff ff 00 00 00 00 00 00 00 00 7f 01 00  ................
	0x00a0 00 00 00 00 00 90 01 00 00 00 00 00 00 01 00 50  ...............P
	0x00b0 90 01 00 00 00 00 00 00 d5 02 00 00 00 00 00 00  ................
	0x00c0 02 00 91 60 00 00 00 00 00 00 00 00 00 00 00 00  ...`............
	0x00d0 00 00 00 00                                      ....
	rel 8+8 t=1 command-line-arguments.MapLiteralSizing<1>+0
	rel 78+8 t=1 command-line-arguments.MapLiteralSizing<1>+0
	rel 149+8 t=1 command-line-arguments.MapLiteralSizing<1>+0
aux for command-line-arguments.MapLiteralSizing<0> SDWARFLINES size=131
	0x0000 00 09 02 00 00 00 00 00 00 00 00 04 02 03 f8 00  ................
	0x0010 14 0a 73 06 9b 06 43 06 41 06 ce 06 2d 06 69 06  ..s...C.A...-.i.
	0x0020 41 06 56 06 55 06 87 06 41 06 56 06 55 06 91 06  A.V.U...A.V.U...
	0x0030 41 06 56 06 55 06 91 06 41 06 56 06 55 06 91 06  A.V.U...A.V.U...
	0x0040 41 06 56 06 55 06 91 06 41 06 56 06 55 06 91 06  A.V.U...A.V.U...
	0x0050 41 06 56 06 55 06 91 06 41 06 56 06 55 06 91 06  A.V.U...A.V.U...
	0x0060 41 06 56 06 55 06 91 06 41 06 58 06 55 06 55 06  A.V.U...A.X.U.U.
	0x0070 41 06 02 97 02 03 07 fa 06 41 06 03 69 a1 02 14  A........A..i...
	0x0080 00 01 01                                         ...
	rel 3+8 t=1 command-line-arguments.MapLiteralSizing<1>+0
aux for command-line-arguments.MapLiteralSizing<0> SDWARFFCN size=128
	0x0000 03 63 6f 6d 6d 61 6e 64 2d 6c 69 6e 65 2d 61 72  .command-line-ar
	0x0010 67 75 6d 65 6e 74 73 2e 4d 61 70 4c 69 74 65 72  guments.MapLiter
	0x0020 61 6c 53 69 7a 69 6e 67 00 00 00 00 00 00 00 00  alSizing........
	0x0030 00 00 00 00 00 00 00 00 00 01 9c 02 00 00 00 01  ................
	0x0040 12 78 00 00 7e 00 00 00 00 00 00 00 00 11 7e 72  .x..~.........~r
	0x0050 30 00 01 7e 00 00 00 00 00 11 7e 72 31 00 01 7e  0..~......~r1..~
	0x0060 00 00 00 00 00 0d 6d 00 80 01 00 00 00 00 00 00  ......m.........
	0x0070 00 00 0d 6e 00 8d 01 00 00 00 00 00 00 00 00 00  ...n............
	rel 0+0 t=22 type:map[int]int<0>+0
	rel 41+8 t=1 command-line-arguments.MapLiteralSizing<1>+0
	rel 49+8 t=1 command-line-arguments.MapLiteralSizing<1>+725
	rel 69+4 t=31 go:info.int<0>+0
	rel 73+4 t=31 <0>+0
	rel 84+4 t=31 go:info.map[int]int<0>+0
	rel 96+4 t=31 go:info.map[int]int<0>+0
	rel 106+4 t=31 go:info.map[int]int<0>+0
	rel 110+4 t=31 <0>+70
	rel 119+4 t=31 go:info.map[int]int<0>+0
	rel 123+4 t=31 <0>+141
aux for type:.eq.[2]string<0> SDWARFLOC size=141
	0x0000 ff ff ff ff ff ff ff ff 00 00 00 00 00 00 00 00  ................
	0x0010 00 00 00 00 00 00 00 00 3e 00 00 00 00 00 00 00  ........>.......
	0x0020 01 00 50 4a 00 00 00 00 00 00 00 b4 00 00 00 00  ..PJ............
	0x0030 00 00 00 01 00 9c 00 00 00 00 00 00 00 00 00 00  ................
	0x0040 00 00 00 00 00 00 ff ff ff ff ff ff ff ff 00 00  ................
	0x0050 00 00 00 00 00 00 00 00 00 00 00 00 00 00 3e 00  ..............>.
	0x0060 00 00 00 00 00 00 01 00 53 4a 00 00 00 00 00 00  ........SJ......
	0x0070 00 b4 00 00 00 00 00 00 00 02 00 91 08 00 00 00  ................
	0x0080 00 00 00 00 00 00 00 00 00 00 00 00 00           .............
	rel 8+8 t=1 type:.eq.[2]string<1>+0
	rel 78+8 t=1 type:.eq.[2]string<1>+0
aux for type:.eq.[2]string<0> SDWARFLINES size=39
	0x0000 00 09 02 00 00 00 00 00 00 00 00 04 01 0f 0a 73  ...............s
	0x0010 06 c3 06 08 87 06 73 06 eb 06 37 06 08 ff 06 73  ......s...7....s
	0x0020 06 23 02 14 00 01 01                             .#.....
	rel 3+8 t=1 type:.eq.[2]string<1>+0
aux for type:.eq.[2]string<0> SDWARFFCN size=80
	0x0000 03 74 79 70 65 3a 2e 65 71 2e 5b 32 5d 73 74 72  .type:.eq.[2]str
	0x0010 69 6e 67 00 00 00 00 00 00 00 00 00 00 00 00 00  ing.............
	0x0020 00 00 00 00 01 9c 01 00 00 00 01 12 70 00 00 01  ............p...
	0x0030 00 00 00 00 00 00 00 00 12 71 00 00 01 00 00 00  .........q......
	0x0040 00 00 00 00 00 11 72 00 01 01 00 00 00 00 00 00  ......r.........
	rel 0+0 t=22 type:bool<0>+0
	rel 0+0 t=22 type:int<0>+0
	rel 20+8 t=1 type:.eq.[2]string<1>+0
	rel 28+8 t=1 type:.eq.[2]string<1>+180
	rel 48+4 t=31 go:info.*[2]string<0>+0
	rel 52+4 t=31 <0>+0
	rel 61+4 t=31 go:info.*[2]string<0>+0
	rel 65+4 t=31 <0>+70
	rel 74+4 t=31 go:info.bool<0>+0
aux for type:.hash.[2]string<0> SDWARFLOC size=159
	0x0000 ff ff ff ff ff ff ff ff 00 00 00 00 00 00 00 00  ................
	0x0010 00 00 00 00 00 00 00 00 2c 00 00 00 00 00 00 00  ........,.......
	0x0020 01 00 50 2c 00 00 00 00 00 00 00 71 00 00 00 00  ..P,.......q....
	0x0030 00 00 00 01 00 9c 00 00 00 00 00 00 00 00 00 00  ................
	0x0040 00 00 00 00 00 00 ff ff ff ff ff ff ff ff 00 00  ................
	0x0050 00 00 00 00 00 00 00 00 00 00 00 00 00 00 31 00  ..............1.
	0x0060 00 00 00 00 00 00 01 00 53 31 00 00 00 00 00 00  ........S1......
	0x0070 00 41 00 00 00 00 00 00 00 01 00 50 41 00 00 00  .A.........PA...
	0x0080 00 00 00 00 71 00 00 00 00 00 00 00 01 00 53 00  ....q.........S.
	0x0090 00 00 00 00 00 00 00 00 00 00 00 00 00 00 00     ...............
	rel 8+8 t=1 type:.hash.[2]string<1>+0
	rel 78+8 t=1 type:.hash.[2]string<1>+0
aux for type:.hash.[2]string<0> SDWARFLINES size=38
	0x0000 00 09 02 00 00 00 00 00 00 00 00 04 01 0f 0a 4b  ...............K
	0x0010 06 cd 06 08 af 06 37 06 23 06 2d 06 73 06 73 06  ......7.#.-.s.s.
	0x0020 23 02 11 00 01 01                                #.....
	rel 3+8 t=1 type:.hash.[2]string<1>+0
aux for type:.hash.[2]string<0> SDWARFFCN size=84
	0x0000 03 74 79 70 65 3a 2e 68 61 73 68 2e 5b 32 5d 73  .type:.hash.[2]s
	0x0010 74 72 69 6e 67 00 00 00 00 00 00 00 00 00 00 00  tring...........
	0x0020 00 00 00 00 00 00 01 9c 01 00 00 00 01 12 70 00  ..............p.
	0x0030 00 01 00 00 00 00 00 00 00 00 12 68 00 00 01 00  ...........h....
	0x0040 00 00 00 00 00 00 00 11 7e 72 30 00 01 01 00 00  ........~r0.....
	0x0050 00 00 00 00                                      ....
	rel 0+0 t=22 type:int<0>+0
	rel 0+0 t=22 type:uintptr<0>+0
	rel 22+8 t=1 type:.hash.[2]string<1>+0
	rel 30+8 t=1 type:.hash.[2]string<1>+113
	rel 50+4 t=31 go:info.*[2]string<0>+0
	rel 54+4 t=31 <0>+0
	rel 63+4 t=31 go:info.uintptr<0>+0
	rel 67+4 t=31 <0>+70
	rel 78+4 t=31 go:info.uintptr<0>+0
