# command-line-arguments
command-line-arguments.LeadingZeros<1> STEXT nosplit size=23 args=0x8 locals=0x0 funcid=0x0 align=0x0
	0x0000 00000 (/bigdata/qiuhan/codet5/usage/goroot/test/codegen/mathbits.go:15)	TEXT	command-line-arguments.LeadingZeros(SB), NOSPLIT|ABIInternal, $0-8
	0x0000 00000 (/bigdata/qiuhan/codet5/usage/goroot/test/codegen/mathbits.go:15)	FUNCDATA	$0, gclocals·g2BeySu+wFnoycgXfElmcg==(SB)
	0x0000 00000 (/bigdata/qiuhan/codet5/usage/goroot/test/codegen/mathbits.go:15)	FUNCDATA	$1, gclocals·g2BeySu+wFnoycgXfElmcg==(SB)
	0x0000 00000 (/bigdata/qiuhan/codet5/usage/goroot/test/codegen/mathbits.go:15)	FUNCDATA	$5, command-line-arguments.LeadingZeros.arginfo1(SB)
	0x0000 00000 (/bigdata/qiuhan/codet5/usage/goroot/test/codegen/mathbits.go:15)	FUNCDATA	$6, command-line-arguments.LeadingZeros.argliveinfo(SB)
	0x0000 00000 (/bigdata/qiuhan/codet5/usage/goroot/test/codegen/mathbits.go:15)	PCDATA	$3, $1
	0x0000 00000 (/bigdata/qiuhan/codet5/usage/goroot/test/codegen/mathbits.go:24)	BSRQ	AX, AX
	0x0004 00004 (/bigdata/qiuhan/codet5/usage/goroot/test/codegen/mathbits.go:24)	MOVQ	$-1, CX
	0x000b 00011 (/bigdata/qiuhan/codet5/usage/goroot/test/codegen/mathbits.go:24)	CMOVQEQ	CX, AX
	0x000f 00015 (<unknown line number>)	NOP
	0x000f 00015 (/bigdata/qiuhan/codet5/usage/goroot/test/codegen/mathbits.go:24)	ADDQ	$-63, AX
	0x0013 00019 (/bigdata/qiuhan/codet5/usage/goroot/test/codegen/mathbits.go:24)	NEGQ	AX
	0x0016 00022 (/bigdata/qiuhan/codet5/usage/goroot/test/codegen/mathbits.go:24)	RET
	0x0000 48 0f bd c0 48 c7 c1 ff ff ff ff 48 0f 44 c1 48  H...H......H.D.H
	0x0010 83 c0 c1 48 f7 d8 c3                             ...H...
command-line-arguments.LeadingZeros64<1> STEXT nosplit size=23 args=0x8 locals=0x0 funcid=0x0 align=0x0
	0x0000 00000 (/bigdata/qiuhan/codet5/usage/goroot/test/codegen/mathbits.go:27)	TEXT	command-line-arguments.LeadingZeros64(SB), NOSPLIT|ABIInternal, $0-8
	0x0000 00000 (/bigdata/qiuhan/codet5/usage/goroot/test/codegen/mathbits.go:27)	FUNCDATA	$0, gclocals·g2BeySu+wFnoycgXfElmcg==(SB)
	0x0000 00000 (/bigdata/qiuhan/codet5/usage/goroot/test/codegen/mathbits.go:27)	FUNCDATA	$1, gclocals·g2BeySu+wFnoycgXfElmcg==(SB)
	0x0000 00000 (/bigdata/qiuhan/codet5/usage/goroot/test/codegen/mathbits.go:27)	FUNCDATA	$5, command-line-arguments.LeadingZeros64.arginfo1(SB)
	0x0000 00000 (/bigdata/qiuhan/codet5/usage/goroot/test/codegen/mathbits.go:27)	FUNCDATA	$6, command-line-arguments.LeadingZeros64.argliveinfo(SB)
	0x0000 00000 (/bigdata/qiuhan/codet5/usage/goroot/test/codegen/mathbits.go:27)	PCDATA	$3, $1
	0x0000 00000 (/bigdata/qiuhan/codet5/usage/goroot/test/codegen/mathbits.go:36)	BSRQ	AX, AX
	0x0004 00004 (/bigdata/qiuhan/codet5/usage/goroot/test/codegen/mathbits.go:36)	MOVQ	$-1, CX
	0x000b 00011 (/bigdata/qiuhan/codet5/usage/goroot/test/codegen/mathbits.go:36)	CMOVQEQ	CX, AX
	0x000f 00015 (<unknown line number>)	NOP
	0x000f 00015 (/bigdata/qiuhan/codet5/usage/goroot/test/codegen/mathbits.go:36)	ADDQ	$-63, AX
	0x0013 00019 (/bigdata/qiuhan/codet5/usage/goroot/test/codegen/mathbits.go:36)	NEGQ	AX
	0x0016 00022 (/bigdata/qiuhan/codet5/usage/goroot/test/codegen/mathbits.go:36)	RET
	0x0000 48 0f bd c0 48 c7 c1 ff ff ff ff 48 0f 44 c1 48  H...H......H.D.H
	0x0010 83 c0 c1 48 f7 d8 c3                             ...H...
command-line-arguments.LeadingZeros32<1> STEXT nosplit size=22 args=0x8 locals=0x0 funcid=0x0 align=0x0
	0x0000 00000 (/bigdata/qiuhan/codet5/usage/goroot/test/codegen/mathbits.go:39)	TEXT	command-line-arguments.LeadingZeros32(SB), NOSPLIT|ABIInternal, $0-8
	0x0000 00000 (/bigdata/qiuhan/codet5/usage/goroot/test/codegen/mathbits.go:39)	FUNCDATA	$0, gclocals·g2BeySu+wFnoycgXfElmcg==(SB)
	0x0000 00000 (/bigdata/qiuhan/codet5/usage/goroot/test/codegen/mathbits.go:39)	FUNCDATA	$1, gclocals·g2BeySu+wFnoycgXfElmcg==(SB)
	0x0000 00000 (/bigdata/qiuhan/codet5/usage/goroot/test/codegen/mathbits.go:39)	FUNCDATA	$5, command-line-arguments.LeadingZeros32.arginfo1(SB)
	0x0000 00000 (/bigdata/qiuhan/codet5/usage/goroot/test/codegen/mathbits.go:39)	FUNCDATA	$6, command-line-arguments.LeadingZeros32.argliveinfo(SB)
	0x0000 00000 (/bigdata/qiuhan/codet5/usage/goroot/test/codegen/mathbits.go:39)	PCDATA	$3, $1
	0x0000 00000 (/bigdata/qiuhan/codet5/usage/goroot/test/codegen/mathbits.go:48)	MOVL	AX, CX
	0x0002 00002 (/bigdata/qiuhan/codet5/usage/goroot/test/codegen/mathbits.go:48)	LEAQ	(CX)(CX*1), CX
	0x0006 00006 (/bigdata/qiuhan/codet5/usage/goroot/test/codegen/mathbits.go:48)	LEAQ	1(CX), CX
	0x000a 00010 (/bigdata/qiuhan/codet5/usage/goroot/test/codegen/mathbits.go:48)	BSRQ	CX, AX
	0x000e 00014 (<unknown line number>)	NOP
	0x000e 00014 (/bigdata/qiuhan/codet5/usage/goroot/test/codegen/mathbits.go:48)	ADDQ	$-32, AX
	0x0012 00018 (/bigdata/qiuhan/codet5/usage/goroot/test/codegen/mathbits.go:48)	NEGQ	AX
	0x0015 00021 (/bigdata/qiuhan/codet5/usage/goroot/test/codegen/mathbits.go:48)	RET
	0x0000 89 c1 48 8d 0c 09 48 8d 49 01 48 0f bd c1 48 83  ..H...H.I.H...H.
	0x0010 c0 e0 48 f7 d8 c3                                ..H...
command-line-arguments.LeadingZeros16<1> STEXT nosplit size=20 args=0x8 locals=0x0 funcid=0x0 align=0x0
	0x0000 00000 (/bigdata/qiuhan/codet5/usage/goroot/test/codegen/mathbits.go:51)	TEXT	command-line-arguments.LeadingZeros16(SB), NOSPLIT|ABIInternal, $0-8
	0x0000 00000 (/bigdata/qiuhan/codet5/usage/goroot/test/codegen/mathbits.go:51)	FUNCDATA	$0, gclocals·g2BeySu+wFnoycgXfElmcg==(SB)
	0x0000 00000 (/bigdata/qiuhan/codet5/usage/goroot/test/codegen/mathbits.go:51)	FUNCDATA	$1, gclocals·g2BeySu+wFnoycgXfElmcg==(SB)
	0x0000 00000 (/bigdata/qiuhan/codet5/usage/goroot/test/codegen/mathbits.go:51)	FUNCDATA	$5, command-line-arguments.LeadingZeros16.arginfo1(SB)
	0x0000 00000 (/bigdata/qiuhan/codet5/usage/goroot/test/codegen/mathbits.go:51)	FUNCDATA	$6, command-line-arguments.LeadingZeros16.argliveinfo(SB)
	0x0000 00000 (/bigdata/qiuhan/codet5/usage/goroot/test/codegen/mathbits.go:51)	PCDATA	$3, $1
	0x0000 00000 (<unknown line number>)	NOP
	0x0000 00000 (/bigdata/qiuhan/codet5/usage/goroot/test/codegen/mathbits.go:60)	MOVWLZX	AX, CX
	0x0003 00003 (/bigdata/qiuhan/codet5/usage/goroot/test/codegen/mathbits.go:60)	LEAL	(CX)(CX*1), CX
	0x0006 00006 (/bigdata/qiuhan/codet5/usage/goroot/test/codegen/mathbits.go:60)	LEAL	1(CX), CX
	0x0009 00009 (/bigdata/qiuhan/codet5/usage/goroot/test/codegen/mathbits.go:60)	BSRL	CX, AX
	0x000c 00012 (/bigdata/qiuhan/codet5/usage/goroot/test/codegen/mathbits.go:60)	ADDQ	$-16, AX
	0x0010 00016 (/bigdata/qiuhan/codet5/usage/goroot/test/codegen/mathbits.go:60)	NEGQ	AX
	0x0013 00019 (/bigdata/qiuhan/codet5/usage/goroot/test/codegen/mathbits.go:60)	RET
	0x0000 0f b7 c8 8d 0c 09 8d 49 01 0f bd c1 48 83 c0 f0  .......I....H...
	0x0010 48 f7 d8 c3                                      H...
command-line-arguments.LeadingZeros8<1> STEXT nosplit size=20 args=0x8 locals=0x0 funcid=0x0 align=0x0
	0x0000 00000 (/bigdata/qiuhan/codet5/usage/goroot/test/codegen/mathbits.go:63)	TEXT	command-line-arguments.LeadingZeros8(SB), NOSPLIT|ABIInternal, $0-8
	0x0000 00000 (/bigdata/qiuhan/codet5/usage/goroot/test/codegen/mathbits.go:63)	FUNCDATA	$0, gclocals·g2BeySu+wFnoycgXfElmcg==(SB)
	0x0000 00000 (/bigdata/qiuhan/codet5/usage/goroot/test/codegen/mathbits.go:63)	FUNCDATA	$1, gclocals·g2BeySu+wFnoycgXfElmcg==(SB)
	0x0000 00000 (/bigdata/qiuhan/codet5/usage/goroot/test/codegen/mathbits.go:63)	FUNCDATA	$5, command-line-arguments.LeadingZeros8.arginfo1(SB)
	0x0000 00000 (/bigdata/qiuhan/codet5/usage/goroot/test/codegen/mathbits.go:63)	FUNCDATA	$6, command-line-arguments.LeadingZeros8.argliveinfo(SB)
	0x0000 00000 (/bigdata/qiuhan/codet5/usage/goroot/test/codegen/mathbits.go:63)	PCDATA	$3, $1
	0x0000 00000 (<unknown line number>)	NOP
	0x0000 00000 (/bigdata/qiuhan/codet5/usage/goroot/test/codegen/mathbits.go:72)	MOVBLZX	AL, CX
	0x0003 00003 (/bigdata/qiuhan/codet5/usage/goroot/test/codegen/mathbits.go:72)	LEAL	(CX)(CX*1), CX
	0x0006 00006 (/bigdata/qiuhan/codet5/usage/goroot/test/codegen/mathbits.go:72)	LEAL	1(CX), CX
	0x0009 00009 (/bigdata/qiuhan/codet5/usage/goroot/test/codegen/mathbits.go:72)	BSRL	CX, AX
	0x000c 00012 (/bigdata/qiuhan/codet5/usage/goroot/test/codegen/mathbits.go:72)	ADDQ	$-8, AX
	0x0010 00016 (/bigdata/qiuhan/codet5/usage/goroot/test/codegen/mathbits.go:72)	NEGQ	AX
	0x0013 00019 (/bigdata/qiuhan/codet5/usage/goroot/test/codegen/mathbits.go:72)	RET
	0x0000 0f b6 c8 8d 0c 09 8d 49 01 0f bd c1 48 83 c0 f8  .......I....H...
	0x0010 48 f7 d8 c3                                      H...
command-line-arguments.Len<1> STEXT nosplit size=19 args=0x8 locals=0x0 funcid=0x0 align=0x0
	0x0000 00000 (/bigdata/qiuhan/codet5/usage/goroot/test/codegen/mathbits.go:79)	TEXT	command-line-arguments.Len(SB), NOSPLIT|ABIInternal, $0-8
	0x0000 00000 (/bigdata/qiuhan/codet5/usage/goroot/test/codegen/mathbits.go:79)	FUNCDATA	$0, gclocals·g2BeySu+wFnoycgXfElmcg==(SB)
	0x0000 00000 (/bigdata/qiuhan/codet5/usage/goroot/test/codegen/mathbits.go:79)	FUNCDATA	$1, gclocals·g2BeySu+wFnoycgXfElmcg==(SB)
	0x0000 00000 (/bigdata/qiuhan/codet5/usage/goroot/test/codegen/mathbits.go:79)	FUNCDATA	$5, command-line-arguments.Len.arginfo1(SB)
	0x0000 00000 (/bigdata/qiuhan/codet5/usage/goroot/test/codegen/mathbits.go:79)	FUNCDATA	$6, command-line-arguments.Len.argliveinfo(SB)
	0x0000 00000 (/bigdata/qiuhan/codet5/usage/goroot/test/codegen/mathbits.go:79)	PCDATA	$3, $1
	0x0000 00000 (/bigdata/qiuhan/codet5/usage/goroot/test/codegen/mathbits.go:88)	BSRQ	AX, AX
	0x0004 00004 (/bigdata/qiuhan/codet5/usage/goroot/test/codegen/mathbits.go:88)	MOVQ	$-1, CX
	0x000b 00011 (/bigdata/qiuhan/codet5/usage/goroot/test/codegen/mathbits.go:88)	CMOVQEQ	CX, AX
	0x000f 00015 (/bigdata/qiuhan/codet5/usage/goroot/test/codegen/mathbits.go:88)	INCQ	AX
	0x0012 00018 (/bigdata/qiuhan/codet5/usage/goroot/test/codegen/mathbits.go:88)	RET
	0x0000 48 0f bd c0 48 c7 c1 ff ff ff ff 48 0f 44 c1 48  H...H......H.D.H
	0x0010 ff c0 c3                                         ...
command-line-arguments.Len64<1> STEXT nosplit size=19 args=0x8 locals=0x0 funcid=0x0 align=0x0
	0x0000 00000 (/bigdata/qiuhan/codet5/usage/goroot/test/codegen/mathbits.go:91)	TEXT	command-line-arguments.Len64(SB), NOSPLIT|ABIInternal, $0-8
	0x0000 00000 (/bigdata/qiuhan/codet5/usage/goroot/test/codegen/mathbits.go:91)	FUNCDATA	$0, gclocals·g2BeySu+wFnoycgXfElmcg==(SB)
	0x0000 00000 (/bigdata/qiuhan/codet5/usage/goroot/test/codegen/mathbits.go:91)	FUNCDATA	$1, gclocals·g2BeySu+wFnoycgXfElmcg==(SB)
	0x0000 00000 (/bigdata/qiuhan/codet5/usage/goroot/test/codegen/mathbits.go:91)	FUNCDATA	$5, command-line-arguments.Len64.arginfo1(SB)
	0x0000 00000 (/bigdata/qiuhan/codet5/usage/goroot/test/codegen/mathbits.go:91)	FUNCDATA	$6, command-line-arguments.Len64.argliveinfo(SB)
	0x0000 00000 (/bigdata/qiuhan/codet5/usage/goroot/test/codegen/mathbits.go:91)	PCDATA	$3, $1
	0x0000 00000 (/bigdata/qiuhan/codet5/usage/goroot/test/codegen/mathbits.go:100)	BSRQ	AX, AX
	0x0004 00004 (/bigdata/qiuhan/codet5/usage/goroot/test/codegen/mathbits.go:100)	MOVQ	$-1, CX
	0x000b 00011 (/bigdata/qiuhan/codet5/usage/goroot/test/codegen/mathbits.go:100)	CMOVQEQ	CX, AX
	0x000f 00015 (/bigdata/qiuhan/codet5/usage/goroot/test/codegen/mathbits.go:100)	INCQ	AX
	0x0012 00018 (/bigdata/qiuhan/codet5/usage/goroot/test/codegen/mathbits.go:100)	RET
	0x0000 48 0f bd c0 48 c7 c1 ff ff ff ff 48 0f 44 c1 48  H...H......H.D.H
	0x0010 ff c0 c3                                         ...
command-line-arguments.SubFromLen64<1> STEXT nosplit size=23 args=0x8 locals=0x0 funcid=0x0 align=0x0
	0x0000 00000 (/bigdata/qiuhan/codet5/usage/goroot/test/codegen/mathbits.go:103)	TEXT	command-line-arguments.SubFromLen64(SB), NOSPLIT|ABIInternal, $0-8
	0x0000 00000 (/bigdata/qiuhan/codet5/usage/goroot/test/codegen/mathbits.go:103)	FUNCDATA	$0, gclocals·g2BeySu+wFnoycgXfElmcg==(SB)
	0x0000 00000 (/bigdata/qiuhan/codet5/usage/goroot/test/codegen/mathbits.go:103)	FUNCDATA	$1, gclocals·g2BeySu+wFnoycgXfElmcg==(SB)
	0x0000 00000 (/bigdata/qiuhan/codet5/usage/goroot/test/codegen/mathbits.go:103)	FUNCDATA	$5, command-line-arguments.SubFromLen64.arginfo1(SB)
	0x0000 00000 (/bigdata/qiuhan/codet5/usage/goroot/test/codegen/mathbits.go:103)	FUNCDATA	$6, command-line-arguments.SubFromLen64.argliveinfo(SB)
	0x0000 00000 (/bigdata/qiuhan/codet5/usage/goroot/test/codegen/mathbits.go:103)	PCDATA	$3, $1
	0x0000 00000 (/bigdata/qiuhan/codet5/usage/goroot/test/codegen/mathbits.go:106)	BSRQ	AX, AX
	0x0004 00004 (/bigdata/qiuhan/codet5/usage/goroot/test/codegen/mathbits.go:106)	MOVQ	$-1, CX
	0x000b 00011 (/bigdata/qiuhan/codet5/usage/goroot/test/codegen/mathbits.go:106)	CMOVQEQ	CX, AX
	0x000f 00015 (/bigdata/qiuhan/codet5/usage/goroot/test/codegen/mathbits.go:106)	ADDQ	$-63, AX
	0x0013 00019 (/bigdata/qiuhan/codet5/usage/goroot/test/codegen/mathbits.go:106)	NEGQ	AX
	0x0016 00022 (/bigdata/qiuhan/codet5/usage/goroot/test/codegen/mathbits.go:106)	RET
	0x0000 48 0f bd c0 48 c7 c1 ff ff ff ff 48 0f 44 c1 48  H...H......H.D.H
	0x0010 83 c0 c1 48 f7 d8 c3                             ...H...
command-line-arguments.Len32<1> STEXT nosplit size=15 args=0x8 locals=0x0 funcid=0x0 align=0x0
	0x0000 00000 (/bigdata/qiuhan/codet5/usage/goroot/test/codegen/mathbits.go:109)	TEXT	command-line-arguments.Len32(SB), NOSPLIT|ABIInternal, $0-8
	0x0000 00000 (/bigdata/qiuhan/codet5/usage/goroot/test/codegen/mathbits.go:109)	FUNCDATA	$0, gclocals·g2BeySu+wFnoycgXfElmcg==(SB)
	0x0000 00000 (/bigdata/qiuhan/codet5/usage/goroot/test/codegen/mathbits.go:109)	FUNCDATA	$1, gclocals·g2BeySu+wFnoycgXfElmcg==(SB)
	0x0000 00000 (/bigdata/qiuhan/codet5/usage/goroot/test/codegen/mathbits.go:109)	FUNCDATA	$5, command-line-arguments.Len32.arginfo1(SB)
	0x0000 00000 (/bigdata/qiuhan/codet5/usage/goroot/test/codegen/mathbits.go:109)	FUNCDATA	$6, command-line-arguments.Len32.argliveinfo(SB)
	0x0000 00000 (/bigdata/qiuhan/codet5/usage/goroot/test/codegen/mathbits.go:109)	PCDATA	$3, $1
	0x0000 00000 (/bigdata/qiuhan/codet5/usage/goroot/test/codegen/mathbits.go:118)	MOVL	AX, CX
	0x0002 00002 (/bigdata/qiuhan/codet5/usage/goroot/test/codegen/mathbits.go:118)	LEAQ	(CX)(CX*1), CX
	0x0006 00006 (/bigdata/qiuhan/codet5/usage/goroot/test/codegen/mathbits.go:118)	LEAQ	1(CX), CX
	0x000a 00010 (/bigdata/qiuhan/codet5/usage/goroot/test/codegen/mathbits.go:118)	BSRQ	CX, AX
	0x000e 00014 (/bigdata/qiuhan/codet5/usage/goroot/test/codegen/mathbits.go:118)	RET
	0x0000 89 c1 48 8d 0c 09 48 8d 49 01 48 0f bd c1 c3     ..H...H.I.H....
command-line-arguments.Len16<1> STEXT nosplit size=13 args=0x8 locals=0x0 funcid=0x0 align=0x0
	0x0000 00000 (/bigdata/qiuhan/codet5/usage/goroot/test/codegen/mathbits.go:121)	TEXT	command-line-arguments.Len16(SB), NOSPLIT|ABIInternal, $0-8
	0x0000 00000 (/bigdata/qiuhan/codet5/usage/goroot/test/codegen/mathbits.go:121)	FUNCDATA	$0, gclocals·g2BeySu+wFnoycgXfElmcg==(SB)
	0x0000 00000 (/bigdata/qiuhan/codet5/usage/goroot/test/codegen/mathbits.go:121)	FUNCDATA	$1, gclocals·g2BeySu+wFnoycgXfElmcg==(SB)
	0x0000 00000 (/bigdata/qiuhan/codet5/usage/goroot/test/codegen/mathbits.go:121)	FUNCDATA	$5, command-line-arguments.Len16.arginfo1(SB)
	0x0000 00000 (/bigdata/qiuhan/codet5/usage/goroot/test/codegen/mathbits.go:121)	FUNCDATA	$6, command-line-arguments.Len16.argliveinfo(SB)
	0x0000 00000 (/bigdata/qiuhan/codet5/usage/goroot/test/codegen/mathbits.go:121)	PCDATA	$3, $1
	0x0000 00000 (/bigdata/qiuhan/codet5/usage/goroot/test/codegen/mathbits.go:130)	MOVWLZX	AX, CX
	0x0003 00003 (/bigdata/qiuhan/codet5/usage/goroot/test/codegen/mathbits.go:130)	LEAL	(CX)(CX*1), CX
	0x0006 00006 (/bigdata/qiuhan/codet5/usage/goroot/test/codegen/mathbits.go:130)	LEAL	1(CX), CX
	0x0009 00009 (/bigdata/qiuhan/codet5/usage/goroot/test/codegen/mathbits.go:130)	BSRL	CX, AX
	0x000c 00012 (/bigdata/qiuhan/codet5/usage/goroot/test/codegen/mathbits.go:130)	RET
	0x0000 0f b7 c8 8d 0c 09 8d 49 01 0f bd c1 c3           .......I.....
command-line-arguments.Len8<1> STEXT nosplit size=13 args=0x8 locals=0x0 funcid=0x0 align=0x0
	0x0000 00000 (/bigdata/qiuhan/codet5/usage/goroot/test/codegen/mathbits.go:133)	TEXT	command-line-arguments.Len8(SB), NOSPLIT|ABIInternal, $0-8
	0x0000 00000 (/bigdata/qiuhan/codet5/usage/goroot/test/codegen/mathbits.go:133)	FUNCDATA	$0, gclocals·g2BeySu+wFnoycgXfElmcg==(SB)
	0x0000 00000 (/bigdata/qiuhan/codet5/usage/goroot/test/codegen/mathbits.go:133)	FUNCDATA	$1, gclocals·g2BeySu+wFnoycgXfElmcg==(SB)
	0x0000 00000 (/bigdata/qiuhan/codet5/usage/goroot/test/codegen/mathbits.go:133)	FUNCDATA	$5, command-line-arguments.Len8.arginfo1(SB)
	0x0000 00000 (/bigdata/qiuhan/codet5/usage/goroot/test/codegen/mathbits.go:133)	FUNCDATA	$6, command-line-arguments.Len8.argliveinfo(SB)
	0x0000 00000 (/bigdata/qiuhan/codet5/usage/goroot/test/codegen/mathbits.go:133)	PCDATA	$3, $1
	0x0000 00000 (/bigdata/qiuhan/codet5/usage/goroot/test/codegen/mathbits.go:142)	MOVBLZX	AL, CX
	0x0003 00003 (/bigdata/qiuhan/codet5/usage/goroot/test/codegen/mathbits.go:142)	LEAL	(CX)(CX*1), CX
	0x0006 00006 (/bigdata/qiuhan/codet5/usage/goroot/test/codegen/mathbits.go:142)	LEAL	1(CX), CX
	0x0009 00009 (/bigdata/qiuhan/codet5/usage/goroot/test/codegen/mathbits.go:142)	BSRL	CX, AX
	0x000c 00012 (/bigdata/qiuhan/codet5/usage/goroot/test/codegen/mathbits.go:142)	RET
	0x0000 0f b6 c8 8d 0c 09 8d 49 01 0f bd c1 c3           .......I.....
command-line-arguments.OnesCount<1> STEXT size=83 args=0x8 locals=0x10 funcid=0x0 align=0x0
	0x0000 00000 (/bigdata/qiuhan/codet5/usage/goroot/test/codegen/mathbits.go:150)	TEXT	command-line-arguments.OnesCount(SB), ABIInternal, $16-8
	0x0000 00000 (/bigdata/qiuhan/codet5/usage/goroot/test/codegen/mathbits.go:150)	CMPQ	SP, 16(R14)
	0x0004 00004 (/bigdata/qiuhan/codet5/usage/goroot/test/codegen/mathbits.go:150)	PCDATA	$0, $-2
	0x0004 00004 (/bigdata/qiuhan/codet5/usage/goroot/test/codegen/mathbits.go:150)	JLS	66
	0x0006 00006 (/bigdata/qiuhan/codet5/usage/goroot/test/codegen/mathbits.go:150)	PCDATA	$0, $-1
	0x0006 00006 (/bigdata/qiuhan/codet5/usage/goroot/test/codegen/mathbits.go:150)	SUBQ	$16, SP
	0x000a 00010 (/bigdata/qiuhan/codet5/usage/goroot/test/codegen/mathbits.go:150)	MOVQ	BP, 8(SP)
	0x000f 00015 (/bigdata/qiuhan/codet5/usage/goroot/test/codegen/mathbits.go:150)	LEAQ	8(SP), BP
	0x0014 00020 (/bigdata/qiuhan/codet5/usage/goroot/test/codegen/mathbits.go:150)	FUNCDATA	$0, gclocals·g2BeySu+wFnoycgXfElmcg==(SB)
	0x0014 00020 (/bigdata/qiuhan/codet5/usage/goroot/test/codegen/mathbits.go:150)	FUNCDATA	$1, gclocals·g2BeySu+wFnoycgXfElmcg==(SB)
	0x0014 00020 (/bigdata/qiuhan/codet5/usage/goroot/test/codegen/mathbits.go:150)	FUNCDATA	$5, command-line-arguments.OnesCount.arginfo1(SB)
	0x0014 00020 (/bigdata/qiuhan/codet5/usage/goroot/test/codegen/mathbits.go:150)	FUNCDATA	$6, command-line-arguments.OnesCount.argliveinfo(SB)
	0x0014 00020 (/bigdata/qiuhan/codet5/usage/goroot/test/codegen/mathbits.go:150)	PCDATA	$3, $1
	0x0014 00020 (/bigdata/qiuhan/codet5/usage/goroot/test/codegen/mathbits.go:150)	MOVBQZX	runtime.x86HasPOPCNT(SB), CX
	0x001c 00028 (/bigdata/qiuhan/codet5/usage/goroot/test/codegen/mathbits.go:150)	NOP
	0x0020 00032 (/bigdata/qiuhan/codet5/usage/goroot/test/codegen/mathbits.go:150)	TESTL	CX, CX
	0x0022 00034 (/bigdata/qiuhan/codet5/usage/goroot/test/codegen/mathbits.go:158)	JEQ	45
	0x0024 00036 (/bigdata/qiuhan/codet5/usage/goroot/test/codegen/mathbits.go:158)	XORL	CX, CX
	0x0026 00038 (/bigdata/qiuhan/codet5/usage/goroot/test/codegen/mathbits.go:158)	POPCNTQ	AX, CX
	0x002b 00043 (/bigdata/qiuhan/codet5/usage/goroot/test/codegen/mathbits.go:158)	JMP	53
	0x002d 00045 (/bigdata/qiuhan/codet5/usage/goroot/test/codegen/mathbits.go:158)	PCDATA	$1, $0
	0x002d 00045 (/bigdata/qiuhan/codet5/usage/goroot/test/codegen/mathbits.go:158)	CALL	math/bits.OnesCount(SB)
	0x0032 00050 (/bigdata/qiuhan/codet5/usage/goroot/test/codegen/mathbits.go:158)	MOVQ	AX, CX
	0x0035 00053 (/bigdata/qiuhan/codet5/usage/goroot/test/codegen/mathbits.go:158)	MOVQ	CX, AX
	0x0038 00056 (/bigdata/qiuhan/codet5/usage/goroot/test/codegen/mathbits.go:158)	MOVQ	8(SP), BP
	0x003d 00061 (/bigdata/qiuhan/codet5/usage/goroot/test/codegen/mathbits.go:158)	ADDQ	$16, SP
	0x0041 00065 (/bigdata/qiuhan/codet5/usage/goroot/test/codegen/mathbits.go:158)	RET
	0x0042 00066 (/bigdata/qiuhan/codet5/usage/goroot/test/codegen/mathbits.go:158)	NOP
	0x0042 00066 (/bigdata/qiuhan/codet5/usage/goroot/test/codegen/mathbits.go:150)	PCDATA	$1, $-1
	0x0042 00066 (/bigdata/qiuhan/codet5/usage/goroot/test/codegen/mathbits.go:150)	PCDATA	$0, $-2
	0x0042 00066 (/bigdata/qiuhan/codet5/usage/goroot/test/codegen/mathbits.go:150)	MOVQ	AX, 8(SP)
	0x0047 00071 (/bigdata/qiuhan/codet5/usage/goroot/test/codegen/mathbits.go:150)	CALL	runtime.morestack_noctxt(SB)
	0x004c 00076 (/bigdata/qiuhan/codet5/usage/goroot/test/codegen/mathbits.go:150)	MOVQ	8(SP), AX
	0x0051 00081 (/bigdata/qiuhan/codet5/usage/goroot/test/codegen/mathbits.go:150)	PCDATA	$0, $-1
	0x0051 00081 (/bigdata/qiuhan/codet5/usage/goroot/test/codegen/mathbits.go:150)	JMP	0
	0x0000 49 3b 66 10 76 3c 48 83 ec 10 48 89 6c 24 08 48  I;f.v<H...H.l$.H
	0x0010 8d 6c 24 08 48 0f b6 0d 00 00 00 00 0f 1f 40 00  .l$.H.........@.
	0x0020 85 c9 74 09 31 c9 f3 48 0f b8 c8 eb 08 e8 00 00  ..t.1..H........
	0x0030 00 00 48 89 c1 48 89 c8 48 8b 6c 24 08 48 83 c4  ..H..H..H.l$.H..
	0x0040 10 c3 48 89 44 24 08 e8 00 00 00 00 48 8b 44 24  ..H.D$......H.D$
	0x0050 08 eb ad                                         ...
	rel 24+4 t=14 runtime.x86HasPOPCNT<0>+0
	rel 46+4 t=7 math/bits.OnesCount<1>+0
	rel 72+4 t=7 runtime.morestack_noctxt<0>+0
command-line-arguments.OnesCount64<1> STEXT size=83 args=0x8 locals=0x10 funcid=0x0 align=0x0
	0x0000 00000 (/bigdata/qiuhan/codet5/usage/goroot/test/codegen/mathbits.go:161)	TEXT	command-line-arguments.OnesCount64(SB), ABIInternal, $16-8
	0x0000 00000 (/bigdata/qiuhan/codet5/usage/goroot/test/codegen/mathbits.go:161)	CMPQ	SP, 16(R14)
	0x0004 00004 (/bigdata/qiuhan/codet5/usage/goroot/test/codegen/mathbits.go:161)	PCDATA	$0, $-2
	0x0004 00004 (/bigdata/qiuhan/codet5/usage/goroot/test/codegen/mathbits.go:161)	JLS	66
	0x0006 00006 (/bigdata/qiuhan/codet5/usage/goroot/test/codegen/mathbits.go:161)	PCDATA	$0, $-1
	0x0006 00006 (/bigdata/qiuhan/codet5/usage/goroot/test/codegen/mathbits.go:161)	SUBQ	$16, SP
	0x000a 00010 (/bigdata/qiuhan/codet5/usage/goroot/test/codegen/mathbits.go:161)	MOVQ	BP, 8(SP)
	0x000f 00015 (/bigdata/qiuhan/codet5/usage/goroot/test/codegen/mathbits.go:161)	LEAQ	8(SP), BP
	0x0014 00020 (/bigdata/qiuhan/codet5/usage/goroot/test/codegen/mathbits.go:161)	FUNCDATA	$0, gclocals·g2BeySu+wFnoycgXfElmcg==(SB)
	0x0014 00020 (/bigdata/qiuhan/codet5/usage/goroot/test/codegen/mathbits.go:161)	FUNCDATA	$1, gclocals·g2BeySu+wFnoycgXfElmcg==(SB)
	0x0014 00020 (/bigdata/qiuhan/codet5/usage/goroot/test/codegen/mathbits.go:161)	FUNCDATA	$5, command-line-arguments.OnesCount64.arginfo1(SB)
	0x0014 00020 (/bigdata/qiuhan/codet5/usage/goroot/test/codegen/mathbits.go:161)	FUNCDATA	$6, command-line-arguments.OnesCount64.argliveinfo(SB)
	0x0014 00020 (/bigdata/qiuhan/codet5/usage/goroot/test/codegen/mathbits.go:161)	PCDATA	$3, $1
	0x0014 00020 (/bigdata/qiuhan/codet5/usage/goroot/test/codegen/mathbits.go:161)	MOVBQZX	runtime.x86HasPOPCNT(SB), CX
	0x001c 00028 (/bigdata/qiuhan/codet5/usage/goroot/test/codegen/mathbits.go:161)	NOP
	0x0020 00032 (/bigdata/qiuhan/codet5/usage/goroot/test/codegen/mathbits.go:161)	TESTL	CX, CX
	0x0022 00034 (/bigdata/qiuhan/codet5/usage/goroot/test/codegen/mathbits.go:169)	JEQ	45
	0x0024 00036 (/bigdata/qiuhan/codet5/usage/goroot/test/codegen/mathbits.go:169)	XORL	CX, CX
	0x0026 00038 (/bigdata/qiuhan/codet5/usage/goroot/test/codegen/mathbits.go:169)	POPCNTQ	AX, CX
	0x002b 00043 (/bigdata/qiuhan/codet5/usage/goroot/test/codegen/mathbits.go:169)	JMP	53
	0x002d 00045 (/bigdata/qiuhan/codet5/usage/goroot/test/codegen/mathbits.go:169)	PCDATA	$1, $0
	0x002d 00045 (/bigdata/qiuhan/codet5/usage/goroot/test/codegen/mathbits.go:169)	CALL	math/bits.OnesCount64(SB)
	0x0032 00050 (/bigdata/qiuhan/codet5/usage/goroot/test/codegen/mathbits.go:169)	MOVQ	AX, CX
	0x0035 00053 (/bigdata/qiuhan/codet5/usage/goroot/test/codegen/mathbits.go:169)	MOVQ	CX, AX
	0x0038 00056 (/bigdata/qiuhan/codet5/usage/goroot/test/codegen/mathbits.go:169)	MOVQ	8(SP), BP
	0x003d 00061 (/bigdata/qiuhan/codet5/usage/goroot/test/codegen/mathbits.go:169)	ADDQ	$16, SP
	0x0041 00065 (/bigdata/qiuhan/codet5/usage/goroot/test/codegen/mathbits.go:169)	RET
	0x0042 00066 (/bigdata/qiuhan/codet5/usage/goroot/test/codegen/mathbits.go:169)	NOP
	0x0042 00066 (/bigdata/qiuhan/codet5/usage/goroot/test/codegen/mathbits.go:161)	PCDATA	$1, $-1
	0x0042 00066 (/bigdata/qiuhan/codet5/usage/goroot/test/codegen/mathbits.go:161)	PCDATA	$0, $-2
	0x0042 00066 (/bigdata/qiuhan/codet5/usage/goroot/test/codegen/mathbits.go:161)	MOVQ	AX, 8(SP)
	0x0047 00071 (/bigdata/qiuhan/codet5/usage/goroot/test/codegen/mathbits.go:161)	CALL	runtime.morestack_noctxt(SB)
	0x004c 00076 (/bigdata/qiuhan/codet5/usage/goroot/test/codegen/mathbits.go:161)	MOVQ	8(SP), AX
	0x0051 00081 (/bigdata/qiuhan/codet5/usage/goroot/test/codegen/mathbits.go:161)	PCDATA	$0, $-1
	0x0051 00081 (/bigdata/qiuhan/codet5/usage/goroot/test/codegen/mathbits.go:161)	JMP	0
	0x0000 49 3b 66 10 76 3c 48 83 ec 10 48 89 6c 24 08 48  I;f.v<H...H.l$.H
	0x0010 8d 6c 24 08 48 0f b6 0d 00 00 00 00 0f 1f 40 00  .l$.H.........@.
	0x0020 85 c9 74 09 31 c9 f3 48 0f b8 c8 eb 08 e8 00 00  ..t.1..H........
	0x0030 00 00 48 89 c1 48 89 c8 48 8b 6c 24 08 48 83 c4  ..H..H..H.l$.H..
	0x0040 10 c3 48 89 44 24 08 e8 00 00 00 00 48 8b 44 24  ..H.D$......H.D$
	0x0050 08 eb ad                                         ...
	rel 24+4 t=14 runtime.x86HasPOPCNT<0>+0
	rel 46+4 t=7 math/bits.OnesCount64<1>+0
	rel 72+4 t=7 runtime.morestack_noctxt<0>+0
command-line-arguments.OnesCount32<1> STEXT size=80 args=0x8 locals=0x10 funcid=0x0 align=0x0
	0x0000 00000 (/bigdata/qiuhan/codet5/usage/goroot/test/codegen/mathbits.go:172)	TEXT	command-line-arguments.OnesCount32(SB), ABIInternal, $16-8
	0x0000 00000 (/bigdata/qiuhan/codet5/usage/goroot/test/codegen/mathbits.go:172)	CMPQ	SP, 16(R14)
	0x0004 00004 (/bigdata/qiuhan/codet5/usage/goroot/test/codegen/mathbits.go:172)	PCDATA	$0, $-2
	0x0004 00004 (/bigdata/qiuhan/codet5/usage/goroot/test/codegen/mathbits.go:172)	JLS	65
	0x0006 00006 (/bigdata/qiuhan/codet5/usage/goroot/test/codegen/mathbits.go:172)	PCDATA	$0, $-1
	0x0006 00006 (/bigdata/qiuhan/codet5/usage/goroot/test/codegen/mathbits.go:172)	SUBQ	$16, SP
	0x000a 00010 (/bigdata/qiuhan/codet5/usage/goroot/test/codegen/mathbits.go:172)	MOVQ	BP, 8(SP)
	0x000f 00015 (/bigdata/qiuhan/codet5/usage/goroot/test/codegen/mathbits.go:172)	LEAQ	8(SP), BP
	0x0014 00020 (/bigdata/qiuhan/codet5/usage/goroot/test/codegen/mathbits.go:172)	FUNCDATA	$0, gclocals·g2BeySu+wFnoycgXfElmcg==(SB)
	0x0014 00020 (/bigdata/qiuhan/codet5/usage/goroot/test/codegen/mathbits.go:172)	FUNCDATA	$1, gclocals·g2BeySu+wFnoycgXfElmcg==(SB)
	0x0014 00020 (/bigdata/qiuhan/codet5/usage/goroot/test/codegen/mathbits.go:172)	FUNCDATA	$5, command-line-arguments.OnesCount32.arginfo1(SB)
	0x0014 00020 (/bigdata/qiuhan/codet5/usage/goroot/test/codegen/mathbits.go:172)	FUNCDATA	$6, command-line-arguments.OnesCount32.argliveinfo(SB)
	0x0014 00020 (/bigdata/qiuhan/codet5/usage/goroot/test/codegen/mathbits.go:172)	PCDATA	$3, $1
	0x0014 00020 (/bigdata/qiuhan/codet5/usage/goroot/test/codegen/mathbits.go:172)	MOVBQZX	runtime.x86HasPOPCNT(SB), CX
	0x001c 00028 (/bigdata/qiuhan/codet5/usage/goroot/test/codegen/mathbits.go:172)	NOP
	0x0020 00032 (/bigdata/qiuhan/codet5/usage/goroot/test/codegen/mathbits.go:172)	TESTL	CX, CX
	0x0022 00034 (/bigdata/qiuhan/codet5/usage/goroot/test/codegen/mathbits.go:180)	JEQ	44
	0x0024 00036 (/bigdata/qiuhan/codet5/usage/goroot/test/codegen/mathbits.go:180)	XORL	CX, CX
	0x0026 00038 (/bigdata/qiuhan/codet5/usage/goroot/test/codegen/mathbits.go:180)	POPCNTL	AX, CX
	0x002a 00042 (/bigdata/qiuhan/codet5/usage/goroot/test/codegen/mathbits.go:180)	JMP	52
	0x002c 00044 (/bigdata/qiuhan/codet5/usage/goroot/test/codegen/mathbits.go:180)	PCDATA	$1, $0
	0x002c 00044 (/bigdata/qiuhan/codet5/usage/goroot/test/codegen/mathbits.go:180)	CALL	math/bits.OnesCount32(SB)
	0x0031 00049 (/bigdata/qiuhan/codet5/usage/goroot/test/codegen/mathbits.go:180)	MOVQ	AX, CX
	0x0034 00052 (/bigdata/qiuhan/codet5/usage/goroot/test/codegen/mathbits.go:180)	MOVQ	CX, AX
	0x0037 00055 (/bigdata/qiuhan/codet5/usage/goroot/test/codegen/mathbits.go:180)	MOVQ	8(SP), BP
	0x003c 00060 (/bigdata/qiuhan/codet5/usage/goroot/test/codegen/mathbits.go:180)	ADDQ	$16, SP
	0x0040 00064 (/bigdata/qiuhan/codet5/usage/goroot/test/codegen/mathbits.go:180)	RET
	0x0041 00065 (/bigdata/qiuhan/codet5/usage/goroot/test/codegen/mathbits.go:180)	NOP
	0x0041 00065 (/bigdata/qiuhan/codet5/usage/goroot/test/codegen/mathbits.go:172)	PCDATA	$1, $-1
	0x0041 00065 (/bigdata/qiuhan/codet5/usage/goroot/test/codegen/mathbits.go:172)	PCDATA	$0, $-2
	0x0041 00065 (/bigdata/qiuhan/codet5/usage/goroot/test/codegen/mathbits.go:172)	MOVL	AX, 8(SP)
	0x0045 00069 (/bigdata/qiuhan/codet5/usage/goroot/test/codegen/mathbits.go:172)	CALL	runtime.morestack_noctxt(SB)
	0x004a 00074 (/bigdata/qiuhan/codet5/usage/goroot/test/codegen/mathbits.go:172)	MOVL	8(SP), AX
	0x004e 00078 (/bigdata/qiuhan/codet5/usage/goroot/test/codegen/mathbits.go:172)	PCDATA	$0, $-1
	0x004e 00078 (/bigdata/qiuhan/codet5/usage/goroot/test/codegen/mathbits.go:172)	JMP	0
	0x0000 49 3b 66 10 76 3b 48 83 ec 10 48 89 6c 24 08 48  I;f.v;H...H.l$.H
	0x0010 8d 6c 24 08 48 0f b6 0d 00 00 00 00 0f 1f 40 00  .l$.H.........@.
	0x0020 85 c9 74 08 31 c9 f3 0f b8 c8 eb 08 e8 00 00 00  ..t.1...........
	0x0030 00 48 89 c1 48 89 c8 48 8b 6c 24 08 48 83 c4 10  .H..H..H.l$.H...
	0x0040 c3 89 44 24 08 e8 00 00 00 00 8b 44 24 08 eb b0  ..D$.......D$...
	rel 24+4 t=14 runtime.x86HasPOPCNT<0>+0
	rel 45+4 t=7 math/bits.OnesCount32<1>+0
	rel 70+4 t=7 runtime.morestack_noctxt<0>+0
command-line-arguments.OnesCount16<1> STEXT size=83 args=0x8 locals=0x10 funcid=0x0 align=0x0
	0x0000 00000 (/bigdata/qiuhan/codet5/usage/goroot/test/codegen/mathbits.go:183)	TEXT	command-line-arguments.OnesCount16(SB), ABIInternal, $16-8
	0x0000 00000 (/bigdata/qiuhan/codet5/usage/goroot/test/codegen/mathbits.go:183)	CMPQ	SP, 16(R14)
	0x0004 00004 (/bigdata/qiuhan/codet5/usage/goroot/test/codegen/mathbits.go:183)	PCDATA	$0, $-2
	0x0004 00004 (/bigdata/qiuhan/codet5/usage/goroot/test/codegen/mathbits.go:183)	JLS	66
	0x0006 00006 (/bigdata/qiuhan/codet5/usage/goroot/test/codegen/mathbits.go:183)	PCDATA	$0, $-1
	0x0006 00006 (/bigdata/qiuhan/codet5/usage/goroot/test/codegen/mathbits.go:183)	SUBQ	$16, SP
	0x000a 00010 (/bigdata/qiuhan/codet5/usage/goroot/test/codegen/mathbits.go:183)	MOVQ	BP, 8(SP)
	0x000f 00015 (/bigdata/qiuhan/codet5/usage/goroot/test/codegen/mathbits.go:183)	LEAQ	8(SP), BP
	0x0014 00020 (/bigdata/qiuhan/codet5/usage/goroot/test/codegen/mathbits.go:183)	FUNCDATA	$0, gclocals·g2BeySu+wFnoycgXfElmcg==(SB)
	0x0014 00020 (/bigdata/qiuhan/codet5/usage/goroot/test/codegen/mathbits.go:183)	FUNCDATA	$1, gclocals·g2BeySu+wFnoycgXfElmcg==(SB)
	0x0014 00020 (/bigdata/qiuhan/codet5/usage/goroot/test/codegen/mathbits.go:183)	FUNCDATA	$5, command-line-arguments.OnesCount16.arginfo1(SB)
	0x0014 00020 (/bigdata/qiuhan/codet5/usage/goroot/test/codegen/mathbits.go:183)	FUNCDATA	$6, command-line-arguments.OnesCount16.argliveinfo(SB)
	0x0014 00020 (/bigdata/qiuhan/codet5/usage/goroot/test/codegen/mathbits.go:183)	PCDATA	$3, $1
	0x0014 00020 (/bigdata/qiuhan/codet5/usage/goroot/test/codegen/mathbits.go:183)	MOVBQZX	runtime.x86HasPOPCNT(SB), CX
	0x001c 00028 (/bigdata/qiuhan/codet5/usage/goroot/test/codegen/mathbits.go:183)	NOP
	0x0020 00032 (/bigdata/qiuhan/codet5/usage/goroot/test/codegen/mathbits.go:183)	TESTL	CX, CX
	0x0022 00034 (/bigdata/qiuhan/codet5/usage/goroot/test/codegen/mathbits.go:191)	JEQ	45
	0x0024 00036 (/bigdata/qiuhan/codet5/usage/goroot/test/codegen/mathbits.go:191)	MOVWLZX	AX, CX
	0x0027 00039 (/bigdata/qiuhan/codet5/usage/goroot/test/codegen/mathbits.go:191)	POPCNTL	CX, CX
	0x002b 00043 (/bigdata/qiuhan/codet5/usage/goroot/test/codegen/mathbits.go:191)	JMP	53
	0x002d 00045 (/bigdata/qiuhan/codet5/usage/goroot/test/codegen/mathbits.go:191)	PCDATA	$1, $0
	0x002d 00045 (/bigdata/qiuhan/codet5/usage/goroot/test/codegen/mathbits.go:191)	CALL	math/bits.OnesCount16(SB)
	0x0032 00050 (/bigdata/qiuhan/codet5/usage/goroot/test/codegen/mathbits.go:191)	MOVQ	AX, CX
	0x0035 00053 (/bigdata/qiuhan/codet5/usage/goroot/test/codegen/mathbits.go:191)	MOVQ	CX, AX
	0x0038 00056 (/bigdata/qiuhan/codet5/usage/goroot/test/codegen/mathbits.go:191)	MOVQ	8(SP), BP
	0x003d 00061 (/bigdata/qiuhan/codet5/usage/goroot/test/codegen/mathbits.go:191)	ADDQ	$16, SP
	0x0041 00065 (/bigdata/qiuhan/codet5/usage/goroot/test/codegen/mathbits.go:191)	RET
	0x0042 00066 (/bigdata/qiuhan/codet5/usage/goroot/test/codegen/mathbits.go:191)	NOP
	0x0042 00066 (/bigdata/qiuhan/codet5/usage/goroot/test/codegen/mathbits.go:183)	PCDATA	$1, $-1
	0x0042 00066 (/bigdata/qiuhan/codet5/usage/goroot/test/codegen/mathbits.go:183)	PCDATA	$0, $-2
	0x0042 00066 (/bigdata/qiuhan/codet5/usage/goroot/test/codegen/mathbits.go:183)	MOVW	AX, 8(SP)
	0x0047 00071 (/bigdata/qiuhan/codet5/usage/goroot/test/codegen/mathbits.go:183)	CALL	runtime.morestack_noctxt(SB)
	0x004c 00076 (/bigdata/qiuhan/codet5/usage/goroot/test/codegen/mathbits.go:183)	MOVWLZX	8(SP), AX
	0x0051 00081 (/bigdata/qiuhan/codet5/usage/goroot/test/codegen/mathbits.go:183)	PCDATA	$0, $-1
	0x0051 00081 (/bigdata/qiuhan/codet5/usage/goroot/test/codegen/mathbits.go:183)	JMP	0
	0x0000 49 3b 66 10 76 3c 48 83 ec 10 48 89 6c 24 08 48  I;f.v<H...H.l$.H
	0x0010 8d 6c 24 08 48 0f b6 0d 00 00 00 00 0f 1f 40 00  .l$.H.........@.
	0x0020 85 c9 74 09 0f b7 c8 f3 0f b8 c9 eb 08 e8 00 00  ..t.............
	0x0030 00 00 48 89 c1 48 89 c8 48 8b 6c 24 08 48 83 c4  ..H..H..H.l$.H..
	0x0040 10 c3 66 89 44 24 08 e8 00 00 00 00 0f b7 44 24  ..f.D$........D$
	0x0050 08 eb ad                                         ...
	rel 24+4 t=14 runtime.x86HasPOPCNT<0>+0
	rel 46+4 t=7 math/bits.OnesCount16<1>+0
	rel 72+4 t=7 runtime.morestack_noctxt<0>+0
command-line-arguments.OnesCount8<1> STEXT nosplit size=15 args=0x8 locals=0x0 funcid=0x0 align=0x0
	0x0000 00000 (/bigdata/qiuhan/codet5/usage/goroot/test/codegen/mathbits.go:194)	TEXT	command-line-arguments.OnesCount8(SB), NOSPLIT|ABIInternal, $0-8
	0x0000 00000 (/bigdata/qiuhan/codet5/usage/goroot/test/codegen/mathbits.go:194)	FUNCDATA	$0, gclocals·g2BeySu+wFnoycgXfElmcg==(SB)
	0x0000 00000 (/bigdata/qiuhan/codet5/usage/goroot/test/codegen/mathbits.go:194)	FUNCDATA	$1, gclocals·g2BeySu+wFnoycgXfElmcg==(SB)
	0x0000 00000 (/bigdata/qiuhan/codet5/usage/goroot/test/codegen/mathbits.go:194)	FUNCDATA	$5, command-line-arguments.OnesCount8.arginfo1(SB)
	0x0000 00000 (/bigdata/qiuhan/codet5/usage/goroot/test/codegen/mathbits.go:194)	FUNCDATA	$6, command-line-arguments.OnesCount8.argliveinfo(SB)
	0x0000 00000 (/bigdata/qiuhan/codet5/usage/goroot/test/codegen/mathbits.go:194)	PCDATA	$3, $1
	0x0000 00000 (<unknown line number>)	NOP
	0x0000 00000 (/bigdata/qiuhan/codet5/usage/goroot/test/codegen/mathbits.go:199)	MOVBLZX	AL, CX
	0x0003 00003 (/bigdata/qiuhan/codet5/usage/goroot/test/codegen/mathbits.go:199)	LEAQ	go:string..gostring.256.IIS8Kia8zlWqeowMPazRBA==(SB), DX
	0x000a 00010 (/bigdata/qiuhan/codet5/usage/goroot/test/codegen/mathbits.go:199)	MOVBLZX	(DX)(CX*1), AX
	0x000e 00014 (/bigdata/qiuhan/codet5/usage/goroot/test/codegen/mathbits.go:199)	RET
	0x0000 0f b6 c8 48 8d 15 00 00 00 00 0f b6 04 0a c3     ...H...........
	rel 6+4 t=14 go:string..gostring.256.IIS8Kia8zlWqeowMPazRBA==<0>+0
command-line-arguments.ReverseBytes<1> STEXT nosplit size=4 args=0x8 locals=0x0 funcid=0x0 align=0x0
	0x0000 00000 (/bigdata/qiuhan/codet5/usage/goroot/test/codegen/mathbits.go:206)	TEXT	command-line-arguments.ReverseBytes(SB), NOSPLIT|ABIInternal, $0-8
	0x0000 00000 (/bigdata/qiuhan/codet5/usage/goroot/test/codegen/mathbits.go:206)	FUNCDATA	$0, gclocals·g2BeySu+wFnoycgXfElmcg==(SB)
	0x0000 00000 (/bigdata/qiuhan/codet5/usage/goroot/test/codegen/mathbits.go:206)	FUNCDATA	$1, gclocals·g2BeySu+wFnoycgXfElmcg==(SB)
	0x0000 00000 (/bigdata/qiuhan/codet5/usage/goroot/test/codegen/mathbits.go:206)	FUNCDATA	$5, command-line-arguments.ReverseBytes.arginfo1(SB)
	0x0000 00000 (/bigdata/qiuhan/codet5/usage/goroot/test/codegen/mathbits.go:206)	FUNCDATA	$6, command-line-arguments.ReverseBytes.argliveinfo(SB)
	0x0000 00000 (/bigdata/qiuhan/codet5/usage/goroot/test/codegen/mathbits.go:206)	PCDATA	$3, $1
	0x0000 00000 (<unknown line number>)	NOP
	0x0000 00000 (/bigdata/qiuhan/codet5/usage/goroot/test/codegen/mathbits.go:210)	BSWAPQ	AX
	0x0003 00003 (/bigdata/qiuhan/codet5/usage/goroot/test/codegen/mathbits.go:210)	RET
	0x0000 48 0f c8 c3                                      H...
command-line-arguments.ReverseBytes64<1> STEXT nosplit size=4 args=0x8 locals=0x0 funcid=0x0 align=0x0
	0x0000 00000 (/bigdata/qiuhan/codet5/usage/goroot/test/codegen/mathbits.go:213)	TEXT	command-line-arguments.ReverseBytes64(SB), NOSPLIT|ABIInternal, $0-8
	0x0000 00000 (/bigdata/qiuhan/codet5/usage/goroot/test/codegen/mathbits.go:213)	FUNCDATA	$0, gclocals·g2BeySu+wFnoycgXfElmcg==(SB)
	0x0000 00000 (/bigdata/qiuhan/codet5/usage/goroot/test/codegen/mathbits.go:213)	FUNCDATA	$1, gclocals·g2BeySu+wFnoycgXfElmcg==(SB)
	0x0000 00000 (/bigdata/qiuhan/codet5/usage/goroot/test/codegen/mathbits.go:213)	FUNCDATA	$5, command-line-arguments.ReverseBytes64.arginfo1(SB)
	0x0000 00000 (/bigdata/qiuhan/codet5/usage/goroot/test/codegen/mathbits.go:213)	FUNCDATA	$6, command-line-arguments.ReverseBytes64.argliveinfo(SB)
	0x0000 00000 (/bigdata/qiuhan/codet5/usage/goroot/test/codegen/mathbits.go:213)	PCDATA	$3, $1
	0x0000 00000 (/bigdata/qiuhan/codet5/usage/goroot/test/codegen/mathbits.go:217)	BSWAPQ	AX
	0x0003 00003 (/bigdata/qiuhan/codet5/usage/goroot/test/codegen/mathbits.go:217)	RET
	0x0000 48 0f c8 c3                                      H...
command-line-arguments.ReverseBytes32<1> STEXT nosplit size=3 args=0x8 locals=0x0 funcid=0x0 align=0x0
	0x0000 00000 (/bigdata/qiuhan/codet5/usage/goroot/test/codegen/mathbits.go:220)	TEXT	command-line-arguments.ReverseBytes32(SB), NOSPLIT|ABIInternal, $0-8
	0x0000 00000 (/bigdata/qiuhan/codet5/usage/goroot/test/codegen/mathbits.go:220)	FUNCDATA	$0, gclocals·g2BeySu+wFnoycgXfElmcg==(SB)
	0x0000 00000 (/bigdata/qiuhan/codet5/usage/goroot/test/codegen/mathbits.go:220)	FUNCDATA	$1, gclocals·g2BeySu+wFnoycgXfElmcg==(SB)
	0x0000 00000 (/bigdata/qiuhan/codet5/usage/goroot/test/codegen/mathbits.go:220)	FUNCDATA	$5, command-line-arguments.ReverseBytes32.arginfo1(SB)
	0x0000 00000 (/bigdata/qiuhan/codet5/usage/goroot/test/codegen/mathbits.go:220)	FUNCDATA	$6, command-line-arguments.ReverseBytes32.argliveinfo(SB)
	0x0000 00000 (/bigdata/qiuhan/codet5/usage/goroot/test/codegen/mathbits.go:220)	PCDATA	$3, $1
	0x0000 00000 (/bigdata/qiuhan/codet5/usage/goroot/test/codegen/mathbits.go:224)	BSWAPL	AX
	0x0002 00002 (/bigdata/qiuhan/codet5/usage/goroot/test/codegen/mathbits.go:224)	RET
	0x0000 0f c8 c3                                         ...
command-line-arguments.ReverseBytes16<1> STEXT nosplit size=5 args=0x8 locals=0x0 funcid=0x0 align=0x0
	0x0000 00000 (/bigdata/qiuhan/codet5/usage/goroot/test/codegen/mathbits.go:227)	TEXT	command-line-arguments.ReverseBytes16(SB), NOSPLIT|ABIInternal, $0-8
	0x0000 00000 (/bigdata/qiuhan/codet5/usage/goroot/test/codegen/mathbits.go:227)	FUNCDATA	$0, gclocals·g2BeySu+wFnoycgXfElmcg==(SB)
	0x0000 00000 (/bigdata/qiuhan/codet5/usage/goroot/test/codegen/mathbits.go:227)	FUNCDATA	$1, gclocals·g2BeySu+wFnoycgXfElmcg==(SB)
	0x0000 00000 (/bigdata/qiuhan/codet5/usage/goroot/test/codegen/mathbits.go:227)	FUNCDATA	$5, command-line-arguments.ReverseBytes16.arginfo1(SB)
	0x0000 00000 (/bigdata/qiuhan/codet5/usage/goroot/test/codegen/mathbits.go:227)	FUNCDATA	$6, command-line-arguments.ReverseBytes16.argliveinfo(SB)
	0x0000 00000 (/bigdata/qiuhan/codet5/usage/goroot/test/codegen/mathbits.go:227)	PCDATA	$3, $1
	0x0000 00000 (<unknown line number>)	NOP
	0x0000 00000 (/bigdata/qiuhan/codet5/usage/goroot/test/codegen/mathbits.go:233)	ROLW	$8, AX
	0x0004 00004 (/bigdata/qiuhan/codet5/usage/goroot/test/codegen/mathbits.go:233)	RET
	0x0000 66 c1 c0 08 c3                                   f....
command-line-arguments.RotateLeft64<1> STEXT nosplit size=5 args=0x8 locals=0x0 funcid=0x0 align=0x0
	0x0000 00000 (/bigdata/qiuhan/codet5/usage/goroot/test/codegen/mathbits.go:240)	TEXT	command-line-arguments.RotateLeft64(SB), NOSPLIT|ABIInternal, $0-8
	0x0000 00000 (/bigdata/qiuhan/codet5/usage/goroot/test/codegen/mathbits.go:240)	FUNCDATA	$0, gclocals·g2BeySu+wFnoycgXfElmcg==(SB)
	0x0000 00000 (/bigdata/qiuhan/codet5/usage/goroot/test/codegen/mathbits.go:240)	FUNCDATA	$1, gclocals·g2BeySu+wFnoycgXfElmcg==(SB)
	0x0000 00000 (/bigdata/qiuhan/codet5/usage/goroot/test/codegen/mathbits.go:240)	FUNCDATA	$5, command-line-arguments.RotateLeft64.arginfo1(SB)
	0x0000 00000 (/bigdata/qiuhan/codet5/usage/goroot/test/codegen/mathbits.go:240)	FUNCDATA	$6, command-line-arguments.RotateLeft64.argliveinfo(SB)
	0x0000 00000 (/bigdata/qiuhan/codet5/usage/goroot/test/codegen/mathbits.go:240)	PCDATA	$3, $1
	0x0000 00000 (/bigdata/qiuhan/codet5/usage/goroot/test/codegen/mathbits.go:247)	ROLQ	$37, AX
	0x0004 00004 (/bigdata/qiuhan/codet5/usage/goroot/test/codegen/mathbits.go:247)	RET
	0x0000 48 c1 c0 25 c3                                   H..%.
command-line-arguments.RotateLeft32<1> STEXT nosplit size=4 args=0x8 locals=0x0 funcid=0x0 align=0x0
	0x0000 00000 (/bigdata/qiuhan/codet5/usage/goroot/test/codegen/mathbits.go:250)	TEXT	command-line-arguments.RotateLeft32(SB), NOSPLIT|ABIInternal, $0-8
	0x0000 00000 (/bigdata/qiuhan/codet5/usage/goroot/test/codegen/mathbits.go:250)	FUNCDATA	$0, gclocals·g2BeySu+wFnoycgXfElmcg==(SB)
	0x0000 00000 (/bigdata/qiuhan/codet5/usage/goroot/test/codegen/mathbits.go:250)	FUNCDATA	$1, gclocals·g2BeySu+wFnoycgXfElmcg==(SB)
	0x0000 00000 (/bigdata/qiuhan/codet5/usage/goroot/test/codegen/mathbits.go:250)	FUNCDATA	$5, command-line-arguments.RotateLeft32.arginfo1(SB)
	0x0000 00000 (/bigdata/qiuhan/codet5/usage/goroot/test/codegen/mathbits.go:250)	FUNCDATA	$6, command-line-arguments.RotateLeft32.argliveinfo(SB)
	0x0000 00000 (/bigdata/qiuhan/codet5/usage/goroot/test/codegen/mathbits.go:250)	PCDATA	$3, $1
	0x0000 00000 (/bigdata/qiuhan/codet5/usage/goroot/test/codegen/mathbits.go:258)	ROLL	$9, AX
	0x0003 00003 (/bigdata/qiuhan/codet5/usage/goroot/test/codegen/mathbits.go:258)	RET
	0x0000 c1 c0 09 c3                                      ....
command-line-arguments.RotateLeft16<1> STEXT nosplit size=7 args=0x10 locals=0x0 funcid=0x0 align=0x0
	0x0000 00000 (/bigdata/qiuhan/codet5/usage/goroot/test/codegen/mathbits.go:261)	TEXT	command-line-arguments.RotateLeft16(SB), NOSPLIT|ABIInternal, $0-16
	0x0000 00000 (/bigdata/qiuhan/codet5/usage/goroot/test/codegen/mathbits.go:261)	FUNCDATA	$0, gclocals·g2BeySu+wFnoycgXfElmcg==(SB)
	0x0000 00000 (/bigdata/qiuhan/codet5/usage/goroot/test/codegen/mathbits.go:261)	FUNCDATA	$1, gclocals·g2BeySu+wFnoycgXfElmcg==(SB)
	0x0000 00000 (/bigdata/qiuhan/codet5/usage/goroot/test/codegen/mathbits.go:261)	FUNCDATA	$5, command-line-arguments.RotateLeft16.arginfo1(SB)
	0x0000 00000 (/bigdata/qiuhan/codet5/usage/goroot/test/codegen/mathbits.go:261)	FUNCDATA	$6, command-line-arguments.RotateLeft16.argliveinfo(SB)
	0x0000 00000 (/bigdata/qiuhan/codet5/usage/goroot/test/codegen/mathbits.go:261)	PCDATA	$3, $1
	0x0000 00000 (/bigdata/qiuhan/codet5/usage/goroot/test/codegen/mathbits.go:264)	MOVQ	BX, CX
	0x0003 00003 (/bigdata/qiuhan/codet5/usage/goroot/test/codegen/mathbits.go:264)	ROLW	CX, AX
	0x0006 00006 (/bigdata/qiuhan/codet5/usage/goroot/test/codegen/mathbits.go:264)	RET
	0x0000 48 89 d9 66 d3 c0 c3                             H..f...
command-line-arguments.RotateLeft8<1> STEXT nosplit size=6 args=0x10 locals=0x0 funcid=0x0 align=0x0
	0x0000 00000 (/bigdata/qiuhan/codet5/usage/goroot/test/codegen/mathbits.go:267)	TEXT	command-line-arguments.RotateLeft8(SB), NOSPLIT|ABIInternal, $0-16
	0x0000 00000 (/bigdata/qiuhan/codet5/usage/goroot/test/codegen/mathbits.go:267)	FUNCDATA	$0, gclocals·g2BeySu+wFnoycgXfElmcg==(SB)
	0x0000 00000 (/bigdata/qiuhan/codet5/usage/goroot/test/codegen/mathbits.go:267)	FUNCDATA	$1, gclocals·g2BeySu+wFnoycgXfElmcg==(SB)
	0x0000 00000 (/bigdata/qiuhan/codet5/usage/goroot/test/codegen/mathbits.go:267)	FUNCDATA	$5, command-line-arguments.RotateLeft8.arginfo1(SB)
	0x0000 00000 (/bigdata/qiuhan/codet5/usage/goroot/test/codegen/mathbits.go:267)	FUNCDATA	$6, command-line-arguments.RotateLeft8.argliveinfo(SB)
	0x0000 00000 (/bigdata/qiuhan/codet5/usage/goroot/test/codegen/mathbits.go:267)	PCDATA	$3, $1
	0x0000 00000 (/bigdata/qiuhan/codet5/usage/goroot/test/codegen/mathbits.go:270)	MOVQ	BX, CX
	0x0003 00003 (/bigdata/qiuhan/codet5/usage/goroot/test/codegen/mathbits.go:270)	ROLB	CL, AL
	0x0005 00005 (/bigdata/qiuhan/codet5/usage/goroot/test/codegen/mathbits.go:270)	RET
	0x0000 48 89 d9 d2 c0 c3                                H.....
command-line-arguments.RotateLeftVariable<1> STEXT nosplit size=7 args=0x10 locals=0x0 funcid=0x0 align=0x0
	0x0000 00000 (/bigdata/qiuhan/codet5/usage/goroot/test/codegen/mathbits.go:273)	TEXT	command-line-arguments.RotateLeftVariable(SB), NOSPLIT|ABIInternal, $0-16
	0x0000 00000 (/bigdata/qiuhan/codet5/usage/goroot/test/codegen/mathbits.go:273)	FUNCDATA	$0, gclocals·g2BeySu+wFnoycgXfElmcg==(SB)
	0x0000 00000 (/bigdata/qiuhan/codet5/usage/goroot/test/codegen/mathbits.go:273)	FUNCDATA	$1, gclocals·g2BeySu+wFnoycgXfElmcg==(SB)
	0x0000 00000 (/bigdata/qiuhan/codet5/usage/goroot/test/codegen/mathbits.go:273)	FUNCDATA	$5, command-line-arguments.RotateLeftVariable.arginfo1(SB)
	0x0000 00000 (/bigdata/qiuhan/codet5/usage/goroot/test/codegen/mathbits.go:273)	FUNCDATA	$6, command-line-arguments.RotateLeftVariable.argliveinfo(SB)
	0x0000 00000 (/bigdata/qiuhan/codet5/usage/goroot/test/codegen/mathbits.go:273)	PCDATA	$3, $1
	0x0000 00000 (/bigdata/qiuhan/codet5/usage/goroot/test/codegen/mathbits.go:280)	MOVQ	BX, CX
	0x0003 00003 (/bigdata/qiuhan/codet5/usage/goroot/test/codegen/mathbits.go:280)	ROLQ	CX, AX
	0x0006 00006 (/bigdata/qiuhan/codet5/usage/goroot/test/codegen/mathbits.go:280)	RET
	0x0000 48 89 d9 48 d3 c0 c3                             H..H...
command-line-arguments.RotateLeftVariable64<1> STEXT nosplit size=7 args=0x10 locals=0x0 funcid=0x0 align=0x0
	0x0000 00000 (/bigdata/qiuhan/codet5/usage/goroot/test/codegen/mathbits.go:283)	TEXT	command-line-arguments.RotateLeftVariable64(SB), NOSPLIT|ABIInternal, $0-16
	0x0000 00000 (/bigdata/qiuhan/codet5/usage/goroot/test/codegen/mathbits.go:283)	FUNCDATA	$0, gclocals·g2BeySu+wFnoycgXfElmcg==(SB)
	0x0000 00000 (/bigdata/qiuhan/codet5/usage/goroot/test/codegen/mathbits.go:283)	FUNCDATA	$1, gclocals·g2BeySu+wFnoycgXfElmcg==(SB)
	0x0000 00000 (/bigdata/qiuhan/codet5/usage/goroot/test/codegen/mathbits.go:283)	FUNCDATA	$5, command-line-arguments.RotateLeftVariable64.arginfo1(SB)
	0x0000 00000 (/bigdata/qiuhan/codet5/usage/goroot/test/codegen/mathbits.go:283)	FUNCDATA	$6, command-line-arguments.RotateLeftVariable64.argliveinfo(SB)
	0x0000 00000 (/bigdata/qiuhan/codet5/usage/goroot/test/codegen/mathbits.go:283)	PCDATA	$3, $1
	0x0000 00000 (/bigdata/qiuhan/codet5/usage/goroot/test/codegen/mathbits.go:290)	MOVQ	BX, CX
	0x0003 00003 (/bigdata/qiuhan/codet5/usage/goroot/test/codegen/mathbits.go:290)	ROLQ	CX, AX
	0x0006 00006 (/bigdata/qiuhan/codet5/usage/goroot/test/codegen/mathbits.go:290)	RET
	0x0000 48 89 d9 48 d3 c0 c3                             H..H...
command-line-arguments.RotateLeftVariable32<1> STEXT nosplit size=6 args=0x10 locals=0x0 funcid=0x0 align=0x0
	0x0000 00000 (/bigdata/qiuhan/codet5/usage/goroot/test/codegen/mathbits.go:293)	TEXT	command-line-arguments.RotateLeftVariable32(SB), NOSPLIT|ABIInternal, $0-16
	0x0000 00000 (/bigdata/qiuhan/codet5/usage/goroot/test/codegen/mathbits.go:293)	FUNCDATA	$0, gclocals·g2BeySu+wFnoycgXfElmcg==(SB)
	0x0000 00000 (/bigdata/qiuhan/codet5/usage/goroot/test/codegen/mathbits.go:293)	FUNCDATA	$1, gclocals·g2BeySu+wFnoycgXfElmcg==(SB)
	0x0000 00000 (/bigdata/qiuhan/codet5/usage/goroot/test/codegen/mathbits.go:293)	FUNCDATA	$5, command-line-arguments.RotateLeftVariable32.arginfo1(SB)
	0x0000 00000 (/bigdata/qiuhan/codet5/usage/goroot/test/codegen/mathbits.go:293)	FUNCDATA	$6, command-line-arguments.RotateLeftVariable32.argliveinfo(SB)
	0x0000 00000 (/bigdata/qiuhan/codet5/usage/goroot/test/codegen/mathbits.go:293)	PCDATA	$3, $1
	0x0000 00000 (/bigdata/qiuhan/codet5/usage/goroot/test/codegen/mathbits.go:301)	MOVQ	BX, CX
	0x0003 00003 (/bigdata/qiuhan/codet5/usage/goroot/test/codegen/mathbits.go:301)	ROLL	CX, AX
	0x0005 00005 (/bigdata/qiuhan/codet5/usage/goroot/test/codegen/mathbits.go:301)	RET
	0x0000 48 89 d9 d3 c0 c3                                H.....
command-line-arguments.TrailingZeros<1> STEXT nosplit size=14 args=0x8 locals=0x0 funcid=0x0 align=0x0
	0x0000 00000 (/bigdata/qiuhan/codet5/usage/goroot/test/codegen/mathbits.go:308)	TEXT	command-line-arguments.TrailingZeros(SB), NOSPLIT|ABIInternal, $0-8
	0x0000 00000 (/bigdata/qiuhan/codet5/usage/goroot/test/codegen/mathbits.go:308)	FUNCDATA	$0, gclocals·g2BeySu+wFnoycgXfElmcg==(SB)
	0x0000 00000 (/bigdata/qiuhan/codet5/usage/goroot/test/codegen/mathbits.go:308)	FUNCDATA	$1, gclocals·g2BeySu+wFnoycgXfElmcg==(SB)
	0x0000 00000 (/bigdata/qiuhan/codet5/usage/goroot/test/codegen/mathbits.go:308)	FUNCDATA	$5, command-line-arguments.TrailingZeros.arginfo1(SB)
	0x0000 00000 (/bigdata/qiuhan/codet5/usage/goroot/test/codegen/mathbits.go:308)	FUNCDATA	$6, command-line-arguments.TrailingZeros.argliveinfo(SB)
	0x0000 00000 (/bigdata/qiuhan/codet5/usage/goroot/test/codegen/mathbits.go:308)	PCDATA	$3, $1
	0x0000 00000 (/bigdata/qiuhan/codet5/usage/goroot/test/codegen/mathbits.go:319)	BSFQ	AX, AX
	0x0004 00004 (/bigdata/qiuhan/codet5/usage/goroot/test/codegen/mathbits.go:319)	MOVL	$64, CX
	0x0009 00009 (/bigdata/qiuhan/codet5/usage/goroot/test/codegen/mathbits.go:319)	CMOVQEQ	CX, AX
	0x000d 00013 (<unknown line number>)	NOP
	0x000d 00013 (/bigdata/qiuhan/codet5/usage/goroot/test/codegen/mathbits.go:319)	RET
	0x0000 48 0f bc c0 b9 40 00 00 00 48 0f 44 c1 c3        H....@...H.D..
command-line-arguments.TrailingZeros64<1> STEXT nosplit size=14 args=0x8 locals=0x0 funcid=0x0 align=0x0
	0x0000 00000 (/bigdata/qiuhan/codet5/usage/goroot/test/codegen/mathbits.go:322)	TEXT	command-line-arguments.TrailingZeros64(SB), NOSPLIT|ABIInternal, $0-8
	0x0000 00000 (/bigdata/qiuhan/codet5/usage/goroot/test/codegen/mathbits.go:322)	FUNCDATA	$0, gclocals·g2BeySu+wFnoycgXfElmcg==(SB)
	0x0000 00000 (/bigdata/qiuhan/codet5/usage/goroot/test/codegen/mathbits.go:322)	FUNCDATA	$1, gclocals·g2BeySu+wFnoycgXfElmcg==(SB)
	0x0000 00000 (/bigdata/qiuhan/codet5/usage/goroot/test/codegen/mathbits.go:322)	FUNCDATA	$5, command-line-arguments.TrailingZeros64.arginfo1(SB)
	0x0000 00000 (/bigdata/qiuhan/codet5/usage/goroot/test/codegen/mathbits.go:322)	FUNCDATA	$6, command-line-arguments.TrailingZeros64.argliveinfo(SB)
	0x0000 00000 (/bigdata/qiuhan/codet5/usage/goroot/test/codegen/mathbits.go:322)	PCDATA	$3, $1
	0x0000 00000 (/bigdata/qiuhan/codet5/usage/goroot/test/codegen/mathbits.go:332)	BSFQ	AX, AX
	0x0004 00004 (/bigdata/qiuhan/codet5/usage/goroot/test/codegen/mathbits.go:332)	MOVL	$64, CX
	0x0009 00009 (/bigdata/qiuhan/codet5/usage/goroot/test/codegen/mathbits.go:332)	CMOVQEQ	CX, AX
	0x000d 00013 (/bigdata/qiuhan/codet5/usage/goroot/test/codegen/mathbits.go:332)	RET
	0x0000 48 0f bc c0 b9 40 00 00 00 48 0f 44 c1 c3        H....@...H.D..
command-line-arguments.TrailingZeros64Subtract<1> STEXT nosplit size=21 args=0x8 locals=0x0 funcid=0x0 align=0x0
	0x0000 00000 (/bigdata/qiuhan/codet5/usage/goroot/test/codegen/mathbits.go:335)	TEXT	command-line-arguments.TrailingZeros64Subtract(SB), NOSPLIT|ABIInternal, $0-8
	0x0000 00000 (/bigdata/qiuhan/codet5/usage/goroot/test/codegen/mathbits.go:335)	FUNCDATA	$0, gclocals·g2BeySu+wFnoycgXfElmcg==(SB)
	0x0000 00000 (/bigdata/qiuhan/codet5/usage/goroot/test/codegen/mathbits.go:335)	FUNCDATA	$1, gclocals·g2BeySu+wFnoycgXfElmcg==(SB)
	0x0000 00000 (/bigdata/qiuhan/codet5/usage/goroot/test/codegen/mathbits.go:335)	FUNCDATA	$5, command-line-arguments.TrailingZeros64Subtract.arginfo1(SB)
	0x0000 00000 (/bigdata/qiuhan/codet5/usage/goroot/test/codegen/mathbits.go:335)	FUNCDATA	$6, command-line-arguments.TrailingZeros64Subtract.argliveinfo(SB)
	0x0000 00000 (/bigdata/qiuhan/codet5/usage/goroot/test/codegen/mathbits.go:335)	PCDATA	$3, $1
	0x0000 00000 (/bigdata/qiuhan/codet5/usage/goroot/test/codegen/mathbits.go:338)	LEAQ	-1(AX), CX
	0x0004 00004 (/bigdata/qiuhan/codet5/usage/goroot/test/codegen/mathbits.go:338)	NEGQ	CX
	0x0007 00007 (/bigdata/qiuhan/codet5/usage/goroot/test/codegen/mathbits.go:338)	BSFQ	CX, AX
	0x000b 00011 (/bigdata/qiuhan/codet5/usage/goroot/test/codegen/mathbits.go:338)	MOVL	$64, CX
	0x0010 00016 (/bigdata/qiuhan/codet5/usage/goroot/test/codegen/mathbits.go:338)	CMOVQEQ	CX, AX
	0x0014 00020 (/bigdata/qiuhan/codet5/usage/goroot/test/codegen/mathbits.go:338)	RET
	0x0000 48 8d 48 ff 48 f7 d9 48 0f bc c1 b9 40 00 00 00  H.H.H..H....@...
	0x0010 48 0f 44 c1 c3                                   H.D..
command-line-arguments.TrailingZeros32<1> STEXT nosplit size=10 args=0x8 locals=0x0 funcid=0x0 align=0x0
	0x0000 00000 (/bigdata/qiuhan/codet5/usage/goroot/test/codegen/mathbits.go:341)	TEXT	command-line-arguments.TrailingZeros32(SB), NOSPLIT|ABIInternal, $0-8
	0x0000 00000 (/bigdata/qiuhan/codet5/usage/goroot/test/codegen/mathbits.go:341)	FUNCDATA	$0, gclocals·g2BeySu+wFnoycgXfElmcg==(SB)
	0x0000 00000 (/bigdata/qiuhan/codet5/usage/goroot/test/codegen/mathbits.go:341)	FUNCDATA	$1, gclocals·g2BeySu+wFnoycgXfElmcg==(SB)
	0x0000 00000 (/bigdata/qiuhan/codet5/usage/goroot/test/codegen/mathbits.go:341)	FUNCDATA	$5, command-line-arguments.TrailingZeros32.arginfo1(SB)
	0x0000 00000 (/bigdata/qiuhan/codet5/usage/goroot/test/codegen/mathbits.go:341)	FUNCDATA	$6, command-line-arguments.TrailingZeros32.argliveinfo(SB)
	0x0000 00000 (/bigdata/qiuhan/codet5/usage/goroot/test/codegen/mathbits.go:341)	PCDATA	$3, $1
	0x0000 00000 (/bigdata/qiuhan/codet5/usage/goroot/test/codegen/mathbits.go:352)	BTSQ	$32, AX
	0x0005 00005 (/bigdata/qiuhan/codet5/usage/goroot/test/codegen/mathbits.go:352)	BSFQ	AX, AX
	0x0009 00009 (/bigdata/qiuhan/codet5/usage/goroot/test/codegen/mathbits.go:352)	RET
	0x0000 48 0f ba e8 20 48 0f bc c0 c3                    H... H....
command-line-arguments.TrailingZeros16<1> STEXT nosplit size=8 args=0x8 locals=0x0 funcid=0x0 align=0x0
	0x0000 00000 (/bigdata/qiuhan/codet5/usage/goroot/test/codegen/mathbits.go:355)	TEXT	command-line-arguments.TrailingZeros16(SB), NOSPLIT|ABIInternal, $0-8
	0x0000 00000 (/bigdata/qiuhan/codet5/usage/goroot/test/codegen/mathbits.go:355)	FUNCDATA	$0, gclocals·g2BeySu+wFnoycgXfElmcg==(SB)
	0x0000 00000 (/bigdata/qiuhan/codet5/usage/goroot/test/codegen/mathbits.go:355)	FUNCDATA	$1, gclocals·g2BeySu+wFnoycgXfElmcg==(SB)
	0x0000 00000 (/bigdata/qiuhan/codet5/usage/goroot/test/codegen/mathbits.go:355)	FUNCDATA	$5, command-line-arguments.TrailingZeros16.arginfo1(SB)
	0x0000 00000 (/bigdata/qiuhan/codet5/usage/goroot/test/codegen/mathbits.go:355)	FUNCDATA	$6, command-line-arguments.TrailingZeros16.argliveinfo(SB)
	0x0000 00000 (/bigdata/qiuhan/codet5/usage/goroot/test/codegen/mathbits.go:355)	PCDATA	$3, $1
	0x0000 00000 (/bigdata/qiuhan/codet5/usage/goroot/test/codegen/mathbits.go:366)	BTSL	$16, AX
	0x0004 00004 (/bigdata/qiuhan/codet5/usage/goroot/test/codegen/mathbits.go:366)	BSFL	AX, AX
	0x0007 00007 (/bigdata/qiuhan/codet5/usage/goroot/test/codegen/mathbits.go:366)	RET
	0x0000 0f ba e8 10 0f bc c0 c3                          ........
command-line-arguments.TrailingZeros8<1> STEXT nosplit size=8 args=0x8 locals=0x0 funcid=0x0 align=0x0
	0x0000 00000 (/bigdata/qiuhan/codet5/usage/goroot/test/codegen/mathbits.go:369)	TEXT	command-line-arguments.TrailingZeros8(SB), NOSPLIT|ABIInternal, $0-8
	0x0000 00000 (/bigdata/qiuhan/codet5/usage/goroot/test/codegen/mathbits.go:369)	FUNCDATA	$0, gclocals·g2BeySu+wFnoycgXfElmcg==(SB)
	0x0000 00000 (/bigdata/qiuhan/codet5/usage/goroot/test/codegen/mathbits.go:369)	FUNCDATA	$1, gclocals·g2BeySu+wFnoycgXfElmcg==(SB)
	0x0000 00000 (/bigdata/qiuhan/codet5/usage/goroot/test/codegen/mathbits.go:369)	FUNCDATA	$5, command-line-arguments.TrailingZeros8.arginfo1(SB)
	0x0000 00000 (/bigdata/qiuhan/codet5/usage/goroot/test/codegen/mathbits.go:369)	FUNCDATA	$6, command-line-arguments.TrailingZeros8.argliveinfo(SB)
	0x0000 00000 (/bigdata/qiuhan/codet5/usage/goroot/test/codegen/mathbits.go:369)	PCDATA	$3, $1
	0x0000 00000 (/bigdata/qiuhan/codet5/usage/goroot/test/codegen/mathbits.go:375)	BTSL	$8, AX
	0x0004 00004 (/bigdata/qiuhan/codet5/usage/goroot/test/codegen/mathbits.go:375)	BSFL	AX, AX
	0x0007 00007 (/bigdata/qiuhan/codet5/usage/goroot/test/codegen/mathbits.go:375)	RET
	0x0000 0f ba e8 08 0f bc c0 c3                          ........
command-line-arguments.IterateBits<1> STEXT nosplit size=27 args=0x8 locals=0x0 funcid=0x0 align=0x0
	0x0000 00000 (/bigdata/qiuhan/codet5/usage/goroot/test/codegen/mathbits.go:380)	TEXT	command-line-arguments.IterateBits(SB), NOSPLIT|ABIInternal, $0-8
	0x0000 00000 (/bigdata/qiuhan/codet5/usage/goroot/test/codegen/mathbits.go:380)	FUNCDATA	$0, gclocals·g2BeySu+wFnoycgXfElmcg==(SB)
	0x0000 00000 (/bigdata/qiuhan/codet5/usage/goroot/test/codegen/mathbits.go:380)	FUNCDATA	$1, gclocals·g2BeySu+wFnoycgXfElmcg==(SB)
	0x0000 00000 (/bigdata/qiuhan/codet5/usage/goroot/test/codegen/mathbits.go:380)	FUNCDATA	$5, command-line-arguments.IterateBits.arginfo1(SB)
	0x0000 00000 (/bigdata/qiuhan/codet5/usage/goroot/test/codegen/mathbits.go:380)	FUNCDATA	$6, command-line-arguments.IterateBits.argliveinfo(SB)
	0x0000 00000 (/bigdata/qiuhan/codet5/usage/goroot/test/codegen/mathbits.go:380)	PCDATA	$3, $1
	0x0000 00000 (/bigdata/qiuhan/codet5/usage/goroot/test/codegen/mathbits.go:380)	XORL	CX, CX
	0x0002 00002 (/bigdata/qiuhan/codet5/usage/goroot/test/codegen/mathbits.go:382)	JMP	18
	0x0004 00004 (/bigdata/qiuhan/codet5/usage/goroot/test/codegen/mathbits.go:385)	BSFQ	AX, DX
	0x0008 00008 (/bigdata/qiuhan/codet5/usage/goroot/test/codegen/mathbits.go:385)	ADDQ	DX, CX
	0x000b 00011 (<unknown line number>)	NOP
	0x000b 00011 (/bigdata/qiuhan/codet5/usage/goroot/test/codegen/mathbits.go:386)	LEAQ	-1(AX), DX
	0x000f 00015 (/bigdata/qiuhan/codet5/usage/goroot/test/codegen/mathbits.go:386)	ANDQ	DX, AX
	0x0012 00018 (/bigdata/qiuhan/codet5/usage/goroot/test/codegen/mathbits.go:382)	TESTQ	AX, AX
	0x0015 00021 (/bigdata/qiuhan/codet5/usage/goroot/test/codegen/mathbits.go:382)	JNE	4
	0x0017 00023 (/bigdata/qiuhan/codet5/usage/goroot/test/codegen/mathbits.go:388)	MOVQ	CX, AX
	0x001a 00026 (/bigdata/qiuhan/codet5/usage/goroot/test/codegen/mathbits.go:388)	RET
	0x0000 31 c9 eb 0e 48 0f bc d0 48 01 d1 48 8d 50 ff 48  1...H...H..H.P.H
	0x0010 21 d0 48 85 c0 75 ed 48 89 c8 c3                 !.H..u.H...
command-line-arguments.IterateBits64<1> STEXT nosplit size=27 args=0x8 locals=0x0 funcid=0x0 align=0x0
	0x0000 00000 (/bigdata/qiuhan/codet5/usage/goroot/test/codegen/mathbits.go:391)	TEXT	command-line-arguments.IterateBits64(SB), NOSPLIT|ABIInternal, $0-8
	0x0000 00000 (/bigdata/qiuhan/codet5/usage/goroot/test/codegen/mathbits.go:391)	FUNCDATA	$0, gclocals·g2BeySu+wFnoycgXfElmcg==(SB)
	0x0000 00000 (/bigdata/qiuhan/codet5/usage/goroot/test/codegen/mathbits.go:391)	FUNCDATA	$1, gclocals·g2BeySu+wFnoycgXfElmcg==(SB)
	0x0000 00000 (/bigdata/qiuhan/codet5/usage/goroot/test/codegen/mathbits.go:391)	FUNCDATA	$5, command-line-arguments.IterateBits64.arginfo1(SB)
	0x0000 00000 (/bigdata/qiuhan/codet5/usage/goroot/test/codegen/mathbits.go:391)	FUNCDATA	$6, command-line-arguments.IterateBits64.argliveinfo(SB)
	0x0000 00000 (/bigdata/qiuhan/codet5/usage/goroot/test/codegen/mathbits.go:391)	PCDATA	$3, $1
	0x0000 00000 (/bigdata/qiuhan/codet5/usage/goroot/test/codegen/mathbits.go:391)	XORL	CX, CX
	0x0002 00002 (/bigdata/qiuhan/codet5/usage/goroot/test/codegen/mathbits.go:393)	JMP	18
	0x0004 00004 (/bigdata/qiuhan/codet5/usage/goroot/test/codegen/mathbits.go:396)	BSFQ	AX, DX
	0x0008 00008 (/bigdata/qiuhan/codet5/usage/goroot/test/codegen/mathbits.go:396)	ADDQ	DX, CX
	0x000b 00011 (/bigdata/qiuhan/codet5/usage/goroot/test/codegen/mathbits.go:397)	LEAQ	-1(AX), DX
	0x000f 00015 (/bigdata/qiuhan/codet5/usage/goroot/test/codegen/mathbits.go:397)	ANDQ	DX, AX
	0x0012 00018 (/bigdata/qiuhan/codet5/usage/goroot/test/codegen/mathbits.go:393)	TESTQ	AX, AX
	0x0015 00021 (/bigdata/qiuhan/codet5/usage/goroot/test/codegen/mathbits.go:393)	JNE	4
	0x0017 00023 (/bigdata/qiuhan/codet5/usage/goroot/test/codegen/mathbits.go:399)	MOVQ	CX, AX
	0x001a 00026 (/bigdata/qiuhan/codet5/usage/goroot/test/codegen/mathbits.go:399)	RET
	0x0000 31 c9 eb 0e 48 0f bc d0 48 01 d1 48 8d 50 ff 48  1...H...H..H.P.H
	0x0010 21 d0 48 85 c0 75 ed 48 89 c8 c3                 !.H..u.H...
command-line-arguments.IterateBits32<1> STEXT nosplit size=23 args=0x8 locals=0x0 funcid=0x0 align=0x0
	0x0000 00000 (/bigdata/qiuhan/codet5/usage/goroot/test/codegen/mathbits.go:402)	TEXT	command-line-arguments.IterateBits32(SB), NOSPLIT|ABIInternal, $0-8
	0x0000 00000 (/bigdata/qiuhan/codet5/usage/goroot/test/codegen/mathbits.go:402)	FUNCDATA	$0, gclocals·g2BeySu+wFnoycgXfElmcg==(SB)
	0x0000 00000 (/bigdata/qiuhan/codet5/usage/goroot/test/codegen/mathbits.go:402)	FUNCDATA	$1, gclocals·g2BeySu+wFnoycgXfElmcg==(SB)
	0x0000 00000 (/bigdata/qiuhan/codet5/usage/goroot/test/codegen/mathbits.go:402)	FUNCDATA	$5, command-line-arguments.IterateBits32.arginfo1(SB)
	0x0000 00000 (/bigdata/qiuhan/codet5/usage/goroot/test/codegen/mathbits.go:402)	FUNCDATA	$6, command-line-arguments.IterateBits32.argliveinfo(SB)
	0x0000 00000 (/bigdata/qiuhan/codet5/usage/goroot/test/codegen/mathbits.go:402)	PCDATA	$3, $1
	0x0000 00000 (/bigdata/qiuhan/codet5/usage/goroot/test/codegen/mathbits.go:402)	XORL	CX, CX
	0x0002 00002 (/bigdata/qiuhan/codet5/usage/goroot/test/codegen/mathbits.go:404)	JMP	15
	0x0004 00004 (/bigdata/qiuhan/codet5/usage/goroot/test/codegen/mathbits.go:407)	BSFL	AX, DX
	0x0007 00007 (/bigdata/qiuhan/codet5/usage/goroot/test/codegen/mathbits.go:407)	ADDQ	DX, CX
	0x000a 00010 (/bigdata/qiuhan/codet5/usage/goroot/test/codegen/mathbits.go:408)	LEAL	-1(AX), DX
	0x000d 00013 (/bigdata/qiuhan/codet5/usage/goroot/test/codegen/mathbits.go:408)	ANDL	DX, AX
	0x000f 00015 (/bigdata/qiuhan/codet5/usage/goroot/test/codegen/mathbits.go:404)	TESTL	AX, AX
	0x0011 00017 (/bigdata/qiuhan/codet5/usage/goroot/test/codegen/mathbits.go:404)	JNE	4
	0x0013 00019 (/bigdata/qiuhan/codet5/usage/goroot/test/codegen/mathbits.go:410)	MOVQ	CX, AX
	0x0016 00022 (/bigdata/qiuhan/codet5/usage/goroot/test/codegen/mathbits.go:410)	RET
	0x0000 31 c9 eb 0b 0f bc d0 48 01 d1 8d 50 ff 21 d0 85  1......H...P.!..
	0x0010 c0 75 f1 48 89 c8 c3                             .u.H...
command-line-arguments.IterateBits16<1> STEXT nosplit size=24 args=0x8 locals=0x0 funcid=0x0 align=0x0
	0x0000 00000 (/bigdata/qiuhan/codet5/usage/goroot/test/codegen/mathbits.go:413)	TEXT	command-line-arguments.IterateBits16(SB), NOSPLIT|ABIInternal, $0-8
	0x0000 00000 (/bigdata/qiuhan/codet5/usage/goroot/test/codegen/mathbits.go:413)	FUNCDATA	$0, gclocals·g2BeySu+wFnoycgXfElmcg==(SB)
	0x0000 00000 (/bigdata/qiuhan/codet5/usage/goroot/test/codegen/mathbits.go:413)	FUNCDATA	$1, gclocals·g2BeySu+wFnoycgXfElmcg==(SB)
	0x0000 00000 (/bigdata/qiuhan/codet5/usage/goroot/test/codegen/mathbits.go:413)	FUNCDATA	$5, command-line-arguments.IterateBits16.arginfo1(SB)
	0x0000 00000 (/bigdata/qiuhan/codet5/usage/goroot/test/codegen/mathbits.go:413)	FUNCDATA	$6, command-line-arguments.IterateBits16.argliveinfo(SB)
	0x0000 00000 (/bigdata/qiuhan/codet5/usage/goroot/test/codegen/mathbits.go:413)	PCDATA	$3, $1
	0x0000 00000 (/bigdata/qiuhan/codet5/usage/goroot/test/codegen/mathbits.go:413)	XORL	CX, CX
	0x0002 00002 (/bigdata/qiuhan/codet5/usage/goroot/test/codegen/mathbits.go:415)	JMP	15
	0x0004 00004 (/bigdata/qiuhan/codet5/usage/goroot/test/codegen/mathbits.go:419)	BSFL	AX, DX
	0x0007 00007 (/bigdata/qiuhan/codet5/usage/goroot/test/codegen/mathbits.go:419)	ADDQ	DX, CX
	0x000a 00010 (/bigdata/qiuhan/codet5/usage/goroot/test/codegen/mathbits.go:420)	LEAL	-1(AX), DX
	0x000d 00013 (/bigdata/qiuhan/codet5/usage/goroot/test/codegen/mathbits.go:420)	ANDL	DX, AX
	0x000f 00015 (/bigdata/qiuhan/codet5/usage/goroot/test/codegen/mathbits.go:415)	TESTW	AX, AX
	0x0012 00018 (/bigdata/qiuhan/codet5/usage/goroot/test/codegen/mathbits.go:415)	JNE	4
	0x0014 00020 (/bigdata/qiuhan/codet5/usage/goroot/test/codegen/mathbits.go:422)	MOVQ	CX, AX
	0x0017 00023 (/bigdata/qiuhan/codet5/usage/goroot/test/codegen/mathbits.go:422)	RET
	0x0000 31 c9 eb 0b 0f bc d0 48 01 d1 8d 50 ff 21 d0 66  1......H...P.!.f
	0x0010 85 c0 75 f0 48 89 c8 c3                          ..u.H...
command-line-arguments.IterateBits8<1> STEXT nosplit size=23 args=0x8 locals=0x0 funcid=0x0 align=0x0
	0x0000 00000 (/bigdata/qiuhan/codet5/usage/goroot/test/codegen/mathbits.go:425)	TEXT	command-line-arguments.IterateBits8(SB), NOSPLIT|ABIInternal, $0-8
	0x0000 00000 (/bigdata/qiuhan/codet5/usage/goroot/test/codegen/mathbits.go:425)	FUNCDATA	$0, gclocals·g2BeySu+wFnoycgXfElmcg==(SB)
	0x0000 00000 (/bigdata/qiuhan/codet5/usage/goroot/test/codegen/mathbits.go:425)	FUNCDATA	$1, gclocals·g2BeySu+wFnoycgXfElmcg==(SB)
	0x0000 00000 (/bigdata/qiuhan/codet5/usage/goroot/test/codegen/mathbits.go:425)	FUNCDATA	$5, command-line-arguments.IterateBits8.arginfo1(SB)
	0x0000 00000 (/bigdata/qiuhan/codet5/usage/goroot/test/codegen/mathbits.go:425)	FUNCDATA	$6, command-line-arguments.IterateBits8.argliveinfo(SB)
	0x0000 00000 (/bigdata/qiuhan/codet5/usage/goroot/test/codegen/mathbits.go:425)	PCDATA	$3, $1
	0x0000 00000 (/bigdata/qiuhan/codet5/usage/goroot/test/codegen/mathbits.go:425)	XORL	CX, CX
	0x0002 00002 (/bigdata/qiuhan/codet5/usage/goroot/test/codegen/mathbits.go:427)	JMP	15
	0x0004 00004 (/bigdata/qiuhan/codet5/usage/goroot/test/codegen/mathbits.go:431)	BSFL	AX, DX
	0x0007 00007 (/bigdata/qiuhan/codet5/usage/goroot/test/codegen/mathbits.go:431)	ADDQ	DX, CX
	0x000a 00010 (/bigdata/qiuhan/codet5/usage/goroot/test/codegen/mathbits.go:432)	LEAL	-1(AX), DX
	0x000d 00013 (/bigdata/qiuhan/codet5/usage/goroot/test/codegen/mathbits.go:432)	ANDL	DX, AX
	0x000f 00015 (/bigdata/qiuhan/codet5/usage/goroot/test/codegen/mathbits.go:427)	TESTB	AL, AL
	0x0011 00017 (/bigdata/qiuhan/codet5/usage/goroot/test/codegen/mathbits.go:427)	JNE	4
	0x0013 00019 (/bigdata/qiuhan/codet5/usage/goroot/test/codegen/mathbits.go:434)	MOVQ	CX, AX
	0x0016 00022 (/bigdata/qiuhan/codet5/usage/goroot/test/codegen/mathbits.go:434)	RET
	0x0000 31 c9 eb 0b 0f bc d0 48 01 d1 8d 50 ff 21 d0 84  1......H...P.!..
	0x0010 c0 75 f1 48 89 c8 c3                             .u.H...
command-line-arguments.Add<1> STEXT nosplit size=12 args=0x18 locals=0x0 funcid=0x0 align=0x0
	0x0000 00000 (/bigdata/qiuhan/codet5/usage/goroot/test/codegen/mathbits.go:441)	TEXT	command-line-arguments.Add(SB), NOSPLIT|ABIInternal, $0-24
	0x0000 00000 (/bigdata/qiuhan/codet5/usage/goroot/test/codegen/mathbits.go:441)	FUNCDATA	$0, gclocals·g2BeySu+wFnoycgXfElmcg==(SB)
	0x0000 00000 (/bigdata/qiuhan/codet5/usage/goroot/test/codegen/mathbits.go:441)	FUNCDATA	$1, gclocals·g2BeySu+wFnoycgXfElmcg==(SB)
	0x0000 00000 (/bigdata/qiuhan/codet5/usage/goroot/test/codegen/mathbits.go:441)	FUNCDATA	$5, command-line-arguments.Add.arginfo1(SB)
	0x0000 00000 (/bigdata/qiuhan/codet5/usage/goroot/test/codegen/mathbits.go:441)	FUNCDATA	$6, command-line-arguments.Add.argliveinfo(SB)
	0x0000 00000 (/bigdata/qiuhan/codet5/usage/goroot/test/codegen/mathbits.go:441)	PCDATA	$3, $1
	0x0000 00000 (/bigdata/qiuhan/codet5/usage/goroot/test/codegen/mathbits.go:448)	NEGL	CX
	0x0002 00002 (/bigdata/qiuhan/codet5/usage/goroot/test/codegen/mathbits.go:448)	ADCQ	BX, AX
	0x0005 00005 (/bigdata/qiuhan/codet5/usage/goroot/test/codegen/mathbits.go:448)	SBBQ	BX, BX
	0x0008 00008 (/bigdata/qiuhan/codet5/usage/goroot/test/codegen/mathbits.go:448)	NEGQ	BX
	0x000b 00011 (/bigdata/qiuhan/codet5/usage/goroot/test/codegen/mathbits.go:448)	RET
	0x0000 f7 d9 48 11 d8 48 19 db 48 f7 db c3              ..H..H..H...
command-line-arguments.AddC<1> STEXT nosplit size=13 args=0x10 locals=0x0 funcid=0x0 align=0x0
	0x0000 00000 (/bigdata/qiuhan/codet5/usage/goroot/test/codegen/mathbits.go:451)	TEXT	command-line-arguments.AddC(SB), NOSPLIT|ABIInternal, $0-16
	0x0000 00000 (/bigdata/qiuhan/codet5/usage/goroot/test/codegen/mathbits.go:451)	FUNCDATA	$0, gclocals·g2BeySu+wFnoycgXfElmcg==(SB)
	0x0000 00000 (/bigdata/qiuhan/codet5/usage/goroot/test/codegen/mathbits.go:451)	FUNCDATA	$1, gclocals·g2BeySu+wFnoycgXfElmcg==(SB)
	0x0000 00000 (/bigdata/qiuhan/codet5/usage/goroot/test/codegen/mathbits.go:451)	FUNCDATA	$5, command-line-arguments.AddC.arginfo1(SB)
	0x0000 00000 (/bigdata/qiuhan/codet5/usage/goroot/test/codegen/mathbits.go:451)	FUNCDATA	$6, command-line-arguments.AddC.argliveinfo(SB)
	0x0000 00000 (/bigdata/qiuhan/codet5/usage/goroot/test/codegen/mathbits.go:451)	PCDATA	$3, $1
	0x0000 00000 (/bigdata/qiuhan/codet5/usage/goroot/test/codegen/mathbits.go:459)	NEGL	BX
	0x0002 00002 (/bigdata/qiuhan/codet5/usage/goroot/test/codegen/mathbits.go:459)	ADCQ	$7, AX
	0x0006 00006 (/bigdata/qiuhan/codet5/usage/goroot/test/codegen/mathbits.go:459)	SBBQ	BX, BX
	0x0009 00009 (/bigdata/qiuhan/codet5/usage/goroot/test/codegen/mathbits.go:459)	NEGQ	BX
	0x000c 00012 (/bigdata/qiuhan/codet5/usage/goroot/test/codegen/mathbits.go:459)	RET
	0x0000 f7 db 48 83 d0 07 48 19 db 48 f7 db c3           ..H...H..H...
command-line-arguments.AddZ<1> STEXT nosplit size=10 args=0x10 locals=0x0 funcid=0x0 align=0x0
	0x0000 00000 (/bigdata/qiuhan/codet5/usage/goroot/test/codegen/mathbits.go:462)	TEXT	command-line-arguments.AddZ(SB), NOSPLIT|ABIInternal, $0-16
	0x0000 00000 (/bigdata/qiuhan/codet5/usage/goroot/test/codegen/mathbits.go:462)	FUNCDATA	$0, gclocals·g2BeySu+wFnoycgXfElmcg==(SB)
	0x0000 00000 (/bigdata/qiuhan/codet5/usage/goroot/test/codegen/mathbits.go:462)	FUNCDATA	$1, gclocals·g2BeySu+wFnoycgXfElmcg==(SB)
	0x0000 00000 (/bigdata/qiuhan/codet5/usage/goroot/test/codegen/mathbits.go:462)	FUNCDATA	$5, command-line-arguments.AddZ.arginfo1(SB)
	0x0000 00000 (/bigdata/qiuhan/codet5/usage/goroot/test/codegen/mathbits.go:462)	FUNCDATA	$6, command-line-arguments.AddZ.argliveinfo(SB)
	0x0000 00000 (/bigdata/qiuhan/codet5/usage/goroot/test/codegen/mathbits.go:462)	PCDATA	$3, $1
	0x0000 00000 (/bigdata/qiuhan/codet5/usage/goroot/test/codegen/mathbits.go:470)	ADDQ	BX, AX
	0x0003 00003 (/bigdata/qiuhan/codet5/usage/goroot/test/codegen/mathbits.go:470)	SBBQ	BX, BX
	0x0006 00006 (/bigdata/qiuhan/codet5/usage/goroot/test/codegen/mathbits.go:470)	NEGQ	BX
	0x0009 00009 (/bigdata/qiuhan/codet5/usage/goroot/test/codegen/mathbits.go:470)	RET
	0x0000 48 01 d8 48 19 db 48 f7 db c3                    H..H..H...
command-line-arguments.AddR<1> STEXT nosplit size=6 args=0x18 locals=0x0 funcid=0x0 align=0x0
	0x0000 00000 (/bigdata/qiuhan/codet5/usage/goroot/test/codegen/mathbits.go:473)	TEXT	command-line-arguments.AddR(SB), NOSPLIT|ABIInternal, $0-24
	0x0000 00000 (/bigdata/qiuhan/codet5/usage/goroot/test/codegen/mathbits.go:473)	FUNCDATA	$0, gclocals·g2BeySu+wFnoycgXfElmcg==(SB)
	0x0000 00000 (/bigdata/qiuhan/codet5/usage/goroot/test/codegen/mathbits.go:473)	FUNCDATA	$1, gclocals·g2BeySu+wFnoycgXfElmcg==(SB)
	0x0000 00000 (/bigdata/qiuhan/codet5/usage/goroot/test/codegen/mathbits.go:473)	FUNCDATA	$5, command-line-arguments.AddR.arginfo1(SB)
	0x0000 00000 (/bigdata/qiuhan/codet5/usage/goroot/test/codegen/mathbits.go:473)	FUNCDATA	$6, command-line-arguments.AddR.argliveinfo(SB)
	0x0000 00000 (/bigdata/qiuhan/codet5/usage/goroot/test/codegen/mathbits.go:473)	PCDATA	$3, $1
	0x0000 00000 (/bigdata/qiuhan/codet5/usage/goroot/test/codegen/mathbits.go:481)	NEGL	CX
	0x0002 00002 (/bigdata/qiuhan/codet5/usage/goroot/test/codegen/mathbits.go:481)	ADCQ	BX, AX
	0x0005 00005 (/bigdata/qiuhan/codet5/usage/goroot/test/codegen/mathbits.go:482)	RET
	0x0000 f7 d9 48 11 d8 c3                                ..H...
command-line-arguments.AddM<1> STEXT nosplit size=43 args=0x18 locals=0x0 funcid=0x0 align=0x0
	0x0000 00000 (/bigdata/qiuhan/codet5/usage/goroot/test/codegen/mathbits.go:485)	TEXT	command-line-arguments.AddM(SB), NOSPLIT|ABIInternal, $0-24
	0x0000 00000 (/bigdata/qiuhan/codet5/usage/goroot/test/codegen/mathbits.go:485)	FUNCDATA	$0, gclocals·LlfHo70um+DIUn9rjx/QUA==(SB)
	0x0000 00000 (/bigdata/qiuhan/codet5/usage/goroot/test/codegen/mathbits.go:485)	FUNCDATA	$1, gclocals·J5F+7Qw7O7ve2QcWC7DpeQ==(SB)
	0x0000 00000 (/bigdata/qiuhan/codet5/usage/goroot/test/codegen/mathbits.go:485)	FUNCDATA	$5, command-line-arguments.AddM.arginfo1(SB)
	0x0000 00000 (/bigdata/qiuhan/codet5/usage/goroot/test/codegen/mathbits.go:485)	FUNCDATA	$6, command-line-arguments.AddM.argliveinfo(SB)
	0x0000 00000 (/bigdata/qiuhan/codet5/usage/goroot/test/codegen/mathbits.go:485)	PCDATA	$3, $1
	0x0000 00000 (/bigdata/qiuhan/codet5/usage/goroot/test/codegen/mathbits.go:487)	MOVQ	(AX), DX
	0x0003 00003 (/bigdata/qiuhan/codet5/usage/goroot/test/codegen/mathbits.go:487)	MOVQ	(BX), SI
	0x0006 00006 (/bigdata/qiuhan/codet5/usage/goroot/test/codegen/mathbits.go:487)	ADDQ	DX, SI
	0x0009 00009 (/bigdata/qiuhan/codet5/usage/goroot/test/codegen/mathbits.go:487)	MOVQ	SI, (CX)
	0x000c 00012 (/bigdata/qiuhan/codet5/usage/goroot/test/codegen/mathbits.go:491)	MOVQ	8(AX), DX
	0x0010 00016 (/bigdata/qiuhan/codet5/usage/goroot/test/codegen/mathbits.go:491)	MOVQ	8(BX), SI
	0x0014 00020 (/bigdata/qiuhan/codet5/usage/goroot/test/codegen/mathbits.go:491)	ADCQ	DX, SI
	0x0017 00023 (/bigdata/qiuhan/codet5/usage/goroot/test/codegen/mathbits.go:491)	MOVQ	SI, 8(CX)
	0x001b 00027 (/bigdata/qiuhan/codet5/usage/goroot/test/codegen/mathbits.go:492)	MOVQ	16(AX), AX
	0x001f 00031 (/bigdata/qiuhan/codet5/usage/goroot/test/codegen/mathbits.go:492)	MOVQ	16(BX), DX
	0x0023 00035 (/bigdata/qiuhan/codet5/usage/goroot/test/codegen/mathbits.go:492)	ADCQ	DX, AX
	0x0026 00038 (/bigdata/qiuhan/codet5/usage/goroot/test/codegen/mathbits.go:492)	MOVQ	AX, 16(CX)
	0x002a 00042 (/bigdata/qiuhan/codet5/usage/goroot/test/codegen/mathbits.go:493)	RET
	0x0000 48 8b 10 48 8b 33 48 01 d6 48 89 31 48 8b 50 08  H..H.3H..H.1H.P.
	0x0010 48 8b 73 08 48 11 d6 48 89 71 08 48 8b 40 10 48  H.s.H..H.q.H.@.H
	0x0020 8b 53 10 48 11 d0 48 89 41 10 c3                 .S.H..H.A..
command-line-arguments.Add64<1> STEXT nosplit size=12 args=0x18 locals=0x0 funcid=0x0 align=0x0
	0x0000 00000 (/bigdata/qiuhan/codet5/usage/goroot/test/codegen/mathbits.go:495)	TEXT	command-line-arguments.Add64(SB), NOSPLIT|ABIInternal, $0-24
	0x0000 00000 (/bigdata/qiuhan/codet5/usage/goroot/test/codegen/mathbits.go:495)	FUNCDATA	$0, gclocals·g2BeySu+wFnoycgXfElmcg==(SB)
	0x0000 00000 (/bigdata/qiuhan/codet5/usage/goroot/test/codegen/mathbits.go:495)	FUNCDATA	$1, gclocals·g2BeySu+wFnoycgXfElmcg==(SB)
	0x0000 00000 (/bigdata/qiuhan/codet5/usage/goroot/test/codegen/mathbits.go:495)	FUNCDATA	$5, command-line-arguments.Add64.arginfo1(SB)
	0x0000 00000 (/bigdata/qiuhan/codet5/usage/goroot/test/codegen/mathbits.go:495)	FUNCDATA	$6, command-line-arguments.Add64.argliveinfo(SB)
	0x0000 00000 (/bigdata/qiuhan/codet5/usage/goroot/test/codegen/mathbits.go:495)	PCDATA	$3, $1
	0x0000 00000 (/bigdata/qiuhan/codet5/usage/goroot/test/codegen/mathbits.go:503)	NEGL	CX
	0x0002 00002 (/bigdata/qiuhan/codet5/usage/goroot/test/codegen/mathbits.go:503)	ADCQ	BX, AX
	0x0005 00005 (/bigdata/qiuhan/codet5/usage/goroot/test/codegen/mathbits.go:503)	SBBQ	BX, BX
	0x0008 00008 (/bigdata/qiuhan/codet5/usage/goroot/test/codegen/mathbits.go:503)	NEGQ	BX
	0x000b 00011 (/bigdata/qiuhan/codet5/usage/goroot/test/codegen/mathbits.go:503)	RET
	0x0000 f7 d9 48 11 d8 48 19 db 48 f7 db c3              ..H..H..H...
command-line-arguments.Add64C<1> STEXT nosplit size=13 args=0x10 locals=0x0 funcid=0x0 align=0x0
	0x0000 00000 (/bigdata/qiuhan/codet5/usage/goroot/test/codegen/mathbits.go:506)	TEXT	command-line-arguments.Add64C(SB), NOSPLIT|ABIInternal, $0-16
	0x0000 00000 (/bigdata/qiuhan/codet5/usage/goroot/test/codegen/mathbits.go:506)	FUNCDATA	$0, gclocals·g2BeySu+wFnoycgXfElmcg==(SB)
	0x0000 00000 (/bigdata/qiuhan/codet5/usage/goroot/test/codegen/mathbits.go:506)	FUNCDATA	$1, gclocals·g2BeySu+wFnoycgXfElmcg==(SB)
	0x0000 00000 (/bigdata/qiuhan/codet5/usage/goroot/test/codegen/mathbits.go:506)	FUNCDATA	$5, command-line-arguments.Add64C.arginfo1(SB)
	0x0000 00000 (/bigdata/qiuhan/codet5/usage/goroot/test/codegen/mathbits.go:506)	FUNCDATA	$6, command-line-arguments.Add64C.argliveinfo(SB)
	0x0000 00000 (/bigdata/qiuhan/codet5/usage/goroot/test/codegen/mathbits.go:506)	PCDATA	$3, $1
	0x0000 00000 (/bigdata/qiuhan/codet5/usage/goroot/test/codegen/mathbits.go:514)	NEGL	BX
	0x0002 00002 (/bigdata/qiuhan/codet5/usage/goroot/test/codegen/mathbits.go:514)	ADCQ	$7, AX
	0x0006 00006 (/bigdata/qiuhan/codet5/usage/goroot/test/codegen/mathbits.go:514)	SBBQ	BX, BX
	0x0009 00009 (/bigdata/qiuhan/codet5/usage/goroot/test/codegen/mathbits.go:514)	NEGQ	BX
	0x000c 00012 (/bigdata/qiuhan/codet5/usage/goroot/test/codegen/mathbits.go:514)	RET
	0x0000 f7 db 48 83 d0 07 48 19 db 48 f7 db c3           ..H...H..H...
command-line-arguments.Add64Z<1> STEXT nosplit size=10 args=0x10 locals=0x0 funcid=0x0 align=0x0
	0x0000 00000 (/bigdata/qiuhan/codet5/usage/goroot/test/codegen/mathbits.go:517)	TEXT	command-line-arguments.Add64Z(SB), NOSPLIT|ABIInternal, $0-16
	0x0000 00000 (/bigdata/qiuhan/codet5/usage/goroot/test/codegen/mathbits.go:517)	FUNCDATA	$0, gclocals·g2BeySu+wFnoycgXfElmcg==(SB)
	0x0000 00000 (/bigdata/qiuhan/codet5/usage/goroot/test/codegen/mathbits.go:517)	FUNCDATA	$1, gclocals·g2BeySu+wFnoycgXfElmcg==(SB)
	0x0000 00000 (/bigdata/qiuhan/codet5/usage/goroot/test/codegen/mathbits.go:517)	FUNCDATA	$5, command-line-arguments.Add64Z.arginfo1(SB)
	0x0000 00000 (/bigdata/qiuhan/codet5/usage/goroot/test/codegen/mathbits.go:517)	FUNCDATA	$6, command-line-arguments.Add64Z.argliveinfo(SB)
	0x0000 00000 (/bigdata/qiuhan/codet5/usage/goroot/test/codegen/mathbits.go:517)	PCDATA	$3, $1
	0x0000 00000 (/bigdata/qiuhan/codet5/usage/goroot/test/codegen/mathbits.go:525)	ADDQ	BX, AX
	0x0003 00003 (/bigdata/qiuhan/codet5/usage/goroot/test/codegen/mathbits.go:525)	SBBQ	BX, BX
	0x0006 00006 (/bigdata/qiuhan/codet5/usage/goroot/test/codegen/mathbits.go:525)	NEGQ	BX
	0x0009 00009 (/bigdata/qiuhan/codet5/usage/goroot/test/codegen/mathbits.go:525)	RET
	0x0000 48 01 d8 48 19 db 48 f7 db c3                    H..H..H...
command-line-arguments.Add64R<1> STEXT nosplit size=6 args=0x18 locals=0x0 funcid=0x0 align=0x0
	0x0000 00000 (/bigdata/qiuhan/codet5/usage/goroot/test/codegen/mathbits.go:528)	TEXT	command-line-arguments.Add64R(SB), NOSPLIT|ABIInternal, $0-24
	0x0000 00000 (/bigdata/qiuhan/codet5/usage/goroot/test/codegen/mathbits.go:528)	FUNCDATA	$0, gclocals·g2BeySu+wFnoycgXfElmcg==(SB)
	0x0000 00000 (/bigdata/qiuhan/codet5/usage/goroot/test/codegen/mathbits.go:528)	FUNCDATA	$1, gclocals·g2BeySu+wFnoycgXfElmcg==(SB)
	0x0000 00000 (/bigdata/qiuhan/codet5/usage/goroot/test/codegen/mathbits.go:528)	FUNCDATA	$5, command-line-arguments.Add64R.arginfo1(SB)
	0x0000 00000 (/bigdata/qiuhan/codet5/usage/goroot/test/codegen/mathbits.go:528)	FUNCDATA	$6, command-line-arguments.Add64R.argliveinfo(SB)
	0x0000 00000 (/bigdata/qiuhan/codet5/usage/goroot/test/codegen/mathbits.go:528)	PCDATA	$3, $1
	0x0000 00000 (/bigdata/qiuhan/codet5/usage/goroot/test/codegen/mathbits.go:536)	NEGL	CX
	0x0002 00002 (/bigdata/qiuhan/codet5/usage/goroot/test/codegen/mathbits.go:536)	ADCQ	BX, AX
	0x0005 00005 (/bigdata/qiuhan/codet5/usage/goroot/test/codegen/mathbits.go:537)	RET
	0x0000 f7 d9 48 11 d8 c3                                ..H...
command-line-arguments.Add64M<1> STEXT nosplit size=43 args=0x18 locals=0x0 funcid=0x0 align=0x0
	0x0000 00000 (/bigdata/qiuhan/codet5/usage/goroot/test/codegen/mathbits.go:539)	TEXT	command-line-arguments.Add64M(SB), NOSPLIT|ABIInternal, $0-24
	0x0000 00000 (/bigdata/qiuhan/codet5/usage/goroot/test/codegen/mathbits.go:539)	FUNCDATA	$0, gclocals·LlfHo70um+DIUn9rjx/QUA==(SB)
	0x0000 00000 (/bigdata/qiuhan/codet5/usage/goroot/test/codegen/mathbits.go:539)	FUNCDATA	$1, gclocals·J5F+7Qw7O7ve2QcWC7DpeQ==(SB)
	0x0000 00000 (/bigdata/qiuhan/codet5/usage/goroot/test/codegen/mathbits.go:539)	FUNCDATA	$5, command-line-arguments.Add64M.arginfo1(SB)
	0x0000 00000 (/bigdata/qiuhan/codet5/usage/goroot/test/codegen/mathbits.go:539)	FUNCDATA	$6, command-line-arguments.Add64M.argliveinfo(SB)
	0x0000 00000 (/bigdata/qiuhan/codet5/usage/goroot/test/codegen/mathbits.go:539)	PCDATA	$3, $1
	0x0000 00000 (/bigdata/qiuhan/codet5/usage/goroot/test/codegen/mathbits.go:541)	MOVQ	(AX), DX
	0x0003 00003 (/bigdata/qiuhan/codet5/usage/goroot/test/codegen/mathbits.go:541)	MOVQ	(BX), SI
	0x0006 00006 (/bigdata/qiuhan/codet5/usage/goroot/test/codegen/mathbits.go:541)	ADDQ	DX, SI
	0x0009 00009 (/bigdata/qiuhan/codet5/usage/goroot/test/codegen/mathbits.go:541)	MOVQ	SI, (CX)
	0x000c 00012 (/bigdata/qiuhan/codet5/usage/goroot/test/codegen/mathbits.go:547)	MOVQ	8(AX), DX
	0x0010 00016 (/bigdata/qiuhan/codet5/usage/goroot/test/codegen/mathbits.go:547)	MOVQ	8(BX), SI
	0x0014 00020 (/bigdata/qiuhan/codet5/usage/goroot/test/codegen/mathbits.go:547)	ADCQ	DX, SI
	0x0017 00023 (/bigdata/qiuhan/codet5/usage/goroot/test/codegen/mathbits.go:547)	MOVQ	SI, 8(CX)
	0x001b 00027 (/bigdata/qiuhan/codet5/usage/goroot/test/codegen/mathbits.go:548)	MOVQ	16(AX), AX
	0x001f 00031 (/bigdata/qiuhan/codet5/usage/goroot/test/codegen/mathbits.go:548)	MOVQ	16(BX), DX
	0x0023 00035 (/bigdata/qiuhan/codet5/usage/goroot/test/codegen/mathbits.go:548)	ADCQ	DX, AX
	0x0026 00038 (/bigdata/qiuhan/codet5/usage/goroot/test/codegen/mathbits.go:548)	MOVQ	AX, 16(CX)
	0x002a 00042 (/bigdata/qiuhan/codet5/usage/goroot/test/codegen/mathbits.go:549)	RET
	0x0000 48 8b 10 48 8b 33 48 01 d6 48 89 31 48 8b 50 08  H..H.3H..H.1H.P.
	0x0010 48 8b 73 08 48 11 d6 48 89 71 08 48 8b 40 10 48  H.s.H..H.q.H.@.H
	0x0020 8b 53 10 48 11 d0 48 89 41 10 c3                 .S.H..H.A..
command-line-arguments.Add64MSaveC<1> STEXT nosplit size=53 args=0x20 locals=0x0 funcid=0x0 align=0x0
	0x0000 00000 (/bigdata/qiuhan/codet5/usage/goroot/test/codegen/mathbits.go:551)	TEXT	command-line-arguments.Add64MSaveC(SB), NOSPLIT|ABIInternal, $0-32
	0x0000 00000 (/bigdata/qiuhan/codet5/usage/goroot/test/codegen/mathbits.go:551)	FUNCDATA	$0, gclocals·br8UsANEGWp75kzr7DNKRQ==(SB)
	0x0000 00000 (/bigdata/qiuhan/codet5/usage/goroot/test/codegen/mathbits.go:551)	FUNCDATA	$1, gclocals·J5F+7Qw7O7ve2QcWC7DpeQ==(SB)
	0x0000 00000 (/bigdata/qiuhan/codet5/usage/goroot/test/codegen/mathbits.go:551)	FUNCDATA	$5, command-line-arguments.Add64MSaveC.arginfo1(SB)
	0x0000 00000 (/bigdata/qiuhan/codet5/usage/goroot/test/codegen/mathbits.go:551)	FUNCDATA	$6, command-line-arguments.Add64MSaveC.argliveinfo(SB)
	0x0000 00000 (/bigdata/qiuhan/codet5/usage/goroot/test/codegen/mathbits.go:551)	PCDATA	$3, $1
	0x0000 00000 (/bigdata/qiuhan/codet5/usage/goroot/test/codegen/mathbits.go:554)	MOVQ	(AX), DX
	0x0003 00003 (/bigdata/qiuhan/codet5/usage/goroot/test/codegen/mathbits.go:554)	MOVQ	(BX), SI
	0x0006 00006 (/bigdata/qiuhan/codet5/usage/goroot/test/codegen/mathbits.go:554)	MOVQ	SI, R8
	0x0009 00009 (/bigdata/qiuhan/codet5/usage/goroot/test/codegen/mathbits.go:554)	ADDQ	DX, SI
	0x000c 00012 (/bigdata/qiuhan/codet5/usage/goroot/test/codegen/mathbits.go:554)	MOVQ	SI, (CX)
	0x000f 00015 (/bigdata/qiuhan/codet5/usage/goroot/test/codegen/mathbits.go:554)	SBBQ	SI, SI
	0x0012 00018 (/bigdata/qiuhan/codet5/usage/goroot/test/codegen/mathbits.go:554)	NEGQ	SI
	0x0015 00021 (/bigdata/qiuhan/codet5/usage/goroot/test/codegen/mathbits.go:554)	MOVQ	SI, (DI)
	0x0018 00024 (/bigdata/qiuhan/codet5/usage/goroot/test/codegen/mathbits.go:557)	MOVQ	8(AX), AX
	0x001c 00028 (/bigdata/qiuhan/codet5/usage/goroot/test/codegen/mathbits.go:557)	MOVQ	8(BX), BX
	0x0020 00032 (/bigdata/qiuhan/codet5/usage/goroot/test/codegen/mathbits.go:554)	ADDQ	DX, R8
	0x0023 00035 (/bigdata/qiuhan/codet5/usage/goroot/test/codegen/mathbits.go:557)	ADCQ	AX, BX
	0x0026 00038 (/bigdata/qiuhan/codet5/usage/goroot/test/codegen/mathbits.go:557)	SBBQ	AX, AX
	0x0029 00041 (/bigdata/qiuhan/codet5/usage/goroot/test/codegen/mathbits.go:557)	MOVQ	BX, 8(CX)
	0x002d 00045 (/bigdata/qiuhan/codet5/usage/goroot/test/codegen/mathbits.go:557)	NEGQ	AX
	0x0030 00048 (/bigdata/qiuhan/codet5/usage/goroot/test/codegen/mathbits.go:557)	MOVQ	AX, 8(DI)
	0x0034 00052 (/bigdata/qiuhan/codet5/usage/goroot/test/codegen/mathbits.go:558)	RET
	0x0000 48 8b 10 48 8b 33 49 89 f0 48 01 d6 48 89 31 48  H..H.3I..H..H.1H
	0x0010 19 f6 48 f7 de 48 89 37 48 8b 40 08 48 8b 5b 08  ..H..H.7H.@.H.[.
	0x0020 49 01 d0 48 11 c3 48 19 c0 48 89 59 08 48 f7 d8  I..H..H..H.Y.H..
	0x0030 48 89 47 08 c3                                   H.G..
command-line-arguments.Add64PanicOnOverflowEQ<1> STEXT size=98 args=0x10 locals=0x18 funcid=0x0 align=0x0
	0x0000 00000 (/bigdata/qiuhan/codet5/usage/goroot/test/codegen/mathbits.go:560)	TEXT	command-line-arguments.Add64PanicOnOverflowEQ(SB), ABIInternal, $24-16
	0x0000 00000 (/bigdata/qiuhan/codet5/usage/goroot/test/codegen/mathbits.go:560)	CMPQ	SP, 16(R14)
	0x0004 00004 (/bigdata/qiuhan/codet5/usage/goroot/test/codegen/mathbits.go:560)	PCDATA	$0, $-2
	0x0004 00004 (/bigdata/qiuhan/codet5/usage/goroot/test/codegen/mathbits.go:560)	JLS	70
	0x0006 00006 (/bigdata/qiuhan/codet5/usage/goroot/test/codegen/mathbits.go:560)	PCDATA	$0, $-1
	0x0006 00006 (/bigdata/qiuhan/codet5/usage/goroot/test/codegen/mathbits.go:560)	SUBQ	$24, SP
	0x000a 00010 (/bigdata/qiuhan/codet5/usage/goroot/test/codegen/mathbits.go:560)	MOVQ	BP, 16(SP)
	0x000f 00015 (/bigdata/qiuhan/codet5/usage/goroot/test/codegen/mathbits.go:560)	LEAQ	16(SP), BP
	0x0014 00020 (/bigdata/qiuhan/codet5/usage/goroot/test/codegen/mathbits.go:560)	FUNCDATA	$0, gclocals·g2BeySu+wFnoycgXfElmcg==(SB)
	0x0014 00020 (/bigdata/qiuhan/codet5/usage/goroot/test/codegen/mathbits.go:560)	FUNCDATA	$1, gclocals·g2BeySu+wFnoycgXfElmcg==(SB)
	0x0014 00020 (/bigdata/qiuhan/codet5/usage/goroot/test/codegen/mathbits.go:560)	FUNCDATA	$5, command-line-arguments.Add64PanicOnOverflowEQ.arginfo1(SB)
	0x0014 00020 (/bigdata/qiuhan/codet5/usage/goroot/test/codegen/mathbits.go:560)	FUNCDATA	$6, command-line-arguments.Add64PanicOnOverflowEQ.argliveinfo(SB)
	0x0014 00020 (/bigdata/qiuhan/codet5/usage/goroot/test/codegen/mathbits.go:560)	PCDATA	$3, $1
	0x0014 00020 (/bigdata/qiuhan/codet5/usage/goroot/test/codegen/mathbits.go:561)	ADDQ	BX, AX
	0x0017 00023 (/bigdata/qiuhan/codet5/usage/goroot/test/codegen/mathbits.go:561)	SBBQ	CX, CX
	0x001a 00026 (/bigdata/qiuhan/codet5/usage/goroot/test/codegen/mathbits.go:561)	NEGQ	CX
	0x001d 00029 (/bigdata/qiuhan/codet5/usage/goroot/test/codegen/mathbits.go:561)	NOP
	0x0020 00032 (/bigdata/qiuhan/codet5/usage/goroot/test/codegen/mathbits.go:563)	CMPQ	CX, $1
	0x0024 00036 (/bigdata/qiuhan/codet5/usage/goroot/test/codegen/mathbits.go:563)	JEQ	48
	0x0026 00038 (/bigdata/qiuhan/codet5/usage/goroot/test/codegen/mathbits.go:566)	MOVQ	16(SP), BP
	0x002b 00043 (/bigdata/qiuhan/codet5/usage/goroot/test/codegen/mathbits.go:566)	ADDQ	$24, SP
	0x002f 00047 (/bigdata/qiuhan/codet5/usage/goroot/test/codegen/mathbits.go:566)	RET
	0x0030 00048 (/bigdata/qiuhan/codet5/usage/goroot/test/codegen/mathbits.go:564)	LEAQ	type:string(SB), AX
	0x0037 00055 (/bigdata/qiuhan/codet5/usage/goroot/test/codegen/mathbits.go:564)	LEAQ	command-line-arguments..stmp_0(SB), BX
	0x003e 00062 (/bigdata/qiuhan/codet5/usage/goroot/test/codegen/mathbits.go:564)	PCDATA	$1, $0
	0x003e 00062 (/bigdata/qiuhan/codet5/usage/goroot/test/codegen/mathbits.go:564)	NOP
	0x0040 00064 (/bigdata/qiuhan/codet5/usage/goroot/test/codegen/mathbits.go:564)	CALL	runtime.gopanic(SB)
	0x0045 00069 (/bigdata/qiuhan/codet5/usage/goroot/test/codegen/mathbits.go:564)	XCHGL	AX, AX
	0x0046 00070 (/bigdata/qiuhan/codet5/usage/goroot/test/codegen/mathbits.go:564)	NOP
	0x0046 00070 (/bigdata/qiuhan/codet5/usage/goroot/test/codegen/mathbits.go:560)	PCDATA	$1, $-1
	0x0046 00070 (/bigdata/qiuhan/codet5/usage/goroot/test/codegen/mathbits.go:560)	PCDATA	$0, $-2
	0x0046 00070 (/bigdata/qiuhan/codet5/usage/goroot/test/codegen/mathbits.go:560)	MOVQ	AX, 8(SP)
	0x004b 00075 (/bigdata/qiuhan/codet5/usage/goroot/test/codegen/mathbits.go:560)	MOVQ	BX, 16(SP)
	0x0050 00080 (/bigdata/qiuhan/codet5/usage/goroot/test/codegen/mathbits.go:560)	CALL	runtime.morestack_noctxt(SB)
	0x0055 00085 (/bigdata/qiuhan/codet5/usage/goroot/test/codegen/mathbits.go:560)	MOVQ	8(SP), AX
	0x005a 00090 (/bigdata/qiuhan/codet5/usage/goroot/test/codegen/mathbits.go:560)	MOVQ	16(SP), BX
	0x005f 00095 (/bigdata/qiuhan/codet5/usage/goroot/test/codegen/mathbits.go:560)	PCDATA	$0, $-1
	0x005f 00095 (/bigdata/qiuhan/codet5/usage/goroot/test/codegen/mathbits.go:560)	NOP
	0x0060 00096 (/bigdata/qiuhan/codet5/usage/goroot/test/codegen/mathbits.go:560)	JMP	0
	0x0000 49 3b 66 10 76 40 48 83 ec 18 48 89 6c 24 10 48  I;f.v@H...H.l$.H
	0x0010 8d 6c 24 10 48 01 d8 48 19 c9 48 f7 d9 0f 1f 00  .l$.H..H..H.....
	0x0020 48 83 f9 01 74 0a 48 8b 6c 24 10 48 83 c4 18 c3  H...t.H.l$.H....
	0x0030 48 8d 05 00 00 00 00 48 8d 1d 00 00 00 00 66 90  H......H......f.
	0x0040 e8 00 00 00 00 90 48 89 44 24 08 48 89 5c 24 10  ......H.D$.H.\$.
	0x0050 e8 00 00 00 00 48 8b 44 24 08 48 8b 5c 24 10 90  .....H.D$.H.\$..
	0x0060 eb 9e                                            ..
	rel 2+0 t=23 type:string<0>+0
	rel 51+4 t=14 type:string<0>+0
	rel 58+4 t=14 command-line-arguments..stmp_0<0>+0
	rel 65+4 t=7 runtime.gopanic<1>+0
	rel 81+4 t=7 runtime.morestack_noctxt<0>+0
command-line-arguments.Add64PanicOnOverflowNE<1> STEXT size=98 args=0x10 locals=0x18 funcid=0x0 align=0x0
	0x0000 00000 (/bigdata/qiuhan/codet5/usage/goroot/test/codegen/mathbits.go:569)	TEXT	command-line-arguments.Add64PanicOnOverflowNE(SB), ABIInternal, $24-16
	0x0000 00000 (/bigdata/qiuhan/codet5/usage/goroot/test/codegen/mathbits.go:569)	CMPQ	SP, 16(R14)
	0x0004 00004 (/bigdata/qiuhan/codet5/usage/goroot/test/codegen/mathbits.go:569)	PCDATA	$0, $-2
	0x0004 00004 (/bigdata/qiuhan/codet5/usage/goroot/test/codegen/mathbits.go:569)	JLS	70
	0x0006 00006 (/bigdata/qiuhan/codet5/usage/goroot/test/codegen/mathbits.go:569)	PCDATA	$0, $-1
	0x0006 00006 (/bigdata/qiuhan/codet5/usage/goroot/test/codegen/mathbits.go:569)	SUBQ	$24, SP
	0x000a 00010 (/bigdata/qiuhan/codet5/usage/goroot/test/codegen/mathbits.go:569)	MOVQ	BP, 16(SP)
	0x000f 00015 (/bigdata/qiuhan/codet5/usage/goroot/test/codegen/mathbits.go:569)	LEAQ	16(SP), BP
	0x0014 00020 (/bigdata/qiuhan/codet5/usage/goroot/test/codegen/mathbits.go:569)	FUNCDATA	$0, gclocals·g2BeySu+wFnoycgXfElmcg==(SB)
	0x0014 00020 (/bigdata/qiuhan/codet5/usage/goroot/test/codegen/mathbits.go:569)	FUNCDATA	$1, gclocals·g2BeySu+wFnoycgXfElmcg==(SB)
	0x0014 00020 (/bigdata/qiuhan/codet5/usage/goroot/test/codegen/mathbits.go:569)	FUNCDATA	$5, command-line-arguments.Add64PanicOnOverflowNE.arginfo1(SB)
	0x0014 00020 (/bigdata/qiuhan/codet5/usage/goroot/test/codegen/mathbits.go:569)	FUNCDATA	$6, command-line-arguments.Add64PanicOnOverflowNE.argliveinfo(SB)
	0x0014 00020 (/bigdata/qiuhan/codet5/usage/goroot/test/codegen/mathbits.go:569)	PCDATA	$3, $1
	0x0014 00020 (/bigdata/qiuhan/codet5/usage/goroot/test/codegen/mathbits.go:570)	ADDQ	BX, AX
	0x0017 00023 (/bigdata/qiuhan/codet5/usage/goroot/test/codegen/mathbits.go:570)	SBBQ	CX, CX
	0x001a 00026 (/bigdata/qiuhan/codet5/usage/goroot/test/codegen/mathbits.go:570)	NEGQ	CX
	0x001d 00029 (/bigdata/qiuhan/codet5/usage/goroot/test/codegen/mathbits.go:570)	NOP
	0x0020 00032 (/bigdata/qiuhan/codet5/usage/goroot/test/codegen/mathbits.go:572)	TESTQ	CX, CX
	0x0023 00035 (/bigdata/qiuhan/codet5/usage/goroot/test/codegen/mathbits.go:572)	JNE	47
	0x0025 00037 (/bigdata/qiuhan/codet5/usage/goroot/test/codegen/mathbits.go:575)	MOVQ	16(SP), BP
	0x002a 00042 (/bigdata/qiuhan/codet5/usage/goroot/test/codegen/mathbits.go:575)	ADDQ	$24, SP
	0x002e 00046 (/bigdata/qiuhan/codet5/usage/goroot/test/codegen/mathbits.go:575)	RET
	0x002f 00047 (/bigdata/qiuhan/codet5/usage/goroot/test/codegen/mathbits.go:573)	LEAQ	type:string(SB), AX
	0x0036 00054 (/bigdata/qiuhan/codet5/usage/goroot/test/codegen/mathbits.go:573)	LEAQ	command-line-arguments..stmp_1(SB), BX
	0x003d 00061 (/bigdata/qiuhan/codet5/usage/goroot/test/codegen/mathbits.go:573)	PCDATA	$1, $0
	0x003d 00061 (/bigdata/qiuhan/codet5/usage/goroot/test/codegen/mathbits.go:573)	NOP
	0x0040 00064 (/bigdata/qiuhan/codet5/usage/goroot/test/codegen/mathbits.go:573)	CALL	runtime.gopanic(SB)
	0x0045 00069 (/bigdata/qiuhan/codet5/usage/goroot/test/codegen/mathbits.go:573)	XCHGL	AX, AX
	0x0046 00070 (/bigdata/qiuhan/codet5/usage/goroot/test/codegen/mathbits.go:573)	NOP
	0x0046 00070 (/bigdata/qiuhan/codet5/usage/goroot/test/codegen/mathbits.go:569)	PCDATA	$1, $-1
	0x0046 00070 (/bigdata/qiuhan/codet5/usage/goroot/test/codegen/mathbits.go:569)	PCDATA	$0, $-2
	0x0046 00070 (/bigdata/qiuhan/codet5/usage/goroot/test/codegen/mathbits.go:569)	MOVQ	AX, 8(SP)
	0x004b 00075 (/bigdata/qiuhan/codet5/usage/goroot/test/codegen/mathbits.go:569)	MOVQ	BX, 16(SP)
	0x0050 00080 (/bigdata/qiuhan/codet5/usage/goroot/test/codegen/mathbits.go:569)	CALL	runtime.morestack_noctxt(SB)
	0x0055 00085 (/bigdata/qiuhan/codet5/usage/goroot/test/codegen/mathbits.go:569)	MOVQ	8(SP), AX
	0x005a 00090 (/bigdata/qiuhan/codet5/usage/goroot/test/codegen/mathbits.go:569)	MOVQ	16(SP), BX
	0x005f 00095 (/bigdata/qiuhan/codet5/usage/goroot/test/codegen/mathbits.go:569)	PCDATA	$0, $-1
	0x005f 00095 (/bigdata/qiuhan/codet5/usage/goroot/test/codegen/mathbits.go:569)	NOP
	0x0060 00096 (/bigdata/qiuhan/codet5/usage/goroot/test/codegen/mathbits.go:569)	JMP	0
	0x0000 49 3b 66 10 76 40 48 83 ec 18 48 89 6c 24 10 48  I;f.v@H...H.l$.H
	0x0010 8d 6c 24 10 48 01 d8 48 19 c9 48 f7 d9 0f 1f 00  .l$.H..H..H.....
	0x0020 48 85 c9 75 0a 48 8b 6c 24 10 48 83 c4 18 c3 48  H..u.H.l$.H....H
	0x0030 8d 05 00 00 00 00 48 8d 1d 00 00 00 00 0f 1f 00  ......H.........
	0x0040 e8 00 00 00 00 90 48 89 44 24 08 48 89 5c 24 10  ......H.D$.H.\$.
	0x0050 e8 00 00 00 00 48 8b 44 24 08 48 8b 5c 24 10 90  .....H.D$.H.\$..
	0x0060 eb 9e                                            ..
	rel 2+0 t=23 type:string<0>+0
	rel 50+4 t=14 type:string<0>+0
	rel 57+4 t=14 command-line-arguments..stmp_1<0>+0
	rel 65+4 t=7 runtime.gopanic<1>+0
	rel 81+4 t=7 runtime.morestack_noctxt<0>+0
command-line-arguments.Add64PanicOnOverflowGT<1> STEXT size=98 args=0x10 locals=0x18 funcid=0x0 align=0x0
	0x0000 00000 (/bigdata/qiuhan/codet5/usage/goroot/test/codegen/mathbits.go:578)	TEXT	command-line-arguments.Add64PanicOnOverflowGT(SB), ABIInternal, $24-16
	0x0000 00000 (/bigdata/qiuhan/codet5/usage/goroot/test/codegen/mathbits.go:578)	CMPQ	SP, 16(R14)
	0x0004 00004 (/bigdata/qiuhan/codet5/usage/goroot/test/codegen/mathbits.go:578)	PCDATA	$0, $-2
	0x0004 00004 (/bigdata/qiuhan/codet5/usage/goroot/test/codegen/mathbits.go:578)	JLS	70
	0x0006 00006 (/bigdata/qiuhan/codet5/usage/goroot/test/codegen/mathbits.go:578)	PCDATA	$0, $-1
	0x0006 00006 (/bigdata/qiuhan/codet5/usage/goroot/test/codegen/mathbits.go:578)	SUBQ	$24, SP
	0x000a 00010 (/bigdata/qiuhan/codet5/usage/goroot/test/codegen/mathbits.go:578)	MOVQ	BP, 16(SP)
	0x000f 00015 (/bigdata/qiuhan/codet5/usage/goroot/test/codegen/mathbits.go:578)	LEAQ	16(SP), BP
	0x0014 00020 (/bigdata/qiuhan/codet5/usage/goroot/test/codegen/mathbits.go:578)	FUNCDATA	$0, gclocals·g2BeySu+wFnoycgXfElmcg==(SB)
	0x0014 00020 (/bigdata/qiuhan/codet5/usage/goroot/test/codegen/mathbits.go:578)	FUNCDATA	$1, gclocals·g2BeySu+wFnoycgXfElmcg==(SB)
	0x0014 00020 (/bigdata/qiuhan/codet5/usage/goroot/test/codegen/mathbits.go:578)	FUNCDATA	$5, command-line-arguments.Add64PanicOnOverflowGT.arginfo1(SB)
	0x0014 00020 (/bigdata/qiuhan/codet5/usage/goroot/test/codegen/mathbits.go:578)	FUNCDATA	$6, command-line-arguments.Add64PanicOnOverflowGT.argliveinfo(SB)
	0x0014 00020 (/bigdata/qiuhan/codet5/usage/goroot/test/codegen/mathbits.go:578)	PCDATA	$3, $1
	0x0014 00020 (/bigdata/qiuhan/codet5/usage/goroot/test/codegen/mathbits.go:579)	ADDQ	BX, AX
	0x0017 00023 (/bigdata/qiuhan/codet5/usage/goroot/test/codegen/mathbits.go:579)	SBBQ	CX, CX
	0x001a 00026 (/bigdata/qiuhan/codet5/usage/goroot/test/codegen/mathbits.go:579)	NEGQ	CX
	0x001d 00029 (/bigdata/qiuhan/codet5/usage/goroot/test/codegen/mathbits.go:579)	NOP
	0x0020 00032 (/bigdata/qiuhan/codet5/usage/goroot/test/codegen/mathbits.go:581)	TESTQ	CX, CX
	0x0023 00035 (/bigdata/qiuhan/codet5/usage/goroot/test/codegen/mathbits.go:581)	JHI	47
	0x0025 00037 (/bigdata/qiuhan/codet5/usage/goroot/test/codegen/mathbits.go:584)	MOVQ	16(SP), BP
	0x002a 00042 (/bigdata/qiuhan/codet5/usage/goroot/test/codegen/mathbits.go:584)	ADDQ	$24, SP
	0x002e 00046 (/bigdata/qiuhan/codet5/usage/goroot/test/codegen/mathbits.go:584)	RET
	0x002f 00047 (/bigdata/qiuhan/codet5/usage/goroot/test/codegen/mathbits.go:582)	LEAQ	type:string(SB), AX
	0x0036 00054 (/bigdata/qiuhan/codet5/usage/goroot/test/codegen/mathbits.go:582)	LEAQ	command-line-arguments..stmp_2(SB), BX
	0x003d 00061 (/bigdata/qiuhan/codet5/usage/goroot/test/codegen/mathbits.go:582)	PCDATA	$1, $0
	0x003d 00061 (/bigdata/qiuhan/codet5/usage/goroot/test/codegen/mathbits.go:582)	NOP
	0x0040 00064 (/bigdata/qiuhan/codet5/usage/goroot/test/codegen/mathbits.go:582)	CALL	runtime.gopanic(SB)
	0x0045 00069 (/bigdata/qiuhan/codet5/usage/goroot/test/codegen/mathbits.go:582)	XCHGL	AX, AX
	0x0046 00070 (/bigdata/qiuhan/codet5/usage/goroot/test/codegen/mathbits.go:582)	NOP
	0x0046 00070 (/bigdata/qiuhan/codet5/usage/goroot/test/codegen/mathbits.go:578)	PCDATA	$1, $-1
	0x0046 00070 (/bigdata/qiuhan/codet5/usage/goroot/test/codegen/mathbits.go:578)	PCDATA	$0, $-2
	0x0046 00070 (/bigdata/qiuhan/codet5/usage/goroot/test/codegen/mathbits.go:578)	MOVQ	AX, 8(SP)
	0x004b 00075 (/bigdata/qiuhan/codet5/usage/goroot/test/codegen/mathbits.go:578)	MOVQ	BX, 16(SP)
	0x0050 00080 (/bigdata/qiuhan/codet5/usage/goroot/test/codegen/mathbits.go:578)	CALL	runtime.morestack_noctxt(SB)
	0x0055 00085 (/bigdata/qiuhan/codet5/usage/goroot/test/codegen/mathbits.go:578)	MOVQ	8(SP), AX
	0x005a 00090 (/bigdata/qiuhan/codet5/usage/goroot/test/codegen/mathbits.go:578)	MOVQ	16(SP), BX
	0x005f 00095 (/bigdata/qiuhan/codet5/usage/goroot/test/codegen/mathbits.go:578)	PCDATA	$0, $-1
	0x005f 00095 (/bigdata/qiuhan/codet5/usage/goroot/test/codegen/mathbits.go:578)	NOP
	0x0060 00096 (/bigdata/qiuhan/codet5/usage/goroot/test/codegen/mathbits.go:578)	JMP	0
	0x0000 49 3b 66 10 76 40 48 83 ec 18 48 89 6c 24 10 48  I;f.v@H...H.l$.H
	0x0010 8d 6c 24 10 48 01 d8 48 19 c9 48 f7 d9 0f 1f 00  .l$.H..H..H.....
	0x0020 48 85 c9 77 0a 48 8b 6c 24 10 48 83 c4 18 c3 48  H..w.H.l$.H....H
	0x0030 8d 05 00 00 00 00 48 8d 1d 00 00 00 00 0f 1f 00  ......H.........
	0x0040 e8 00 00 00 00 90 48 89 44 24 08 48 89 5c 24 10  ......H.D$.H.\$.
	0x0050 e8 00 00 00 00 48 8b 44 24 08 48 8b 5c 24 10 90  .....H.D$.H.\$..
	0x0060 eb 9e                                            ..
	rel 2+0 t=23 type:string<0>+0
	rel 50+4 t=14 type:string<0>+0
	rel 57+4 t=14 command-line-arguments..stmp_2<0>+0
	rel 65+4 t=7 runtime.gopanic<1>+0
	rel 81+4 t=7 runtime.morestack_noctxt<0>+0
command-line-arguments.Add64MPanicOnOverflowEQ<1> STEXT size=117 args=0x30 locals=0x18 funcid=0x0 align=0x0
	0x0000 00000 (/bigdata/qiuhan/codet5/usage/goroot/test/codegen/mathbits.go:587)	TEXT	command-line-arguments.Add64MPanicOnOverflowEQ(SB), ABIInternal, $24-48
	0x0000 00000 (/bigdata/qiuhan/codet5/usage/goroot/test/codegen/mathbits.go:587)	CMPQ	SP, 16(R14)
	0x0004 00004 (/bigdata/qiuhan/codet5/usage/goroot/test/codegen/mathbits.go:587)	PCDATA	$0, $-2
	0x0004 00004 (/bigdata/qiuhan/codet5/usage/goroot/test/codegen/mathbits.go:587)	JLS	110
	0x0006 00006 (/bigdata/qiuhan/codet5/usage/goroot/test/codegen/mathbits.go:587)	PCDATA	$0, $-1
	0x0006 00006 (/bigdata/qiuhan/codet5/usage/goroot/test/codegen/mathbits.go:587)	SUBQ	$24, SP
	0x000a 00010 (/bigdata/qiuhan/codet5/usage/goroot/test/codegen/mathbits.go:587)	MOVQ	BP, 16(SP)
	0x000f 00015 (/bigdata/qiuhan/codet5/usage/goroot/test/codegen/mathbits.go:587)	LEAQ	16(SP), BP
	0x0014 00020 (/bigdata/qiuhan/codet5/usage/goroot/test/codegen/mathbits.go:587)	FUNCDATA	$0, gclocals·g2BeySu+wFnoycgXfElmcg==(SB)
	0x0014 00020 (/bigdata/qiuhan/codet5/usage/goroot/test/codegen/mathbits.go:587)	FUNCDATA	$1, gclocals·g2BeySu+wFnoycgXfElmcg==(SB)
	0x0014 00020 (/bigdata/qiuhan/codet5/usage/goroot/test/codegen/mathbits.go:587)	FUNCDATA	$5, command-line-arguments.Add64MPanicOnOverflowEQ.arginfo1(SB)
	0x0014 00020 (/bigdata/qiuhan/codet5/usage/goroot/test/codegen/mathbits.go:587)	MOVUPS	X15, command-line-arguments.~r0+64(SP)
	0x001a 00026 (/bigdata/qiuhan/codet5/usage/goroot/test/codegen/mathbits.go:590)	MOVQ	command-line-arguments.a+32(SP), CX
	0x001f 00031 (/bigdata/qiuhan/codet5/usage/goroot/test/codegen/mathbits.go:590)	MOVQ	command-line-arguments.b+48(SP), DX
	0x0024 00036 (/bigdata/qiuhan/codet5/usage/goroot/test/codegen/mathbits.go:591)	MOVQ	command-line-arguments.a+40(SP), SI
	0x0029 00041 (/bigdata/qiuhan/codet5/usage/goroot/test/codegen/mathbits.go:591)	MOVQ	command-line-arguments.b+56(SP), DI
	0x002e 00046 (/bigdata/qiuhan/codet5/usage/goroot/test/codegen/mathbits.go:590)	ADDQ	CX, DX
	0x0031 00049 (/bigdata/qiuhan/codet5/usage/goroot/test/codegen/mathbits.go:591)	ADCQ	SI, DI
	0x0034 00052 (/bigdata/qiuhan/codet5/usage/goroot/test/codegen/mathbits.go:591)	SBBQ	CX, CX
	0x0037 00055 (/bigdata/qiuhan/codet5/usage/goroot/test/codegen/mathbits.go:591)	NEGQ	CX
	0x003a 00058 (/bigdata/qiuhan/codet5/usage/goroot/test/codegen/mathbits.go:591)	NOP
	0x0040 00064 (/bigdata/qiuhan/codet5/usage/goroot/test/codegen/mathbits.go:593)	CMPQ	CX, $1
	0x0044 00068 (/bigdata/qiuhan/codet5/usage/goroot/test/codegen/mathbits.go:593)	JEQ	90
	0x0046 00070 (/bigdata/qiuhan/codet5/usage/goroot/test/codegen/mathbits.go:596)	MOVQ	DX, command-line-arguments.~r0+64(SP)
	0x004b 00075 (/bigdata/qiuhan/codet5/usage/goroot/test/codegen/mathbits.go:596)	MOVQ	DI, command-line-arguments.~r0+72(SP)
	0x0050 00080 (/bigdata/qiuhan/codet5/usage/goroot/test/codegen/mathbits.go:596)	MOVQ	16(SP), BP
	0x0055 00085 (/bigdata/qiuhan/codet5/usage/goroot/test/codegen/mathbits.go:596)	ADDQ	$24, SP
	0x0059 00089 (/bigdata/qiuhan/codet5/usage/goroot/test/codegen/mathbits.go:596)	RET
	0x005a 00090 (/bigdata/qiuhan/codet5/usage/goroot/test/codegen/mathbits.go:594)	LEAQ	type:string(SB), AX
	0x0061 00097 (/bigdata/qiuhan/codet5/usage/goroot/test/codegen/mathbits.go:594)	LEAQ	command-line-arguments..stmp_3(SB), BX
	0x0068 00104 (/bigdata/qiuhan/codet5/usage/goroot/test/codegen/mathbits.go:594)	PCDATA	$1, $0
	0x0068 00104 (/bigdata/qiuhan/codet5/usage/goroot/test/codegen/mathbits.go:594)	CALL	runtime.gopanic(SB)
	0x006d 00109 (/bigdata/qiuhan/codet5/usage/goroot/test/codegen/mathbits.go:594)	XCHGL	AX, AX
	0x006e 00110 (/bigdata/qiuhan/codet5/usage/goroot/test/codegen/mathbits.go:594)	NOP
	0x006e 00110 (/bigdata/qiuhan/codet5/usage/goroot/test/codegen/mathbits.go:587)	PCDATA	$1, $-1
	0x006e 00110 (/bigdata/qiuhan/codet5/usage/goroot/test/codegen/mathbits.go:587)	PCDATA	$0, $-2
	0x006e 00110 (/bigdata/qiuhan/codet5/usage/goroot/test/codegen/mathbits.go:587)	CALL	runtime.morestack_noctxt(SB)
	0x0073 00115 (/bigdata/qiuhan/codet5/usage/goroot/test/codegen/mathbits.go:587)	PCDATA	$0, $-1
	0x0073 00115 (/bigdata/qiuhan/codet5/usage/goroot/test/codegen/mathbits.go:587)	JMP	0
	0x0000 49 3b 66 10 76 68 48 83 ec 18 48 89 6c 24 10 48  I;f.vhH...H.l$.H
	0x0010 8d 6c 24 10 44 0f 11 7c 24 40 48 8b 4c 24 20 48  .l$.D..|$@H.L$ H
	0x0020 8b 54 24 30 48 8b 74 24 28 48 8b 7c 24 38 48 01  .T$0H.t$(H.|$8H.
	0x0030 ca 48 11 f7 48 19 c9 48 f7 d9 66 0f 1f 44 00 00  .H..H..H..f..D..
	0x0040 48 83 f9 01 74 14 48 89 54 24 40 48 89 7c 24 48  H...t.H.T$@H.|$H
	0x0050 48 8b 6c 24 10 48 83 c4 18 c3 48 8d 05 00 00 00  H.l$.H....H.....
	0x0060 00 48 8d 1d 00 00 00 00 e8 00 00 00 00 90 e8 00  .H..............
	0x0070 00 00 00 eb 8b                                   .....
	rel 2+0 t=23 type:string<0>+0
	rel 93+4 t=14 type:string<0>+0
	rel 100+4 t=14 command-line-arguments..stmp_3<0>+0
	rel 105+4 t=7 runtime.gopanic<1>+0
	rel 111+4 t=7 runtime.morestack_noctxt<0>+0
command-line-arguments.Add64MPanicOnOverflowNE<1> STEXT size=110 args=0x30 locals=0x18 funcid=0x0 align=0x0
	0x0000 00000 (/bigdata/qiuhan/codet5/usage/goroot/test/codegen/mathbits.go:599)	TEXT	command-line-arguments.Add64MPanicOnOverflowNE(SB), ABIInternal, $24-48
	0x0000 00000 (/bigdata/qiuhan/codet5/usage/goroot/test/codegen/mathbits.go:599)	CMPQ	SP, 16(R14)
	0x0004 00004 (/bigdata/qiuhan/codet5/usage/goroot/test/codegen/mathbits.go:599)	PCDATA	$0, $-2
	0x0004 00004 (/bigdata/qiuhan/codet5/usage/goroot/test/codegen/mathbits.go:599)	JLS	103
	0x0006 00006 (/bigdata/qiuhan/codet5/usage/goroot/test/codegen/mathbits.go:599)	PCDATA	$0, $-1
	0x0006 00006 (/bigdata/qiuhan/codet5/usage/goroot/test/codegen/mathbits.go:599)	SUBQ	$24, SP
	0x000a 00010 (/bigdata/qiuhan/codet5/usage/goroot/test/codegen/mathbits.go:599)	MOVQ	BP, 16(SP)
	0x000f 00015 (/bigdata/qiuhan/codet5/usage/goroot/test/codegen/mathbits.go:599)	LEAQ	16(SP), BP
	0x0014 00020 (/bigdata/qiuhan/codet5/usage/goroot/test/codegen/mathbits.go:599)	FUNCDATA	$0, gclocals·g2BeySu+wFnoycgXfElmcg==(SB)
	0x0014 00020 (/bigdata/qiuhan/codet5/usage/goroot/test/codegen/mathbits.go:599)	FUNCDATA	$1, gclocals·g2BeySu+wFnoycgXfElmcg==(SB)
	0x0014 00020 (/bigdata/qiuhan/codet5/usage/goroot/test/codegen/mathbits.go:599)	FUNCDATA	$5, command-line-arguments.Add64MPanicOnOverflowNE.arginfo1(SB)
	0x0014 00020 (/bigdata/qiuhan/codet5/usage/goroot/test/codegen/mathbits.go:599)	MOVUPS	X15, command-line-arguments.~r0+64(SP)
	0x001a 00026 (/bigdata/qiuhan/codet5/usage/goroot/test/codegen/mathbits.go:602)	MOVQ	command-line-arguments.a+32(SP), CX
	0x001f 00031 (/bigdata/qiuhan/codet5/usage/goroot/test/codegen/mathbits.go:602)	MOVQ	command-line-arguments.b+48(SP), DX
	0x0024 00036 (/bigdata/qiuhan/codet5/usage/goroot/test/codegen/mathbits.go:603)	MOVQ	command-line-arguments.a+40(SP), SI
	0x0029 00041 (/bigdata/qiuhan/codet5/usage/goroot/test/codegen/mathbits.go:603)	MOVQ	command-line-arguments.b+56(SP), DI
	0x002e 00046 (/bigdata/qiuhan/codet5/usage/goroot/test/codegen/mathbits.go:602)	ADDQ	CX, DX
	0x0031 00049 (/bigdata/qiuhan/codet5/usage/goroot/test/codegen/mathbits.go:603)	ADCQ	SI, DI
	0x0034 00052 (/bigdata/qiuhan/codet5/usage/goroot/test/codegen/mathbits.go:603)	SBBQ	CX, CX
	0x0037 00055 (/bigdata/qiuhan/codet5/usage/goroot/test/codegen/mathbits.go:603)	NEGQ	CX
	0x003a 00058 (/bigdata/qiuhan/codet5/usage/goroot/test/codegen/mathbits.go:605)	TESTQ	CX, CX
	0x003d 00061 (/bigdata/qiuhan/codet5/usage/goroot/test/codegen/mathbits.go:605)	JNE	83
	0x003f 00063 (/bigdata/qiuhan/codet5/usage/goroot/test/codegen/mathbits.go:608)	MOVQ	DX, command-line-arguments.~r0+64(SP)
	0x0044 00068 (/bigdata/qiuhan/codet5/usage/goroot/test/codegen/mathbits.go:608)	MOVQ	DI, command-line-arguments.~r0+72(SP)
	0x0049 00073 (/bigdata/qiuhan/codet5/usage/goroot/test/codegen/mathbits.go:608)	MOVQ	16(SP), BP
	0x004e 00078 (/bigdata/qiuhan/codet5/usage/goroot/test/codegen/mathbits.go:608)	ADDQ	$24, SP
	0x0052 00082 (/bigdata/qiuhan/codet5/usage/goroot/test/codegen/mathbits.go:608)	RET
	0x0053 00083 (/bigdata/qiuhan/codet5/usage/goroot/test/codegen/mathbits.go:606)	LEAQ	type:string(SB), AX
	0x005a 00090 (/bigdata/qiuhan/codet5/usage/goroot/test/codegen/mathbits.go:606)	LEAQ	command-line-arguments..stmp_4(SB), BX
	0x0061 00097 (/bigdata/qiuhan/codet5/usage/goroot/test/codegen/mathbits.go:606)	PCDATA	$1, $0
	0x0061 00097 (/bigdata/qiuhan/codet5/usage/goroot/test/codegen/mathbits.go:606)	CALL	runtime.gopanic(SB)
	0x0066 00102 (/bigdata/qiuhan/codet5/usage/goroot/test/codegen/mathbits.go:606)	XCHGL	AX, AX
	0x0067 00103 (/bigdata/qiuhan/codet5/usage/goroot/test/codegen/mathbits.go:606)	NOP
	0x0067 00103 (/bigdata/qiuhan/codet5/usage/goroot/test/codegen/mathbits.go:599)	PCDATA	$1, $-1
	0x0067 00103 (/bigdata/qiuhan/codet5/usage/goroot/test/codegen/mathbits.go:599)	PCDATA	$0, $-2
	0x0067 00103 (/bigdata/qiuhan/codet5/usage/goroot/test/codegen/mathbits.go:599)	CALL	runtime.morestack_noctxt(SB)
	0x006c 00108 (/bigdata/qiuhan/codet5/usage/goroot/test/codegen/mathbits.go:599)	PCDATA	$0, $-1
	0x006c 00108 (/bigdata/qiuhan/codet5/usage/goroot/test/codegen/mathbits.go:599)	JMP	0
	0x0000 49 3b 66 10 76 61 48 83 ec 18 48 89 6c 24 10 48  I;f.vaH...H.l$.H
	0x0010 8d 6c 24 10 44 0f 11 7c 24 40 48 8b 4c 24 20 48  .l$.D..|$@H.L$ H
	0x0020 8b 54 24 30 48 8b 74 24 28 48 8b 7c 24 38 48 01  .T$0H.t$(H.|$8H.
	0x0030 ca 48 11 f7 48 19 c9 48 f7 d9 48 85 c9 75 14 48  .H..H..H..H..u.H
	0x0040 89 54 24 40 48 89 7c 24 48 48 8b 6c 24 10 48 83  .T$@H.|$HH.l$.H.
	0x0050 c4 18 c3 48 8d 05 00 00 00 00 48 8d 1d 00 00 00  ...H......H.....
	0x0060 00 e8 00 00 00 00 90 e8 00 00 00 00 eb 92        ..............
	rel 2+0 t=23 type:string<0>+0
	rel 86+4 t=14 type:string<0>+0
	rel 93+4 t=14 command-line-arguments..stmp_4<0>+0
	rel 98+4 t=7 runtime.gopanic<1>+0
	rel 104+4 t=7 runtime.morestack_noctxt<0>+0
command-line-arguments.Add64MPanicOnOverflowGT<1> STEXT size=110 args=0x30 locals=0x18 funcid=0x0 align=0x0
	0x0000 00000 (/bigdata/qiuhan/codet5/usage/goroot/test/codegen/mathbits.go:611)	TEXT	command-line-arguments.Add64MPanicOnOverflowGT(SB), ABIInternal, $24-48
	0x0000 00000 (/bigdata/qiuhan/codet5/usage/goroot/test/codegen/mathbits.go:611)	CMPQ	SP, 16(R14)
	0x0004 00004 (/bigdata/qiuhan/codet5/usage/goroot/test/codegen/mathbits.go:611)	PCDATA	$0, $-2
	0x0004 00004 (/bigdata/qiuhan/codet5/usage/goroot/test/codegen/mathbits.go:611)	JLS	103
	0x0006 00006 (/bigdata/qiuhan/codet5/usage/goroot/test/codegen/mathbits.go:611)	PCDATA	$0, $-1
	0x0006 00006 (/bigdata/qiuhan/codet5/usage/goroot/test/codegen/mathbits.go:611)	SUBQ	$24, SP
	0x000a 00010 (/bigdata/qiuhan/codet5/usage/goroot/test/codegen/mathbits.go:611)	MOVQ	BP, 16(SP)
	0x000f 00015 (/bigdata/qiuhan/codet5/usage/goroot/test/codegen/mathbits.go:611)	LEAQ	16(SP), BP
	0x0014 00020 (/bigdata/qiuhan/codet5/usage/goroot/test/codegen/mathbits.go:611)	FUNCDATA	$0, gclocals·g2BeySu+wFnoycgXfElmcg==(SB)
	0x0014 00020 (/bigdata/qiuhan/codet5/usage/goroot/test/codegen/mathbits.go:611)	FUNCDATA	$1, gclocals·g2BeySu+wFnoycgXfElmcg==(SB)
	0x0014 00020 (/bigdata/qiuhan/codet5/usage/goroot/test/codegen/mathbits.go:611)	FUNCDATA	$5, command-line-arguments.Add64MPanicOnOverflowGT.arginfo1(SB)
	0x0014 00020 (/bigdata/qiuhan/codet5/usage/goroot/test/codegen/mathbits.go:611)	MOVUPS	X15, command-line-arguments.~r0+64(SP)
	0x001a 00026 (/bigdata/qiuhan/codet5/usage/goroot/test/codegen/mathbits.go:614)	MOVQ	command-line-arguments.a+32(SP), CX
	0x001f 00031 (/bigdata/qiuhan/codet5/usage/goroot/test/codegen/mathbits.go:614)	MOVQ	command-line-arguments.b+48(SP), DX
	0x0024 00036 (/bigdata/qiuhan/codet5/usage/goroot/test/codegen/mathbits.go:615)	MOVQ	command-line-arguments.a+40(SP), SI
	0x0029 00041 (/bigdata/qiuhan/codet5/usage/goroot/test/codegen/mathbits.go:615)	MOVQ	command-line-arguments.b+56(SP), DI
	0x002e 00046 (/bigdata/qiuhan/codet5/usage/goroot/test/codegen/mathbits.go:614)	ADDQ	CX, DX
	0x0031 00049 (/bigdata/qiuhan/codet5/usage/goroot/test/codegen/mathbits.go:615)	ADCQ	SI, DI
	0x0034 00052 (/bigdata/qiuhan/codet5/usage/goroot/test/codegen/mathbits.go:615)	SBBQ	CX, CX
	0x0037 00055 (/bigdata/qiuhan/codet5/usage/goroot/test/codegen/mathbits.go:615)	NEGQ	CX
	0x003a 00058 (/bigdata/qiuhan/codet5/usage/goroot/test/codegen/mathbits.go:617)	TESTQ	CX, CX
	0x003d 00061 (/bigdata/qiuhan/codet5/usage/goroot/test/codegen/mathbits.go:617)	JHI	83
	0x003f 00063 (/bigdata/qiuhan/codet5/usage/goroot/test/codegen/mathbits.go:620)	MOVQ	DX, command-line-arguments.~r0+64(SP)
	0x0044 00068 (/bigdata/qiuhan/codet5/usage/goroot/test/codegen/mathbits.go:620)	MOVQ	DI, command-line-arguments.~r0+72(SP)
	0x0049 00073 (/bigdata/qiuhan/codet5/usage/goroot/test/codegen/mathbits.go:620)	MOVQ	16(SP), BP
	0x004e 00078 (/bigdata/qiuhan/codet5/usage/goroot/test/codegen/mathbits.go:620)	ADDQ	$24, SP
	0x0052 00082 (/bigdata/qiuhan/codet5/usage/goroot/test/codegen/mathbits.go:620)	RET
	0x0053 00083 (/bigdata/qiuhan/codet5/usage/goroot/test/codegen/mathbits.go:618)	LEAQ	type:string(SB), AX
	0x005a 00090 (/bigdata/qiuhan/codet5/usage/goroot/test/codegen/mathbits.go:618)	LEAQ	command-line-arguments..stmp_5(SB), BX
	0x0061 00097 (/bigdata/qiuhan/codet5/usage/goroot/test/codegen/mathbits.go:618)	PCDATA	$1, $0
	0x0061 00097 (/bigdata/qiuhan/codet5/usage/goroot/test/codegen/mathbits.go:618)	CALL	runtime.gopanic(SB)
	0x0066 00102 (/bigdata/qiuhan/codet5/usage/goroot/test/codegen/mathbits.go:618)	XCHGL	AX, AX
	0x0067 00103 (/bigdata/qiuhan/codet5/usage/goroot/test/codegen/mathbits.go:618)	NOP
	0x0067 00103 (/bigdata/qiuhan/codet5/usage/goroot/test/codegen/mathbits.go:611)	PCDATA	$1, $-1
	0x0067 00103 (/bigdata/qiuhan/codet5/usage/goroot/test/codegen/mathbits.go:611)	PCDATA	$0, $-2
	0x0067 00103 (/bigdata/qiuhan/codet5/usage/goroot/test/codegen/mathbits.go:611)	CALL	runtime.morestack_noctxt(SB)
	0x006c 00108 (/bigdata/qiuhan/codet5/usage/goroot/test/codegen/mathbits.go:611)	PCDATA	$0, $-1
	0x006c 00108 (/bigdata/qiuhan/codet5/usage/goroot/test/codegen/mathbits.go:611)	JMP	0
	0x0000 49 3b 66 10 76 61 48 83 ec 18 48 89 6c 24 10 48  I;f.vaH...H.l$.H
	0x0010 8d 6c 24 10 44 0f 11 7c 24 40 48 8b 4c 24 20 48  .l$.D..|$@H.L$ H
	0x0020 8b 54 24 30 48 8b 74 24 28 48 8b 7c 24 38 48 01  .T$0H.t$(H.|$8H.
	0x0030 ca 48 11 f7 48 19 c9 48 f7 d9 48 85 c9 77 14 48  .H..H..H..H..w.H
	0x0040 89 54 24 40 48 89 7c 24 48 48 8b 6c 24 10 48 83  .T$@H.|$HH.l$.H.
	0x0050 c4 18 c3 48 8d 05 00 00 00 00 48 8d 1d 00 00 00  ...H......H.....
	0x0060 00 e8 00 00 00 00 90 e8 00 00 00 00 eb 92        ..............
	rel 2+0 t=23 type:string<0>+0
	rel 86+4 t=14 type:string<0>+0
	rel 93+4 t=14 command-line-arguments..stmp_5<0>+0
	rel 98+4 t=7 runtime.gopanic<1>+0
	rel 104+4 t=7 runtime.morestack_noctxt<0>+0
command-line-arguments.Add64MultipleChains<1> STEXT nosplit size=53 args=0x40 locals=0x0 funcid=0x0 align=0x0
	0x0000 00000 (/bigdata/qiuhan/codet5/usage/goroot/test/codegen/mathbits.go:633)	TEXT	command-line-arguments.Add64MultipleChains(SB), NOSPLIT|ABIInternal, $0-64
	0x0000 00000 (/bigdata/qiuhan/codet5/usage/goroot/test/codegen/mathbits.go:633)	FUNCDATA	$0, gclocals·g2BeySu+wFnoycgXfElmcg==(SB)
	0x0000 00000 (/bigdata/qiuhan/codet5/usage/goroot/test/codegen/mathbits.go:633)	FUNCDATA	$1, gclocals·g2BeySu+wFnoycgXfElmcg==(SB)
	0x0000 00000 (/bigdata/qiuhan/codet5/usage/goroot/test/codegen/mathbits.go:633)	FUNCDATA	$5, command-line-arguments.Add64MultipleChains.arginfo1(SB)
	0x0000 00000 (/bigdata/qiuhan/codet5/usage/goroot/test/codegen/mathbits.go:635)	MOVQ	command-line-arguments.a+8(SP), AX
	0x0005 00005 (/bigdata/qiuhan/codet5/usage/goroot/test/codegen/mathbits.go:635)	MOVQ	command-line-arguments.a+16(SP), CX
	0x000a 00010 (/bigdata/qiuhan/codet5/usage/goroot/test/codegen/mathbits.go:636)	MOVQ	command-line-arguments.b+24(SP), DX
	0x000f 00015 (/bigdata/qiuhan/codet5/usage/goroot/test/codegen/mathbits.go:636)	MOVQ	command-line-arguments.b+32(SP), BX
	0x0014 00020 (/bigdata/qiuhan/codet5/usage/goroot/test/codegen/mathbits.go:641)	ADDQ	AX, DX
	0x0017 00023 (/bigdata/qiuhan/codet5/usage/goroot/test/codegen/mathbits.go:644)	ADCQ	CX, BX
	0x001a 00026 (/bigdata/qiuhan/codet5/usage/goroot/test/codegen/mathbits.go:637)	MOVQ	command-line-arguments.c+40(SP), AX
	0x001f 00031 (/bigdata/qiuhan/codet5/usage/goroot/test/codegen/mathbits.go:637)	MOVQ	command-line-arguments.c+48(SP), CX
	0x0024 00036 (/bigdata/qiuhan/codet5/usage/goroot/test/codegen/mathbits.go:648)	ADDQ	AX, DX
	0x0027 00039 (/bigdata/qiuhan/codet5/usage/goroot/test/codegen/mathbits.go:651)	ADCQ	BX, CX
	0x002a 00042 (/bigdata/qiuhan/codet5/usage/goroot/test/codegen/mathbits.go:652)	MOVQ	DX, command-line-arguments.d+56(SP)
	0x002f 00047 (/bigdata/qiuhan/codet5/usage/goroot/test/codegen/mathbits.go:653)	MOVQ	CX, command-line-arguments.d+64(SP)
	0x0034 00052 (/bigdata/qiuhan/codet5/usage/goroot/test/codegen/mathbits.go:654)	RET
	0x0000 48 8b 44 24 08 48 8b 4c 24 10 48 8b 54 24 18 48  H.D$.H.L$.H.T$.H
	0x0010 8b 5c 24 20 48 01 c2 48 11 cb 48 8b 44 24 28 48  .\$ H..H..H.D$(H
	0x0020 8b 4c 24 30 48 01 c2 48 11 d9 48 89 54 24 38 48  .L$0H..H..H.T$8H
	0x0030 89 4c 24 40 c3                                   .L$@.
command-line-arguments.Sub<1> STEXT nosplit size=12 args=0x18 locals=0x0 funcid=0x0 align=0x0
	0x0000 00000 (/bigdata/qiuhan/codet5/usage/goroot/test/codegen/mathbits.go:660)	TEXT	command-line-arguments.Sub(SB), NOSPLIT|ABIInternal, $0-24
	0x0000 00000 (/bigdata/qiuhan/codet5/usage/goroot/test/codegen/mathbits.go:660)	FUNCDATA	$0, gclocals·g2BeySu+wFnoycgXfElmcg==(SB)
	0x0000 00000 (/bigdata/qiuhan/codet5/usage/goroot/test/codegen/mathbits.go:660)	FUNCDATA	$1, gclocals·g2BeySu+wFnoycgXfElmcg==(SB)
	0x0000 00000 (/bigdata/qiuhan/codet5/usage/goroot/test/codegen/mathbits.go:660)	FUNCDATA	$5, command-line-arguments.Sub.arginfo1(SB)
	0x0000 00000 (/bigdata/qiuhan/codet5/usage/goroot/test/codegen/mathbits.go:660)	FUNCDATA	$6, command-line-arguments.Sub.argliveinfo(SB)
	0x0000 00000 (/bigdata/qiuhan/codet5/usage/goroot/test/codegen/mathbits.go:660)	PCDATA	$3, $1
	0x0000 00000 (/bigdata/qiuhan/codet5/usage/goroot/test/codegen/mathbits.go:668)	NEGL	CX
	0x0002 00002 (/bigdata/qiuhan/codet5/usage/goroot/test/codegen/mathbits.go:668)	SBBQ	BX, AX
	0x0005 00005 (/bigdata/qiuhan/codet5/usage/goroot/test/codegen/mathbits.go:668)	SBBQ	BX, BX
	0x0008 00008 (/bigdata/qiuhan/codet5/usage/goroot/test/codegen/mathbits.go:668)	NEGQ	BX
	0x000b 00011 (/bigdata/qiuhan/codet5/usage/goroot/test/codegen/mathbits.go:668)	RET
	0x0000 f7 d9 48 19 d8 48 19 db 48 f7 db c3              ..H..H..H...
command-line-arguments.SubC<1> STEXT nosplit size=13 args=0x10 locals=0x0 funcid=0x0 align=0x0
	0x0000 00000 (/bigdata/qiuhan/codet5/usage/goroot/test/codegen/mathbits.go:671)	TEXT	command-line-arguments.SubC(SB), NOSPLIT|ABIInternal, $0-16
	0x0000 00000 (/bigdata/qiuhan/codet5/usage/goroot/test/codegen/mathbits.go:671)	FUNCDATA	$0, gclocals·g2BeySu+wFnoycgXfElmcg==(SB)
	0x0000 00000 (/bigdata/qiuhan/codet5/usage/goroot/test/codegen/mathbits.go:671)	FUNCDATA	$1, gclocals·g2BeySu+wFnoycgXfElmcg==(SB)
	0x0000 00000 (/bigdata/qiuhan/codet5/usage/goroot/test/codegen/mathbits.go:671)	FUNCDATA	$5, command-line-arguments.SubC.arginfo1(SB)
	0x0000 00000 (/bigdata/qiuhan/codet5/usage/goroot/test/codegen/mathbits.go:671)	FUNCDATA	$6, command-line-arguments.SubC.argliveinfo(SB)
	0x0000 00000 (/bigdata/qiuhan/codet5/usage/goroot/test/codegen/mathbits.go:671)	PCDATA	$3, $1
	0x0000 00000 (/bigdata/qiuhan/codet5/usage/goroot/test/codegen/mathbits.go:679)	NEGL	BX
	0x0002 00002 (/bigdata/qiuhan/codet5/usage/goroot/test/codegen/mathbits.go:679)	SBBQ	$7, AX
	0x0006 00006 (/bigdata/qiuhan/codet5/usage/goroot/test/codegen/mathbits.go:679)	SBBQ	BX, BX
	0x0009 00009 (/bigdata/qiuhan/codet5/usage/goroot/test/codegen/mathbits.go:679)	NEGQ	BX
	0x000c 00012 (/bigdata/qiuhan/codet5/usage/goroot/test/codegen/mathbits.go:679)	RET
	0x0000 f7 db 48 83 d8 07 48 19 db 48 f7 db c3           ..H...H..H...
command-line-arguments.SubZ<1> STEXT nosplit size=10 args=0x10 locals=0x0 funcid=0x0 align=0x0
	0x0000 00000 (/bigdata/qiuhan/codet5/usage/goroot/test/codegen/mathbits.go:682)	TEXT	command-line-arguments.SubZ(SB), NOSPLIT|ABIInternal, $0-16
	0x0000 00000 (/bigdata/qiuhan/codet5/usage/goroot/test/codegen/mathbits.go:682)	FUNCDATA	$0, gclocals·g2BeySu+wFnoycgXfElmcg==(SB)
	0x0000 00000 (/bigdata/qiuhan/codet5/usage/goroot/test/codegen/mathbits.go:682)	FUNCDATA	$1, gclocals·g2BeySu+wFnoycgXfElmcg==(SB)
	0x0000 00000 (/bigdata/qiuhan/codet5/usage/goroot/test/codegen/mathbits.go:682)	FUNCDATA	$5, command-line-arguments.SubZ.arginfo1(SB)
	0x0000 00000 (/bigdata/qiuhan/codet5/usage/goroot/test/codegen/mathbits.go:682)	FUNCDATA	$6, command-line-arguments.SubZ.argliveinfo(SB)
	0x0000 00000 (/bigdata/qiuhan/codet5/usage/goroot/test/codegen/mathbits.go:682)	PCDATA	$3, $1
	0x0000 00000 (/bigdata/qiuhan/codet5/usage/goroot/test/codegen/mathbits.go:690)	SUBQ	BX, AX
	0x0003 00003 (/bigdata/qiuhan/codet5/usage/goroot/test/codegen/mathbits.go:690)	SBBQ	BX, BX
	0x0006 00006 (/bigdata/qiuhan/codet5/usage/goroot/test/codegen/mathbits.go:690)	NEGQ	BX
	0x0009 00009 (/bigdata/qiuhan/codet5/usage/goroot/test/codegen/mathbits.go:690)	RET
	0x0000 48 29 d8 48 19 db 48 f7 db c3                    H).H..H...
command-line-arguments.SubR<1> STEXT nosplit size=6 args=0x18 locals=0x0 funcid=0x0 align=0x0
	0x0000 00000 (/bigdata/qiuhan/codet5/usage/goroot/test/codegen/mathbits.go:693)	TEXT	command-line-arguments.SubR(SB), NOSPLIT|ABIInternal, $0-24
	0x0000 00000 (/bigdata/qiuhan/codet5/usage/goroot/test/codegen/mathbits.go:693)	FUNCDATA	$0, gclocals·g2BeySu+wFnoycgXfElmcg==(SB)
	0x0000 00000 (/bigdata/qiuhan/codet5/usage/goroot/test/codegen/mathbits.go:693)	FUNCDATA	$1, gclocals·g2BeySu+wFnoycgXfElmcg==(SB)
	0x0000 00000 (/bigdata/qiuhan/codet5/usage/goroot/test/codegen/mathbits.go:693)	FUNCDATA	$5, command-line-arguments.SubR.arginfo1(SB)
	0x0000 00000 (/bigdata/qiuhan/codet5/usage/goroot/test/codegen/mathbits.go:693)	FUNCDATA	$6, command-line-arguments.SubR.argliveinfo(SB)
	0x0000 00000 (/bigdata/qiuhan/codet5/usage/goroot/test/codegen/mathbits.go:693)	PCDATA	$3, $1
	0x0000 00000 (/bigdata/qiuhan/codet5/usage/goroot/test/codegen/mathbits.go:701)	NEGL	CX
	0x0002 00002 (/bigdata/qiuhan/codet5/usage/goroot/test/codegen/mathbits.go:701)	SBBQ	BX, AX
	0x0005 00005 (/bigdata/qiuhan/codet5/usage/goroot/test/codegen/mathbits.go:702)	RET
	0x0000 f7 d9 48 19 d8 c3                                ..H...
command-line-arguments.SubM<1> STEXT nosplit size=43 args=0x18 locals=0x0 funcid=0x0 align=0x0
	0x0000 00000 (/bigdata/qiuhan/codet5/usage/goroot/test/codegen/mathbits.go:704)	TEXT	command-line-arguments.SubM(SB), NOSPLIT|ABIInternal, $0-24
	0x0000 00000 (/bigdata/qiuhan/codet5/usage/goroot/test/codegen/mathbits.go:704)	FUNCDATA	$0, gclocals·LlfHo70um+DIUn9rjx/QUA==(SB)
	0x0000 00000 (/bigdata/qiuhan/codet5/usage/goroot/test/codegen/mathbits.go:704)	FUNCDATA	$1, gclocals·J5F+7Qw7O7ve2QcWC7DpeQ==(SB)
	0x0000 00000 (/bigdata/qiuhan/codet5/usage/goroot/test/codegen/mathbits.go:704)	FUNCDATA	$5, command-line-arguments.SubM.arginfo1(SB)
	0x0000 00000 (/bigdata/qiuhan/codet5/usage/goroot/test/codegen/mathbits.go:704)	FUNCDATA	$6, command-line-arguments.SubM.argliveinfo(SB)
	0x0000 00000 (/bigdata/qiuhan/codet5/usage/goroot/test/codegen/mathbits.go:704)	PCDATA	$3, $1
	0x0000 00000 (/bigdata/qiuhan/codet5/usage/goroot/test/codegen/mathbits.go:706)	MOVQ	(AX), DX
	0x0003 00003 (/bigdata/qiuhan/codet5/usage/goroot/test/codegen/mathbits.go:706)	MOVQ	(BX), SI
	0x0006 00006 (/bigdata/qiuhan/codet5/usage/goroot/test/codegen/mathbits.go:706)	SUBQ	SI, DX
	0x0009 00009 (/bigdata/qiuhan/codet5/usage/goroot/test/codegen/mathbits.go:706)	MOVQ	DX, (CX)
	0x000c 00012 (/bigdata/qiuhan/codet5/usage/goroot/test/codegen/mathbits.go:712)	MOVQ	8(AX), DX
	0x0010 00016 (/bigdata/qiuhan/codet5/usage/goroot/test/codegen/mathbits.go:712)	MOVQ	8(BX), SI
	0x0014 00020 (/bigdata/qiuhan/codet5/usage/goroot/test/codegen/mathbits.go:712)	SBBQ	SI, DX
	0x0017 00023 (/bigdata/qiuhan/codet5/usage/goroot/test/codegen/mathbits.go:712)	MOVQ	DX, 8(CX)
	0x001b 00027 (/bigdata/qiuhan/codet5/usage/goroot/test/codegen/mathbits.go:713)	MOVQ	16(AX), AX
	0x001f 00031 (/bigdata/qiuhan/codet5/usage/goroot/test/codegen/mathbits.go:713)	MOVQ	16(BX), DX
	0x0023 00035 (/bigdata/qiuhan/codet5/usage/goroot/test/codegen/mathbits.go:713)	SBBQ	DX, AX
	0x0026 00038 (/bigdata/qiuhan/codet5/usage/goroot/test/codegen/mathbits.go:713)	MOVQ	AX, 16(CX)
	0x002a 00042 (/bigdata/qiuhan/codet5/usage/goroot/test/codegen/mathbits.go:714)	RET
	0x0000 48 8b 10 48 8b 33 48 29 f2 48 89 11 48 8b 50 08  H..H.3H).H..H.P.
	0x0010 48 8b 73 08 48 19 f2 48 89 51 08 48 8b 40 10 48  H.s.H..H.Q.H.@.H
	0x0020 8b 53 10 48 19 d0 48 89 41 10 c3                 .S.H..H.A..
command-line-arguments.Sub64<1> STEXT nosplit size=12 args=0x18 locals=0x0 funcid=0x0 align=0x0
	0x0000 00000 (/bigdata/qiuhan/codet5/usage/goroot/test/codegen/mathbits.go:716)	TEXT	command-line-arguments.Sub64(SB), NOSPLIT|ABIInternal, $0-24
	0x0000 00000 (/bigdata/qiuhan/codet5/usage/goroot/test/codegen/mathbits.go:716)	FUNCDATA	$0, gclocals·g2BeySu+wFnoycgXfElmcg==(SB)
	0x0000 00000 (/bigdata/qiuhan/codet5/usage/goroot/test/codegen/mathbits.go:716)	FUNCDATA	$1, gclocals·g2BeySu+wFnoycgXfElmcg==(SB)
	0x0000 00000 (/bigdata/qiuhan/codet5/usage/goroot/test/codegen/mathbits.go:716)	FUNCDATA	$5, command-line-arguments.Sub64.arginfo1(SB)
	0x0000 00000 (/bigdata/qiuhan/codet5/usage/goroot/test/codegen/mathbits.go:716)	FUNCDATA	$6, command-line-arguments.Sub64.argliveinfo(SB)
	0x0000 00000 (/bigdata/qiuhan/codet5/usage/goroot/test/codegen/mathbits.go:716)	PCDATA	$3, $1
	0x0000 00000 (/bigdata/qiuhan/codet5/usage/goroot/test/codegen/mathbits.go:724)	NEGL	CX
	0x0002 00002 (/bigdata/qiuhan/codet5/usage/goroot/test/codegen/mathbits.go:724)	SBBQ	BX, AX
	0x0005 00005 (/bigdata/qiuhan/codet5/usage/goroot/test/codegen/mathbits.go:724)	SBBQ	BX, BX
	0x0008 00008 (/bigdata/qiuhan/codet5/usage/goroot/test/codegen/mathbits.go:724)	NEGQ	BX
	0x000b 00011 (/bigdata/qiuhan/codet5/usage/goroot/test/codegen/mathbits.go:724)	RET
	0x0000 f7 d9 48 19 d8 48 19 db 48 f7 db c3              ..H..H..H...
command-line-arguments.Sub64C<1> STEXT nosplit size=13 args=0x10 locals=0x0 funcid=0x0 align=0x0
	0x0000 00000 (/bigdata/qiuhan/codet5/usage/goroot/test/codegen/mathbits.go:727)	TEXT	command-line-arguments.Sub64C(SB), NOSPLIT|ABIInternal, $0-16
	0x0000 00000 (/bigdata/qiuhan/codet5/usage/goroot/test/codegen/mathbits.go:727)	FUNCDATA	$0, gclocals·g2BeySu+wFnoycgXfElmcg==(SB)
	0x0000 00000 (/bigdata/qiuhan/codet5/usage/goroot/test/codegen/mathbits.go:727)	FUNCDATA	$1, gclocals·g2BeySu+wFnoycgXfElmcg==(SB)
	0x0000 00000 (/bigdata/qiuhan/codet5/usage/goroot/test/codegen/mathbits.go:727)	FUNCDATA	$5, command-line-arguments.Sub64C.arginfo1(SB)
	0x0000 00000 (/bigdata/qiuhan/codet5/usage/goroot/test/codegen/mathbits.go:727)	FUNCDATA	$6, command-line-arguments.Sub64C.argliveinfo(SB)
	0x0000 00000 (/bigdata/qiuhan/codet5/usage/goroot/test/codegen/mathbits.go:727)	PCDATA	$3, $1
	0x0000 00000 (/bigdata/qiuhan/codet5/usage/goroot/test/codegen/mathbits.go:735)	NEGL	BX
	0x0002 00002 (/bigdata/qiuhan/codet5/usage/goroot/test/codegen/mathbits.go:735)	SBBQ	$7, AX
	0x0006 00006 (/bigdata/qiuhan/codet5/usage/goroot/test/codegen/mathbits.go:735)	SBBQ	BX, BX
	0x0009 00009 (/bigdata/qiuhan/codet5/usage/goroot/test/codegen/mathbits.go:735)	NEGQ	BX
	0x000c 00012 (/bigdata/qiuhan/codet5/usage/goroot/test/codegen/mathbits.go:735)	RET
	0x0000 f7 db 48 83 d8 07 48 19 db 48 f7 db c3           ..H...H..H...
command-line-arguments.Sub64Z<1> STEXT nosplit size=10 args=0x10 locals=0x0 funcid=0x0 align=0x0
	0x0000 00000 (/bigdata/qiuhan/codet5/usage/goroot/test/codegen/mathbits.go:738)	TEXT	command-line-arguments.Sub64Z(SB), NOSPLIT|ABIInternal, $0-16
	0x0000 00000 (/bigdata/qiuhan/codet5/usage/goroot/test/codegen/mathbits.go:738)	FUNCDATA	$0, gclocals·g2BeySu+wFnoycgXfElmcg==(SB)
	0x0000 00000 (/bigdata/qiuhan/codet5/usage/goroot/test/codegen/mathbits.go:738)	FUNCDATA	$1, gclocals·g2BeySu+wFnoycgXfElmcg==(SB)
	0x0000 00000 (/bigdata/qiuhan/codet5/usage/goroot/test/codegen/mathbits.go:738)	FUNCDATA	$5, command-line-arguments.Sub64Z.arginfo1(SB)
	0x0000 00000 (/bigdata/qiuhan/codet5/usage/goroot/test/codegen/mathbits.go:738)	FUNCDATA	$6, command-line-arguments.Sub64Z.argliveinfo(SB)
	0x0000 00000 (/bigdata/qiuhan/codet5/usage/goroot/test/codegen/mathbits.go:738)	PCDATA	$3, $1
	0x0000 00000 (/bigdata/qiuhan/codet5/usage/goroot/test/codegen/mathbits.go:746)	SUBQ	BX, AX
	0x0003 00003 (/bigdata/qiuhan/codet5/usage/goroot/test/codegen/mathbits.go:746)	SBBQ	BX, BX
	0x0006 00006 (/bigdata/qiuhan/codet5/usage/goroot/test/codegen/mathbits.go:746)	NEGQ	BX
	0x0009 00009 (/bigdata/qiuhan/codet5/usage/goroot/test/codegen/mathbits.go:746)	RET
	0x0000 48 29 d8 48 19 db 48 f7 db c3                    H).H..H...
command-line-arguments.Sub64R<1> STEXT nosplit size=6 args=0x18 locals=0x0 funcid=0x0 align=0x0
	0x0000 00000 (/bigdata/qiuhan/codet5/usage/goroot/test/codegen/mathbits.go:749)	TEXT	command-line-arguments.Sub64R(SB), NOSPLIT|ABIInternal, $0-24
	0x0000 00000 (/bigdata/qiuhan/codet5/usage/goroot/test/codegen/mathbits.go:749)	FUNCDATA	$0, gclocals·g2BeySu+wFnoycgXfElmcg==(SB)
	0x0000 00000 (/bigdata/qiuhan/codet5/usage/goroot/test/codegen/mathbits.go:749)	FUNCDATA	$1, gclocals·g2BeySu+wFnoycgXfElmcg==(SB)
	0x0000 00000 (/bigdata/qiuhan/codet5/usage/goroot/test/codegen/mathbits.go:749)	FUNCDATA	$5, command-line-arguments.Sub64R.arginfo1(SB)
	0x0000 00000 (/bigdata/qiuhan/codet5/usage/goroot/test/codegen/mathbits.go:749)	FUNCDATA	$6, command-line-arguments.Sub64R.argliveinfo(SB)
	0x0000 00000 (/bigdata/qiuhan/codet5/usage/goroot/test/codegen/mathbits.go:749)	PCDATA	$3, $1
	0x0000 00000 (/bigdata/qiuhan/codet5/usage/goroot/test/codegen/mathbits.go:757)	NEGL	CX
	0x0002 00002 (/bigdata/qiuhan/codet5/usage/goroot/test/codegen/mathbits.go:757)	SBBQ	BX, AX
	0x0005 00005 (/bigdata/qiuhan/codet5/usage/goroot/test/codegen/mathbits.go:758)	RET
	0x0000 f7 d9 48 19 d8 c3                                ..H...
command-line-arguments.Sub64M<1> STEXT nosplit size=43 args=0x18 locals=0x0 funcid=0x0 align=0x0
	0x0000 00000 (/bigdata/qiuhan/codet5/usage/goroot/test/codegen/mathbits.go:760)	TEXT	command-line-arguments.Sub64M(SB), NOSPLIT|ABIInternal, $0-24
	0x0000 00000 (/bigdata/qiuhan/codet5/usage/goroot/test/codegen/mathbits.go:760)	FUNCDATA	$0, gclocals·LlfHo70um+DIUn9rjx/QUA==(SB)
	0x0000 00000 (/bigdata/qiuhan/codet5/usage/goroot/test/codegen/mathbits.go:760)	FUNCDATA	$1, gclocals·J5F+7Qw7O7ve2QcWC7DpeQ==(SB)
	0x0000 00000 (/bigdata/qiuhan/codet5/usage/goroot/test/codegen/mathbits.go:760)	FUNCDATA	$5, command-line-arguments.Sub64M.arginfo1(SB)
	0x0000 00000 (/bigdata/qiuhan/codet5/usage/goroot/test/codegen/mathbits.go:760)	FUNCDATA	$6, command-line-arguments.Sub64M.argliveinfo(SB)
	0x0000 00000 (/bigdata/qiuhan/codet5/usage/goroot/test/codegen/mathbits.go:760)	PCDATA	$3, $1
	0x0000 00000 (/bigdata/qiuhan/codet5/usage/goroot/test/codegen/mathbits.go:762)	MOVQ	(AX), DX
	0x0003 00003 (/bigdata/qiuhan/codet5/usage/goroot/test/codegen/mathbits.go:762)	MOVQ	(BX), SI
	0x0006 00006 (/bigdata/qiuhan/codet5/usage/goroot/test/codegen/mathbits.go:762)	SUBQ	SI, DX
	0x0009 00009 (/bigdata/qiuhan/codet5/usage/goroot/test/codegen/mathbits.go:762)	MOVQ	DX, (CX)
	0x000c 00012 (/bigdata/qiuhan/codet5/usage/goroot/test/codegen/mathbits.go:766)	MOVQ	8(AX), DX
	0x0010 00016 (/bigdata/qiuhan/codet5/usage/goroot/test/codegen/mathbits.go:766)	MOVQ	8(BX), SI
	0x0014 00020 (/bigdata/qiuhan/codet5/usage/goroot/test/codegen/mathbits.go:766)	SBBQ	SI, DX
	0x0017 00023 (/bigdata/qiuhan/codet5/usage/goroot/test/codegen/mathbits.go:766)	MOVQ	DX, 8(CX)
	0x001b 00027 (/bigdata/qiuhan/codet5/usage/goroot/test/codegen/mathbits.go:767)	MOVQ	16(AX), AX
	0x001f 00031 (/bigdata/qiuhan/codet5/usage/goroot/test/codegen/mathbits.go:767)	MOVQ	16(BX), DX
	0x0023 00035 (/bigdata/qiuhan/codet5/usage/goroot/test/codegen/mathbits.go:767)	SBBQ	DX, AX
	0x0026 00038 (/bigdata/qiuhan/codet5/usage/goroot/test/codegen/mathbits.go:767)	MOVQ	AX, 16(CX)
	0x002a 00042 (/bigdata/qiuhan/codet5/usage/goroot/test/codegen/mathbits.go:768)	RET
	0x0000 48 8b 10 48 8b 33 48 29 f2 48 89 11 48 8b 50 08  H..H.3H).H..H.P.
	0x0010 48 8b 73 08 48 19 f2 48 89 51 08 48 8b 40 10 48  H.s.H..H.Q.H.@.H
	0x0020 8b 53 10 48 19 d0 48 89 41 10 c3                 .S.H..H.A..
command-line-arguments.Sub64MSaveC<1> STEXT nosplit size=53 args=0x20 locals=0x0 funcid=0x0 align=0x0
	0x0000 00000 (/bigdata/qiuhan/codet5/usage/goroot/test/codegen/mathbits.go:770)	TEXT	command-line-arguments.Sub64MSaveC(SB), NOSPLIT|ABIInternal, $0-32
	0x0000 00000 (/bigdata/qiuhan/codet5/usage/goroot/test/codegen/mathbits.go:770)	FUNCDATA	$0, gclocals·br8UsANEGWp75kzr7DNKRQ==(SB)
	0x0000 00000 (/bigdata/qiuhan/codet5/usage/goroot/test/codegen/mathbits.go:770)	FUNCDATA	$1, gclocals·J5F+7Qw7O7ve2QcWC7DpeQ==(SB)
	0x0000 00000 (/bigdata/qiuhan/codet5/usage/goroot/test/codegen/mathbits.go:770)	FUNCDATA	$5, command-line-arguments.Sub64MSaveC.arginfo1(SB)
	0x0000 00000 (/bigdata/qiuhan/codet5/usage/goroot/test/codegen/mathbits.go:770)	FUNCDATA	$6, command-line-arguments.Sub64MSaveC.argliveinfo(SB)
	0x0000 00000 (/bigdata/qiuhan/codet5/usage/goroot/test/codegen/mathbits.go:770)	PCDATA	$3, $1
	0x0000 00000 (/bigdata/qiuhan/codet5/usage/goroot/test/codegen/mathbits.go:773)	MOVQ	(AX), DX
	0x0003 00003 (/bigdata/qiuhan/codet5/usage/goroot/test/codegen/mathbits.go:773)	MOVQ	(BX), SI
	0x0006 00006 (/bigdata/qiuhan/codet5/usage/goroot/test/codegen/mathbits.go:773)	MOVQ	DX, R8
	0x0009 00009 (/bigdata/qiuhan/codet5/usage/goroot/test/codegen/mathbits.go:773)	SUBQ	SI, DX
	0x000c 00012 (/bigdata/qiuhan/codet5/usage/goroot/test/codegen/mathbits.go:773)	MOVQ	DX, (CX)
	0x000f 00015 (/bigdata/qiuhan/codet5/usage/goroot/test/codegen/mathbits.go:773)	SBBQ	DX, DX
	0x0012 00018 (/bigdata/qiuhan/codet5/usage/goroot/test/codegen/mathbits.go:773)	NEGQ	DX
	0x0015 00021 (/bigdata/qiuhan/codet5/usage/goroot/test/codegen/mathbits.go:773)	MOVQ	DX, (DI)
	0x0018 00024 (/bigdata/qiuhan/codet5/usage/goroot/test/codegen/mathbits.go:776)	MOVQ	8(AX), AX
	0x001c 00028 (/bigdata/qiuhan/codet5/usage/goroot/test/codegen/mathbits.go:776)	MOVQ	8(BX), DX
	0x0020 00032 (/bigdata/qiuhan/codet5/usage/goroot/test/codegen/mathbits.go:773)	SUBQ	SI, R8
	0x0023 00035 (/bigdata/qiuhan/codet5/usage/goroot/test/codegen/mathbits.go:776)	SBBQ	DX, AX
	0x0026 00038 (/bigdata/qiuhan/codet5/usage/goroot/test/codegen/mathbits.go:776)	SBBQ	DX, DX
	0x0029 00041 (/bigdata/qiuhan/codet5/usage/goroot/test/codegen/mathbits.go:776)	MOVQ	AX, 8(CX)
	0x002d 00045 (/bigdata/qiuhan/codet5/usage/goroot/test/codegen/mathbits.go:776)	NEGQ	DX
	0x0030 00048 (/bigdata/qiuhan/codet5/usage/goroot/test/codegen/mathbits.go:776)	MOVQ	DX, 8(DI)
	0x0034 00052 (/bigdata/qiuhan/codet5/usage/goroot/test/codegen/mathbits.go:777)	RET
	0x0000 48 8b 10 48 8b 33 49 89 d0 48 29 f2 48 89 11 48  H..H.3I..H).H..H
	0x0010 19 d2 48 f7 da 48 89 17 48 8b 40 08 48 8b 53 08  ..H..H..H.@.H.S.
	0x0020 49 29 f0 48 19 d0 48 19 d2 48 89 41 08 48 f7 da  I).H..H..H.A.H..
	0x0030 48 89 57 08 c3                                   H.W..
command-line-arguments.Sub64PanicOnOverflowEQ<1> STEXT size=98 args=0x10 locals=0x18 funcid=0x0 align=0x0
	0x0000 00000 (/bigdata/qiuhan/codet5/usage/goroot/test/codegen/mathbits.go:779)	TEXT	command-line-arguments.Sub64PanicOnOverflowEQ(SB), ABIInternal, $24-16
	0x0000 00000 (/bigdata/qiuhan/codet5/usage/goroot/test/codegen/mathbits.go:779)	CMPQ	SP, 16(R14)
	0x0004 00004 (/bigdata/qiuhan/codet5/usage/goroot/test/codegen/mathbits.go:779)	PCDATA	$0, $-2
	0x0004 00004 (/bigdata/qiuhan/codet5/usage/goroot/test/codegen/mathbits.go:779)	JLS	70
	0x0006 00006 (/bigdata/qiuhan/codet5/usage/goroot/test/codegen/mathbits.go:779)	PCDATA	$0, $-1
	0x0006 00006 (/bigdata/qiuhan/codet5/usage/goroot/test/codegen/mathbits.go:779)	SUBQ	$24, SP
	0x000a 00010 (/bigdata/qiuhan/codet5/usage/goroot/test/codegen/mathbits.go:779)	MOVQ	BP, 16(SP)
	0x000f 00015 (/bigdata/qiuhan/codet5/usage/goroot/test/codegen/mathbits.go:779)	LEAQ	16(SP), BP
	0x0014 00020 (/bigdata/qiuhan/codet5/usage/goroot/test/codegen/mathbits.go:779)	FUNCDATA	$0, gclocals·g2BeySu+wFnoycgXfElmcg==(SB)
	0x0014 00020 (/bigdata/qiuhan/codet5/usage/goroot/test/codegen/mathbits.go:779)	FUNCDATA	$1, gclocals·g2BeySu+wFnoycgXfElmcg==(SB)
	0x0014 00020 (/bigdata/qiuhan/codet5/usage/goroot/test/codegen/mathbits.go:779)	FUNCDATA	$5, command-line-arguments.Sub64PanicOnOverflowEQ.arginfo1(SB)
	0x0014 00020 (/bigdata/qiuhan/codet5/usage/goroot/test/codegen/mathbits.go:779)	FUNCDATA	$6, command-line-arguments.Sub64PanicOnOverflowEQ.argliveinfo(SB)
	0x0014 00020 (/bigdata/qiuhan/codet5/usage/goroot/test/codegen/mathbits.go:779)	PCDATA	$3, $1
	0x0014 00020 (/bigdata/qiuhan/codet5/usage/goroot/test/codegen/mathbits.go:780)	SUBQ	BX, AX
	0x0017 00023 (/bigdata/qiuhan/codet5/usage/goroot/test/codegen/mathbits.go:780)	SBBQ	CX, CX
	0x001a 00026 (/bigdata/qiuhan/codet5/usage/goroot/test/codegen/mathbits.go:780)	NEGQ	CX
	0x001d 00029 (/bigdata/qiuhan/codet5/usage/goroot/test/codegen/mathbits.go:780)	NOP
	0x0020 00032 (/bigdata/qiuhan/codet5/usage/goroot/test/codegen/mathbits.go:782)	CMPQ	CX, $1
	0x0024 00036 (/bigdata/qiuhan/codet5/usage/goroot/test/codegen/mathbits.go:782)	JEQ	48
	0x0026 00038 (/bigdata/qiuhan/codet5/usage/goroot/test/codegen/mathbits.go:785)	MOVQ	16(SP), BP
	0x002b 00043 (/bigdata/qiuhan/codet5/usage/goroot/test/codegen/mathbits.go:785)	ADDQ	$24, SP
	0x002f 00047 (/bigdata/qiuhan/codet5/usage/goroot/test/codegen/mathbits.go:785)	RET
	0x0030 00048 (/bigdata/qiuhan/codet5/usage/goroot/test/codegen/mathbits.go:783)	LEAQ	type:string(SB), AX
	0x0037 00055 (/bigdata/qiuhan/codet5/usage/goroot/test/codegen/mathbits.go:783)	LEAQ	command-line-arguments..stmp_6(SB), BX
	0x003e 00062 (/bigdata/qiuhan/codet5/usage/goroot/test/codegen/mathbits.go:783)	PCDATA	$1, $0
	0x003e 00062 (/bigdata/qiuhan/codet5/usage/goroot/test/codegen/mathbits.go:783)	NOP
	0x0040 00064 (/bigdata/qiuhan/codet5/usage/goroot/test/codegen/mathbits.go:783)	CALL	runtime.gopanic(SB)
	0x0045 00069 (/bigdata/qiuhan/codet5/usage/goroot/test/codegen/mathbits.go:783)	XCHGL	AX, AX
	0x0046 00070 (/bigdata/qiuhan/codet5/usage/goroot/test/codegen/mathbits.go:783)	NOP
	0x0046 00070 (/bigdata/qiuhan/codet5/usage/goroot/test/codegen/mathbits.go:779)	PCDATA	$1, $-1
	0x0046 00070 (/bigdata/qiuhan/codet5/usage/goroot/test/codegen/mathbits.go:779)	PCDATA	$0, $-2
	0x0046 00070 (/bigdata/qiuhan/codet5/usage/goroot/test/codegen/mathbits.go:779)	MOVQ	AX, 8(SP)
	0x004b 00075 (/bigdata/qiuhan/codet5/usage/goroot/test/codegen/mathbits.go:779)	MOVQ	BX, 16(SP)
	0x0050 00080 (/bigdata/qiuhan/codet5/usage/goroot/test/codegen/mathbits.go:779)	CALL	runtime.morestack_noctxt(SB)
	0x0055 00085 (/bigdata/qiuhan/codet5/usage/goroot/test/codegen/mathbits.go:779)	MOVQ	8(SP), AX
	0x005a 00090 (/bigdata/qiuhan/codet5/usage/goroot/test/codegen/mathbits.go:779)	MOVQ	16(SP), BX
	0x005f 00095 (/bigdata/qiuhan/codet5/usage/goroot/test/codegen/mathbits.go:779)	PCDATA	$0, $-1
	0x005f 00095 (/bigdata/qiuhan/codet5/usage/goroot/test/codegen/mathbits.go:779)	NOP
	0x0060 00096 (/bigdata/qiuhan/codet5/usage/goroot/test/codegen/mathbits.go:779)	JMP	0
	0x0000 49 3b 66 10 76 40 48 83 ec 18 48 89 6c 24 10 48  I;f.v@H...H.l$.H
	0x0010 8d 6c 24 10 48 29 d8 48 19 c9 48 f7 d9 0f 1f 00  .l$.H).H..H.....
	0x0020 48 83 f9 01 74 0a 48 8b 6c 24 10 48 83 c4 18 c3  H...t.H.l$.H....
	0x0030 48 8d 05 00 00 00 00 48 8d 1d 00 00 00 00 66 90  H......H......f.
	0x0040 e8 00 00 00 00 90 48 89 44 24 08 48 89 5c 24 10  ......H.D$.H.\$.
	0x0050 e8 00 00 00 00 48 8b 44 24 08 48 8b 5c 24 10 90  .....H.D$.H.\$..
	0x0060 eb 9e                                            ..
	rel 2+0 t=23 type:string<0>+0
	rel 51+4 t=14 type:string<0>+0
	rel 58+4 t=14 command-line-arguments..stmp_6<0>+0
	rel 65+4 t=7 runtime.gopanic<1>+0
	rel 81+4 t=7 runtime.morestack_noctxt<0>+0
command-line-arguments.Sub64PanicOnOverflowNE<1> STEXT size=98 args=0x10 locals=0x18 funcid=0x0 align=0x0
	0x0000 00000 (/bigdata/qiuhan/codet5/usage/goroot/test/codegen/mathbits.go:788)	TEXT	command-line-arguments.Sub64PanicOnOverflowNE(SB), ABIInternal, $24-16
	0x0000 00000 (/bigdata/qiuhan/codet5/usage/goroot/test/codegen/mathbits.go:788)	CMPQ	SP, 16(R14)
	0x0004 00004 (/bigdata/qiuhan/codet5/usage/goroot/test/codegen/mathbits.go:788)	PCDATA	$0, $-2
	0x0004 00004 (/bigdata/qiuhan/codet5/usage/goroot/test/codegen/mathbits.go:788)	JLS	70
	0x0006 00006 (/bigdata/qiuhan/codet5/usage/goroot/test/codegen/mathbits.go:788)	PCDATA	$0, $-1
	0x0006 00006 (/bigdata/qiuhan/codet5/usage/goroot/test/codegen/mathbits.go:788)	SUBQ	$24, SP
	0x000a 00010 (/bigdata/qiuhan/codet5/usage/goroot/test/codegen/mathbits.go:788)	MOVQ	BP, 16(SP)
	0x000f 00015 (/bigdata/qiuhan/codet5/usage/goroot/test/codegen/mathbits.go:788)	LEAQ	16(SP), BP
	0x0014 00020 (/bigdata/qiuhan/codet5/usage/goroot/test/codegen/mathbits.go:788)	FUNCDATA	$0, gclocals·g2BeySu+wFnoycgXfElmcg==(SB)
	0x0014 00020 (/bigdata/qiuhan/codet5/usage/goroot/test/codegen/mathbits.go:788)	FUNCDATA	$1, gclocals·g2BeySu+wFnoycgXfElmcg==(SB)
	0x0014 00020 (/bigdata/qiuhan/codet5/usage/goroot/test/codegen/mathbits.go:788)	FUNCDATA	$5, command-line-arguments.Sub64PanicOnOverflowNE.arginfo1(SB)
	0x0014 00020 (/bigdata/qiuhan/codet5/usage/goroot/test/codegen/mathbits.go:788)	FUNCDATA	$6, command-line-arguments.Sub64PanicOnOverflowNE.argliveinfo(SB)
	0x0014 00020 (/bigdata/qiuhan/codet5/usage/goroot/test/codegen/mathbits.go:788)	PCDATA	$3, $1
	0x0014 00020 (/bigdata/qiuhan/codet5/usage/goroot/test/codegen/mathbits.go:789)	SUBQ	BX, AX
	0x0017 00023 (/bigdata/qiuhan/codet5/usage/goroot/test/codegen/mathbits.go:789)	SBBQ	CX, CX
	0x001a 00026 (/bigdata/qiuhan/codet5/usage/goroot/test/codegen/mathbits.go:789)	NEGQ	CX
	0x001d 00029 (/bigdata/qiuhan/codet5/usage/goroot/test/codegen/mathbits.go:789)	NOP
	0x0020 00032 (/bigdata/qiuhan/codet5/usage/goroot/test/codegen/mathbits.go:791)	TESTQ	CX, CX
	0x0023 00035 (/bigdata/qiuhan/codet5/usage/goroot/test/codegen/mathbits.go:791)	JNE	47
	0x0025 00037 (/bigdata/qiuhan/codet5/usage/goroot/test/codegen/mathbits.go:794)	MOVQ	16(SP), BP
	0x002a 00042 (/bigdata/qiuhan/codet5/usage/goroot/test/codegen/mathbits.go:794)	ADDQ	$24, SP
	0x002e 00046 (/bigdata/qiuhan/codet5/usage/goroot/test/codegen/mathbits.go:794)	RET
	0x002f 00047 (/bigdata/qiuhan/codet5/usage/goroot/test/codegen/mathbits.go:792)	LEAQ	type:string(SB), AX
	0x0036 00054 (/bigdata/qiuhan/codet5/usage/goroot/test/codegen/mathbits.go:792)	LEAQ	command-line-arguments..stmp_7(SB), BX
	0x003d 00061 (/bigdata/qiuhan/codet5/usage/goroot/test/codegen/mathbits.go:792)	PCDATA	$1, $0
	0x003d 00061 (/bigdata/qiuhan/codet5/usage/goroot/test/codegen/mathbits.go:792)	NOP
	0x0040 00064 (/bigdata/qiuhan/codet5/usage/goroot/test/codegen/mathbits.go:792)	CALL	runtime.gopanic(SB)
	0x0045 00069 (/bigdata/qiuhan/codet5/usage/goroot/test/codegen/mathbits.go:792)	XCHGL	AX, AX
	0x0046 00070 (/bigdata/qiuhan/codet5/usage/goroot/test/codegen/mathbits.go:792)	NOP
	0x0046 00070 (/bigdata/qiuhan/codet5/usage/goroot/test/codegen/mathbits.go:788)	PCDATA	$1, $-1
	0x0046 00070 (/bigdata/qiuhan/codet5/usage/goroot/test/codegen/mathbits.go:788)	PCDATA	$0, $-2
	0x0046 00070 (/bigdata/qiuhan/codet5/usage/goroot/test/codegen/mathbits.go:788)	MOVQ	AX, 8(SP)
	0x004b 00075 (/bigdata/qiuhan/codet5/usage/goroot/test/codegen/mathbits.go:788)	MOVQ	BX, 16(SP)
	0x0050 00080 (/bigdata/qiuhan/codet5/usage/goroot/test/codegen/mathbits.go:788)	CALL	runtime.morestack_noctxt(SB)
	0x0055 00085 (/bigdata/qiuhan/codet5/usage/goroot/test/codegen/mathbits.go:788)	MOVQ	8(SP), AX
	0x005a 00090 (/bigdata/qiuhan/codet5/usage/goroot/test/codegen/mathbits.go:788)	MOVQ	16(SP), BX
	0x005f 00095 (/bigdata/qiuhan/codet5/usage/goroot/test/codegen/mathbits.go:788)	PCDATA	$0, $-1
	0x005f 00095 (/bigdata/qiuhan/codet5/usage/goroot/test/codegen/mathbits.go:788)	NOP
	0x0060 00096 (/bigdata/qiuhan/codet5/usage/goroot/test/codegen/mathbits.go:788)	JMP	0
	0x0000 49 3b 66 10 76 40 48 83 ec 18 48 89 6c 24 10 48  I;f.v@H...H.l$.H
	0x0010 8d 6c 24 10 48 29 d8 48 19 c9 48 f7 d9 0f 1f 00  .l$.H).H..H.....
	0x0020 48 85 c9 75 0a 48 8b 6c 24 10 48 83 c4 18 c3 48  H..u.H.l$.H....H
	0x0030 8d 05 00 00 00 00 48 8d 1d 00 00 00 00 0f 1f 00  ......H.........
	0x0040 e8 00 00 00 00 90 48 89 44 24 08 48 89 5c 24 10  ......H.D$.H.\$.
	0x0050 e8 00 00 00 00 48 8b 44 24 08 48 8b 5c 24 10 90  .....H.D$.H.\$..
	0x0060 eb 9e                                            ..
	rel 2+0 t=23 type:string<0>+0
	rel 50+4 t=14 type:string<0>+0
	rel 57+4 t=14 command-line-arguments..stmp_7<0>+0
	rel 65+4 t=7 runtime.gopanic<1>+0
	rel 81+4 t=7 runtime.morestack_noctxt<0>+0
command-line-arguments.Sub64PanicOnOverflowGT<1> STEXT size=98 args=0x10 locals=0x18 funcid=0x0 align=0x0
	0x0000 00000 (/bigdata/qiuhan/codet5/usage/goroot/test/codegen/mathbits.go:797)	TEXT	command-line-arguments.Sub64PanicOnOverflowGT(SB), ABIInternal, $24-16
	0x0000 00000 (/bigdata/qiuhan/codet5/usage/goroot/test/codegen/mathbits.go:797)	CMPQ	SP, 16(R14)
	0x0004 00004 (/bigdata/qiuhan/codet5/usage/goroot/test/codegen/mathbits.go:797)	PCDATA	$0, $-2
	0x0004 00004 (/bigdata/qiuhan/codet5/usage/goroot/test/codegen/mathbits.go:797)	JLS	70
	0x0006 00006 (/bigdata/qiuhan/codet5/usage/goroot/test/codegen/mathbits.go:797)	PCDATA	$0, $-1
	0x0006 00006 (/bigdata/qiuhan/codet5/usage/goroot/test/codegen/mathbits.go:797)	SUBQ	$24, SP
	0x000a 00010 (/bigdata/qiuhan/codet5/usage/goroot/test/codegen/mathbits.go:797)	MOVQ	BP, 16(SP)
	0x000f 00015 (/bigdata/qiuhan/codet5/usage/goroot/test/codegen/mathbits.go:797)	LEAQ	16(SP), BP
	0x0014 00020 (/bigdata/qiuhan/codet5/usage/goroot/test/codegen/mathbits.go:797)	FUNCDATA	$0, gclocals·g2BeySu+wFnoycgXfElmcg==(SB)
	0x0014 00020 (/bigdata/qiuhan/codet5/usage/goroot/test/codegen/mathbits.go:797)	FUNCDATA	$1, gclocals·g2BeySu+wFnoycgXfElmcg==(SB)
	0x0014 00020 (/bigdata/qiuhan/codet5/usage/goroot/test/codegen/mathbits.go:797)	FUNCDATA	$5, command-line-arguments.Sub64PanicOnOverflowGT.arginfo1(SB)
	0x0014 00020 (/bigdata/qiuhan/codet5/usage/goroot/test/codegen/mathbits.go:797)	FUNCDATA	$6, command-line-arguments.Sub64PanicOnOverflowGT.argliveinfo(SB)
	0x0014 00020 (/bigdata/qiuhan/codet5/usage/goroot/test/codegen/mathbits.go:797)	PCDATA	$3, $1
	0x0014 00020 (/bigdata/qiuhan/codet5/usage/goroot/test/codegen/mathbits.go:798)	SUBQ	BX, AX
	0x0017 00023 (/bigdata/qiuhan/codet5/usage/goroot/test/codegen/mathbits.go:798)	SBBQ	CX, CX
	0x001a 00026 (/bigdata/qiuhan/codet5/usage/goroot/test/codegen/mathbits.go:798)	NEGQ	CX
	0x001d 00029 (/bigdata/qiuhan/codet5/usage/goroot/test/codegen/mathbits.go:798)	NOP
	0x0020 00032 (/bigdata/qiuhan/codet5/usage/goroot/test/codegen/mathbits.go:800)	TESTQ	CX, CX
	0x0023 00035 (/bigdata/qiuhan/codet5/usage/goroot/test/codegen/mathbits.go:800)	JHI	47
	0x0025 00037 (/bigdata/qiuhan/codet5/usage/goroot/test/codegen/mathbits.go:803)	MOVQ	16(SP), BP
	0x002a 00042 (/bigdata/qiuhan/codet5/usage/goroot/test/codegen/mathbits.go:803)	ADDQ	$24, SP
	0x002e 00046 (/bigdata/qiuhan/codet5/usage/goroot/test/codegen/mathbits.go:803)	RET
	0x002f 00047 (/bigdata/qiuhan/codet5/usage/goroot/test/codegen/mathbits.go:801)	LEAQ	type:string(SB), AX
	0x0036 00054 (/bigdata/qiuhan/codet5/usage/goroot/test/codegen/mathbits.go:801)	LEAQ	command-line-arguments..stmp_8(SB), BX
	0x003d 00061 (/bigdata/qiuhan/codet5/usage/goroot/test/codegen/mathbits.go:801)	PCDATA	$1, $0
	0x003d 00061 (/bigdata/qiuhan/codet5/usage/goroot/test/codegen/mathbits.go:801)	NOP
	0x0040 00064 (/bigdata/qiuhan/codet5/usage/goroot/test/codegen/mathbits.go:801)	CALL	runtime.gopanic(SB)
	0x0045 00069 (/bigdata/qiuhan/codet5/usage/goroot/test/codegen/mathbits.go:801)	XCHGL	AX, AX
	0x0046 00070 (/bigdata/qiuhan/codet5/usage/goroot/test/codegen/mathbits.go:801)	NOP
	0x0046 00070 (/bigdata/qiuhan/codet5/usage/goroot/test/codegen/mathbits.go:797)	PCDATA	$1, $-1
	0x0046 00070 (/bigdata/qiuhan/codet5/usage/goroot/test/codegen/mathbits.go:797)	PCDATA	$0, $-2
	0x0046 00070 (/bigdata/qiuhan/codet5/usage/goroot/test/codegen/mathbits.go:797)	MOVQ	AX, 8(SP)
	0x004b 00075 (/bigdata/qiuhan/codet5/usage/goroot/test/codegen/mathbits.go:797)	MOVQ	BX, 16(SP)
	0x0050 00080 (/bigdata/qiuhan/codet5/usage/goroot/test/codegen/mathbits.go:797)	CALL	runtime.morestack_noctxt(SB)
	0x0055 00085 (/bigdata/qiuhan/codet5/usage/goroot/test/codegen/mathbits.go:797)	MOVQ	8(SP), AX
	0x005a 00090 (/bigdata/qiuhan/codet5/usage/goroot/test/codegen/mathbits.go:797)	MOVQ	16(SP), BX
	0x005f 00095 (/bigdata/qiuhan/codet5/usage/goroot/test/codegen/mathbits.go:797)	PCDATA	$0, $-1
	0x005f 00095 (/bigdata/qiuhan/codet5/usage/goroot/test/codegen/mathbits.go:797)	NOP
	0x0060 00096 (/bigdata/qiuhan/codet5/usage/goroot/test/codegen/mathbits.go:797)	JMP	0
	0x0000 49 3b 66 10 76 40 48 83 ec 18 48 89 6c 24 10 48  I;f.v@H...H.l$.H
	0x0010 8d 6c 24 10 48 29 d8 48 19 c9 48 f7 d9 0f 1f 00  .l$.H).H..H.....
	0x0020 48 85 c9 77 0a 48 8b 6c 24 10 48 83 c4 18 c3 48  H..w.H.l$.H....H
	0x0030 8d 05 00 00 00 00 48 8d 1d 00 00 00 00 0f 1f 00  ......H.........
	0x0040 e8 00 00 00 00 90 48 89 44 24 08 48 89 5c 24 10  ......H.D$.H.\$.
	0x0050 e8 00 00 00 00 48 8b 44 24 08 48 8b 5c 24 10 90  .....H.D$.H.\$..
	0x0060 eb 9e                                            ..
	rel 2+0 t=23 type:string<0>+0
	rel 50+4 t=14 type:string<0>+0
	rel 57+4 t=14 command-line-arguments..stmp_8<0>+0
	rel 65+4 t=7 runtime.gopanic<1>+0
	rel 81+4 t=7 runtime.morestack_noctxt<0>+0
command-line-arguments.Sub64MPanicOnOverflowEQ<1> STEXT size=117 args=0x30 locals=0x18 funcid=0x0 align=0x0
	0x0000 00000 (/bigdata/qiuhan/codet5/usage/goroot/test/codegen/mathbits.go:806)	TEXT	command-line-arguments.Sub64MPanicOnOverflowEQ(SB), ABIInternal, $24-48
	0x0000 00000 (/bigdata/qiuhan/codet5/usage/goroot/test/codegen/mathbits.go:806)	CMPQ	SP, 16(R14)
	0x0004 00004 (/bigdata/qiuhan/codet5/usage/goroot/test/codegen/mathbits.go:806)	PCDATA	$0, $-2
	0x0004 00004 (/bigdata/qiuhan/codet5/usage/goroot/test/codegen/mathbits.go:806)	JLS	110
	0x0006 00006 (/bigdata/qiuhan/codet5/usage/goroot/test/codegen/mathbits.go:806)	PCDATA	$0, $-1
	0x0006 00006 (/bigdata/qiuhan/codet5/usage/goroot/test/codegen/mathbits.go:806)	SUBQ	$24, SP
	0x000a 00010 (/bigdata/qiuhan/codet5/usage/goroot/test/codegen/mathbits.go:806)	MOVQ	BP, 16(SP)
	0x000f 00015 (/bigdata/qiuhan/codet5/usage/goroot/test/codegen/mathbits.go:806)	LEAQ	16(SP), BP
	0x0014 00020 (/bigdata/qiuhan/codet5/usage/goroot/test/codegen/mathbits.go:806)	FUNCDATA	$0, gclocals·g2BeySu+wFnoycgXfElmcg==(SB)
	0x0014 00020 (/bigdata/qiuhan/codet5/usage/goroot/test/codegen/mathbits.go:806)	FUNCDATA	$1, gclocals·g2BeySu+wFnoycgXfElmcg==(SB)
	0x0014 00020 (/bigdata/qiuhan/codet5/usage/goroot/test/codegen/mathbits.go:806)	FUNCDATA	$5, command-line-arguments.Sub64MPanicOnOverflowEQ.arginfo1(SB)
	0x0014 00020 (/bigdata/qiuhan/codet5/usage/goroot/test/codegen/mathbits.go:806)	MOVUPS	X15, command-line-arguments.~r0+64(SP)
	0x001a 00026 (/bigdata/qiuhan/codet5/usage/goroot/test/codegen/mathbits.go:809)	MOVQ	command-line-arguments.a+32(SP), CX
	0x001f 00031 (/bigdata/qiuhan/codet5/usage/goroot/test/codegen/mathbits.go:809)	MOVQ	command-line-arguments.b+48(SP), DX
	0x0024 00036 (/bigdata/qiuhan/codet5/usage/goroot/test/codegen/mathbits.go:810)	MOVQ	command-line-arguments.a+40(SP), SI
	0x0029 00041 (/bigdata/qiuhan/codet5/usage/goroot/test/codegen/mathbits.go:810)	MOVQ	command-line-arguments.b+56(SP), DI
	0x002e 00046 (/bigdata/qiuhan/codet5/usage/goroot/test/codegen/mathbits.go:809)	SUBQ	DX, CX
	0x0031 00049 (/bigdata/qiuhan/codet5/usage/goroot/test/codegen/mathbits.go:810)	SBBQ	DI, SI
	0x0034 00052 (/bigdata/qiuhan/codet5/usage/goroot/test/codegen/mathbits.go:810)	SBBQ	DX, DX
	0x0037 00055 (/bigdata/qiuhan/codet5/usage/goroot/test/codegen/mathbits.go:810)	NEGQ	DX
	0x003a 00058 (/bigdata/qiuhan/codet5/usage/goroot/test/codegen/mathbits.go:810)	NOP
	0x0040 00064 (/bigdata/qiuhan/codet5/usage/goroot/test/codegen/mathbits.go:812)	CMPQ	DX, $1
	0x0044 00068 (/bigdata/qiuhan/codet5/usage/goroot/test/codegen/mathbits.go:812)	JEQ	90
	0x0046 00070 (/bigdata/qiuhan/codet5/usage/goroot/test/codegen/mathbits.go:815)	MOVQ	CX, command-line-arguments.~r0+64(SP)
	0x004b 00075 (/bigdata/qiuhan/codet5/usage/goroot/test/codegen/mathbits.go:815)	MOVQ	SI, command-line-arguments.~r0+72(SP)
	0x0050 00080 (/bigdata/qiuhan/codet5/usage/goroot/test/codegen/mathbits.go:815)	MOVQ	16(SP), BP
	0x0055 00085 (/bigdata/qiuhan/codet5/usage/goroot/test/codegen/mathbits.go:815)	ADDQ	$24, SP
	0x0059 00089 (/bigdata/qiuhan/codet5/usage/goroot/test/codegen/mathbits.go:815)	RET
	0x005a 00090 (/bigdata/qiuhan/codet5/usage/goroot/test/codegen/mathbits.go:813)	LEAQ	type:string(SB), AX
	0x0061 00097 (/bigdata/qiuhan/codet5/usage/goroot/test/codegen/mathbits.go:813)	LEAQ	command-line-arguments..stmp_9(SB), BX
	0x0068 00104 (/bigdata/qiuhan/codet5/usage/goroot/test/codegen/mathbits.go:813)	PCDATA	$1, $0
	0x0068 00104 (/bigdata/qiuhan/codet5/usage/goroot/test/codegen/mathbits.go:813)	CALL	runtime.gopanic(SB)
	0x006d 00109 (/bigdata/qiuhan/codet5/usage/goroot/test/codegen/mathbits.go:813)	XCHGL	AX, AX
	0x006e 00110 (/bigdata/qiuhan/codet5/usage/goroot/test/codegen/mathbits.go:813)	NOP
	0x006e 00110 (/bigdata/qiuhan/codet5/usage/goroot/test/codegen/mathbits.go:806)	PCDATA	$1, $-1
	0x006e 00110 (/bigdata/qiuhan/codet5/usage/goroot/test/codegen/mathbits.go:806)	PCDATA	$0, $-2
	0x006e 00110 (/bigdata/qiuhan/codet5/usage/goroot/test/codegen/mathbits.go:806)	CALL	runtime.morestack_noctxt(SB)
	0x0073 00115 (/bigdata/qiuhan/codet5/usage/goroot/test/codegen/mathbits.go:806)	PCDATA	$0, $-1
	0x0073 00115 (/bigdata/qiuhan/codet5/usage/goroot/test/codegen/mathbits.go:806)	JMP	0
	0x0000 49 3b 66 10 76 68 48 83 ec 18 48 89 6c 24 10 48  I;f.vhH...H.l$.H
	0x0010 8d 6c 24 10 44 0f 11 7c 24 40 48 8b 4c 24 20 48  .l$.D..|$@H.L$ H
	0x0020 8b 54 24 30 48 8b 74 24 28 48 8b 7c 24 38 48 29  .T$0H.t$(H.|$8H)
	0x0030 d1 48 19 fe 48 19 d2 48 f7 da 66 0f 1f 44 00 00  .H..H..H..f..D..
	0x0040 48 83 fa 01 74 14 48 89 4c 24 40 48 89 74 24 48  H...t.H.L$@H.t$H
	0x0050 48 8b 6c 24 10 48 83 c4 18 c3 48 8d 05 00 00 00  H.l$.H....H.....
	0x0060 00 48 8d 1d 00 00 00 00 e8 00 00 00 00 90 e8 00  .H..............
	0x0070 00 00 00 eb 8b                                   .....
	rel 2+0 t=23 type:string<0>+0
	rel 93+4 t=14 type:string<0>+0
	rel 100+4 t=14 command-line-arguments..stmp_9<0>+0
	rel 105+4 t=7 runtime.gopanic<1>+0
	rel 111+4 t=7 runtime.morestack_noctxt<0>+0
command-line-arguments.Sub64MPanicOnOverflowNE<1> STEXT size=110 args=0x30 locals=0x18 funcid=0x0 align=0x0
	0x0000 00000 (/bigdata/qiuhan/codet5/usage/goroot/test/codegen/mathbits.go:818)	TEXT	command-line-arguments.Sub64MPanicOnOverflowNE(SB), ABIInternal, $24-48
	0x0000 00000 (/bigdata/qiuhan/codet5/usage/goroot/test/codegen/mathbits.go:818)	CMPQ	SP, 16(R14)
	0x0004 00004 (/bigdata/qiuhan/codet5/usage/goroot/test/codegen/mathbits.go:818)	PCDATA	$0, $-2
	0x0004 00004 (/bigdata/qiuhan/codet5/usage/goroot/test/codegen/mathbits.go:818)	JLS	103
	0x0006 00006 (/bigdata/qiuhan/codet5/usage/goroot/test/codegen/mathbits.go:818)	PCDATA	$0, $-1
	0x0006 00006 (/bigdata/qiuhan/codet5/usage/goroot/test/codegen/mathbits.go:818)	SUBQ	$24, SP
	0x000a 00010 (/bigdata/qiuhan/codet5/usage/goroot/test/codegen/mathbits.go:818)	MOVQ	BP, 16(SP)
	0x000f 00015 (/bigdata/qiuhan/codet5/usage/goroot/test/codegen/mathbits.go:818)	LEAQ	16(SP), BP
	0x0014 00020 (/bigdata/qiuhan/codet5/usage/goroot/test/codegen/mathbits.go:818)	FUNCDATA	$0, gclocals·g2BeySu+wFnoycgXfElmcg==(SB)
	0x0014 00020 (/bigdata/qiuhan/codet5/usage/goroot/test/codegen/mathbits.go:818)	FUNCDATA	$1, gclocals·g2BeySu+wFnoycgXfElmcg==(SB)
	0x0014 00020 (/bigdata/qiuhan/codet5/usage/goroot/test/codegen/mathbits.go:818)	FUNCDATA	$5, command-line-arguments.Sub64MPanicOnOverflowNE.arginfo1(SB)
	0x0014 00020 (/bigdata/qiuhan/codet5/usage/goroot/test/codegen/mathbits.go:818)	MOVUPS	X15, command-line-arguments.~r0+64(SP)
	0x001a 00026 (/bigdata/qiuhan/codet5/usage/goroot/test/codegen/mathbits.go:821)	MOVQ	command-line-arguments.a+32(SP), CX
	0x001f 00031 (/bigdata/qiuhan/codet5/usage/goroot/test/codegen/mathbits.go:821)	MOVQ	command-line-arguments.b+48(SP), DX
	0x0024 00036 (/bigdata/qiuhan/codet5/usage/goroot/test/codegen/mathbits.go:822)	MOVQ	command-line-arguments.a+40(SP), SI
	0x0029 00041 (/bigdata/qiuhan/codet5/usage/goroot/test/codegen/mathbits.go:822)	MOVQ	command-line-arguments.b+56(SP), DI
	0x002e 00046 (/bigdata/qiuhan/codet5/usage/goroot/test/codegen/mathbits.go:821)	SUBQ	DX, CX
	0x0031 00049 (/bigdata/qiuhan/codet5/usage/goroot/test/codegen/mathbits.go:822)	SBBQ	DI, SI
	0x0034 00052 (/bigdata/qiuhan/codet5/usage/goroot/test/codegen/mathbits.go:822)	SBBQ	DX, DX
	0x0037 00055 (/bigdata/qiuhan/codet5/usage/goroot/test/codegen/mathbits.go:822)	NEGQ	DX
	0x003a 00058 (/bigdata/qiuhan/codet5/usage/goroot/test/codegen/mathbits.go:824)	TESTQ	DX, DX
	0x003d 00061 (/bigdata/qiuhan/codet5/usage/goroot/test/codegen/mathbits.go:824)	JNE	83
	0x003f 00063 (/bigdata/qiuhan/codet5/usage/goroot/test/codegen/mathbits.go:827)	MOVQ	CX, command-line-arguments.~r0+64(SP)
	0x0044 00068 (/bigdata/qiuhan/codet5/usage/goroot/test/codegen/mathbits.go:827)	MOVQ	SI, command-line-arguments.~r0+72(SP)
	0x0049 00073 (/bigdata/qiuhan/codet5/usage/goroot/test/codegen/mathbits.go:827)	MOVQ	16(SP), BP
	0x004e 00078 (/bigdata/qiuhan/codet5/usage/goroot/test/codegen/mathbits.go:827)	ADDQ	$24, SP
	0x0052 00082 (/bigdata/qiuhan/codet5/usage/goroot/test/codegen/mathbits.go:827)	RET
	0x0053 00083 (/bigdata/qiuhan/codet5/usage/goroot/test/codegen/mathbits.go:825)	LEAQ	type:string(SB), AX
	0x005a 00090 (/bigdata/qiuhan/codet5/usage/goroot/test/codegen/mathbits.go:825)	LEAQ	command-line-arguments..stmp_10(SB), BX
	0x0061 00097 (/bigdata/qiuhan/codet5/usage/goroot/test/codegen/mathbits.go:825)	PCDATA	$1, $0
	0x0061 00097 (/bigdata/qiuhan/codet5/usage/goroot/test/codegen/mathbits.go:825)	CALL	runtime.gopanic(SB)
	0x0066 00102 (/bigdata/qiuhan/codet5/usage/goroot/test/codegen/mathbits.go:825)	XCHGL	AX, AX
	0x0067 00103 (/bigdata/qiuhan/codet5/usage/goroot/test/codegen/mathbits.go:825)	NOP
	0x0067 00103 (/bigdata/qiuhan/codet5/usage/goroot/test/codegen/mathbits.go:818)	PCDATA	$1, $-1
	0x0067 00103 (/bigdata/qiuhan/codet5/usage/goroot/test/codegen/mathbits.go:818)	PCDATA	$0, $-2
	0x0067 00103 (/bigdata/qiuhan/codet5/usage/goroot/test/codegen/mathbits.go:818)	CALL	runtime.morestack_noctxt(SB)
	0x006c 00108 (/bigdata/qiuhan/codet5/usage/goroot/test/codegen/mathbits.go:818)	PCDATA	$0, $-1
	0x006c 00108 (/bigdata/qiuhan/codet5/usage/goroot/test/codegen/mathbits.go:818)	JMP	0
	0x0000 49 3b 66 10 76 61 48 83 ec 18 48 89 6c 24 10 48  I;f.vaH...H.l$.H
	0x0010 8d 6c 24 10 44 0f 11 7c 24 40 48 8b 4c 24 20 48  .l$.D..|$@H.L$ H
	0x0020 8b 54 24 30 48 8b 74 24 28 48 8b 7c 24 38 48 29  .T$0H.t$(H.|$8H)
	0x0030 d1 48 19 fe 48 19 d2 48 f7 da 48 85 d2 75 14 48  .H..H..H..H..u.H
	0x0040 89 4c 24 40 48 89 74 24 48 48 8b 6c 24 10 48 83  .L$@H.t$HH.l$.H.
	0x0050 c4 18 c3 48 8d 05 00 00 00 00 48 8d 1d 00 00 00  ...H......H.....
	0x0060 00 e8 00 00 00 00 90 e8 00 00 00 00 eb 92        ..............
	rel 2+0 t=23 type:string<0>+0
	rel 86+4 t=14 type:string<0>+0
	rel 93+4 t=14 command-line-arguments..stmp_10<0>+0
	rel 98+4 t=7 runtime.gopanic<1>+0
	rel 104+4 t=7 runtime.morestack_noctxt<0>+0
command-line-arguments.Sub64MPanicOnOverflowGT<1> STEXT size=110 args=0x30 locals=0x18 funcid=0x0 align=0x0
	0x0000 00000 (/bigdata/qiuhan/codet5/usage/goroot/test/codegen/mathbits.go:830)	TEXT	command-line-arguments.Sub64MPanicOnOverflowGT(SB), ABIInternal, $24-48
	0x0000 00000 (/bigdata/qiuhan/codet5/usage/goroot/test/codegen/mathbits.go:830)	CMPQ	SP, 16(R14)
	0x0004 00004 (/bigdata/qiuhan/codet5/usage/goroot/test/codegen/mathbits.go:830)	PCDATA	$0, $-2
	0x0004 00004 (/bigdata/qiuhan/codet5/usage/goroot/test/codegen/mathbits.go:830)	JLS	103
	0x0006 00006 (/bigdata/qiuhan/codet5/usage/goroot/test/codegen/mathbits.go:830)	PCDATA	$0, $-1
	0x0006 00006 (/bigdata/qiuhan/codet5/usage/goroot/test/codegen/mathbits.go:830)	SUBQ	$24, SP
	0x000a 00010 (/bigdata/qiuhan/codet5/usage/goroot/test/codegen/mathbits.go:830)	MOVQ	BP, 16(SP)
	0x000f 00015 (/bigdata/qiuhan/codet5/usage/goroot/test/codegen/mathbits.go:830)	LEAQ	16(SP), BP
	0x0014 00020 (/bigdata/qiuhan/codet5/usage/goroot/test/codegen/mathbits.go:830)	FUNCDATA	$0, gclocals·g2BeySu+wFnoycgXfElmcg==(SB)
	0x0014 00020 (/bigdata/qiuhan/codet5/usage/goroot/test/codegen/mathbits.go:830)	FUNCDATA	$1, gclocals·g2BeySu+wFnoycgXfElmcg==(SB)
	0x0014 00020 (/bigdata/qiuhan/codet5/usage/goroot/test/codegen/mathbits.go:830)	FUNCDATA	$5, command-line-arguments.Sub64MPanicOnOverflowGT.arginfo1(SB)
	0x0014 00020 (/bigdata/qiuhan/codet5/usage/goroot/test/codegen/mathbits.go:830)	MOVUPS	X15, command-line-arguments.~r0+64(SP)
	0x001a 00026 (/bigdata/qiuhan/codet5/usage/goroot/test/codegen/mathbits.go:833)	MOVQ	command-line-arguments.a+32(SP), CX
	0x001f 00031 (/bigdata/qiuhan/codet5/usage/goroot/test/codegen/mathbits.go:833)	MOVQ	command-line-arguments.b+48(SP), DX
	0x0024 00036 (/bigdata/qiuhan/codet5/usage/goroot/test/codegen/mathbits.go:834)	MOVQ	command-line-arguments.a+40(SP), SI
	0x0029 00041 (/bigdata/qiuhan/codet5/usage/goroot/test/codegen/mathbits.go:834)	MOVQ	command-line-arguments.b+56(SP), DI
	0x002e 00046 (/bigdata/qiuhan/codet5/usage/goroot/test/codegen/mathbits.go:833)	SUBQ	DX, CX
	0x0031 00049 (/bigdata/qiuhan/codet5/usage/goroot/test/codegen/mathbits.go:834)	SBBQ	DI, SI
	0x0034 00052 (/bigdata/qiuhan/codet5/usage/goroot/test/codegen/mathbits.go:834)	SBBQ	DX, DX
	0x0037 00055 (/bigdata/qiuhan/codet5/usage/goroot/test/codegen/mathbits.go:834)	NEGQ	DX
	0x003a 00058 (/bigdata/qiuhan/codet5/usage/goroot/test/codegen/mathbits.go:836)	TESTQ	DX, DX
	0x003d 00061 (/bigdata/qiuhan/codet5/usage/goroot/test/codegen/mathbits.go:836)	JHI	83
	0x003f 00063 (/bigdata/qiuhan/codet5/usage/goroot/test/codegen/mathbits.go:839)	MOVQ	CX, command-line-arguments.~r0+64(SP)
	0x0044 00068 (/bigdata/qiuhan/codet5/usage/goroot/test/codegen/mathbits.go:839)	MOVQ	SI, command-line-arguments.~r0+72(SP)
	0x0049 00073 (/bigdata/qiuhan/codet5/usage/goroot/test/codegen/mathbits.go:839)	MOVQ	16(SP), BP
	0x004e 00078 (/bigdata/qiuhan/codet5/usage/goroot/test/codegen/mathbits.go:839)	ADDQ	$24, SP
	0x0052 00082 (/bigdata/qiuhan/codet5/usage/goroot/test/codegen/mathbits.go:839)	RET
	0x0053 00083 (/bigdata/qiuhan/codet5/usage/goroot/test/codegen/mathbits.go:837)	LEAQ	type:string(SB), AX
	0x005a 00090 (/bigdata/qiuhan/codet5/usage/goroot/test/codegen/mathbits.go:837)	LEAQ	command-line-arguments..stmp_11(SB), BX
	0x0061 00097 (/bigdata/qiuhan/codet5/usage/goroot/test/codegen/mathbits.go:837)	PCDATA	$1, $0
	0x0061 00097 (/bigdata/qiuhan/codet5/usage/goroot/test/codegen/mathbits.go:837)	CALL	runtime.gopanic(SB)
	0x0066 00102 (/bigdata/qiuhan/codet5/usage/goroot/test/codegen/mathbits.go:837)	XCHGL	AX, AX
	0x0067 00103 (/bigdata/qiuhan/codet5/usage/goroot/test/codegen/mathbits.go:837)	NOP
	0x0067 00103 (/bigdata/qiuhan/codet5/usage/goroot/test/codegen/mathbits.go:830)	PCDATA	$1, $-1
	0x0067 00103 (/bigdata/qiuhan/codet5/usage/goroot/test/codegen/mathbits.go:830)	PCDATA	$0, $-2
	0x0067 00103 (/bigdata/qiuhan/codet5/usage/goroot/test/codegen/mathbits.go:830)	CALL	runtime.morestack_noctxt(SB)
	0x006c 00108 (/bigdata/qiuhan/codet5/usage/goroot/test/codegen/mathbits.go:830)	PCDATA	$0, $-1
	0x006c 00108 (/bigdata/qiuhan/codet5/usage/goroot/test/codegen/mathbits.go:830)	JMP	0
	0x0000 49 3b 66 10 76 61 48 83 ec 18 48 89 6c 24 10 48  I;f.vaH...H.l$.H
	0x0010 8d 6c 24 10 44 0f 11 7c 24 40 48 8b 4c 24 20 48  .l$.D..|$@H.L$ H
	0x0020 8b 54 24 30 48 8b 74 24 28 48 8b 7c 24 38 48 29  .T$0H.t$(H.|$8H)
	0x0030 d1 48 19 fe 48 19 d2 48 f7 da 48 85 d2 77 14 48  .H..H..H..H..w.H
	0x0040 89 4c 24 40 48 89 74 24 48 48 8b 6c 24 10 48 83  .L$@H.t$HH.l$.H.
	0x0050 c4 18 c3 48 8d 05 00 00 00 00 48 8d 1d 00 00 00  ...H......H.....
	0x0060 00 e8 00 00 00 00 90 e8 00 00 00 00 eb 92        ..............
	rel 2+0 t=23 type:string<0>+0
	rel 86+4 t=14 type:string<0>+0
	rel 93+4 t=14 command-line-arguments..stmp_11<0>+0
	rel 98+4 t=7 runtime.gopanic<1>+0
	rel 104+4 t=7 runtime.morestack_noctxt<0>+0
command-line-arguments.Mul<1> STEXT nosplit size=10 args=0x10 locals=0x0 funcid=0x0 align=0x0
	0x0000 00000 (/bigdata/qiuhan/codet5/usage/goroot/test/codegen/mathbits.go:846)	TEXT	command-line-arguments.Mul(SB), NOSPLIT|ABIInternal, $0-16
	0x0000 00000 (/bigdata/qiuhan/codet5/usage/goroot/test/codegen/mathbits.go:846)	FUNCDATA	$0, gclocals·g2BeySu+wFnoycgXfElmcg==(SB)
	0x0000 00000 (/bigdata/qiuhan/codet5/usage/goroot/test/codegen/mathbits.go:846)	FUNCDATA	$1, gclocals·g2BeySu+wFnoycgXfElmcg==(SB)
	0x0000 00000 (/bigdata/qiuhan/codet5/usage/goroot/test/codegen/mathbits.go:846)	FUNCDATA	$5, command-line-arguments.Mul.arginfo1(SB)
	0x0000 00000 (/bigdata/qiuhan/codet5/usage/goroot/test/codegen/mathbits.go:846)	FUNCDATA	$6, command-line-arguments.Mul.argliveinfo(SB)
	0x0000 00000 (/bigdata/qiuhan/codet5/usage/goroot/test/codegen/mathbits.go:846)	PCDATA	$3, $1
	0x0000 00000 (/bigdata/qiuhan/codet5/usage/goroot/test/codegen/mathbits.go:853)	MULQ	BX
	0x0003 00003 (/bigdata/qiuhan/codet5/usage/goroot/test/codegen/mathbits.go:853)	MOVQ	AX, BX
	0x0006 00006 (/bigdata/qiuhan/codet5/usage/goroot/test/codegen/mathbits.go:853)	MOVQ	DX, AX
	0x0009 00009 (/bigdata/qiuhan/codet5/usage/goroot/test/codegen/mathbits.go:853)	RET
	0x0000 48 f7 e3 48 89 c3 48 89 d0 c3                    H..H..H...
command-line-arguments.Mul64<1> STEXT nosplit size=10 args=0x10 locals=0x0 funcid=0x0 align=0x0
	0x0000 00000 (/bigdata/qiuhan/codet5/usage/goroot/test/codegen/mathbits.go:856)	TEXT	command-line-arguments.Mul64(SB), NOSPLIT|ABIInternal, $0-16
	0x0000 00000 (/bigdata/qiuhan/codet5/usage/goroot/test/codegen/mathbits.go:856)	FUNCDATA	$0, gclocals·g2BeySu+wFnoycgXfElmcg==(SB)
	0x0000 00000 (/bigdata/qiuhan/codet5/usage/goroot/test/codegen/mathbits.go:856)	FUNCDATA	$1, gclocals·g2BeySu+wFnoycgXfElmcg==(SB)
	0x0000 00000 (/bigdata/qiuhan/codet5/usage/goroot/test/codegen/mathbits.go:856)	FUNCDATA	$5, command-line-arguments.Mul64.arginfo1(SB)
	0x0000 00000 (/bigdata/qiuhan/codet5/usage/goroot/test/codegen/mathbits.go:856)	FUNCDATA	$6, command-line-arguments.Mul64.argliveinfo(SB)
	0x0000 00000 (/bigdata/qiuhan/codet5/usage/goroot/test/codegen/mathbits.go:856)	PCDATA	$3, $1
	0x0000 00000 (/bigdata/qiuhan/codet5/usage/goroot/test/codegen/mathbits.go:864)	MULQ	BX
	0x0003 00003 (/bigdata/qiuhan/codet5/usage/goroot/test/codegen/mathbits.go:864)	MOVQ	AX, BX
	0x0006 00006 (/bigdata/qiuhan/codet5/usage/goroot/test/codegen/mathbits.go:864)	MOVQ	DX, AX
	0x0009 00009 (/bigdata/qiuhan/codet5/usage/goroot/test/codegen/mathbits.go:864)	RET
	0x0000 48 f7 e3 48 89 c3 48 89 d0 c3                    H..H..H...
command-line-arguments.Mul64HiOnly<1> STEXT nosplit size=7 args=0x10 locals=0x0 funcid=0x0 align=0x0
	0x0000 00000 (/bigdata/qiuhan/codet5/usage/goroot/test/codegen/mathbits.go:867)	TEXT	command-line-arguments.Mul64HiOnly(SB), NOSPLIT|ABIInternal, $0-16
	0x0000 00000 (/bigdata/qiuhan/codet5/usage/goroot/test/codegen/mathbits.go:867)	FUNCDATA	$0, gclocals·g2BeySu+wFnoycgXfElmcg==(SB)
	0x0000 00000 (/bigdata/qiuhan/codet5/usage/goroot/test/codegen/mathbits.go:867)	FUNCDATA	$1, gclocals·g2BeySu+wFnoycgXfElmcg==(SB)
	0x0000 00000 (/bigdata/qiuhan/codet5/usage/goroot/test/codegen/mathbits.go:867)	FUNCDATA	$5, command-line-arguments.Mul64HiOnly.arginfo1(SB)
	0x0000 00000 (/bigdata/qiuhan/codet5/usage/goroot/test/codegen/mathbits.go:867)	FUNCDATA	$6, command-line-arguments.Mul64HiOnly.argliveinfo(SB)
	0x0000 00000 (/bigdata/qiuhan/codet5/usage/goroot/test/codegen/mathbits.go:867)	PCDATA	$3, $1
	0x0000 00000 (/bigdata/qiuhan/codet5/usage/goroot/test/codegen/mathbits.go:870)	MULQ	BX
	0x0003 00003 (/bigdata/qiuhan/codet5/usage/goroot/test/codegen/mathbits.go:871)	MOVQ	DX, AX
	0x0006 00006 (/bigdata/qiuhan/codet5/usage/goroot/test/codegen/mathbits.go:871)	RET
	0x0000 48 f7 e3 48 89 d0 c3                             H..H...
command-line-arguments.Mul64LoOnly<1> STEXT nosplit size=4 args=0x10 locals=0x0 funcid=0x0 align=0x0
	0x0000 00000 (/bigdata/qiuhan/codet5/usage/goroot/test/codegen/mathbits.go:874)	TEXT	command-line-arguments.Mul64LoOnly(SB), NOSPLIT|ABIInternal, $0-16
	0x0000 00000 (/bigdata/qiuhan/codet5/usage/goroot/test/codegen/mathbits.go:874)	FUNCDATA	$0, gclocals·g2BeySu+wFnoycgXfElmcg==(SB)
	0x0000 00000 (/bigdata/qiuhan/codet5/usage/goroot/test/codegen/mathbits.go:874)	FUNCDATA	$1, gclocals·g2BeySu+wFnoycgXfElmcg==(SB)
	0x0000 00000 (/bigdata/qiuhan/codet5/usage/goroot/test/codegen/mathbits.go:874)	FUNCDATA	$5, command-line-arguments.Mul64LoOnly.arginfo1(SB)
	0x0000 00000 (/bigdata/qiuhan/codet5/usage/goroot/test/codegen/mathbits.go:874)	FUNCDATA	$6, command-line-arguments.Mul64LoOnly.argliveinfo(SB)
	0x0000 00000 (/bigdata/qiuhan/codet5/usage/goroot/test/codegen/mathbits.go:874)	PCDATA	$3, $1
	0x0000 00000 (/bigdata/qiuhan/codet5/usage/goroot/test/codegen/mathbits.go:877)	MULQ	BX
	0x0003 00003 (/bigdata/qiuhan/codet5/usage/goroot/test/codegen/mathbits.go:878)	RET
	0x0000 48 f7 e3 c3                                      H...
command-line-arguments.Div<1> STEXT size=98 args=0x18 locals=0x8 funcid=0x0 align=0x0
	0x0000 00000 (/bigdata/qiuhan/codet5/usage/goroot/test/codegen/mathbits.go:885)	TEXT	command-line-arguments.Div(SB), ABIInternal, $8-24
	0x0000 00000 (/bigdata/qiuhan/codet5/usage/goroot/test/codegen/mathbits.go:885)	CMPQ	SP, 16(R14)
	0x0004 00004 (/bigdata/qiuhan/codet5/usage/goroot/test/codegen/mathbits.go:885)	PCDATA	$0, $-2
	0x0004 00004 (/bigdata/qiuhan/codet5/usage/goroot/test/codegen/mathbits.go:885)	JLS	60
	0x0006 00006 (/bigdata/qiuhan/codet5/usage/goroot/test/codegen/mathbits.go:885)	PCDATA	$0, $-1
	0x0006 00006 (/bigdata/qiuhan/codet5/usage/goroot/test/codegen/mathbits.go:885)	SUBQ	$8, SP
	0x000a 00010 (/bigdata/qiuhan/codet5/usage/goroot/test/codegen/mathbits.go:885)	MOVQ	BP, (SP)
	0x000e 00014 (/bigdata/qiuhan/codet5/usage/goroot/test/codegen/mathbits.go:885)	LEAQ	(SP), BP
	0x0012 00018 (/bigdata/qiuhan/codet5/usage/goroot/test/codegen/mathbits.go:885)	FUNCDATA	$0, gclocals·g2BeySu+wFnoycgXfElmcg==(SB)
	0x0012 00018 (/bigdata/qiuhan/codet5/usage/goroot/test/codegen/mathbits.go:885)	FUNCDATA	$1, gclocals·g2BeySu+wFnoycgXfElmcg==(SB)
	0x0012 00018 (/bigdata/qiuhan/codet5/usage/goroot/test/codegen/mathbits.go:885)	FUNCDATA	$5, command-line-arguments.Div.arginfo1(SB)
	0x0012 00018 (/bigdata/qiuhan/codet5/usage/goroot/test/codegen/mathbits.go:885)	FUNCDATA	$6, command-line-arguments.Div.argliveinfo(SB)
	0x0012 00018 (/bigdata/qiuhan/codet5/usage/goroot/test/codegen/mathbits.go:885)	PCDATA	$3, $1
	0x0012 00018 (/bigdata/qiuhan/codet5/usage/goroot/test/codegen/mathbits.go:887)	TESTQ	CX, CX
	0x0015 00021 (/bigdata/qiuhan/codet5/usage/goroot/test/codegen/mathbits.go:887)	JEQ	54
	0x0017 00023 (/bigdata/qiuhan/codet5/usage/goroot/test/codegen/mathbits.go:887)	CMPQ	CX, AX
	0x001a 00026 (/bigdata/qiuhan/codet5/usage/goroot/test/codegen/mathbits.go:887)	JLS	49
	0x001c 00028 (/bigdata/qiuhan/codet5/usage/goroot/test/codegen/mathbits.go:887)	MOVQ	AX, DX
	0x001f 00031 (/bigdata/qiuhan/codet5/usage/goroot/test/codegen/mathbits.go:887)	MOVQ	BX, AX
	0x0022 00034 (/bigdata/qiuhan/codet5/usage/goroot/test/codegen/mathbits.go:887)	DIVQ	CX
	0x0025 00037 (/bigdata/qiuhan/codet5/usage/goroot/test/codegen/mathbits.go:887)	MOVQ	DX, BX
	0x0028 00040 (/bigdata/qiuhan/codet5/usage/goroot/test/codegen/mathbits.go:887)	MOVQ	(SP), BP
	0x002c 00044 (/bigdata/qiuhan/codet5/usage/goroot/test/codegen/mathbits.go:887)	ADDQ	$8, SP
	0x0030 00048 (/bigdata/qiuhan/codet5/usage/goroot/test/codegen/mathbits.go:887)	RET
	0x0031 00049 (/bigdata/qiuhan/codet5/usage/goroot/test/codegen/mathbits.go:887)	PCDATA	$1, $0
	0x0031 00049 (/bigdata/qiuhan/codet5/usage/goroot/test/codegen/mathbits.go:887)	CALL	runtime.panicoverflow(SB)
	0x0036 00054 (/bigdata/qiuhan/codet5/usage/goroot/test/codegen/mathbits.go:887)	CALL	runtime.panicdivide(SB)
	0x003b 00059 (/bigdata/qiuhan/codet5/usage/goroot/test/codegen/mathbits.go:887)	XCHGL	AX, AX
	0x003c 00060 (/bigdata/qiuhan/codet5/usage/goroot/test/codegen/mathbits.go:887)	NOP
	0x003c 00060 (/bigdata/qiuhan/codet5/usage/goroot/test/codegen/mathbits.go:885)	PCDATA	$1, $-1
	0x003c 00060 (/bigdata/qiuhan/codet5/usage/goroot/test/codegen/mathbits.go:885)	PCDATA	$0, $-2
	0x003c 00060 (/bigdata/qiuhan/codet5/usage/goroot/test/codegen/mathbits.go:885)	MOVQ	AX, 8(SP)
	0x0041 00065 (/bigdata/qiuhan/codet5/usage/goroot/test/codegen/mathbits.go:885)	MOVQ	BX, 16(SP)
	0x0046 00070 (/bigdata/qiuhan/codet5/usage/goroot/test/codegen/mathbits.go:885)	MOVQ	CX, 24(SP)
	0x004b 00075 (/bigdata/qiuhan/codet5/usage/goroot/test/codegen/mathbits.go:885)	CALL	runtime.morestack_noctxt(SB)
	0x0050 00080 (/bigdata/qiuhan/codet5/usage/goroot/test/codegen/mathbits.go:885)	MOVQ	8(SP), AX
	0x0055 00085 (/bigdata/qiuhan/codet5/usage/goroot/test/codegen/mathbits.go:885)	MOVQ	16(SP), BX
	0x005a 00090 (/bigdata/qiuhan/codet5/usage/goroot/test/codegen/mathbits.go:885)	MOVQ	24(SP), CX
	0x005f 00095 (/bigdata/qiuhan/codet5/usage/goroot/test/codegen/mathbits.go:885)	PCDATA	$0, $-1
	0x005f 00095 (/bigdata/qiuhan/codet5/usage/goroot/test/codegen/mathbits.go:885)	NOP
	0x0060 00096 (/bigdata/qiuhan/codet5/usage/goroot/test/codegen/mathbits.go:885)	JMP	0
	0x0000 49 3b 66 10 76 36 48 83 ec 08 48 89 2c 24 48 8d  I;f.v6H...H.,$H.
	0x0010 2c 24 48 85 c9 74 1f 48 39 c1 76 15 48 89 c2 48  ,$H..t.H9.v.H..H
	0x0020 89 d8 48 f7 f1 48 89 d3 48 8b 2c 24 48 83 c4 08  ..H..H..H.,$H...
	0x0030 c3 e8 00 00 00 00 e8 00 00 00 00 90 48 89 44 24  ............H.D$
	0x0040 08 48 89 5c 24 10 48 89 4c 24 18 e8 00 00 00 00  .H.\$.H.L$......
	0x0050 48 8b 44 24 08 48 8b 5c 24 10 48 8b 4c 24 18 90  H.D$.H.\$.H.L$..
	0x0060 eb 9e                                            ..
	rel 50+4 t=7 runtime.panicoverflow<1>+0
	rel 55+4 t=7 runtime.panicdivide<1>+0
	rel 76+4 t=7 runtime.morestack_noctxt<0>+0
command-line-arguments.Div32<1> STEXT size=136 args=0x10 locals=0x18 funcid=0x0 align=0x0
	0x0000 00000 (/bigdata/qiuhan/codet5/usage/goroot/test/codegen/mathbits.go:890)	TEXT	command-line-arguments.Div32(SB), ABIInternal, $24-16
	0x0000 00000 (/bigdata/qiuhan/codet5/usage/goroot/test/codegen/mathbits.go:890)	CMPQ	SP, 16(R14)
	0x0004 00004 (/bigdata/qiuhan/codet5/usage/goroot/test/codegen/mathbits.go:890)	PCDATA	$0, $-2
	0x0004 00004 (/bigdata/qiuhan/codet5/usage/goroot/test/codegen/mathbits.go:890)	JLS	102
	0x0006 00006 (/bigdata/qiuhan/codet5/usage/goroot/test/codegen/mathbits.go:890)	PCDATA	$0, $-1
	0x0006 00006 (/bigdata/qiuhan/codet5/usage/goroot/test/codegen/mathbits.go:890)	SUBQ	$24, SP
	0x000a 00010 (/bigdata/qiuhan/codet5/usage/goroot/test/codegen/mathbits.go:890)	MOVQ	BP, 16(SP)
	0x000f 00015 (/bigdata/qiuhan/codet5/usage/goroot/test/codegen/mathbits.go:890)	LEAQ	16(SP), BP
	0x0014 00020 (/bigdata/qiuhan/codet5/usage/goroot/test/codegen/mathbits.go:890)	FUNCDATA	$0, gclocals·g2BeySu+wFnoycgXfElmcg==(SB)
	0x0014 00020 (/bigdata/qiuhan/codet5/usage/goroot/test/codegen/mathbits.go:890)	FUNCDATA	$1, gclocals·g2BeySu+wFnoycgXfElmcg==(SB)
	0x0014 00020 (/bigdata/qiuhan/codet5/usage/goroot/test/codegen/mathbits.go:890)	FUNCDATA	$5, command-line-arguments.Div32.arginfo1(SB)
	0x0014 00020 (/bigdata/qiuhan/codet5/usage/goroot/test/codegen/mathbits.go:890)	FUNCDATA	$6, command-line-arguments.Div32.argliveinfo(SB)
	0x0014 00020 (/bigdata/qiuhan/codet5/usage/goroot/test/codegen/mathbits.go:890)	PCDATA	$3, $1
	0x0014 00020 (<unknown line number>)	NOP
	0x0014 00020 (/bigdata/qiuhan/codet5/usage/goroot/test/codegen/mathbits.go:892)	TESTL	CX, CX
	0x0016 00022 (/bigdata/qiuhan/codet5/usage/goroot/test/codegen/mathbits.go:892)	JEQ	28
	0x0018 00024 (/bigdata/qiuhan/codet5/usage/goroot/test/codegen/mathbits.go:892)	CMPL	CX, AX
	0x001a 00026 (/bigdata/qiuhan/codet5/usage/goroot/test/codegen/mathbits.go:892)	JLS	70
	0x001c 00028 (/bigdata/qiuhan/codet5/usage/goroot/test/codegen/mathbits.go:892)	MOVL	AX, AX
	0x001e 00030 (/bigdata/qiuhan/codet5/usage/goroot/test/codegen/mathbits.go:892)	SHLQ	$32, AX
	0x0022 00034 (/bigdata/qiuhan/codet5/usage/goroot/test/codegen/mathbits.go:892)	MOVL	BX, DX
	0x0024 00036 (/bigdata/qiuhan/codet5/usage/goroot/test/codegen/mathbits.go:892)	ORQ	DX, AX
	0x0027 00039 (/bigdata/qiuhan/codet5/usage/goroot/test/codegen/mathbits.go:892)	MOVL	CX, CX
	0x0029 00041 (/bigdata/qiuhan/codet5/usage/goroot/test/codegen/mathbits.go:892)	TESTQ	CX, CX
	0x002c 00044 (/bigdata/qiuhan/codet5/usage/goroot/test/codegen/mathbits.go:892)	JEQ	65
	0x002e 00046 (/bigdata/qiuhan/codet5/usage/goroot/test/codegen/mathbits.go:892)	XORL	DX, DX
	0x0030 00048 (/bigdata/qiuhan/codet5/usage/goroot/test/codegen/mathbits.go:892)	DIVQ	CX
	0x0033 00051 (/bigdata/qiuhan/codet5/usage/goroot/test/codegen/mathbits.go:892)	MOVQ	DX, BX
	0x0036 00054 (/bigdata/qiuhan/codet5/usage/goroot/test/codegen/mathbits.go:892)	MOVQ	16(SP), BP
	0x003b 00059 (/bigdata/qiuhan/codet5/usage/goroot/test/codegen/mathbits.go:892)	ADDQ	$24, SP
	0x003f 00063 (/bigdata/qiuhan/codet5/usage/goroot/test/codegen/mathbits.go:892)	NOP
	0x0040 00064 (/bigdata/qiuhan/codet5/usage/goroot/test/codegen/mathbits.go:892)	RET
	0x0041 00065 (/bigdata/qiuhan/codet5/usage/goroot/test/codegen/mathbits.go:892)	PCDATA	$1, $0
	0x0041 00065 (/bigdata/qiuhan/codet5/usage/goroot/test/codegen/mathbits.go:892)	CALL	runtime.panicdivide(SB)
	0x0046 00070 (/bigdata/qiuhan/codet5/usage/goroot/test/codegen/mathbits.go:892)	MOVQ	runtime.overflowError(SB), CX
	0x004d 00077 (/bigdata/qiuhan/codet5/usage/goroot/test/codegen/mathbits.go:892)	MOVQ	runtime.overflowError+8(SB), BX
	0x0054 00084 (/bigdata/qiuhan/codet5/usage/goroot/test/codegen/mathbits.go:892)	TESTQ	CX, CX
	0x0057 00087 (/bigdata/qiuhan/codet5/usage/goroot/test/codegen/mathbits.go:892)	JEQ	93
	0x0059 00089 (/bigdata/qiuhan/codet5/usage/goroot/test/codegen/mathbits.go:892)	MOVQ	8(CX), CX
	0x005d 00093 (/bigdata/qiuhan/codet5/usage/goroot/test/codegen/mathbits.go:892)	MOVQ	CX, AX
	0x0060 00096 (/bigdata/qiuhan/codet5/usage/goroot/test/codegen/mathbits.go:892)	CALL	runtime.gopanic(SB)
	0x0065 00101 (/bigdata/qiuhan/codet5/usage/goroot/test/codegen/mathbits.go:892)	XCHGL	AX, AX
	0x0066 00102 (/bigdata/qiuhan/codet5/usage/goroot/test/codegen/mathbits.go:892)	NOP
	0x0066 00102 (/bigdata/qiuhan/codet5/usage/goroot/test/codegen/mathbits.go:890)	PCDATA	$1, $-1
	0x0066 00102 (/bigdata/qiuhan/codet5/usage/goroot/test/codegen/mathbits.go:890)	PCDATA	$0, $-2
	0x0066 00102 (/bigdata/qiuhan/codet5/usage/goroot/test/codegen/mathbits.go:890)	MOVL	AX, 8(SP)
	0x006a 00106 (/bigdata/qiuhan/codet5/usage/goroot/test/codegen/mathbits.go:890)	MOVL	BX, 12(SP)
	0x006e 00110 (/bigdata/qiuhan/codet5/usage/goroot/test/codegen/mathbits.go:890)	MOVL	CX, 16(SP)
	0x0072 00114 (/bigdata/qiuhan/codet5/usage/goroot/test/codegen/mathbits.go:890)	CALL	runtime.morestack_noctxt(SB)
	0x0077 00119 (/bigdata/qiuhan/codet5/usage/goroot/test/codegen/mathbits.go:890)	MOVL	8(SP), AX
	0x007b 00123 (/bigdata/qiuhan/codet5/usage/goroot/test/codegen/mathbits.go:890)	MOVL	12(SP), BX
	0x007f 00127 (/bigdata/qiuhan/codet5/usage/goroot/test/codegen/mathbits.go:890)	MOVL	16(SP), CX
	0x0083 00131 (/bigdata/qiuhan/codet5/usage/goroot/test/codegen/mathbits.go:890)	PCDATA	$0, $-1
	0x0083 00131 (/bigdata/qiuhan/codet5/usage/goroot/test/codegen/mathbits.go:890)	JMP	0
	0x0000 49 3b 66 10 76 60 48 83 ec 18 48 89 6c 24 10 48  I;f.v`H...H.l$.H
	0x0010 8d 6c 24 10 85 c9 74 04 39 c1 76 2a 89 c0 48 c1  .l$...t.9.v*..H.
	0x0020 e0 20 89 da 48 09 d0 89 c9 48 85 c9 74 13 31 d2  . ..H....H..t.1.
	0x0030 48 f7 f1 48 89 d3 48 8b 6c 24 10 48 83 c4 18 90  H..H..H.l$.H....
	0x0040 c3 e8 00 00 00 00 48 8b 0d 00 00 00 00 48 8b 1d  ......H......H..
	0x0050 00 00 00 00 48 85 c9 74 04 48 8b 49 08 48 89 c8  ....H..t.H.I.H..
	0x0060 e8 00 00 00 00 90 89 44 24 08 89 5c 24 0c 89 4c  .......D$..\$..L
	0x0070 24 10 e8 00 00 00 00 8b 44 24 08 8b 5c 24 0c 8b  $.......D$..\$..
	0x0080 4c 24 10 e9 78 ff ff ff                          L$..x...
	rel 66+4 t=7 runtime.panicdivide<1>+0
	rel 73+4 t=14 runtime.overflowError<0>+0
	rel 80+4 t=14 runtime.overflowError<0>+8
	rel 97+4 t=7 runtime.gopanic<1>+0
	rel 115+4 t=7 runtime.morestack_noctxt<0>+0
command-line-arguments.Div64<1> STEXT size=98 args=0x18 locals=0x8 funcid=0x0 align=0x0
	0x0000 00000 (/bigdata/qiuhan/codet5/usage/goroot/test/codegen/mathbits.go:895)	TEXT	command-line-arguments.Div64(SB), ABIInternal, $8-24
	0x0000 00000 (/bigdata/qiuhan/codet5/usage/goroot/test/codegen/mathbits.go:895)	CMPQ	SP, 16(R14)
	0x0004 00004 (/bigdata/qiuhan/codet5/usage/goroot/test/codegen/mathbits.go:895)	PCDATA	$0, $-2
	0x0004 00004 (/bigdata/qiuhan/codet5/usage/goroot/test/codegen/mathbits.go:895)	JLS	60
	0x0006 00006 (/bigdata/qiuhan/codet5/usage/goroot/test/codegen/mathbits.go:895)	PCDATA	$0, $-1
	0x0006 00006 (/bigdata/qiuhan/codet5/usage/goroot/test/codegen/mathbits.go:895)	SUBQ	$8, SP
	0x000a 00010 (/bigdata/qiuhan/codet5/usage/goroot/test/codegen/mathbits.go:895)	MOVQ	BP, (SP)
	0x000e 00014 (/bigdata/qiuhan/codet5/usage/goroot/test/codegen/mathbits.go:895)	LEAQ	(SP), BP
	0x0012 00018 (/bigdata/qiuhan/codet5/usage/goroot/test/codegen/mathbits.go:895)	FUNCDATA	$0, gclocals·g2BeySu+wFnoycgXfElmcg==(SB)
	0x0012 00018 (/bigdata/qiuhan/codet5/usage/goroot/test/codegen/mathbits.go:895)	FUNCDATA	$1, gclocals·g2BeySu+wFnoycgXfElmcg==(SB)
	0x0012 00018 (/bigdata/qiuhan/codet5/usage/goroot/test/codegen/mathbits.go:895)	FUNCDATA	$5, command-line-arguments.Div64.arginfo1(SB)
	0x0012 00018 (/bigdata/qiuhan/codet5/usage/goroot/test/codegen/mathbits.go:895)	FUNCDATA	$6, command-line-arguments.Div64.argliveinfo(SB)
	0x0012 00018 (/bigdata/qiuhan/codet5/usage/goroot/test/codegen/mathbits.go:895)	PCDATA	$3, $1
	0x0012 00018 (/bigdata/qiuhan/codet5/usage/goroot/test/codegen/mathbits.go:897)	TESTQ	CX, CX
	0x0015 00021 (/bigdata/qiuhan/codet5/usage/goroot/test/codegen/mathbits.go:897)	JEQ	54
	0x0017 00023 (/bigdata/qiuhan/codet5/usage/goroot/test/codegen/mathbits.go:897)	CMPQ	CX, AX
	0x001a 00026 (/bigdata/qiuhan/codet5/usage/goroot/test/codegen/mathbits.go:897)	JLS	49
	0x001c 00028 (/bigdata/qiuhan/codet5/usage/goroot/test/codegen/mathbits.go:897)	MOVQ	AX, DX
	0x001f 00031 (/bigdata/qiuhan/codet5/usage/goroot/test/codegen/mathbits.go:897)	MOVQ	BX, AX
	0x0022 00034 (/bigdata/qiuhan/codet5/usage/goroot/test/codegen/mathbits.go:897)	DIVQ	CX
	0x0025 00037 (/bigdata/qiuhan/codet5/usage/goroot/test/codegen/mathbits.go:897)	MOVQ	DX, BX
	0x0028 00040 (/bigdata/qiuhan/codet5/usage/goroot/test/codegen/mathbits.go:897)	MOVQ	(SP), BP
	0x002c 00044 (/bigdata/qiuhan/codet5/usage/goroot/test/codegen/mathbits.go:897)	ADDQ	$8, SP
	0x0030 00048 (/bigdata/qiuhan/codet5/usage/goroot/test/codegen/mathbits.go:897)	RET
	0x0031 00049 (/bigdata/qiuhan/codet5/usage/goroot/test/codegen/mathbits.go:897)	PCDATA	$1, $0
	0x0031 00049 (/bigdata/qiuhan/codet5/usage/goroot/test/codegen/mathbits.go:897)	CALL	runtime.panicoverflow(SB)
	0x0036 00054 (/bigdata/qiuhan/codet5/usage/goroot/test/codegen/mathbits.go:897)	CALL	runtime.panicdivide(SB)
	0x003b 00059 (/bigdata/qiuhan/codet5/usage/goroot/test/codegen/mathbits.go:897)	XCHGL	AX, AX
	0x003c 00060 (/bigdata/qiuhan/codet5/usage/goroot/test/codegen/mathbits.go:897)	NOP
	0x003c 00060 (/bigdata/qiuhan/codet5/usage/goroot/test/codegen/mathbits.go:895)	PCDATA	$1, $-1
	0x003c 00060 (/bigdata/qiuhan/codet5/usage/goroot/test/codegen/mathbits.go:895)	PCDATA	$0, $-2
	0x003c 00060 (/bigdata/qiuhan/codet5/usage/goroot/test/codegen/mathbits.go:895)	MOVQ	AX, 8(SP)
	0x0041 00065 (/bigdata/qiuhan/codet5/usage/goroot/test/codegen/mathbits.go:895)	MOVQ	BX, 16(SP)
	0x0046 00070 (/bigdata/qiuhan/codet5/usage/goroot/test/codegen/mathbits.go:895)	MOVQ	CX, 24(SP)
	0x004b 00075 (/bigdata/qiuhan/codet5/usage/goroot/test/codegen/mathbits.go:895)	CALL	runtime.morestack_noctxt(SB)
	0x0050 00080 (/bigdata/qiuhan/codet5/usage/goroot/test/codegen/mathbits.go:895)	MOVQ	8(SP), AX
	0x0055 00085 (/bigdata/qiuhan/codet5/usage/goroot/test/codegen/mathbits.go:895)	MOVQ	16(SP), BX
	0x005a 00090 (/bigdata/qiuhan/codet5/usage/goroot/test/codegen/mathbits.go:895)	MOVQ	24(SP), CX
	0x005f 00095 (/bigdata/qiuhan/codet5/usage/goroot/test/codegen/mathbits.go:895)	PCDATA	$0, $-1
	0x005f 00095 (/bigdata/qiuhan/codet5/usage/goroot/test/codegen/mathbits.go:895)	NOP
	0x0060 00096 (/bigdata/qiuhan/codet5/usage/goroot/test/codegen/mathbits.go:895)	JMP	0
	0x0000 49 3b 66 10 76 36 48 83 ec 08 48 89 2c 24 48 8d  I;f.v6H...H.,$H.
	0x0010 2c 24 48 85 c9 74 1f 48 39 c1 76 15 48 89 c2 48  ,$H..t.H9.v.H..H
	0x0020 89 d8 48 f7 f1 48 89 d3 48 8b 2c 24 48 83 c4 08  ..H..H..H.,$H...
	0x0030 c3 e8 00 00 00 00 e8 00 00 00 00 90 48 89 44 24  ............H.D$
	0x0040 08 48 89 5c 24 10 48 89 4c 24 18 e8 00 00 00 00  .H.\$.H.L$......
	0x0050 48 8b 44 24 08 48 8b 5c 24 10 48 8b 4c 24 18 90  H.D$.H.\$.H.L$..
	0x0060 eb 9e                                            ..
	rel 50+4 t=7 runtime.panicoverflow<1>+0
	rel 55+4 t=7 runtime.panicdivide<1>+0
	rel 76+4 t=7 runtime.morestack_noctxt<0>+0
command-line-arguments.Div64degenerate<1> STEXT nosplit size=34 args=0x8 locals=0x0 funcid=0x0 align=0x0
	0x0000 00000 (/bigdata/qiuhan/codet5/usage/goroot/test/codegen/mathbits.go:900)	TEXT	command-line-arguments.Div64degenerate(SB), NOSPLIT|ABIInternal, $0-8
	0x0000 00000 (/bigdata/qiuhan/codet5/usage/goroot/test/codegen/mathbits.go:900)	FUNCDATA	$0, gclocals·g2BeySu+wFnoycgXfElmcg==(SB)
	0x0000 00000 (/bigdata/qiuhan/codet5/usage/goroot/test/codegen/mathbits.go:900)	FUNCDATA	$1, gclocals·g2BeySu+wFnoycgXfElmcg==(SB)
	0x0000 00000 (/bigdata/qiuhan/codet5/usage/goroot/test/codegen/mathbits.go:900)	FUNCDATA	$5, command-line-arguments.Div64degenerate.arginfo1(SB)
	0x0000 00000 (/bigdata/qiuhan/codet5/usage/goroot/test/codegen/mathbits.go:900)	FUNCDATA	$6, command-line-arguments.Div64degenerate.argliveinfo(SB)
	0x0000 00000 (/bigdata/qiuhan/codet5/usage/goroot/test/codegen/mathbits.go:900)	PCDATA	$3, $1
	0x0000 00000 (/bigdata/qiuhan/codet5/usage/goroot/test/codegen/mathbits.go:902)	MOVQ	AX, CX
	0x0003 00003 (/bigdata/qiuhan/codet5/usage/goroot/test/codegen/mathbits.go:902)	MOVQ	$-3689348814741910323, AX
	0x000d 00013 (/bigdata/qiuhan/codet5/usage/goroot/test/codegen/mathbits.go:902)	MULQ	CX
	0x0010 00016 (/bigdata/qiuhan/codet5/usage/goroot/test/codegen/mathbits.go:902)	SHRQ	$2, DX
	0x0014 00020 (/bigdata/qiuhan/codet5/usage/goroot/test/codegen/mathbits.go:902)	LEAQ	(DX)(DX*4), SI
	0x0018 00024 (/bigdata/qiuhan/codet5/usage/goroot/test/codegen/mathbits.go:902)	SUBQ	SI, CX
	0x001b 00027 (/bigdata/qiuhan/codet5/usage/goroot/test/codegen/mathbits.go:902)	MOVQ	DX, AX
	0x001e 00030 (/bigdata/qiuhan/codet5/usage/goroot/test/codegen/mathbits.go:902)	MOVQ	CX, BX
	0x0021 00033 (/bigdata/qiuhan/codet5/usage/goroot/test/codegen/mathbits.go:902)	RET
	0x0000 48 89 c1 48 b8 cd cc cc cc cc cc cc cc 48 f7 e1  H..H.........H..
	0x0010 48 c1 ea 02 48 8d 34 92 48 29 f1 48 89 d0 48 89  H...H.4.H).H..H.
	0x0020 cb c3                                            ..
go:cuinfo.producer.command-line-arguments<0> SDWARFCUINFO dupok size=0
	0x0000 72 65 67 61 62 69                                regabi
go:cuinfo.packagename.command-line-arguments<0> SDWARFCUINFO dupok size=0
	0x0000 63 6f 64 65 67 65 6e                             codegen
go:info.math/bits.LeadingZeros$abstract<0> SDWARFABSFCN dupok size=35
	0x0000 05 6d 61 74 68 2f 62 69 74 73 2e 4c 65 61 64 69  .math/bits.Leadi
	0x0010 6e 67 5a 65 72 6f 73 00 01 01 13 78 00 00 00 00  ngZeros....x....
	0x0020 00 00 00                                         ...
	rel 0+0 t=22 type:int<0>+0
	rel 0+0 t=22 type:uint<0>+0
	rel 30+4 t=31 go:info.uint<0>+0
go:info.math/bits.LeadingZeros64$abstract<0> SDWARFABSFCN dupok size=37
	0x0000 05 6d 61 74 68 2f 62 69 74 73 2e 4c 65 61 64 69  .math/bits.Leadi
	0x0010 6e 67 5a 65 72 6f 73 36 34 00 01 01 13 78 00 00  ngZeros64....x..
	0x0020 00 00 00 00 00                                   .....
	rel 0+0 t=22 type:int<0>+0
	rel 0+0 t=22 type:uint64<0>+0
	rel 32+4 t=31 go:info.uint64<0>+0
go:info.math/bits.LeadingZeros32$abstract<0> SDWARFABSFCN dupok size=37
	0x0000 05 6d 61 74 68 2f 62 69 74 73 2e 4c 65 61 64 69  .math/bits.Leadi
	0x0010 6e 67 5a 65 72 6f 73 33 32 00 01 01 13 78 00 00  ngZeros32....x..
	0x0020 00 00 00 00 00                                   .....
	rel 0+0 t=22 type:int<0>+0
	rel 0+0 t=22 type:uint32<0>+0
	rel 32+4 t=31 go:info.uint32<0>+0
go:info.math/bits.LeadingZeros16$abstract<0> SDWARFABSFCN dupok size=37
	0x0000 05 6d 61 74 68 2f 62 69 74 73 2e 4c 65 61 64 69  .math/bits.Leadi
	0x0010 6e 67 5a 65 72 6f 73 31 36 00 01 01 13 78 00 00  ngZeros16....x..
	0x0020 00 00 00 00 00                                   .....
	rel 0+0 t=22 type:int<0>+0
	rel 0+0 t=22 type:uint16<0>+0
	rel 32+4 t=31 go:info.uint16<0>+0
go:info.math/bits.LeadingZeros8$abstract<0> SDWARFABSFCN dupok size=36
	0x0000 05 6d 61 74 68 2f 62 69 74 73 2e 4c 65 61 64 69  .math/bits.Leadi
	0x0010 6e 67 5a 65 72 6f 73 38 00 01 01 13 78 00 00 00  ngZeros8....x...
	0x0020 00 00 00 00                                      ....
	rel 0+0 t=22 type:int<0>+0
	rel 0+0 t=22 type:uint8<0>+0
	rel 31+4 t=31 go:info.uint8<0>+0
go:info.math/bits.OnesCount8$abstract<0> SDWARFABSFCN dupok size=33
	0x0000 05 6d 61 74 68 2f 62 69 74 73 2e 4f 6e 65 73 43  .math/bits.OnesC
	0x0010 6f 75 6e 74 38 00 01 01 13 78 00 00 00 00 00 00  ount8....x......
	0x0020 00                                               .
	rel 0+0 t=22 type:int<0>+0
	rel 0+0 t=22 type:uint8<0>+0
	rel 28+4 t=31 go:info.uint8<0>+0
go:info.math/bits.ReverseBytes$abstract<0> SDWARFABSFCN dupok size=35
	0x0000 05 6d 61 74 68 2f 62 69 74 73 2e 52 65 76 65 72  .math/bits.Rever
	0x0010 73 65 42 79 74 65 73 00 01 01 13 78 00 00 00 00  seBytes....x....
	0x0020 00 00 00                                         ...
	rel 0+0 t=22 type:uint<0>+0
	rel 30+4 t=31 go:info.uint<0>+0
go:info.math/bits.ReverseBytes16$abstract<0> SDWARFABSFCN dupok size=37
	0x0000 05 6d 61 74 68 2f 62 69 74 73 2e 52 65 76 65 72  .math/bits.Rever
	0x0010 73 65 42 79 74 65 73 31 36 00 01 01 13 78 00 00  seBytes16....x..
	0x0020 00 00 00 00 00                                   .....
	rel 0+0 t=22 type:uint16<0>+0
	rel 32+4 t=31 go:info.uint16<0>+0
go:info.math/bits.TrailingZeros$abstract<0> SDWARFABSFCN dupok size=36
	0x0000 05 6d 61 74 68 2f 62 69 74 73 2e 54 72 61 69 6c  .math/bits.Trail
	0x0010 69 6e 67 5a 65 72 6f 73 00 01 01 13 78 00 00 00  ingZeros....x...
	0x0020 00 00 00 00                                      ....
	rel 0+0 t=22 type:int<0>+0
	rel 0+0 t=22 type:uint<0>+0
	rel 31+4 t=31 go:info.uint<0>+0
go:info.math/bits.Div32$abstract<0> SDWARFABSFCN dupok size=75
	0x0000 05 6d 61 74 68 2f 62 69 74 73 2e 44 69 76 33 32  .math/bits.Div32
	0x0010 00 01 01 13 68 69 00 00 00 00 00 00 13 6c 6f 00  ....hi.......lo.
	0x0020 00 00 00 00 00 13 79 00 00 00 00 00 00 13 71 75  ......y.......qu
	0x0030 6f 00 01 00 00 00 00 13 72 65 6d 00 01 00 00 00  o.......rem.....
	0x0040 00 0e 7a 00 fd 03 00 00 00 00 00                 ..z........
	rel 0+0 t=22 type:uint32<0>+0
	rel 0+0 t=22 type:uint64<0>+0
	rel 24+4 t=31 go:info.uint32<0>+0
	rel 33+4 t=31 go:info.uint32<0>+0
	rel 41+4 t=31 go:info.uint32<0>+0
	rel 51+4 t=31 go:info.uint32<0>+0
	rel 61+4 t=31 go:info.uint32<0>+0
	rel 70+4 t=31 go:info.uint64<0>+0
go:string..gostring.256.IIS8Kia8zlWqeowMPazRBA==<0> SRODATA dupok size=256
	0x0000 00 01 01 02 01 02 02 03 01 02 02 03 02 03 03 04  ................
	0x0010 01 02 02 03 02 03 03 04 02 03 03 04 03 04 04 05  ................
	0x0020 01 02 02 03 02 03 03 04 02 03 03 04 03 04 04 05  ................
	0x0030 02 03 03 04 03 04 04 05 03 04 04 05 04 05 05 06  ................
	0x0040 01 02 02 03 02 03 03 04 02 03 03 04 03 04 04 05  ................
	0x0050 02 03 03 04 03 04 04 05 03 04 04 05 04 05 05 06  ................
	0x0060 02 03 03 04 03 04 04 05 03 04 04 05 04 05 05 06  ................
	0x0070 03 04 04 05 04 05 05 06 04 05 05 06 05 06 06 07  ................
	0x0080 01 02 02 03 02 03 03 04 02 03 03 04 03 04 04 05  ................
	0x0090 02 03 03 04 03 04 04 05 03 04 04 05 04 05 05 06  ................
	0x00a0 02 03 03 04 03 04 04 05 03 04 04 05 04 05 05 06  ................
	0x00b0 03 04 04 05 04 05 05 06 04 05 05 06 05 06 06 07  ................
	0x00c0 02 03 03 04 03 04 04 05 03 04 04 05 04 05 05 06  ................
	0x00d0 03 04 04 05 04 05 05 06 04 05 05 06 05 06 06 07  ................
	0x00e0 03 04 04 05 04 05 05 06 04 05 05 06 05 06 06 07  ................
	0x00f0 04 05 05 06 05 06 06 07 05 06 06 07 06 07 07 08  ................
go:string."overflow"<0> SRODATA dupok size=8
	0x0000 6f 76 65 72 66 6c 6f 77                          overflow
command-line-arguments..stmp_0<0> SRODATA static size=16
	0x0000 00 00 00 00 00 00 00 00 08 00 00 00 00 00 00 00  ................
	rel 0+8 t=1 go:string."overflow"<0>+0
command-line-arguments..stmp_1<0> SRODATA static size=16
	0x0000 00 00 00 00 00 00 00 00 08 00 00 00 00 00 00 00  ................
	rel 0+8 t=1 go:string."overflow"<0>+0
command-line-arguments..stmp_2<0> SRODATA static size=16
	0x0000 00 00 00 00 00 00 00 00 08 00 00 00 00 00 00 00  ................
	rel 0+8 t=1 go:string."overflow"<0>+0
command-line-arguments..stmp_3<0> SRODATA static size=16
	0x0000 00 00 00 00 00 00 00 00 08 00 00 00 00 00 00 00  ................
	rel 0+8 t=1 go:string."overflow"<0>+0
command-line-arguments..stmp_4<0> SRODATA static size=16
	0x0000 00 00 00 00 00 00 00 00 08 00 00 00 00 00 00 00  ................
	rel 0+8 t=1 go:string."overflow"<0>+0
command-line-arguments..stmp_5<0> SRODATA static size=16
	0x0000 00 00 00 00 00 00 00 00 08 00 00 00 00 00 00 00  ................
	rel 0+8 t=1 go:string."overflow"<0>+0
command-line-arguments..stmp_6<0> SRODATA static size=16
	0x0000 00 00 00 00 00 00 00 00 08 00 00 00 00 00 00 00  ................
	rel 0+8 t=1 go:string."overflow"<0>+0
command-line-arguments..stmp_7<0> SRODATA static size=16
	0x0000 00 00 00 00 00 00 00 00 08 00 00 00 00 00 00 00  ................
	rel 0+8 t=1 go:string."overflow"<0>+0
command-line-arguments..stmp_8<0> SRODATA static size=16
	0x0000 00 00 00 00 00 00 00 00 08 00 00 00 00 00 00 00  ................
	rel 0+8 t=1 go:string."overflow"<0>+0
command-line-arguments..stmp_9<0> SRODATA static size=16
	0x0000 00 00 00 00 00 00 00 00 08 00 00 00 00 00 00 00  ................
	rel 0+8 t=1 go:string."overflow"<0>+0
command-line-arguments..stmp_10<0> SRODATA static size=16
	0x0000 00 00 00 00 00 00 00 00 08 00 00 00 00 00 00 00  ................
	rel 0+8 t=1 go:string."overflow"<0>+0
command-line-arguments..stmp_11<0> SRODATA static size=16
	0x0000 00 00 00 00 00 00 00 00 08 00 00 00 00 00 00 00  ................
	rel 0+8 t=1 go:string."overflow"<0>+0
runtime.memequal128·f<0> SRODATA dupok size=8
	0x0000 00 00 00 00 00 00 00 00                          ........
	rel 0+8 t=1 runtime.memequal128<1>+0
runtime.gcbits.<0> SRODATA dupok size=0
type:.namedata.*[2]uint64-<0> SRODATA dupok size=12
	0x0000 00 0a 2a 5b 32 5d 75 69 6e 74 36 34              ..*[2]uint64
type:[2]uint64<0> SRODATA dupok size=72
	0x0000 10 00 00 00 00 00 00 00 00 00 00 00 00 00 00 00  ................
	0x0010 5d c2 28 f1 0a 08 08 11 00 00 00 00 00 00 00 00  ].(.............
	0x0020 00 00 00 00 00 00 00 00 00 00 00 00 00 00 00 00  ................
	0x0030 00 00 00 00 00 00 00 00 00 00 00 00 00 00 00 00  ................
	0x0040 02 00 00 00 00 00 00 00                          ........
	rel 24+8 t=1 runtime.memequal128·f<0>+0
	rel 32+8 t=1 runtime.gcbits.<0>+0
	rel 40+4 t=5 type:.namedata.*[2]uint64-<0>+0
	rel 44+4 t=-32763 type:*[2]uint64<0>+0
	rel 48+8 t=1 type:uint64<0>+0
	rel 56+8 t=1 type:[]uint64<0>+0
runtime.memequal64·f<0> SRODATA dupok size=8
	0x0000 00 00 00 00 00 00 00 00                          ........
	rel 0+8 t=1 runtime.memequal64<1>+0
runtime.gcbits.0100000000000000<0> SRODATA dupok size=8
	0x0000 01 00 00 00 00 00 00 00                          ........
type:*[2]uint64<0> SRODATA dupok size=56
	0x0000 08 00 00 00 00 00 00 00 08 00 00 00 00 00 00 00  ................
	0x0010 56 c3 b8 ad 08 08 08 36 00 00 00 00 00 00 00 00  V......6........
	0x0020 00 00 00 00 00 00 00 00 00 00 00 00 00 00 00 00  ................
	0x0030 00 00 00 00 00 00 00 00                          ........
	rel 24+8 t=1 runtime.memequal64·f<0>+0
	rel 32+8 t=1 runtime.gcbits.0100000000000000<0>+0
	rel 40+4 t=5 type:.namedata.*[2]uint64-<0>+0
	rel 48+8 t=1 type:[2]uint64<0>+0
type:.eqfunc24<0> SRODATA dupok size=16
	0x0000 00 00 00 00 00 00 00 00 18 00 00 00 00 00 00 00  ................
	rel 0+8 t=1 runtime.memequal_varlen<1>+0
type:.namedata.*[3]uint-<0> SRODATA dupok size=10
	0x0000 00 08 2a 5b 33 5d 75 69 6e 74                    ..*[3]uint
type:[3]uint<0> SRODATA dupok size=72
	0x0000 18 00 00 00 00 00 00 00 00 00 00 00 00 00 00 00  ................
	0x0010 78 74 f9 9a 0a 08 08 11 00 00 00 00 00 00 00 00  xt..............
	0x0020 00 00 00 00 00 00 00 00 00 00 00 00 00 00 00 00  ................
	0x0030 00 00 00 00 00 00 00 00 00 00 00 00 00 00 00 00  ................
	0x0040 03 00 00 00 00 00 00 00                          ........
	rel 24+8 t=1 type:.eqfunc24<0>+0
	rel 32+8 t=1 runtime.gcbits.<0>+0
	rel 40+4 t=5 type:.namedata.*[3]uint-<0>+0
	rel 44+4 t=-32763 type:*[3]uint<0>+0
	rel 48+8 t=1 type:uint<0>+0
	rel 56+8 t=1 type:[]uint<0>+0
type:*[3]uint<0> SRODATA dupok size=56
	0x0000 08 00 00 00 00 00 00 00 08 00 00 00 00 00 00 00  ................
	0x0010 eb 9c 3e af 08 08 08 36 00 00 00 00 00 00 00 00  ..>....6........
	0x0020 00 00 00 00 00 00 00 00 00 00 00 00 00 00 00 00  ................
	0x0030 00 00 00 00 00 00 00 00                          ........
	rel 24+8 t=1 runtime.memequal64·f<0>+0
	rel 32+8 t=1 runtime.gcbits.0100000000000000<0>+0
	rel 40+4 t=5 type:.namedata.*[3]uint-<0>+0
	rel 48+8 t=1 type:[3]uint<0>+0
type:.namedata.*[3]uint64-<0> SRODATA dupok size=12
	0x0000 00 0a 2a 5b 33 5d 75 69 6e 74 36 34              ..*[3]uint64
type:[3]uint64<0> SRODATA dupok size=72
	0x0000 18 00 00 00 00 00 00 00 00 00 00 00 00 00 00 00  ................
	0x0010 56 2b ea b5 0a 08 08 11 00 00 00 00 00 00 00 00  V+..............
	0x0020 00 00 00 00 00 00 00 00 00 00 00 00 00 00 00 00  ................
	0x0030 00 00 00 00 00 00 00 00 00 00 00 00 00 00 00 00  ................
	0x0040 03 00 00 00 00 00 00 00                          ........
	rel 24+8 t=1 type:.eqfunc24<0>+0
	rel 32+8 t=1 runtime.gcbits.<0>+0
	rel 40+4 t=5 type:.namedata.*[3]uint64-<0>+0
	rel 44+4 t=-32763 type:*[3]uint64<0>+0
	rel 48+8 t=1 type:uint64<0>+0
	rel 56+8 t=1 type:[]uint64<0>+0
type:*[3]uint64<0> SRODATA dupok size=56
	0x0000 08 00 00 00 00 00 00 00 08 00 00 00 00 00 00 00  ................
	0x0010 d9 14 63 dc 08 08 08 36 00 00 00 00 00 00 00 00  ..c....6........
	0x0020 00 00 00 00 00 00 00 00 00 00 00 00 00 00 00 00  ................
	0x0030 00 00 00 00 00 00 00 00                          ........
	rel 24+8 t=1 runtime.memequal64·f<0>+0
	rel 32+8 t=1 runtime.gcbits.0100000000000000<0>+0
	rel 40+4 t=5 type:.namedata.*[3]uint64-<0>+0
	rel 48+8 t=1 type:[3]uint64<0>+0
type:.importpath.math/bits.<0> SRODATA dupok size=11
	0x0000 00 09 6d 61 74 68 2f 62 69 74 73                 ..math/bits
gclocals·g2BeySu+wFnoycgXfElmcg==<0> SRODATA dupok size=8
	0x0000 01 00 00 00 00 00 00 00                          ........
command-line-arguments.LeadingZeros.arginfo1<0> SRODATA static dupok size=3
	0x0000 00 08 ff                                         ...
command-line-arguments.LeadingZeros.argliveinfo<0> SRODATA static dupok size=2
	0x0000 00 00                                            ..
command-line-arguments.LeadingZeros64.arginfo1<0> SRODATA static dupok size=3
	0x0000 00 08 ff                                         ...
command-line-arguments.LeadingZeros64.argliveinfo<0> SRODATA static dupok size=2
	0x0000 00 00                                            ..
command-line-arguments.LeadingZeros32.arginfo1<0> SRODATA static dupok size=3
	0x0000 00 04 ff                                         ...
command-line-arguments.LeadingZeros32.argliveinfo<0> SRODATA static dupok size=2
	0x0000 00 00                                            ..
command-line-arguments.LeadingZeros16.arginfo1<0> SRODATA static dupok size=3
	0x0000 00 02 ff                                         ...
command-line-arguments.LeadingZeros16.argliveinfo<0> SRODATA static dupok size=2
	0x0000 00 00                                            ..
command-line-arguments.LeadingZeros8.arginfo1<0> SRODATA static dupok size=3
	0x0000 00 01 ff                                         ...
command-line-arguments.LeadingZeros8.argliveinfo<0> SRODATA static dupok size=2
	0x0000 00 00                                            ..
command-line-arguments.Len.arginfo1<0> SRODATA static dupok size=3
	0x0000 00 08 ff                                         ...
command-line-arguments.Len.argliveinfo<0> SRODATA static dupok size=2
	0x0000 00 00                                            ..
command-line-arguments.Len64.arginfo1<0> SRODATA static dupok size=3
	0x0000 00 08 ff                                         ...
command-line-arguments.Len64.argliveinfo<0> SRODATA static dupok size=2
	0x0000 00 00                                            ..
command-line-arguments.SubFromLen64.arginfo1<0> SRODATA static dupok size=3
	0x0000 00 08 ff                                         ...
command-line-arguments.SubFromLen64.argliveinfo<0> SRODATA static dupok size=2
	0x0000 00 00                                            ..
command-line-arguments.Len32.arginfo1<0> SRODATA static dupok size=3
	0x0000 00 04 ff                                         ...
command-line-arguments.Len32.argliveinfo<0> SRODATA static dupok size=2
	0x0000 00 00                                            ..
command-line-arguments.Len16.arginfo1<0> SRODATA static dupok size=3
	0x0000 00 02 ff                                         ...
command-line-arguments.Len16.argliveinfo<0> SRODATA static dupok size=2
	0x0000 00 00                                            ..
command-line-arguments.Len8.arginfo1<0> SRODATA static dupok size=3
	0x0000 00 01 ff                                         ...
command-line-arguments.Len8.argliveinfo<0> SRODATA static dupok size=2
	0x0000 00 00                                            ..
command-line-arguments.OnesCount.arginfo1<0> SRODATA static dupok size=3
	0x0000 00 08 ff                                         ...
command-line-arguments.OnesCount.argliveinfo<0> SRODATA static dupok size=2
	0x0000 00 00                                            ..
command-line-arguments.OnesCount64.arginfo1<0> SRODATA static dupok size=3
	0x0000 00 08 ff                                         ...
command-line-arguments.OnesCount64.argliveinfo<0> SRODATA static dupok size=2
	0x0000 00 00                                            ..
command-line-arguments.OnesCount32.arginfo1<0> SRODATA static dupok size=3
	0x0000 00 04 ff                                         ...
command-line-arguments.OnesCount32.argliveinfo<0> SRODATA static dupok size=2
	0x0000 00 00                                            ..
command-line-arguments.OnesCount16.arginfo1<0> SRODATA static dupok size=3
	0x0000 00 02 ff                                         ...
command-line-arguments.OnesCount16.argliveinfo<0> SRODATA static dupok size=2
	0x0000 00 00                                            ..
command-line-arguments.OnesCount8.arginfo1<0> SRODATA static dupok size=3
	0x0000 00 01 ff                                         ...
command-line-arguments.OnesCount8.argliveinfo<0> SRODATA static dupok size=2
	0x0000 00 00                                            ..
command-line-arguments.ReverseBytes.arginfo1<0> SRODATA static dupok size=3
	0x0000 00 08 ff                                         ...
command-line-arguments.ReverseBytes.argliveinfo<0> SRODATA static dupok size=2
	0x0000 00 00                                            ..
command-line-arguments.ReverseBytes64.arginfo1<0> SRODATA static dupok size=3
	0x0000 00 08 ff                                         ...
command-line-arguments.ReverseBytes64.argliveinfo<0> SRODATA static dupok size=2
	0x0000 00 00                                            ..
command-line-arguments.ReverseBytes32.arginfo1<0> SRODATA static dupok size=3
	0x0000 00 04 ff                                         ...
command-line-arguments.ReverseBytes32.argliveinfo<0> SRODATA static dupok size=2
	0x0000 00 00                                            ..
command-line-arguments.ReverseBytes16.arginfo1<0> SRODATA static dupok size=3
	0x0000 00 02 ff                                         ...
command-line-arguments.ReverseBytes16.argliveinfo<0> SRODATA static dupok size=2
	0x0000 00 00                                            ..
command-line-arguments.RotateLeft64.arginfo1<0> SRODATA static dupok size=3
	0x0000 00 08 ff                                         ...
command-line-arguments.RotateLeft64.argliveinfo<0> SRODATA static dupok size=2
	0x0000 00 00                                            ..
command-line-arguments.RotateLeft32.arginfo1<0> SRODATA static dupok size=3
	0x0000 00 04 ff                                         ...
command-line-arguments.RotateLeft32.argliveinfo<0> SRODATA static dupok size=2
	0x0000 00 00                                            ..
command-line-arguments.RotateLeft16.arginfo1<0> SRODATA static dupok size=5
	0x0000 00 02 08 08 ff                                   .....
command-line-arguments.RotateLeft16.argliveinfo<0> SRODATA static dupok size=2
	0x0000 00 00                                            ..
command-line-arguments.RotateLeft8.arginfo1<0> SRODATA static dupok size=5
	0x0000 00 01 08 08 ff                                   .....
command-line-arguments.RotateLeft8.argliveinfo<0> SRODATA static dupok size=2
	0x0000 00 00                                            ..
command-line-arguments.RotateLeftVariable.arginfo1<0> SRODATA static dupok size=5
	0x0000 00 08 08 08 ff                                   .....
command-line-arguments.RotateLeftVariable.argliveinfo<0> SRODATA static dupok size=2
	0x0000 00 00                                            ..
command-line-arguments.RotateLeftVariable64.arginfo1<0> SRODATA static dupok size=5
	0x0000 00 08 08 08 ff                                   .....
command-line-arguments.RotateLeftVariable64.argliveinfo<0> SRODATA static dupok size=2
	0x0000 00 00                                            ..
command-line-arguments.RotateLeftVariable32.arginfo1<0> SRODATA static dupok size=5
	0x0000 00 04 08 08 ff                                   .....
command-line-arguments.RotateLeftVariable32.argliveinfo<0> SRODATA static dupok size=2
	0x0000 00 00                                            ..
command-line-arguments.TrailingZeros.arginfo1<0> SRODATA static dupok size=3
	0x0000 00 08 ff                                         ...
command-line-arguments.TrailingZeros.argliveinfo<0> SRODATA static dupok size=2
	0x0000 00 00                                            ..
command-line-arguments.TrailingZeros64.arginfo1<0> SRODATA static dupok size=3
	0x0000 00 08 ff                                         ...
command-line-arguments.TrailingZeros64.argliveinfo<0> SRODATA static dupok size=2
	0x0000 00 00                                            ..
command-line-arguments.TrailingZeros64Subtract.arginfo1<0> SRODATA static dupok size=3
	0x0000 00 08 ff                                         ...
command-line-arguments.TrailingZeros64Subtract.argliveinfo<0> SRODATA static dupok size=2
	0x0000 00 00                                            ..
command-line-arguments.TrailingZeros32.arginfo1<0> SRODATA static dupok size=3
	0x0000 00 04 ff                                         ...
command-line-arguments.TrailingZeros32.argliveinfo<0> SRODATA static dupok size=2
	0x0000 00 00                                            ..
command-line-arguments.TrailingZeros16.arginfo1<0> SRODATA static dupok size=3
	0x0000 00 02 ff                                         ...
command-line-arguments.TrailingZeros16.argliveinfo<0> SRODATA static dupok size=2
	0x0000 00 00                                            ..
command-line-arguments.TrailingZeros8.arginfo1<0> SRODATA static dupok size=3
	0x0000 00 01 ff                                         ...
command-line-arguments.TrailingZeros8.argliveinfo<0> SRODATA static dupok size=2
	0x0000 00 00                                            ..
command-line-arguments.IterateBits.arginfo1<0> SRODATA static dupok size=3
	0x0000 00 08 ff                                         ...
command-line-arguments.IterateBits.argliveinfo<0> SRODATA static dupok size=2
	0x0000 00 00                                            ..
command-line-arguments.IterateBits64.arginfo1<0> SRODATA static dupok size=3
	0x0000 00 08 ff                                         ...
command-line-arguments.IterateBits64.argliveinfo<0> SRODATA static dupok size=2
	0x0000 00 00                                            ..
command-line-arguments.IterateBits32.arginfo1<0> SRODATA static dupok size=3
	0x0000 00 04 ff                                         ...
command-line-arguments.IterateBits32.argliveinfo<0> SRODATA static dupok size=2
	0x0000 00 00                                            ..
command-line-arguments.IterateBits16.arginfo1<0> SRODATA static dupok size=3
	0x0000 00 02 ff                                         ...
command-line-arguments.IterateBits16.argliveinfo<0> SRODATA static dupok size=2
	0x0000 00 00                                            ..
command-line-arguments.IterateBits8.arginfo1<0> SRODATA static dupok size=3
	0x0000 00 01 ff                                         ...
command-line-arguments.IterateBits8.argliveinfo<0> SRODATA static dupok size=2
	0x0000 00 00                                            ..
command-line-arguments.Add.arginfo1<0> SRODATA static dupok size=7
	0x0000 00 08 08 08 10 08 ff                             .......
command-line-arguments.Add.argliveinfo<0> SRODATA static dupok size=2
	0x0000 00 00                                            ..
command-line-arguments.AddC.arginfo1<0> SRODATA static dupok size=5
	0x0000 00 08 08 08 ff                                   .....
command-line-arguments.AddC.argliveinfo<0> SRODATA static dupok size=2
	0x0000 00 00                                            ..
command-line-arguments.AddZ.arginfo1<0> SRODATA static dupok size=5
	0x0000 00 08 08 08 ff                                   .....
command-line-arguments.AddZ.argliveinfo<0> SRODATA static dupok size=2
	0x0000 00 00                                            ..
command-line-arguments.AddR.arginfo1<0> SRODATA static dupok size=7
	0x0000 00 08 08 08 10 08 ff                             .......
command-line-arguments.AddR.argliveinfo<0> SRODATA static dupok size=2
	0x0000 00 00                                            ..
gclocals·LlfHo70um+DIUn9rjx/QUA==<0> SRODATA dupok size=10
	0x0000 02 00 00 00 03 00 00 00 07 00                    ..........
gclocals·J5F+7Qw7O7ve2QcWC7DpeQ==<0> SRODATA dupok size=8
	0x0000 02 00 00 00 00 00 00 00                          ........
command-line-arguments.AddM.arginfo1<0> SRODATA static dupok size=7
	0x0000 00 08 08 08 10 08 ff                             .......
command-line-arguments.AddM.argliveinfo<0> SRODATA static dupok size=2
	0x0000 00 00                                            ..
command-line-arguments.Add64.arginfo1<0> SRODATA static dupok size=7
	0x0000 00 08 08 08 10 08 ff                             .......
command-line-arguments.Add64.argliveinfo<0> SRODATA static dupok size=2
	0x0000 00 00                                            ..
command-line-arguments.Add64C.arginfo1<0> SRODATA static dupok size=5
	0x0000 00 08 08 08 ff                                   .....
command-line-arguments.Add64C.argliveinfo<0> SRODATA static dupok size=2
	0x0000 00 00                                            ..
command-line-arguments.Add64Z.arginfo1<0> SRODATA static dupok size=5
	0x0000 00 08 08 08 ff                                   .....
command-line-arguments.Add64Z.argliveinfo<0> SRODATA static dupok size=2
	0x0000 00 00                                            ..
command-line-arguments.Add64R.arginfo1<0> SRODATA static dupok size=7
	0x0000 00 08 08 08 10 08 ff                             .......
command-line-arguments.Add64R.argliveinfo<0> SRODATA static dupok size=2
	0x0000 00 00                                            ..
command-line-arguments.Add64M.arginfo1<0> SRODATA static dupok size=7
	0x0000 00 08 08 08 10 08 ff                             .......
command-line-arguments.Add64M.argliveinfo<0> SRODATA static dupok size=2
	0x0000 00 00                                            ..
gclocals·br8UsANEGWp75kzr7DNKRQ==<0> SRODATA dupok size=10
	0x0000 02 00 00 00 04 00 00 00 0f 00                    ..........
command-line-arguments.Add64MSaveC.arginfo1<0> SRODATA static dupok size=9
	0x0000 00 08 08 08 10 08 18 08 ff                       .........
command-line-arguments.Add64MSaveC.argliveinfo<0> SRODATA static dupok size=2
	0x0000 00 00                                            ..
command-line-arguments.Add64PanicOnOverflowEQ.arginfo1<0> SRODATA static dupok size=5
	0x0000 00 08 08 08 ff                                   .....
command-line-arguments.Add64PanicOnOverflowEQ.argliveinfo<0> SRODATA static dupok size=2
	0x0000 00 00                                            ..
command-line-arguments.Add64PanicOnOverflowNE.arginfo1<0> SRODATA static dupok size=5
	0x0000 00 08 08 08 ff                                   .....
command-line-arguments.Add64PanicOnOverflowNE.argliveinfo<0> SRODATA static dupok size=2
	0x0000 00 00                                            ..
command-line-arguments.Add64PanicOnOverflowGT.arginfo1<0> SRODATA static dupok size=5
	0x0000 00 08 08 08 ff                                   .....
command-line-arguments.Add64PanicOnOverflowGT.argliveinfo<0> SRODATA static dupok size=2
	0x0000 00 00                                            ..
command-line-arguments.Add64MPanicOnOverflowEQ.arginfo1<0> SRODATA static dupok size=13
	0x0000 fe 00 08 08 08 fd fe 10 08 18 08 fd ff           .............
command-line-arguments.Add64MPanicOnOverflowNE.arginfo1<0> SRODATA static dupok size=13
	0x0000 fe 00 08 08 08 fd fe 10 08 18 08 fd ff           .............
command-line-arguments.Add64MPanicOnOverflowGT.arginfo1<0> SRODATA static dupok size=13
	0x0000 fe 00 08 08 08 fd fe 10 08 18 08 fd ff           .............
command-line-arguments.Add64MultipleChains.arginfo1<0> SRODATA static dupok size=25
	0x0000 fe 00 08 08 08 fd fe 10 08 18 08 fd fe 20 08 28  ............. .(
	0x0010 08 fd fe 30 08 38 08 fd ff                       ...0.8...
command-line-arguments.Sub.arginfo1<0> SRODATA static dupok size=7
	0x0000 00 08 08 08 10 08 ff                             .......
command-line-arguments.Sub.argliveinfo<0> SRODATA static dupok size=2
	0x0000 00 00                                            ..
command-line-arguments.SubC.arginfo1<0> SRODATA static dupok size=5
	0x0000 00 08 08 08 ff                                   .....
command-line-arguments.SubC.argliveinfo<0> SRODATA static dupok size=2
	0x0000 00 00                                            ..
command-line-arguments.SubZ.arginfo1<0> SRODATA static dupok size=5
	0x0000 00 08 08 08 ff                                   .....
command-line-arguments.SubZ.argliveinfo<0> SRODATA static dupok size=2
	0x0000 00 00                                            ..
command-line-arguments.SubR.arginfo1<0> SRODATA static dupok size=7
	0x0000 00 08 08 08 10 08 ff                             .......
command-line-arguments.SubR.argliveinfo<0> SRODATA static dupok size=2
	0x0000 00 00                                            ..
command-line-arguments.SubM.arginfo1<0> SRODATA static dupok size=7
	0x0000 00 08 08 08 10 08 ff                             .......
command-line-arguments.SubM.argliveinfo<0> SRODATA static dupok size=2
	0x0000 00 00                                            ..
command-line-arguments.Sub64.arginfo1<0> SRODATA static dupok size=7
	0x0000 00 08 08 08 10 08 ff                             .......
command-line-arguments.Sub64.argliveinfo<0> SRODATA static dupok size=2
	0x0000 00 00                                            ..
command-line-arguments.Sub64C.arginfo1<0> SRODATA static dupok size=5
	0x0000 00 08 08 08 ff                                   .....
command-line-arguments.Sub64C.argliveinfo<0> SRODATA static dupok size=2
	0x0000 00 00                                            ..
command-line-arguments.Sub64Z.arginfo1<0> SRODATA static dupok size=5
	0x0000 00 08 08 08 ff                                   .....
command-line-arguments.Sub64Z.argliveinfo<0> SRODATA static dupok size=2
	0x0000 00 00                                            ..
command-line-arguments.Sub64R.arginfo1<0> SRODATA static dupok size=7
	0x0000 00 08 08 08 10 08 ff                             .......
command-line-arguments.Sub64R.argliveinfo<0> SRODATA static dupok size=2
	0x0000 00 00                                            ..
command-line-arguments.Sub64M.arginfo1<0> SRODATA static dupok size=7
	0x0000 00 08 08 08 10 08 ff                             .......
command-line-arguments.Sub64M.argliveinfo<0> SRODATA static dupok size=2
	0x0000 00 00                                            ..
command-line-arguments.Sub64MSaveC.arginfo1<0> SRODATA static dupok size=9
	0x0000 00 08 08 08 10 08 18 08 ff                       .........
command-line-arguments.Sub64MSaveC.argliveinfo<0> SRODATA static dupok size=2
	0x0000 00 00                                            ..
command-line-arguments.Sub64PanicOnOverflowEQ.arginfo1<0> SRODATA static dupok size=5
	0x0000 00 08 08 08 ff                                   .....
command-line-arguments.Sub64PanicOnOverflowEQ.argliveinfo<0> SRODATA static dupok size=2
	0x0000 00 00                                            ..
command-line-arguments.Sub64PanicOnOverflowNE.arginfo1<0> SRODATA static dupok size=5
	0x0000 00 08 08 08 ff                                   .....
command-line-arguments.Sub64PanicOnOverflowNE.argliveinfo<0> SRODATA static dupok size=2
	0x0000 00 00                                            ..
command-line-arguments.Sub64PanicOnOverflowGT.arginfo1<0> SRODATA static dupok size=5
	0x0000 00 08 08 08 ff                                   .....
command-line-arguments.Sub64PanicOnOverflowGT.argliveinfo<0> SRODATA static dupok size=2
	0x0000 00 00                                            ..
command-line-arguments.Sub64MPanicOnOverflowEQ.arginfo1<0> SRODATA static dupok size=13
	0x0000 fe 00 08 08 08 fd fe 10 08 18 08 fd ff           .............
command-line-arguments.Sub64MPanicOnOverflowNE.arginfo1<0> SRODATA static dupok size=13
	0x0000 fe 00 08 08 08 fd fe 10 08 18 08 fd ff           .............
command-line-arguments.Sub64MPanicOnOverflowGT.arginfo1<0> SRODATA static dupok size=13
	0x0000 fe 00 08 08 08 fd fe 10 08 18 08 fd ff           .............
command-line-arguments.Mul.arginfo1<0> SRODATA static dupok size=5
	0x0000 00 08 08 08 ff                                   .....
command-line-arguments.Mul.argliveinfo<0> SRODATA static dupok size=2
	0x0000 00 00                                            ..
command-line-arguments.Mul64.arginfo1<0> SRODATA static dupok size=5
	0x0000 00 08 08 08 ff                                   .....
command-line-arguments.Mul64.argliveinfo<0> SRODATA static dupok size=2
	0x0000 00 00                                            ..
command-line-arguments.Mul64HiOnly.arginfo1<0> SRODATA static dupok size=5
	0x0000 00 08 08 08 ff                                   .....
command-line-arguments.Mul64HiOnly.argliveinfo<0> SRODATA static dupok size=2
	0x0000 00 00                                            ..
command-line-arguments.Mul64LoOnly.arginfo1<0> SRODATA static dupok size=5
	0x0000 00 08 08 08 ff                                   .....
command-line-arguments.Mul64LoOnly.argliveinfo<0> SRODATA static dupok size=2
	0x0000 00 00                                            ..
command-line-arguments.Div.arginfo1<0> SRODATA static dupok size=7
	0x0000 00 08 08 08 10 08 ff                             .......
command-line-arguments.Div.argliveinfo<0> SRODATA static dupok size=2
	0x0000 00 00                                            ..
command-line-arguments.Div32.arginfo1<0> SRODATA static dupok size=7
	0x0000 00 04 04 04 08 04 ff                             .......
command-line-arguments.Div32.argliveinfo<0> SRODATA static dupok size=2
	0x0000 00 00                                            ..
command-line-arguments.Div64.arginfo1<0> SRODATA static dupok size=7
	0x0000 00 08 08 08 10 08 ff                             .......
command-line-arguments.Div64.argliveinfo<0> SRODATA static dupok size=2
	0x0000 00 00                                            ..
command-line-arguments.Div64degenerate.arginfo1<0> SRODATA static dupok size=3
	0x0000 00 08 ff                                         ...
command-line-arguments.Div64degenerate.argliveinfo<0> SRODATA static dupok size=2
	0x0000 00 00                                            ..
aux for command-line-arguments.LeadingZeros<0> SDWARFRANGE size=64
	0x0000 ff ff ff ff ff ff ff ff 00 00 00 00 00 00 00 00  ................
	0x0010 00 00 00 00 00 00 00 00 0f 00 00 00 00 00 00 00  ................
	0x0020 0f 00 00 00 00 00 00 00 16 00 00 00 00 00 00 00  ................
	0x0030 00 00 00 00 00 00 00 00 00 00 00 00 00 00 00 00  ................
	rel 8+8 t=1 command-line-arguments.LeadingZeros<1>+0
aux for command-line-arguments.LeadingZeros<0> SDWARFLOC size=102
	0x0000 ff ff ff ff ff ff ff ff 00 00 00 00 00 00 00 00  ................
	0x0010 00 00 00 00 00 00 00 00 0b 00 00 00 00 00 00 00  ................
	0x0020 01 00 50 00 00 00 00 00 00 00 00 00 00 00 00 00  ..P.............
	0x0030 00 00 00 ff ff ff ff ff ff ff ff 00 00 00 00 00  ................
	0x0040 00 00 00 00 00 00 00 00 00 00 00 0b 00 00 00 00  ................
	0x0050 00 00 00 01 00 50 00 00 00 00 00 00 00 00 00 00  .....P..........
	0x0060 00 00 00 00 00 00                                ......
	rel 8+8 t=1 command-line-arguments.LeadingZeros<1>+0
	rel 59+8 t=1 command-line-arguments.LeadingZeros<1>+0
aux for command-line-arguments.LeadingZeros<0> SDWARFLINES size=27
	0x0000 00 09 02 00 00 00 00 00 00 00 00 04 03 03 13 14  ................
	0x0010 06 37 04 02 06 c2 02 01 00 01 01                 .7.........
	rel 3+8 t=1 command-line-arguments.LeadingZeros<1>+0
aux for command-line-arguments.LeadingZeros<0> SDWARFFCN size=110
	0x0000 03 63 6f 6d 6d 61 6e 64 2d 6c 69 6e 65 2d 61 72  .command-line-ar
	0x0010 67 75 6d 65 6e 74 73 2e 4c 65 61 64 69 6e 67 5a  guments.LeadingZ
	0x0020 65 72 6f 73 00 00 00 00 00 00 00 00 00 00 00 00  eros............
	0x0030 00 00 00 00 00 01 9c 02 00 00 00 01 12 6e 00 00  .............n..
	0x0040 0f 00 00 00 00 00 00 00 00 11 7e 72 30 00 01 0f  ..........~r0...
	0x0050 00 00 00 00 00 09 00 00 00 00 00 00 00 00 02 00  ................
	0x0060 00 00 18 15 00 00 00 00 00 00 00 00 00 00        ..............
	rel 0+0 t=22 type:int<0>+0
	rel 37+8 t=1 command-line-arguments.LeadingZeros<1>+0
	rel 45+8 t=1 command-line-arguments.LeadingZeros<1>+23
	rel 65+4 t=31 go:info.uint<0>+0
	rel 69+4 t=31 <0>+0
	rel 80+4 t=31 go:info.int<0>+0
	rel 86+4 t=31 go:info.math/bits.LeadingZeros$abstract<0>+0
	rel 90+4 t=31 <0>+0
	rel 100+4 t=31 go:info.math/bits.LeadingZeros$abstract<0>+26
	rel 104+4 t=31 <0>+51
aux for command-line-arguments.LeadingZeros64<0> SDWARFRANGE size=64
	0x0000 ff ff ff ff ff ff ff ff 00 00 00 00 00 00 00 00  ................
	0x0010 00 00 00 00 00 00 00 00 0f 00 00 00 00 00 00 00  ................
	0x0020 0f 00 00 00 00 00 00 00 16 00 00 00 00 00 00 00  ................
	0x0030 00 00 00 00 00 00 00 00 00 00 00 00 00 00 00 00  ................
	rel 8+8 t=1 command-line-arguments.LeadingZeros64<1>+0
aux for command-line-arguments.LeadingZeros64<0> SDWARFLOC size=102
	0x0000 ff ff ff ff ff ff ff ff 00 00 00 00 00 00 00 00  ................
	0x0010 00 00 00 00 00 00 00 00 0b 00 00 00 00 00 00 00  ................
	0x0020 01 00 50 00 00 00 00 00 00 00 00 00 00 00 00 00  ..P.............
	0x0030 00 00 00 ff ff ff ff ff ff ff ff 00 00 00 00 00  ................
	0x0040 00 00 00 00 00 00 00 00 00 00 00 0b 00 00 00 00  ................
	0x0050 00 00 00 01 00 50 00 00 00 00 00 00 00 00 00 00  .....P..........
	0x0060 00 00 00 00 00 00                                ......
	rel 8+8 t=1 command-line-arguments.LeadingZeros64<1>+0
	rel 59+8 t=1 command-line-arguments.LeadingZeros64<1>+0
aux for command-line-arguments.LeadingZeros64<0> SDWARFLINES size=27
	0x0000 00 09 02 00 00 00 00 00 00 00 00 04 03 03 1f 14  ................
	0x0010 06 37 04 02 06 c2 02 01 00 01 01                 .7.........
	rel 3+8 t=1 command-line-arguments.LeadingZeros64<1>+0
aux for command-line-arguments.LeadingZeros64<0> SDWARFFCN size=112
	0x0000 03 63 6f 6d 6d 61 6e 64 2d 6c 69 6e 65 2d 61 72  .command-line-ar
	0x0010 67 75 6d 65 6e 74 73 2e 4c 65 61 64 69 6e 67 5a  guments.LeadingZ
	0x0020 65 72 6f 73 36 34 00 00 00 00 00 00 00 00 00 00  eros64..........
	0x0030 00 00 00 00 00 00 00 01 9c 02 00 00 00 01 12 6e  ...............n
	0x0040 00 00 1b 00 00 00 00 00 00 00 00 11 7e 72 30 00  ............~r0.
	0x0050 01 1b 00 00 00 00 00 09 00 00 00 00 00 00 00 00  ................
	0x0060 02 00 00 00 24 15 00 00 00 00 00 00 00 00 00 00  ....$...........
	rel 0+0 t=22 type:int<0>+0
	rel 39+8 t=1 command-line-arguments.LeadingZeros64<1>+0
	rel 47+8 t=1 command-line-arguments.LeadingZeros64<1>+23
	rel 67+4 t=31 go:info.uint64<0>+0
	rel 71+4 t=31 <0>+0
	rel 82+4 t=31 go:info.int<0>+0
	rel 88+4 t=31 go:info.math/bits.LeadingZeros64$abstract<0>+0
	rel 92+4 t=31 <0>+0
	rel 102+4 t=31 go:info.math/bits.LeadingZeros64$abstract<0>+28
	rel 106+4 t=31 <0>+51
aux for command-line-arguments.LeadingZeros32<0> SDWARFRANGE size=64
	0x0000 ff ff ff ff ff ff ff ff 00 00 00 00 00 00 00 00  ................
	0x0010 00 00 00 00 00 00 00 00 0e 00 00 00 00 00 00 00  ................
	0x0020 0e 00 00 00 00 00 00 00 15 00 00 00 00 00 00 00  ................
	0x0030 00 00 00 00 00 00 00 00 00 00 00 00 00 00 00 00  ................
	rel 8+8 t=1 command-line-arguments.LeadingZeros32<1>+0
aux for command-line-arguments.LeadingZeros32<0> SDWARFLOC size=102
	0x0000 ff ff ff ff ff ff ff ff 00 00 00 00 00 00 00 00  ................
	0x0010 00 00 00 00 00 00 00 00 0e 00 00 00 00 00 00 00  ................
	0x0020 01 00 50 00 00 00 00 00 00 00 00 00 00 00 00 00  ..P.............
	0x0030 00 00 00 ff ff ff ff ff ff ff ff 00 00 00 00 00  ................
	0x0040 00 00 00 00 00 00 00 00 00 00 00 0e 00 00 00 00  ................
	0x0050 00 00 00 01 00 50 00 00 00 00 00 00 00 00 00 00  .....P..........
	0x0060 00 00 00 00 00 00                                ......
	rel 8+8 t=1 command-line-arguments.LeadingZeros32<1>+0
	rel 59+8 t=1 command-line-arguments.LeadingZeros32<1>+0
aux for command-line-arguments.LeadingZeros32<0> SDWARFLINES size=29
	0x0000 00 09 02 00 00 00 00 00 00 00 00 04 03 03 1c 14  ................
	0x0010 06 23 04 02 06 03 09 d2 02 01 00 01 01           .#...........
	rel 3+8 t=1 command-line-arguments.LeadingZeros32<1>+0
aux for command-line-arguments.LeadingZeros32<0> SDWARFFCN size=112
	0x0000 03 63 6f 6d 6d 61 6e 64 2d 6c 69 6e 65 2d 61 72  .command-line-ar
	0x0010 67 75 6d 65 6e 74 73 2e 4c 65 61 64 69 6e 67 5a  guments.LeadingZ
	0x0020 65 72 6f 73 33 32 00 00 00 00 00 00 00 00 00 00  eros32..........
	0x0030 00 00 00 00 00 00 00 01 9c 02 00 00 00 01 12 6e  ...............n
	0x0040 00 00 27 00 00 00 00 00 00 00 00 11 7e 72 30 00  ..'.........~r0.
	0x0050 01 27 00 00 00 00 00 09 00 00 00 00 00 00 00 00  .'..............
	0x0060 02 00 00 00 30 15 00 00 00 00 00 00 00 00 00 00  ....0...........
	rel 0+0 t=22 type:int<0>+0
	rel 39+8 t=1 command-line-arguments.LeadingZeros32<1>+0
	rel 47+8 t=1 command-line-arguments.LeadingZeros32<1>+22
	rel 67+4 t=31 go:info.uint32<0>+0
	rel 71+4 t=31 <0>+0
	rel 82+4 t=31 go:info.int<0>+0
	rel 88+4 t=31 go:info.math/bits.LeadingZeros32$abstract<0>+0
	rel 92+4 t=31 <0>+0
	rel 102+4 t=31 go:info.math/bits.LeadingZeros32$abstract<0>+28
	rel 106+4 t=31 <0>+51
aux for command-line-arguments.LeadingZeros16<0> SDWARFLOC size=102
	0x0000 ff ff ff ff ff ff ff ff 00 00 00 00 00 00 00 00  ................
	0x0010 00 00 00 00 00 00 00 00 0c 00 00 00 00 00 00 00  ................
	0x0020 01 00 50 00 00 00 00 00 00 00 00 00 00 00 00 00  ..P.............
	0x0030 00 00 00 ff ff ff ff ff ff ff ff 00 00 00 00 00  ................
	0x0040 00 00 00 00 00 00 00 00 00 00 00 0c 00 00 00 00  ................
	0x0050 00 00 00 01 00 50 00 00 00 00 00 00 00 00 00 00  .....P..........
	0x0060 00 00 00 00 00 00                                ......
	rel 8+8 t=1 command-line-arguments.LeadingZeros16<1>+0
	rel 59+8 t=1 command-line-arguments.LeadingZeros16<1>+0
aux for command-line-arguments.LeadingZeros16<0> SDWARFLINES size=34
	0x0000 00 09 02 00 00 00 00 00 00 00 00 04 02 03 36 14  ..............6.
	0x0010 04 03 03 67 29 06 2d 04 02 06 03 18 96 02 01 00  ...g).-.........
	0x0020 01 01                                            ..
	rel 3+8 t=1 command-line-arguments.LeadingZeros16<1>+0
aux for command-line-arguments.LeadingZeros16<0> SDWARFFCN size=124
	0x0000 03 63 6f 6d 6d 61 6e 64 2d 6c 69 6e 65 2d 61 72  .command-line-ar
	0x0010 67 75 6d 65 6e 74 73 2e 4c 65 61 64 69 6e 67 5a  guments.LeadingZ
	0x0020 65 72 6f 73 31 36 00 00 00 00 00 00 00 00 00 00  eros16..........
	0x0030 00 00 00 00 00 00 00 01 9c 02 00 00 00 01 12 6e  ...............n
	0x0040 00 00 33 00 00 00 00 00 00 00 00 11 7e 72 30 00  ..3.........~r0.
	0x0050 01 33 00 00 00 00 00 08 00 00 00 00 00 00 00 00  .3..............
	0x0060 00 00 00 00 00 00 00 00 00 00 00 00 02 00 00 00  ................
	0x0070 3c 15 00 00 00 00 00 00 00 00 00 00              <...........
	rel 0+0 t=22 type:int<0>+0
	rel 39+8 t=1 command-line-arguments.LeadingZeros16<1>+0
	rel 47+8 t=1 command-line-arguments.LeadingZeros16<1>+20
	rel 67+4 t=31 go:info.uint16<0>+0
	rel 71+4 t=31 <0>+0
	rel 82+4 t=31 go:info.int<0>+0
	rel 88+4 t=31 go:info.math/bits.LeadingZeros16$abstract<0>+0
	rel 92+8 t=1 command-line-arguments.LeadingZeros16<1>+3
	rel 100+8 t=1 command-line-arguments.LeadingZeros16<1>+19
	rel 114+4 t=31 go:info.math/bits.LeadingZeros16$abstract<0>+28
	rel 118+4 t=31 <0>+51
aux for command-line-arguments.LeadingZeros8<0> SDWARFLOC size=102
	0x0000 ff ff ff ff ff ff ff ff 00 00 00 00 00 00 00 00  ................
	0x0010 00 00 00 00 00 00 00 00 0c 00 00 00 00 00 00 00  ................
	0x0020 01 00 50 00 00 00 00 00 00 00 00 00 00 00 00 00  ..P.............
	0x0030 00 00 00 ff ff ff ff ff ff ff ff 00 00 00 00 00  ................
	0x0040 00 00 00 00 00 00 00 00 00 00 00 0c 00 00 00 00  ................
	0x0050 00 00 00 01 00 50 00 00 00 00 00 00 00 00 00 00  .....P..........
	0x0060 00 00 00 00 00 00                                ......
	rel 8+8 t=1 command-line-arguments.LeadingZeros8<1>+0
	rel 59+8 t=1 command-line-arguments.LeadingZeros8<1>+0
aux for command-line-arguments.LeadingZeros8<0> SDWARFLINES size=35
	0x0000 00 09 02 00 00 00 00 00 00 00 00 04 02 03 c2 00  ................
	0x0010 14 04 03 03 58 29 06 2d 04 02 06 03 27 96 02 01  ....X).-....'...
	0x0020 00 01 01                                         ...
	rel 3+8 t=1 command-line-arguments.LeadingZeros8<1>+0
aux for command-line-arguments.LeadingZeros8<0> SDWARFFCN size=123
	0x0000 03 63 6f 6d 6d 61 6e 64 2d 6c 69 6e 65 2d 61 72  .command-line-ar
	0x0010 67 75 6d 65 6e 74 73 2e 4c 65 61 64 69 6e 67 5a  guments.LeadingZ
	0x0020 65 72 6f 73 38 00 00 00 00 00 00 00 00 00 00 00  eros8...........
	0x0030 00 00 00 00 00 00 01 9c 02 00 00 00 01 12 6e 00  ..............n.
	0x0040 00 3f 00 00 00 00 00 00 00 00 11 7e 72 30 00 01  .?.........~r0..
	0x0050 3f 00 00 00 00 00 08 00 00 00 00 00 00 00 00 00  ?...............
	0x0060 00 00 00 00 00 00 00 00 00 00 00 02 00 00 00 48  ...............H
	0x0070 15 00 00 00 00 00 00 00 00 00 00                 ...........
	rel 0+0 t=22 type:int<0>+0
	rel 38+8 t=1 command-line-arguments.LeadingZeros8<1>+0
	rel 46+8 t=1 command-line-arguments.LeadingZeros8<1>+20
	rel 66+4 t=31 go:info.uint8<0>+0
	rel 70+4 t=31 <0>+0
	rel 81+4 t=31 go:info.int<0>+0
	rel 87+4 t=31 go:info.math/bits.LeadingZeros8$abstract<0>+0
	rel 91+8 t=1 command-line-arguments.LeadingZeros8<1>+3
	rel 99+8 t=1 command-line-arguments.LeadingZeros8<1>+19
	rel 113+4 t=31 go:info.math/bits.LeadingZeros8$abstract<0>+27
	rel 117+4 t=31 <0>+51
aux for command-line-arguments.Len<0> SDWARFLOC size=51
	0x0000 ff ff ff ff ff ff ff ff 00 00 00 00 00 00 00 00  ................
	0x0010 00 00 00 00 00 00 00 00 0b 00 00 00 00 00 00 00  ................
	0x0020 01 00 50 00 00 00 00 00 00 00 00 00 00 00 00 00  ..P.............
	0x0030 00 00 00                                         ...
	rel 8+8 t=1 command-line-arguments.Len<1>+0
aux for command-line-arguments.Len<0> SDWARFLINES size=24
	0x0000 00 09 02 00 00 00 00 00 00 00 00 04 02 03 d2 00  ................
	0x0010 14 06 37 02 0f 00 01 01                          ..7.....
	rel 3+8 t=1 command-line-arguments.Len<1>+0
aux for command-line-arguments.Len<0> SDWARFFCN size=77
	0x0000 03 63 6f 6d 6d 61 6e 64 2d 6c 69 6e 65 2d 61 72  .command-line-ar
	0x0010 67 75 6d 65 6e 74 73 2e 4c 65 6e 00 00 00 00 00  guments.Len.....
	0x0020 00 00 00 00 00 00 00 00 00 00 00 00 01 9c 02 00  ................
	0x0030 00 00 01 12 6e 00 00 4f 00 00 00 00 00 00 00 00  ....n..O........
	0x0040 11 7e 72 30 00 01 4f 00 00 00 00 00 00           .~r0..O......
	rel 0+0 t=22 type:int<0>+0
	rel 28+8 t=1 command-line-arguments.Len<1>+0
	rel 36+8 t=1 command-line-arguments.Len<1>+19
	rel 56+4 t=31 go:info.uint<0>+0
	rel 60+4 t=31 <0>+0
	rel 71+4 t=31 go:info.int<0>+0
aux for command-line-arguments.Len64<0> SDWARFLOC size=51
	0x0000 ff ff ff ff ff ff ff ff 00 00 00 00 00 00 00 00  ................
	0x0010 00 00 00 00 00 00 00 00 0b 00 00 00 00 00 00 00  ................
	0x0020 01 00 50 00 00 00 00 00 00 00 00 00 00 00 00 00  ..P.............
	0x0030 00 00 00                                         ...
	rel 8+8 t=1 command-line-arguments.Len64<1>+0
aux for command-line-arguments.Len64<0> SDWARFLINES size=24
	0x0000 00 09 02 00 00 00 00 00 00 00 00 04 02 03 de 00  ................
	0x0010 14 06 37 02 0f 00 01 01                          ..7.....
	rel 3+8 t=1 command-line-arguments.Len64<1>+0
aux for command-line-arguments.Len64<0> SDWARFFCN size=79
	0x0000 03 63 6f 6d 6d 61 6e 64 2d 6c 69 6e 65 2d 61 72  .command-line-ar
	0x0010 67 75 6d 65 6e 74 73 2e 4c 65 6e 36 34 00 00 00  guments.Len64...
	0x0020 00 00 00 00 00 00 00 00 00 00 00 00 00 00 01 9c  ................
	0x0030 02 00 00 00 01 12 6e 00 00 5b 00 00 00 00 00 00  ......n..[......
	0x0040 00 00 11 7e 72 30 00 01 5b 00 00 00 00 00 00     ...~r0..[......
	rel 0+0 t=22 type:int<0>+0
	rel 30+8 t=1 command-line-arguments.Len64<1>+0
	rel 38+8 t=1 command-line-arguments.Len64<1>+19
	rel 58+4 t=31 go:info.uint64<0>+0
	rel 62+4 t=31 <0>+0
	rel 73+4 t=31 go:info.int<0>+0
aux for command-line-arguments.SubFromLen64<0> SDWARFLOC size=51
	0x0000 ff ff ff ff ff ff ff ff 00 00 00 00 00 00 00 00  ................
	0x0010 00 00 00 00 00 00 00 00 0b 00 00 00 00 00 00 00  ................
	0x0020 01 00 50 00 00 00 00 00 00 00 00 00 00 00 00 00  ..P.............
	0x0030 00 00 00                                         ...
	rel 8+8 t=1 command-line-arguments.SubFromLen64<1>+0
aux for command-line-arguments.SubFromLen64<0> SDWARFLINES size=24
	0x0000 00 09 02 00 00 00 00 00 00 00 00 04 02 03 e4 00  ................
	0x0010 14 06 37 02 13 00 01 01                          ..7.....
	rel 3+8 t=1 command-line-arguments.SubFromLen64<1>+0
aux for command-line-arguments.SubFromLen64<0> SDWARFFCN size=86
	0x0000 03 63 6f 6d 6d 61 6e 64 2d 6c 69 6e 65 2d 61 72  .command-line-ar
	0x0010 67 75 6d 65 6e 74 73 2e 53 75 62 46 72 6f 6d 4c  guments.SubFromL
	0x0020 65 6e 36 34 00 00 00 00 00 00 00 00 00 00 00 00  en64............
	0x0030 00 00 00 00 00 01 9c 02 00 00 00 01 12 6e 00 00  .............n..
	0x0040 67 00 00 00 00 00 00 00 00 11 7e 72 30 00 01 67  g.........~r0..g
	0x0050 00 00 00 00 00 00                                ......
	rel 0+0 t=22 type:int<0>+0
	rel 37+8 t=1 command-line-arguments.SubFromLen64<1>+0
	rel 45+8 t=1 command-line-arguments.SubFromLen64<1>+23
	rel 65+4 t=31 go:info.uint64<0>+0
	rel 69+4 t=31 <0>+0
	rel 80+4 t=31 go:info.int<0>+0
aux for command-line-arguments.Len32<0> SDWARFLOC size=51
	0x0000 ff ff ff ff ff ff ff ff 00 00 00 00 00 00 00 00  ................
	0x0010 00 00 00 00 00 00 00 00 0e 00 00 00 00 00 00 00  ................
	0x0020 01 00 50 00 00 00 00 00 00 00 00 00 00 00 00 00  ..P.............
	0x0030 00 00 00                                         ...
	rel 8+8 t=1 command-line-arguments.Len32<1>+0
aux for command-line-arguments.Len32<0> SDWARFLINES size=24
	0x0000 00 09 02 00 00 00 00 00 00 00 00 04 02 03 f0 00  ................
	0x0010 14 06 23 02 0d 00 01 01                          ..#.....
	rel 3+8 t=1 command-line-arguments.Len32<1>+0
aux for command-line-arguments.Len32<0> SDWARFFCN size=79
	0x0000 03 63 6f 6d 6d 61 6e 64 2d 6c 69 6e 65 2d 61 72  .command-line-ar
	0x0010 67 75 6d 65 6e 74 73 2e 4c 65 6e 33 32 00 00 00  guments.Len32...
	0x0020 00 00 00 00 00 00 00 00 00 00 00 00 00 00 01 9c  ................
	0x0030 02 00 00 00 01 12 6e 00 00 6d 00 00 00 00 00 00  ......n..m......
	0x0040 00 00 11 7e 72 30 00 01 6d 00 00 00 00 00 00     ...~r0..m......
	rel 0+0 t=22 type:int<0>+0
	rel 30+8 t=1 command-line-arguments.Len32<1>+0
	rel 38+8 t=1 command-line-arguments.Len32<1>+15
	rel 58+4 t=31 go:info.uint32<0>+0
	rel 62+4 t=31 <0>+0
	rel 73+4 t=31 go:info.int<0>+0
aux for command-line-arguments.Len16<0> SDWARFLOC size=51
	0x0000 ff ff ff ff ff ff ff ff 00 00 00 00 00 00 00 00  ................
	0x0010 00 00 00 00 00 00 00 00 0c 00 00 00 00 00 00 00  ................
	0x0020 01 00 50 00 00 00 00 00 00 00 00 00 00 00 00 00  ..P.............
	0x0030 00 00 00                                         ...
	rel 8+8 t=1 command-line-arguments.Len16<1>+0
aux for command-line-arguments.Len16<0> SDWARFLINES size=24
	0x0000 00 09 02 00 00 00 00 00 00 00 00 04 02 03 fc 00  ................
	0x0010 14 06 2d 02 0a 00 01 01                          ..-.....
	rel 3+8 t=1 command-line-arguments.Len16<1>+0
aux for command-line-arguments.Len16<0> SDWARFFCN size=79
	0x0000 03 63 6f 6d 6d 61 6e 64 2d 6c 69 6e 65 2d 61 72  .command-line-ar
	0x0010 67 75 6d 65 6e 74 73 2e 4c 65 6e 31 36 00 00 00  guments.Len16...
	0x0020 00 00 00 00 00 00 00 00 00 00 00 00 00 00 01 9c  ................
	0x0030 02 00 00 00 01 12 6e 00 00 79 00 00 00 00 00 00  ......n..y......
	0x0040 00 00 11 7e 72 30 00 01 79 00 00 00 00 00 00     ...~r0..y......
	rel 0+0 t=22 type:int<0>+0
	rel 30+8 t=1 command-line-arguments.Len16<1>+0
	rel 38+8 t=1 command-line-arguments.Len16<1>+13
	rel 58+4 t=31 go:info.uint16<0>+0
	rel 62+4 t=31 <0>+0
	rel 73+4 t=31 go:info.int<0>+0
aux for command-line-arguments.Len8<0> SDWARFLOC size=51
	0x0000 ff ff ff ff ff ff ff ff 00 00 00 00 00 00 00 00  ................
	0x0010 00 00 00 00 00 00 00 00 0c 00 00 00 00 00 00 00  ................
	0x0020 01 00 50 00 00 00 00 00 00 00 00 00 00 00 00 00  ..P.............
	0x0030 00 00 00                                         ...
	rel 8+8 t=1 command-line-arguments.Len8<1>+0
aux for command-line-arguments.Len8<0> SDWARFLINES size=24
	0x0000 00 09 02 00 00 00 00 00 00 00 00 04 02 03 88 01  ................
	0x0010 14 06 2d 02 0a 00 01 01                          ..-.....
	rel 3+8 t=1 command-line-arguments.Len8<1>+0
aux for command-line-arguments.Len8<0> SDWARFFCN size=80
	0x0000 03 63 6f 6d 6d 61 6e 64 2d 6c 69 6e 65 2d 61 72  .command-line-ar
	0x0010 67 75 6d 65 6e 74 73 2e 4c 65 6e 38 00 00 00 00  guments.Len8....
	0x0020 00 00 00 00 00 00 00 00 00 00 00 00 00 01 9c 02  ................
	0x0030 00 00 00 01 12 6e 00 00 85 01 00 00 00 00 00 00  .....n..........
	0x0040 00 00 11 7e 72 30 00 01 85 01 00 00 00 00 00 00  ...~r0..........
	rel 0+0 t=22 type:int<0>+0
	rel 29+8 t=1 command-line-arguments.Len8<1>+0
	rel 37+8 t=1 command-line-arguments.Len8<1>+13
	rel 58+4 t=31 go:info.uint8<0>+0
	rel 62+4 t=31 <0>+0
	rel 74+4 t=31 go:info.int<0>+0
aux for command-line-arguments.OnesCount<0> SDWARFLOC size=51
	0x0000 ff ff ff ff ff ff ff ff 00 00 00 00 00 00 00 00  ................
	0x0010 00 00 00 00 00 00 00 00 32 00 00 00 00 00 00 00  ........2.......
	0x0020 01 00 50 00 00 00 00 00 00 00 00 00 00 00 00 00  ..P.............
	0x0030 00 00 00                                         ...
	rel 8+8 t=1 command-line-arguments.OnesCount<1>+0
aux for command-line-arguments.OnesCount<0> SDWARFLINES size=40
	0x0000 00 09 02 00 00 00 00 00 00 00 00 04 02 03 90 01  ................
	0x0010 14 0a 4b 06 9b 06 03 03 a0 06 23 06 b9 06 2d 06  ..K.......#...-.
	0x0020 03 7c 6f 02 11 00 01 01                          .|o.....
	rel 3+8 t=1 command-line-arguments.OnesCount<1>+0
aux for command-line-arguments.OnesCount<0> SDWARFFCN size=85
	0x0000 03 63 6f 6d 6d 61 6e 64 2d 6c 69 6e 65 2d 61 72  .command-line-ar
	0x0010 67 75 6d 65 6e 74 73 2e 4f 6e 65 73 43 6f 75 6e  guments.OnesCoun
	0x0020 74 00 00 00 00 00 00 00 00 00 00 00 00 00 00 00  t...............
	0x0030 00 00 01 9c 02 00 00 00 01 12 6e 00 00 96 01 00  ..........n.....
	0x0040 00 00 00 00 00 00 00 11 7e 72 30 00 01 96 01 00  ........~r0.....
	0x0050 00 00 00 00 00                                   .....
	rel 0+0 t=22 type:int<0>+0
	rel 34+8 t=1 command-line-arguments.OnesCount<1>+0
	rel 42+8 t=1 command-line-arguments.OnesCount<1>+83
	rel 63+4 t=31 go:info.uint<0>+0
	rel 67+4 t=31 <0>+0
	rel 79+4 t=31 go:info.int<0>+0
aux for command-line-arguments.OnesCount64<0> SDWARFLOC size=51
	0x0000 ff ff ff ff ff ff ff ff 00 00 00 00 00 00 00 00  ................
	0x0010 00 00 00 00 00 00 00 00 32 00 00 00 00 00 00 00  ........2.......
	0x0020 01 00 50 00 00 00 00 00 00 00 00 00 00 00 00 00  ..P.............
	0x0030 00 00 00                                         ...
	rel 8+8 t=1 command-line-arguments.OnesCount64<1>+0
aux for command-line-arguments.OnesCount64<0> SDWARFLINES size=40
	0x0000 00 09 02 00 00 00 00 00 00 00 00 04 02 03 9b 01  ................
	0x0010 14 0a 4b 06 9b 06 03 03 a0 06 23 06 b9 06 2d 06  ..K.......#...-.
	0x0020 03 7c 6f 02 11 00 01 01                          .|o.....
	rel 3+8 t=1 command-line-arguments.OnesCount64<1>+0
aux for command-line-arguments.OnesCount64<0> SDWARFFCN size=87
	0x0000 03 63 6f 6d 6d 61 6e 64 2d 6c 69 6e 65 2d 61 72  .command-line-ar
	0x0010 67 75 6d 65 6e 74 73 2e 4f 6e 65 73 43 6f 75 6e  guments.OnesCoun
	0x0020 74 36 34 00 00 00 00 00 00 00 00 00 00 00 00 00  t64.............
	0x0030 00 00 00 00 01 9c 02 00 00 00 01 12 6e 00 00 a1  ............n...
	0x0040 01 00 00 00 00 00 00 00 00 11 7e 72 30 00 01 a1  ..........~r0...
	0x0050 01 00 00 00 00 00 00                             .......
	rel 0+0 t=22 type:int<0>+0
	rel 36+8 t=1 command-line-arguments.OnesCount64<1>+0
	rel 44+8 t=1 command-line-arguments.OnesCount64<1>+83
	rel 65+4 t=31 go:info.uint64<0>+0
	rel 69+4 t=31 <0>+0
	rel 81+4 t=31 go:info.int<0>+0
aux for command-line-arguments.OnesCount32<0> SDWARFLOC size=51
	0x0000 ff ff ff ff ff ff ff ff 00 00 00 00 00 00 00 00  ................
	0x0010 00 00 00 00 00 00 00 00 31 00 00 00 00 00 00 00  ........1.......
	0x0020 01 00 50 00 00 00 00 00 00 00 00 00 00 00 00 00  ..P.............
	0x0030 00 00 00                                         ...
	rel 8+8 t=1 command-line-arguments.OnesCount32<1>+0
aux for command-line-arguments.OnesCount32<0> SDWARFLINES size=40
	0x0000 00 09 02 00 00 00 00 00 00 00 00 04 02 03 a6 01  ................
	0x0010 14 0a 4b 06 9b 06 03 03 a0 06 23 06 af 06 2d 06  ..K.......#...-.
	0x0020 03 7c 6f 02 0f 00 01 01                          .|o.....
	rel 3+8 t=1 command-line-arguments.OnesCount32<1>+0
aux for command-line-arguments.OnesCount32<0> SDWARFFCN size=87
	0x0000 03 63 6f 6d 6d 61 6e 64 2d 6c 69 6e 65 2d 61 72  .command-line-ar
	0x0010 67 75 6d 65 6e 74 73 2e 4f 6e 65 73 43 6f 75 6e  guments.OnesCoun
	0x0020 74 33 32 00 00 00 00 00 00 00 00 00 00 00 00 00  t32.............
	0x0030 00 00 00 00 01 9c 02 00 00 00 01 12 6e 00 00 ac  ............n...
	0x0040 01 00 00 00 00 00 00 00 00 11 7e 72 30 00 01 ac  ..........~r0...
	0x0050 01 00 00 00 00 00 00                             .......
	rel 0+0 t=22 type:int<0>+0
	rel 36+8 t=1 command-line-arguments.OnesCount32<1>+0
	rel 44+8 t=1 command-line-arguments.OnesCount32<1>+80
	rel 65+4 t=31 go:info.uint32<0>+0
	rel 69+4 t=31 <0>+0
	rel 81+4 t=31 go:info.int<0>+0
aux for command-line-arguments.OnesCount16<0> SDWARFLOC size=51
	0x0000 ff ff ff ff ff ff ff ff 00 00 00 00 00 00 00 00  ................
	0x0010 00 00 00 00 00 00 00 00 32 00 00 00 00 00 00 00  ........2.......
	0x0020 01 00 50 00 00 00 00 00 00 00 00 00 00 00 00 00  ..P.............
	0x0030 00 00 00                                         ...
	rel 8+8 t=1 command-line-arguments.OnesCount16<1>+0
aux for command-line-arguments.OnesCount16<0> SDWARFLINES size=40
	0x0000 00 09 02 00 00 00 00 00 00 00 00 04 02 03 b1 01  ................
	0x0010 14 0a 4b 06 9b 06 03 03 a0 06 23 06 b9 06 2d 06  ..K.......#...-.
	0x0020 03 7c 6f 02 11 00 01 01                          .|o.....
	rel 3+8 t=1 command-line-arguments.OnesCount16<1>+0
aux for command-line-arguments.OnesCount16<0> SDWARFFCN size=87
	0x0000 03 63 6f 6d 6d 61 6e 64 2d 6c 69 6e 65 2d 61 72  .command-line-ar
	0x0010 67 75 6d 65 6e 74 73 2e 4f 6e 65 73 43 6f 75 6e  guments.OnesCoun
	0x0020 74 31 36 00 00 00 00 00 00 00 00 00 00 00 00 00  t16.............
	0x0030 00 00 00 00 01 9c 02 00 00 00 01 12 6e 00 00 b7  ............n...
	0x0040 01 00 00 00 00 00 00 00 00 11 7e 72 30 00 01 b7  ..........~r0...
	0x0050 01 00 00 00 00 00 00                             .......
	rel 0+0 t=22 type:int<0>+0
	rel 36+8 t=1 command-line-arguments.OnesCount16<1>+0
	rel 44+8 t=1 command-line-arguments.OnesCount16<1>+83
	rel 65+4 t=31 go:info.uint16<0>+0
	rel 69+4 t=31 <0>+0
	rel 81+4 t=31 go:info.int<0>+0
aux for command-line-arguments.OnesCount8<0> SDWARFLOC size=102
	0x0000 ff ff ff ff ff ff ff ff 00 00 00 00 00 00 00 00  ................
	0x0010 00 00 00 00 00 00 00 00 0e 00 00 00 00 00 00 00  ................
	0x0020 01 00 50 00 00 00 00 00 00 00 00 00 00 00 00 00  ..P.............
	0x0030 00 00 00 ff ff ff ff ff ff ff ff 00 00 00 00 00  ................
	0x0040 00 00 00 00 00 00 00 00 00 00 00 0e 00 00 00 00  ................
	0x0050 00 00 00 01 00 50 00 00 00 00 00 00 00 00 00 00  .....P..........
	0x0060 00 00 00 00 00 00                                ......
	rel 8+8 t=1 command-line-arguments.OnesCount8<1>+0
	rel 59+8 t=1 command-line-arguments.OnesCount8<1>+0
aux for command-line-arguments.OnesCount8<0> SDWARFLINES size=36
	0x0000 00 09 02 00 00 00 00 00 00 00 00 04 02 03 c1 01  ................
	0x0010 14 04 03 06 03 bb 7f 29 04 02 06 03 c4 00 82 02  .......)........
	0x0020 01 00 01 01                                      ....
	rel 3+8 t=1 command-line-arguments.OnesCount8<1>+0
aux for command-line-arguments.OnesCount8<0> SDWARFFCN size=123
	0x0000 03 63 6f 6d 6d 61 6e 64 2d 6c 69 6e 65 2d 61 72  .command-line-ar
	0x0010 67 75 6d 65 6e 74 73 2e 4f 6e 65 73 43 6f 75 6e  guments.OnesCoun
	0x0020 74 38 00 00 00 00 00 00 00 00 00 00 00 00 00 00  t8..............
	0x0030 00 00 00 01 9c 02 00 00 00 01 12 6e 00 00 c2 01  ...........n....
	0x0040 00 00 00 00 00 00 00 00 11 7e 72 30 00 01 c2 01  .........~r0....
	0x0050 00 00 00 00 00 08 00 00 00 00 00 00 00 00 00 00  ................
	0x0060 00 00 00 00 00 00 00 00 00 00 02 00 00 00 c7 01  ................
	0x0070 15 00 00 00 00 00 00 00 00 00 00                 ...........
	rel 0+0 t=22 type:int<0>+0
	rel 35+8 t=1 command-line-arguments.OnesCount8<1>+0
	rel 43+8 t=1 command-line-arguments.OnesCount8<1>+15
	rel 64+4 t=31 go:info.uint8<0>+0
	rel 68+4 t=31 <0>+0
	rel 80+4 t=31 go:info.int<0>+0
	rel 86+4 t=31 go:info.math/bits.OnesCount8$abstract<0>+0
	rel 90+8 t=1 command-line-arguments.OnesCount8<1>+3
	rel 98+8 t=1 command-line-arguments.OnesCount8<1>+14
	rel 113+4 t=31 go:info.math/bits.OnesCount8$abstract<0>+24
	rel 117+4 t=31 <0>+51
aux for command-line-arguments.ReverseBytes<0> SDWARFLOC size=51
	0x0000 ff ff ff ff ff ff ff ff 00 00 00 00 00 00 00 00  ................
	0x0010 00 00 00 00 00 00 00 00 03 00 00 00 00 00 00 00  ................
	0x0020 01 00 50 00 00 00 00 00 00 00 00 00 00 00 00 00  ..P.............
	0x0030 00 00 00                                         ...
	rel 8+8 t=1 command-line-arguments.ReverseBytes<1>+0
aux for command-line-arguments.ReverseBytes<0> SDWARFLINES size=24
	0x0000 00 09 02 00 00 00 00 00 00 00 00 04 02 03 cc 01  ................
	0x0010 14 06 2d 02 01 00 01 01                          ..-.....
	rel 3+8 t=1 command-line-arguments.ReverseBytes<1>+0
aux for command-line-arguments.ReverseBytes<0> SDWARFFCN size=88
	0x0000 03 63 6f 6d 6d 61 6e 64 2d 6c 69 6e 65 2d 61 72  .command-line-ar
	0x0010 67 75 6d 65 6e 74 73 2e 52 65 76 65 72 73 65 42  guments.ReverseB
	0x0020 79 74 65 73 00 00 00 00 00 00 00 00 00 00 00 00  ytes............
	0x0030 00 00 00 00 00 01 9c 02 00 00 00 01 12 6e 00 00  .............n..
	0x0040 ce 01 00 00 00 00 00 00 00 00 11 7e 72 30 00 01  ...........~r0..
	0x0050 ce 01 00 00 00 00 00 00                          ........
	rel 0+0 t=22 type:uint<0>+0
	rel 37+8 t=1 command-line-arguments.ReverseBytes<1>+0
	rel 45+8 t=1 command-line-arguments.ReverseBytes<1>+4
	rel 66+4 t=31 go:info.uint<0>+0
	rel 70+4 t=31 <0>+0
	rel 82+4 t=31 go:info.uint<0>+0
aux for command-line-arguments.ReverseBytes64<0> SDWARFLOC size=51
	0x0000 ff ff ff ff ff ff ff ff 00 00 00 00 00 00 00 00  ................
	0x0010 00 00 00 00 00 00 00 00 03 00 00 00 00 00 00 00  ................
	0x0020 01 00 50 00 00 00 00 00 00 00 00 00 00 00 00 00  ..P.............
	0x0030 00 00 00                                         ...
	rel 8+8 t=1 command-line-arguments.ReverseBytes64<1>+0
aux for command-line-arguments.ReverseBytes64<0> SDWARFLINES size=24
	0x0000 00 09 02 00 00 00 00 00 00 00 00 04 02 03 d3 01  ................
	0x0010 14 06 2d 02 01 00 01 01                          ..-.....
	rel 3+8 t=1 command-line-arguments.ReverseBytes64<1>+0
aux for command-line-arguments.ReverseBytes64<0> SDWARFFCN size=90
	0x0000 03 63 6f 6d 6d 61 6e 64 2d 6c 69 6e 65 2d 61 72  .command-line-ar
	0x0010 67 75 6d 65 6e 74 73 2e 52 65 76 65 72 73 65 42  guments.ReverseB
	0x0020 79 74 65 73 36 34 00 00 00 00 00 00 00 00 00 00  ytes64..........
	0x0030 00 00 00 00 00 00 00 01 9c 02 00 00 00 01 12 6e  ...............n
	0x0040 00 00 d5 01 00 00 00 00 00 00 00 00 11 7e 72 30  .............~r0
	0x0050 00 01 d5 01 00 00 00 00 00 00                    ..........
	rel 0+0 t=22 type:uint64<0>+0
	rel 39+8 t=1 command-line-arguments.ReverseBytes64<1>+0
	rel 47+8 t=1 command-line-arguments.ReverseBytes64<1>+4
	rel 68+4 t=31 go:info.uint64<0>+0
	rel 72+4 t=31 <0>+0
	rel 84+4 t=31 go:info.uint64<0>+0
aux for command-line-arguments.ReverseBytes32<0> SDWARFLOC size=51
	0x0000 ff ff ff ff ff ff ff ff 00 00 00 00 00 00 00 00  ................
	0x0010 00 00 00 00 00 00 00 00 02 00 00 00 00 00 00 00  ................
	0x0020 01 00 50 00 00 00 00 00 00 00 00 00 00 00 00 00  ..P.............
	0x0030 00 00 00                                         ...
	rel 8+8 t=1 command-line-arguments.ReverseBytes32<1>+0
aux for command-line-arguments.ReverseBytes32<0> SDWARFLINES size=24
	0x0000 00 09 02 00 00 00 00 00 00 00 00 04 02 03 da 01  ................
	0x0010 14 06 23 02 01 00 01 01                          ..#.....
	rel 3+8 t=1 command-line-arguments.ReverseBytes32<1>+0
aux for command-line-arguments.ReverseBytes32<0> SDWARFFCN size=90
	0x0000 03 63 6f 6d 6d 61 6e 64 2d 6c 69 6e 65 2d 61 72  .command-line-ar
	0x0010 67 75 6d 65 6e 74 73 2e 52 65 76 65 72 73 65 42  guments.ReverseB
	0x0020 79 74 65 73 33 32 00 00 00 00 00 00 00 00 00 00  ytes32..........
	0x0030 00 00 00 00 00 00 00 01 9c 02 00 00 00 01 12 6e  ...............n
	0x0040 00 00 dc 01 00 00 00 00 00 00 00 00 11 7e 72 30  .............~r0
	0x0050 00 01 dc 01 00 00 00 00 00 00                    ..........
	rel 0+0 t=22 type:uint32<0>+0
	rel 39+8 t=1 command-line-arguments.ReverseBytes32<1>+0
	rel 47+8 t=1 command-line-arguments.ReverseBytes32<1>+3
	rel 68+4 t=31 go:info.uint32<0>+0
	rel 72+4 t=31 <0>+0
	rel 84+4 t=31 go:info.uint32<0>+0
aux for command-line-arguments.ReverseBytes16<0> SDWARFLOC size=51
	0x0000 ff ff ff ff ff ff ff ff 00 00 00 00 00 00 00 00  ................
	0x0010 00 00 00 00 00 00 00 00 04 00 00 00 00 00 00 00  ................
	0x0020 01 00 50 00 00 00 00 00 00 00 00 00 00 00 00 00  ..P.............
	0x0030 00 00 00                                         ...
	rel 8+8 t=1 command-line-arguments.ReverseBytes16<1>+0
aux for command-line-arguments.ReverseBytes16<0> SDWARFLINES size=24
	0x0000 00 09 02 00 00 00 00 00 00 00 00 04 02 03 e3 01  ................
	0x0010 14 06 37 02 01 00 01 01                          ..7.....
	rel 3+8 t=1 command-line-arguments.ReverseBytes16<1>+0
aux for command-line-arguments.ReverseBytes16<0> SDWARFFCN size=90
	0x0000 03 63 6f 6d 6d 61 6e 64 2d 6c 69 6e 65 2d 61 72  .command-line-ar
	0x0010 67 75 6d 65 6e 74 73 2e 52 65 76 65 72 73 65 42  guments.ReverseB
	0x0020 79 74 65 73 31 36 00 00 00 00 00 00 00 00 00 00  ytes16..........
	0x0030 00 00 00 00 00 00 00 01 9c 02 00 00 00 01 12 6e  ...............n
	0x0040 00 00 e3 01 00 00 00 00 00 00 00 00 11 7e 72 30  .............~r0
	0x0050 00 01 e3 01 00 00 00 00 00 00                    ..........
	rel 0+0 t=22 type:uint16<0>+0
	rel 39+8 t=1 command-line-arguments.ReverseBytes16<1>+0
	rel 47+8 t=1 command-line-arguments.ReverseBytes16<1>+5
	rel 68+4 t=31 go:info.uint16<0>+0
	rel 72+4 t=31 <0>+0
	rel 84+4 t=31 go:info.uint16<0>+0
aux for command-line-arguments.RotateLeft64<0> SDWARFLOC size=51
	0x0000 ff ff ff ff ff ff ff ff 00 00 00 00 00 00 00 00  ................
	0x0010 00 00 00 00 00 00 00 00 04 00 00 00 00 00 00 00  ................
	0x0020 01 00 50 00 00 00 00 00 00 00 00 00 00 00 00 00  ..P.............
	0x0030 00 00 00                                         ...
	rel 8+8 t=1 command-line-arguments.RotateLeft64<1>+0
aux for command-line-arguments.RotateLeft64<0> SDWARFLINES size=24
	0x0000 00 09 02 00 00 00 00 00 00 00 00 04 02 03 f1 01  ................
	0x0010 14 06 37 02 01 00 01 01                          ..7.....
	rel 3+8 t=1 command-line-arguments.RotateLeft64<1>+0
aux for command-line-arguments.RotateLeft64<0> SDWARFFCN size=88
	0x0000 03 63 6f 6d 6d 61 6e 64 2d 6c 69 6e 65 2d 61 72  .command-line-ar
	0x0010 67 75 6d 65 6e 74 73 2e 52 6f 74 61 74 65 4c 65  guments.RotateLe
	0x0020 66 74 36 34 00 00 00 00 00 00 00 00 00 00 00 00  ft64............
	0x0030 00 00 00 00 00 01 9c 02 00 00 00 01 12 6e 00 00  .............n..
	0x0040 f0 01 00 00 00 00 00 00 00 00 11 7e 72 30 00 01  ...........~r0..
	0x0050 f0 01 00 00 00 00 00 00                          ........
	rel 0+0 t=22 type:uint64<0>+0
	rel 37+8 t=1 command-line-arguments.RotateLeft64<1>+0
	rel 45+8 t=1 command-line-arguments.RotateLeft64<1>+5
	rel 66+4 t=31 go:info.uint64<0>+0
	rel 70+4 t=31 <0>+0
	rel 82+4 t=31 go:info.uint64<0>+0
aux for command-line-arguments.RotateLeft32<0> SDWARFLOC size=51
	0x0000 ff ff ff ff ff ff ff ff 00 00 00 00 00 00 00 00  ................
	0x0010 00 00 00 00 00 00 00 00 03 00 00 00 00 00 00 00  ................
	0x0020 01 00 50 00 00 00 00 00 00 00 00 00 00 00 00 00  ..P.............
	0x0030 00 00 00                                         ...
	rel 8+8 t=1 command-line-arguments.RotateLeft32<1>+0
aux for command-line-arguments.RotateLeft32<0> SDWARFLINES size=24
	0x0000 00 09 02 00 00 00 00 00 00 00 00 04 02 03 fc 01  ................
	0x0010 14 06 2d 02 01 00 01 01                          ..-.....
	rel 3+8 t=1 command-line-arguments.RotateLeft32<1>+0
aux for command-line-arguments.RotateLeft32<0> SDWARFFCN size=88
	0x0000 03 63 6f 6d 6d 61 6e 64 2d 6c 69 6e 65 2d 61 72  .command-line-ar
	0x0010 67 75 6d 65 6e 74 73 2e 52 6f 74 61 74 65 4c 65  guments.RotateLe
	0x0020 66 74 33 32 00 00 00 00 00 00 00 00 00 00 00 00  ft32............
	0x0030 00 00 00 00 00 01 9c 02 00 00 00 01 12 6e 00 00  .............n..
	0x0040 fa 01 00 00 00 00 00 00 00 00 11 7e 72 30 00 01  ...........~r0..
	0x0050 fa 01 00 00 00 00 00 00                          ........
	rel 0+0 t=22 type:uint32<0>+0
	rel 37+8 t=1 command-line-arguments.RotateLeft32<1>+0
	rel 45+8 t=1 command-line-arguments.RotateLeft32<1>+4
	rel 66+4 t=31 go:info.uint32<0>+0
	rel 70+4 t=31 <0>+0
	rel 82+4 t=31 go:info.uint32<0>+0
aux for command-line-arguments.RotateLeft16<0> SDWARFLOC size=102
	0x0000 ff ff ff ff ff ff ff ff 00 00 00 00 00 00 00 00  ................
	0x0010 00 00 00 00 00 00 00 00 06 00 00 00 00 00 00 00  ................
	0x0020 01 00 50 00 00 00 00 00 00 00 00 00 00 00 00 00  ..P.............
	0x0030 00 00 00 ff ff ff ff ff ff ff ff 00 00 00 00 00  ................
	0x0040 00 00 00 00 00 00 00 00 00 00 00 07 00 00 00 00  ................
	0x0050 00 00 00 01 00 53 00 00 00 00 00 00 00 00 00 00  .....S..........
	0x0060 00 00 00 00 00 00                                ......
	rel 8+8 t=1 command-line-arguments.RotateLeft16<1>+0
	rel 59+8 t=1 command-line-arguments.RotateLeft16<1>+0
aux for command-line-arguments.RotateLeft16<0> SDWARFLINES size=24
	0x0000 00 09 02 00 00 00 00 00 00 00 00 04 02 03 82 02  ................
	0x0010 14 06 2d 02 04 00 01 01                          ..-.....
	rel 3+8 t=1 command-line-arguments.RotateLeft16<1>+0
aux for command-line-arguments.RotateLeft16<0> SDWARFFCN size=102
	0x0000 03 63 6f 6d 6d 61 6e 64 2d 6c 69 6e 65 2d 61 72  .command-line-ar
	0x0010 67 75 6d 65 6e 74 73 2e 52 6f 74 61 74 65 4c 65  guments.RotateLe
	0x0020 66 74 31 36 00 00 00 00 00 00 00 00 00 00 00 00  ft16............
	0x0030 00 00 00 00 00 01 9c 02 00 00 00 01 12 6e 00 00  .............n..
	0x0040 85 02 00 00 00 00 00 00 00 00 12 73 00 00 85 02  ...........s....
	0x0050 00 00 00 00 00 00 00 00 11 7e 72 30 00 01 85 02  .........~r0....
	0x0060 00 00 00 00 00 00                                ......
	rel 0+0 t=22 type:uint16<0>+0
	rel 37+8 t=1 command-line-arguments.RotateLeft16<1>+0
	rel 45+8 t=1 command-line-arguments.RotateLeft16<1>+7
	rel 66+4 t=31 go:info.uint16<0>+0
	rel 70+4 t=31 <0>+0
	rel 80+4 t=31 go:info.int<0>+0
	rel 84+4 t=31 <0>+51
	rel 96+4 t=31 go:info.uint16<0>+0
aux for command-line-arguments.RotateLeft8<0> SDWARFLOC size=102
	0x0000 ff ff ff ff ff ff ff ff 00 00 00 00 00 00 00 00  ................
	0x0010 00 00 00 00 00 00 00 00 05 00 00 00 00 00 00 00  ................
	0x0020 01 00 50 00 00 00 00 00 00 00 00 00 00 00 00 00  ..P.............
	0x0030 00 00 00 ff ff ff ff ff ff ff ff 00 00 00 00 00  ................
	0x0040 00 00 00 00 00 00 00 00 00 00 00 06 00 00 00 00  ................
	0x0050 00 00 00 01 00 53 00 00 00 00 00 00 00 00 00 00  .....S..........
	0x0060 00 00 00 00 00 00                                ......
	rel 8+8 t=1 command-line-arguments.RotateLeft8<1>+0
	rel 59+8 t=1 command-line-arguments.RotateLeft8<1>+0
aux for command-line-arguments.RotateLeft8<0> SDWARFLINES size=24
	0x0000 00 09 02 00 00 00 00 00 00 00 00 04 02 03 88 02  ................
	0x0010 14 06 2d 02 03 00 01 01                          ..-.....
	rel 3+8 t=1 command-line-arguments.RotateLeft8<1>+0
aux for command-line-arguments.RotateLeft8<0> SDWARFFCN size=101
	0x0000 03 63 6f 6d 6d 61 6e 64 2d 6c 69 6e 65 2d 61 72  .command-line-ar
	0x0010 67 75 6d 65 6e 74 73 2e 52 6f 74 61 74 65 4c 65  guments.RotateLe
	0x0020 66 74 38 00 00 00 00 00 00 00 00 00 00 00 00 00  ft8.............
	0x0030 00 00 00 00 01 9c 02 00 00 00 01 12 6e 00 00 8b  ............n...
	0x0040 02 00 00 00 00 00 00 00 00 12 73 00 00 8b 02 00  ..........s.....
	0x0050 00 00 00 00 00 00 00 11 7e 72 30 00 01 8b 02 00  ........~r0.....
	0x0060 00 00 00 00 00                                   .....
	rel 0+0 t=22 type:uint8<0>+0
	rel 36+8 t=1 command-line-arguments.RotateLeft8<1>+0
	rel 44+8 t=1 command-line-arguments.RotateLeft8<1>+6
	rel 65+4 t=31 go:info.uint8<0>+0
	rel 69+4 t=31 <0>+0
	rel 79+4 t=31 go:info.int<0>+0
	rel 83+4 t=31 <0>+51
	rel 95+4 t=31 go:info.uint8<0>+0
aux for command-line-arguments.RotateLeftVariable<0> SDWARFLOC size=102
	0x0000 ff ff ff ff ff ff ff ff 00 00 00 00 00 00 00 00  ................
	0x0010 00 00 00 00 00 00 00 00 06 00 00 00 00 00 00 00  ................
	0x0020 01 00 50 00 00 00 00 00 00 00 00 00 00 00 00 00  ..P.............
	0x0030 00 00 00 ff ff ff ff ff ff ff ff 00 00 00 00 00  ................
	0x0040 00 00 00 00 00 00 00 00 00 00 00 07 00 00 00 00  ................
	0x0050 00 00 00 01 00 53 00 00 00 00 00 00 00 00 00 00  .....S..........
	0x0060 00 00 00 00 00 00                                ......
	rel 8+8 t=1 command-line-arguments.RotateLeftVariable<1>+0
	rel 59+8 t=1 command-line-arguments.RotateLeftVariable<1>+0
aux for command-line-arguments.RotateLeftVariable<0> SDWARFLINES size=24
	0x0000 00 09 02 00 00 00 00 00 00 00 00 04 02 03 92 02  ................
	0x0010 14 06 2d 02 04 00 01 01                          ..-.....
	rel 3+8 t=1 command-line-arguments.RotateLeftVariable<1>+0
aux for command-line-arguments.RotateLeftVariable<0> SDWARFFCN size=108
	0x0000 03 63 6f 6d 6d 61 6e 64 2d 6c 69 6e 65 2d 61 72  .command-line-ar
	0x0010 67 75 6d 65 6e 74 73 2e 52 6f 74 61 74 65 4c 65  guments.RotateLe
	0x0020 66 74 56 61 72 69 61 62 6c 65 00 00 00 00 00 00  ftVariable......
	0x0030 00 00 00 00 00 00 00 00 00 00 00 01 9c 02 00 00  ................
	0x0040 00 01 12 6e 00 00 91 02 00 00 00 00 00 00 00 00  ...n............
	0x0050 12 6d 00 00 91 02 00 00 00 00 00 00 00 00 11 7e  .m.............~
	0x0060 72 30 00 01 91 02 00 00 00 00 00 00              r0..........
	rel 0+0 t=22 type:uint<0>+0
	rel 43+8 t=1 command-line-arguments.RotateLeftVariable<1>+0
	rel 51+8 t=1 command-line-arguments.RotateLeftVariable<1>+7
	rel 72+4 t=31 go:info.uint<0>+0
	rel 76+4 t=31 <0>+0
	rel 86+4 t=31 go:info.int<0>+0
	rel 90+4 t=31 <0>+51
	rel 102+4 t=31 go:info.uint<0>+0
aux for command-line-arguments.RotateLeftVariable64<0> SDWARFLOC size=102
	0x0000 ff ff ff ff ff ff ff ff 00 00 00 00 00 00 00 00  ................
	0x0010 00 00 00 00 00 00 00 00 06 00 00 00 00 00 00 00  ................
	0x0020 01 00 50 00 00 00 00 00 00 00 00 00 00 00 00 00  ..P.............
	0x0030 00 00 00 ff ff ff ff ff ff ff ff 00 00 00 00 00  ................
	0x0040 00 00 00 00 00 00 00 00 00 00 00 07 00 00 00 00  ................
	0x0050 00 00 00 01 00 53 00 00 00 00 00 00 00 00 00 00  .....S..........
	0x0060 00 00 00 00 00 00                                ......
	rel 8+8 t=1 command-line-arguments.RotateLeftVariable64<1>+0
	rel 59+8 t=1 command-line-arguments.RotateLeftVariable64<1>+0
aux for command-line-arguments.RotateLeftVariable64<0> SDWARFLINES size=24
	0x0000 00 09 02 00 00 00 00 00 00 00 00 04 02 03 9c 02  ................
	0x0010 14 06 2d 02 04 00 01 01                          ..-.....
	rel 3+8 t=1 command-line-arguments.RotateLeftVariable64<1>+0
aux for command-line-arguments.RotateLeftVariable64<0> SDWARFFCN size=110
	0x0000 03 63 6f 6d 6d 61 6e 64 2d 6c 69 6e 65 2d 61 72  .command-line-ar
	0x0010 67 75 6d 65 6e 74 73 2e 52 6f 74 61 74 65 4c 65  guments.RotateLe
	0x0020 66 74 56 61 72 69 61 62 6c 65 36 34 00 00 00 00  ftVariable64....
	0x0030 00 00 00 00 00 00 00 00 00 00 00 00 00 01 9c 02  ................
	0x0040 00 00 00 01 12 6e 00 00 9b 02 00 00 00 00 00 00  .....n..........
	0x0050 00 00 12 6d 00 00 9b 02 00 00 00 00 00 00 00 00  ...m............
	0x0060 11 7e 72 30 00 01 9b 02 00 00 00 00 00 00        .~r0..........
	rel 0+0 t=22 type:uint64<0>+0
	rel 45+8 t=1 command-line-arguments.RotateLeftVariable64<1>+0
	rel 53+8 t=1 command-line-arguments.RotateLeftVariable64<1>+7
	rel 74+4 t=31 go:info.uint64<0>+0
	rel 78+4 t=31 <0>+0
	rel 88+4 t=31 go:info.int<0>+0
	rel 92+4 t=31 <0>+51
	rel 104+4 t=31 go:info.uint64<0>+0
aux for command-line-arguments.RotateLeftVariable32<0> SDWARFLOC size=102
	0x0000 ff ff ff ff ff ff ff ff 00 00 00 00 00 00 00 00  ................
	0x0010 00 00 00 00 00 00 00 00 05 00 00 00 00 00 00 00  ................
	0x0020 01 00 50 00 00 00 00 00 00 00 00 00 00 00 00 00  ..P.............
	0x0030 00 00 00 ff ff ff ff ff ff ff ff 00 00 00 00 00  ................
	0x0040 00 00 00 00 00 00 00 00 00 00 00 06 00 00 00 00  ................
	0x0050 00 00 00 01 00 53 00 00 00 00 00 00 00 00 00 00  .....S..........
	0x0060 00 00 00 00 00 00                                ......
	rel 8+8 t=1 command-line-arguments.RotateLeftVariable32<1>+0
	rel 59+8 t=1 command-line-arguments.RotateLeftVariable32<1>+0
aux for command-line-arguments.RotateLeftVariable32<0> SDWARFLINES size=24
	0x0000 00 09 02 00 00 00 00 00 00 00 00 04 02 03 a7 02  ................
	0x0010 14 06 2d 02 03 00 01 01                          ..-.....
	rel 3+8 t=1 command-line-arguments.RotateLeftVariable32<1>+0
aux for command-line-arguments.RotateLeftVariable32<0> SDWARFFCN size=110
	0x0000 03 63 6f 6d 6d 61 6e 64 2d 6c 69 6e 65 2d 61 72  .command-line-ar
	0x0010 67 75 6d 65 6e 74 73 2e 52 6f 74 61 74 65 4c 65  guments.RotateLe
	0x0020 66 74 56 61 72 69 61 62 6c 65 33 32 00 00 00 00  ftVariable32....
	0x0030 00 00 00 00 00 00 00 00 00 00 00 00 00 01 9c 02  ................
	0x0040 00 00 00 01 12 6e 00 00 a5 02 00 00 00 00 00 00  .....n..........
	0x0050 00 00 12 6d 00 00 a5 02 00 00 00 00 00 00 00 00  ...m............
	0x0060 11 7e 72 30 00 01 a5 02 00 00 00 00 00 00        .~r0..........
	rel 0+0 t=22 type:uint32<0>+0
	rel 45+8 t=1 command-line-arguments.RotateLeftVariable32<1>+0
	rel 53+8 t=1 command-line-arguments.RotateLeftVariable32<1>+6
	rel 74+4 t=31 go:info.uint32<0>+0
	rel 78+4 t=31 <0>+0
	rel 88+4 t=31 go:info.int<0>+0
	rel 92+4 t=31 <0>+51
	rel 104+4 t=31 go:info.uint32<0>+0
aux for command-line-arguments.TrailingZeros<0> SDWARFLOC size=102
	0x0000 ff ff ff ff ff ff ff ff 00 00 00 00 00 00 00 00  ................
	0x0010 00 00 00 00 00 00 00 00 09 00 00 00 00 00 00 00  ................
	0x0020 01 00 50 00 00 00 00 00 00 00 00 00 00 00 00 00  ..P.............
	0x0030 00 00 00 ff ff ff ff ff ff ff ff 00 00 00 00 00  ................
	0x0040 00 00 00 00 00 00 00 00 00 00 00 09 00 00 00 00  ................
	0x0050 00 00 00 01 00 50 00 00 00 00 00 00 00 00 00 00  .....P..........
	0x0060 00 00 00 00 00 00                                ......
	rel 8+8 t=1 command-line-arguments.TrailingZeros<1>+0
	rel 59+8 t=1 command-line-arguments.TrailingZeros<1>+0
aux for command-line-arguments.TrailingZeros<0> SDWARFLINES size=30
	0x0000 00 09 02 00 00 00 00 00 00 00 00 04 03 03 39 14  ..............9.
	0x0010 06 37 04 02 06 03 fb 01 6e 02 01 00 01 01        .7......n.....
	rel 3+8 t=1 command-line-arguments.TrailingZeros<1>+0
aux for command-line-arguments.TrailingZeros<0> SDWARFFCN size=126
	0x0000 03 63 6f 6d 6d 61 6e 64 2d 6c 69 6e 65 2d 61 72  .command-line-ar
	0x0010 67 75 6d 65 6e 74 73 2e 54 72 61 69 6c 69 6e 67  guments.Trailing
	0x0020 5a 65 72 6f 73 00 00 00 00 00 00 00 00 00 00 00  Zeros...........
	0x0030 00 00 00 00 00 00 01 9c 02 00 00 00 01 12 6e 00  ..............n.
	0x0040 00 b4 02 00 00 00 00 00 00 00 00 11 7e 72 30 00  ............~r0.
	0x0050 01 b4 02 00 00 00 00 00 08 00 00 00 00 00 00 00  ................
	0x0060 00 00 00 00 00 00 00 00 00 00 00 00 00 02 00 00  ................
	0x0070 00 bf 02 15 00 00 00 00 00 00 00 00 00 00        ..............
	rel 0+0 t=22 type:int<0>+0
	rel 38+8 t=1 command-line-arguments.TrailingZeros<1>+0
	rel 46+8 t=1 command-line-arguments.TrailingZeros<1>+14
	rel 67+4 t=31 go:info.uint<0>+0
	rel 71+4 t=31 <0>+0
	rel 83+4 t=31 go:info.int<0>+0
	rel 89+4 t=31 go:info.math/bits.TrailingZeros$abstract<0>+0
	rel 93+8 t=1 command-line-arguments.TrailingZeros<1>+0
	rel 101+8 t=1 command-line-arguments.TrailingZeros<1>+13
	rel 116+4 t=31 go:info.math/bits.TrailingZeros$abstract<0>+27
	rel 120+4 t=31 <0>+51
aux for command-line-arguments.TrailingZeros64<0> SDWARFLOC size=51
	0x0000 ff ff ff ff ff ff ff ff 00 00 00 00 00 00 00 00  ................
	0x0010 00 00 00 00 00 00 00 00 09 00 00 00 00 00 00 00  ................
	0x0020 01 00 50 00 00 00 00 00 00 00 00 00 00 00 00 00  ..P.............
	0x0030 00 00 00                                         ...
	rel 8+8 t=1 command-line-arguments.TrailingZeros64<1>+0
aux for command-line-arguments.TrailingZeros64<0> SDWARFLINES size=24
	0x0000 00 09 02 00 00 00 00 00 00 00 00 04 02 03 c6 02  ................
	0x0010 14 06 37 02 0a 00 01 01                          ..7.....
	rel 3+8 t=1 command-line-arguments.TrailingZeros64<1>+0
aux for command-line-arguments.TrailingZeros64<0> SDWARFFCN size=91
	0x0000 03 63 6f 6d 6d 61 6e 64 2d 6c 69 6e 65 2d 61 72  .command-line-ar
	0x0010 67 75 6d 65 6e 74 73 2e 54 72 61 69 6c 69 6e 67  guments.Trailing
	0x0020 5a 65 72 6f 73 36 34 00 00 00 00 00 00 00 00 00  Zeros64.........
	0x0030 00 00 00 00 00 00 00 00 01 9c 02 00 00 00 01 12  ................
	0x0040 6e 00 00 c2 02 00 00 00 00 00 00 00 00 11 7e 72  n.............~r
	0x0050 30 00 01 c2 02 00 00 00 00 00 00                 0..........
	rel 0+0 t=22 type:int<0>+0
	rel 40+8 t=1 command-line-arguments.TrailingZeros64<1>+0
	rel 48+8 t=1 command-line-arguments.TrailingZeros64<1>+14
	rel 69+4 t=31 go:info.uint64<0>+0
	rel 73+4 t=31 <0>+0
	rel 85+4 t=31 go:info.int<0>+0
aux for command-line-arguments.TrailingZeros64Subtract<0> SDWARFLOC size=51
	0x0000 ff ff ff ff ff ff ff ff 00 00 00 00 00 00 00 00  ................
	0x0010 00 00 00 00 00 00 00 00 10 00 00 00 00 00 00 00  ................
	0x0020 01 00 50 00 00 00 00 00 00 00 00 00 00 00 00 00  ..P.............
	0x0030 00 00 00                                         ...
	rel 8+8 t=1 command-line-arguments.TrailingZeros64Subtract<1>+0
aux for command-line-arguments.TrailingZeros64Subtract<0> SDWARFLINES size=24
	0x0000 00 09 02 00 00 00 00 00 00 00 00 04 02 03 cc 02  ................
	0x0010 14 06 37 02 11 00 01 01                          ..7.....
	rel 3+8 t=1 command-line-arguments.TrailingZeros64Subtract<1>+0
aux for command-line-arguments.TrailingZeros64Subtract<0> SDWARFFCN size=99
	0x0000 03 63 6f 6d 6d 61 6e 64 2d 6c 69 6e 65 2d 61 72  .command-line-ar
	0x0010 67 75 6d 65 6e 74 73 2e 54 72 61 69 6c 69 6e 67  guments.Trailing
	0x0020 5a 65 72 6f 73 36 34 53 75 62 74 72 61 63 74 00  Zeros64Subtract.
	0x0030 00 00 00 00 00 00 00 00 00 00 00 00 00 00 00 00  ................
	0x0040 01 9c 02 00 00 00 01 12 6e 00 00 cf 02 00 00 00  ........n.......
	0x0050 00 00 00 00 00 11 7e 72 30 00 01 cf 02 00 00 00  ......~r0.......
	0x0060 00 00 00                                         ...
	rel 0+0 t=22 type:int<0>+0
	rel 48+8 t=1 command-line-arguments.TrailingZeros64Subtract<1>+0
	rel 56+8 t=1 command-line-arguments.TrailingZeros64Subtract<1>+21
	rel 77+4 t=31 go:info.uint64<0>+0
	rel 81+4 t=31 <0>+0
	rel 93+4 t=31 go:info.int<0>+0
aux for command-line-arguments.TrailingZeros32<0> SDWARFLOC size=51
	0x0000 ff ff ff ff ff ff ff ff 00 00 00 00 00 00 00 00  ................
	0x0010 00 00 00 00 00 00 00 00 05 00 00 00 00 00 00 00  ................
	0x0020 01 00 50 00 00 00 00 00 00 00 00 00 00 00 00 00  ..P.............
	0x0030 00 00 00                                         ...
	rel 8+8 t=1 command-line-arguments.TrailingZeros32<1>+0
aux for command-line-arguments.TrailingZeros32<0> SDWARFLINES size=24
	0x0000 00 09 02 00 00 00 00 00 00 00 00 04 02 03 da 02  ................
	0x0010 14 06 41 02 05 00 01 01                          ..A.....
	rel 3+8 t=1 command-line-arguments.TrailingZeros32<1>+0
aux for command-line-arguments.TrailingZeros32<0> SDWARFFCN size=91
	0x0000 03 63 6f 6d 6d 61 6e 64 2d 6c 69 6e 65 2d 61 72  .command-line-ar
	0x0010 67 75 6d 65 6e 74 73 2e 54 72 61 69 6c 69 6e 67  guments.Trailing
	0x0020 5a 65 72 6f 73 33 32 00 00 00 00 00 00 00 00 00  Zeros32.........
	0x0030 00 00 00 00 00 00 00 00 01 9c 02 00 00 00 01 12  ................
	0x0040 6e 00 00 d5 02 00 00 00 00 00 00 00 00 11 7e 72  n.............~r
	0x0050 30 00 01 d5 02 00 00 00 00 00 00                 0..........
	rel 0+0 t=22 type:int<0>+0
	rel 40+8 t=1 command-line-arguments.TrailingZeros32<1>+0
	rel 48+8 t=1 command-line-arguments.TrailingZeros32<1>+10
	rel 69+4 t=31 go:info.uint32<0>+0
	rel 73+4 t=31 <0>+0
	rel 85+4 t=31 go:info.int<0>+0
aux for command-line-arguments.TrailingZeros16<0> SDWARFLOC size=51
	0x0000 ff ff ff ff ff ff ff ff 00 00 00 00 00 00 00 00  ................
	0x0010 00 00 00 00 00 00 00 00 04 00 00 00 00 00 00 00  ................
	0x0020 01 00 50 00 00 00 00 00 00 00 00 00 00 00 00 00  ..P.............
	0x0030 00 00 00                                         ...
	rel 8+8 t=1 command-line-arguments.TrailingZeros16<1>+0
aux for command-line-arguments.TrailingZeros16<0> SDWARFLINES size=24
	0x0000 00 09 02 00 00 00 00 00 00 00 00 04 02 03 e8 02  ................
	0x0010 14 06 37 02 04 00 01 01                          ..7.....
	rel 3+8 t=1 command-line-arguments.TrailingZeros16<1>+0
aux for command-line-arguments.TrailingZeros16<0> SDWARFFCN size=91
	0x0000 03 63 6f 6d 6d 61 6e 64 2d 6c 69 6e 65 2d 61 72  .command-line-ar
	0x0010 67 75 6d 65 6e 74 73 2e 54 72 61 69 6c 69 6e 67  guments.Trailing
	0x0020 5a 65 72 6f 73 31 36 00 00 00 00 00 00 00 00 00  Zeros16.........
	0x0030 00 00 00 00 00 00 00 00 01 9c 02 00 00 00 01 12  ................
	0x0040 6e 00 00 e3 02 00 00 00 00 00 00 00 00 11 7e 72  n.............~r
	0x0050 30 00 01 e3 02 00 00 00 00 00 00                 0..........
	rel 0+0 t=22 type:int<0>+0
	rel 40+8 t=1 command-line-arguments.TrailingZeros16<1>+0
	rel 48+8 t=1 command-line-arguments.TrailingZeros16<1>+8
	rel 69+4 t=31 go:info.uint16<0>+0
	rel 73+4 t=31 <0>+0
	rel 85+4 t=31 go:info.int<0>+0
aux for command-line-arguments.TrailingZeros8<0> SDWARFLOC size=51
	0x0000 ff ff ff ff ff ff ff ff 00 00 00 00 00 00 00 00  ................
	0x0010 00 00 00 00 00 00 00 00 04 00 00 00 00 00 00 00  ................
	0x0020 01 00 50 00 00 00 00 00 00 00 00 00 00 00 00 00  ..P.............
	0x0030 00 00 00                                         ...
	rel 8+8 t=1 command-line-arguments.TrailingZeros8<1>+0
aux for command-line-arguments.TrailingZeros8<0> SDWARFLINES size=24
	0x0000 00 09 02 00 00 00 00 00 00 00 00 04 02 03 f1 02  ................
	0x0010 14 06 37 02 04 00 01 01                          ..7.....
	rel 3+8 t=1 command-line-arguments.TrailingZeros8<1>+0
aux for command-line-arguments.TrailingZeros8<0> SDWARFFCN size=90
	0x0000 03 63 6f 6d 6d 61 6e 64 2d 6c 69 6e 65 2d 61 72  .command-line-ar
	0x0010 67 75 6d 65 6e 74 73 2e 54 72 61 69 6c 69 6e 67  guments.Trailing
	0x0020 5a 65 72 6f 73 38 00 00 00 00 00 00 00 00 00 00  Zeros8..........
	0x0030 00 00 00 00 00 00 00 01 9c 02 00 00 00 01 12 6e  ...............n
	0x0040 00 00 f1 02 00 00 00 00 00 00 00 00 11 7e 72 30  .............~r0
	0x0050 00 01 f1 02 00 00 00 00 00 00                    ..........
	rel 0+0 t=22 type:int<0>+0
	rel 39+8 t=1 command-line-arguments.TrailingZeros8<1>+0
	rel 47+8 t=1 command-line-arguments.TrailingZeros8<1>+8
	rel 68+4 t=31 go:info.uint8<0>+0
	rel 72+4 t=31 <0>+0
	rel 84+4 t=31 go:info.int<0>+0
aux for command-line-arguments.IterateBits<0> SDWARFLOC size=172
	0x0000 ff ff ff ff ff ff ff ff 00 00 00 00 00 00 00 00  ................
	0x0010 00 00 00 00 00 00 00 00 1a 00 00 00 00 00 00 00  ................
	0x0020 01 00 50 00 00 00 00 00 00 00 00 00 00 00 00 00  ..P.............
	0x0030 00 00 00 ff ff ff ff ff ff ff ff 00 00 00 00 00  ................
	0x0040 00 00 00 0b 00 00 00 00 00 00 00 12 00 00 00 00  ................
	0x0050 00 00 00 01 00 52 12 00 00 00 00 00 00 00 1b 00  .....R..........
	0x0060 00 00 00 00 00 00 01 00 52 00 00 00 00 00 00 00  ........R.......
	0x0070 00 00 00 00 00 00 00 00 00 ff ff ff ff ff ff ff  ................
	0x0080 ff 00 00 00 00 00 00 00 00 12 00 00 00 00 00 00  ................
	0x0090 00 1a 00 00 00 00 00 00 00 01 00 50 00 00 00 00  ...........P....
	0x00a0 00 00 00 00 00 00 00 00 00 00 00 00              ............
	rel 8+8 t=1 command-line-arguments.IterateBits<1>+0
	rel 59+8 t=1 command-line-arguments.IterateBits<1>+0
	rel 129+8 t=1 command-line-arguments.IterateBits<1>+0
aux for command-line-arguments.IterateBits<0> SDWARFLINES size=50
	0x0000 00 09 02 00 00 00 00 00 00 00 00 04 02 06 03 f6  ................
	0x0010 02 14 25 04 03 06 03 c5 7d 1f 04 02 03 bd 02 3c  ..%.....}......<
	0x0020 2e 06 37 06 29 06 2d 06 03 01 28 06 2d 02 01 00  ..7.).-...(.-...
	0x0030 01 01                                            ..
	rel 3+8 t=1 command-line-arguments.IterateBits<1>+0
aux for command-line-arguments.IterateBits<0> SDWARFFCN size=137
	0x0000 03 63 6f 6d 6d 61 6e 64 2d 6c 69 6e 65 2d 61 72  .command-line-ar
	0x0010 67 75 6d 65 6e 74 73 2e 49 74 65 72 61 74 65 42  guments.IterateB
	0x0020 69 74 73 00 00 00 00 00 00 00 00 00 00 00 00 00  its.............
	0x0030 00 00 00 00 01 9c 02 00 00 00 01 12 6e 00 00 fc  ............n...
	0x0040 02 00 00 00 00 00 00 00 00 11 7e 72 30 00 01 fc  ..........~r0...
	0x0050 02 00 00 00 00 00 0d 69 00 fd 02 00 00 00 00 00  .......i........
	0x0060 00 00 00 08 00 00 00 00 00 00 00 00 00 00 00 00  ................
	0x0070 00 00 00 00 00 00 00 00 02 00 00 00 81 03 15 00  ................
	0x0080 00 00 00 00 00 00 00 00 00                       .........
	rel 0+0 t=22 type:int<0>+0
	rel 36+8 t=1 command-line-arguments.IterateBits<1>+0
	rel 44+8 t=1 command-line-arguments.IterateBits<1>+27
	rel 65+4 t=31 go:info.uint<0>+0
	rel 69+4 t=31 <0>+0
	rel 81+4 t=31 go:info.int<0>+0
	rel 91+4 t=31 go:info.int<0>+0
	rel 95+4 t=31 <0>+51
	rel 100+4 t=31 go:info.math/bits.TrailingZeros$abstract<0>+0
	rel 104+8 t=1 command-line-arguments.IterateBits<1>+4
	rel 112+8 t=1 command-line-arguments.IterateBits<1>+8
	rel 127+4 t=31 go:info.math/bits.TrailingZeros$abstract<0>+27
	rel 131+4 t=31 <0>+121
aux for command-line-arguments.IterateBits64<0> SDWARFLOC size=121
	0x0000 ff ff ff ff ff ff ff ff 00 00 00 00 00 00 00 00  ................
	0x0010 00 00 00 00 00 00 00 00 1a 00 00 00 00 00 00 00  ................
	0x0020 01 00 50 00 00 00 00 00 00 00 00 00 00 00 00 00  ..P.............
	0x0030 00 00 00 ff ff ff ff ff ff ff ff 00 00 00 00 00  ................
	0x0040 00 00 00 0b 00 00 00 00 00 00 00 12 00 00 00 00  ................
	0x0050 00 00 00 01 00 52 12 00 00 00 00 00 00 00 1b 00  .....R..........
	0x0060 00 00 00 00 00 00 01 00 52 00 00 00 00 00 00 00  ........R.......
	0x0070 00 00 00 00 00 00 00 00 00                       .........
	rel 8+8 t=1 command-line-arguments.IterateBits64<1>+0
	rel 59+8 t=1 command-line-arguments.IterateBits64<1>+0
aux for command-line-arguments.IterateBits64<0> SDWARFLINES size=42
	0x0000 00 09 02 00 00 00 00 00 00 00 00 04 02 06 03 81  ................
	0x0010 03 14 25 06 26 06 37 06 2e 06 37 06 29 06 2d 06  ..%.&.7...7.).-.
	0x0020 03 01 28 06 2d 02 01 00 01 01                    ..(.-.....
	rel 3+8 t=1 command-line-arguments.IterateBits64<1>+0
aux for command-line-arguments.IterateBits64<0> SDWARFFCN size=102
	0x0000 03 63 6f 6d 6d 61 6e 64 2d 6c 69 6e 65 2d 61 72  .command-line-ar
	0x0010 67 75 6d 65 6e 74 73 2e 49 74 65 72 61 74 65 42  guments.IterateB
	0x0020 69 74 73 36 34 00 00 00 00 00 00 00 00 00 00 00  its64...........
	0x0030 00 00 00 00 00 00 01 9c 02 00 00 00 01 12 6e 00  ..............n.
	0x0040 00 87 03 00 00 00 00 00 00 00 00 11 7e 72 30 00  ............~r0.
	0x0050 01 87 03 00 00 00 00 00 0d 69 00 88 03 00 00 00  .........i......
	0x0060 00 00 00 00 00 00                                ......
	rel 0+0 t=22 type:int<0>+0
	rel 38+8 t=1 command-line-arguments.IterateBits64<1>+0
	rel 46+8 t=1 command-line-arguments.IterateBits64<1>+27
	rel 67+4 t=31 go:info.uint64<0>+0
	rel 71+4 t=31 <0>+0
	rel 83+4 t=31 go:info.int<0>+0
	rel 93+4 t=31 go:info.int<0>+0
	rel 97+4 t=31 <0>+51
aux for command-line-arguments.IterateBits32<0> SDWARFLOC size=121
	0x0000 ff ff ff ff ff ff ff ff 00 00 00 00 00 00 00 00  ................
	0x0010 00 00 00 00 00 00 00 00 16 00 00 00 00 00 00 00  ................
	0x0020 01 00 50 00 00 00 00 00 00 00 00 00 00 00 00 00  ..P.............
	0x0030 00 00 00 ff ff ff ff ff ff ff ff 00 00 00 00 00  ................
	0x0040 00 00 00 0a 00 00 00 00 00 00 00 0f 00 00 00 00  ................
	0x0050 00 00 00 01 00 52 0f 00 00 00 00 00 00 00 17 00  .....R..........
	0x0060 00 00 00 00 00 00 01 00 52 00 00 00 00 00 00 00  ........R.......
	0x0070 00 00 00 00 00 00 00 00 00                       .........
	rel 8+8 t=1 command-line-arguments.IterateBits32<1>+0
	rel 59+8 t=1 command-line-arguments.IterateBits32<1>+0
aux for command-line-arguments.IterateBits32<0> SDWARFLINES size=42
	0x0000 00 09 02 00 00 00 00 00 00 00 00 04 02 06 03 8c  ................
	0x0010 03 14 25 06 26 06 2d 06 2e 06 2d 06 1f 06 23 06  ..%.&.-...-...#.
	0x0020 03 01 28 06 2d 02 01 00 01 01                    ..(.-.....
	rel 3+8 t=1 command-line-arguments.IterateBits32<1>+0
aux for command-line-arguments.IterateBits32<0> SDWARFFCN size=102
	0x0000 03 63 6f 6d 6d 61 6e 64 2d 6c 69 6e 65 2d 61 72  .command-line-ar
	0x0010 67 75 6d 65 6e 74 73 2e 49 74 65 72 61 74 65 42  guments.IterateB
	0x0020 69 74 73 33 32 00 00 00 00 00 00 00 00 00 00 00  its32...........
	0x0030 00 00 00 00 00 00 01 9c 02 00 00 00 01 12 6e 00  ..............n.
	0x0040 00 92 03 00 00 00 00 00 00 00 00 11 7e 72 30 00  ............~r0.
	0x0050 01 92 03 00 00 00 00 00 0d 69 00 93 03 00 00 00  .........i......
	0x0060 00 00 00 00 00 00                                ......
	rel 0+0 t=22 type:int<0>+0
	rel 38+8 t=1 command-line-arguments.IterateBits32<1>+0
	rel 46+8 t=1 command-line-arguments.IterateBits32<1>+23
	rel 67+4 t=31 go:info.uint32<0>+0
	rel 71+4 t=31 <0>+0
	rel 83+4 t=31 go:info.int<0>+0
	rel 93+4 t=31 go:info.int<0>+0
	rel 97+4 t=31 <0>+51
aux for command-line-arguments.IterateBits16<0> SDWARFLOC size=121
	0x0000 ff ff ff ff ff ff ff ff 00 00 00 00 00 00 00 00  ................
	0x0010 00 00 00 00 00 00 00 00 17 00 00 00 00 00 00 00  ................
	0x0020 01 00 50 00 00 00 00 00 00 00 00 00 00 00 00 00  ..P.............
	0x0030 00 00 00 ff ff ff ff ff ff ff ff 00 00 00 00 00  ................
	0x0040 00 00 00 0a 00 00 00 00 00 00 00 0f 00 00 00 00  ................
	0x0050 00 00 00 01 00 52 0f 00 00 00 00 00 00 00 18 00  .....R..........
	0x0060 00 00 00 00 00 00 01 00 52 00 00 00 00 00 00 00  ........R.......
	0x0070 00 00 00 00 00 00 00 00 00                       .........
	rel 8+8 t=1 command-line-arguments.IterateBits16<1>+0
	rel 59+8 t=1 command-line-arguments.IterateBits16<1>+0
aux for command-line-arguments.IterateBits16<0> SDWARFLINES size=44
	0x0000 00 09 02 00 00 00 00 00 00 00 00 04 02 06 03 97  ................
	0x0010 03 14 25 06 27 06 2d 06 2e 06 2d 06 03 7f 1f 06  ..%.'.-...-.....
	0x0020 2d 06 03 02 28 06 2d 02 01 00 01 01              -...(.-.....
	rel 3+8 t=1 command-line-arguments.IterateBits16<1>+0
aux for command-line-arguments.IterateBits16<0> SDWARFFCN size=102
	0x0000 03 63 6f 6d 6d 61 6e 64 2d 6c 69 6e 65 2d 61 72  .command-line-ar
	0x0010 67 75 6d 65 6e 74 73 2e 49 74 65 72 61 74 65 42  guments.IterateB
	0x0020 69 74 73 31 36 00 00 00 00 00 00 00 00 00 00 00  its16...........
	0x0030 00 00 00 00 00 00 01 9c 02 00 00 00 01 12 6e 00  ..............n.
	0x0040 00 9d 03 00 00 00 00 00 00 00 00 11 7e 72 30 00  ............~r0.
	0x0050 01 9d 03 00 00 00 00 00 0d 69 00 9e 03 00 00 00  .........i......
	0x0060 00 00 00 00 00 00                                ......
	rel 0+0 t=22 type:int<0>+0
	rel 38+8 t=1 command-line-arguments.IterateBits16<1>+0
	rel 46+8 t=1 command-line-arguments.IterateBits16<1>+24
	rel 67+4 t=31 go:info.uint16<0>+0
	rel 71+4 t=31 <0>+0
	rel 83+4 t=31 go:info.int<0>+0
	rel 93+4 t=31 go:info.int<0>+0
	rel 97+4 t=31 <0>+51
aux for command-line-arguments.IterateBits8<0> SDWARFLOC size=121
	0x0000 ff ff ff ff ff ff ff ff 00 00 00 00 00 00 00 00  ................
	0x0010 00 00 00 00 00 00 00 00 16 00 00 00 00 00 00 00  ................
	0x0020 01 00 50 00 00 00 00 00 00 00 00 00 00 00 00 00  ..P.............
	0x0030 00 00 00 ff ff ff ff ff ff ff ff 00 00 00 00 00  ................
	0x0040 00 00 00 0a 00 00 00 00 00 00 00 0f 00 00 00 00  ................
	0x0050 00 00 00 01 00 52 0f 00 00 00 00 00 00 00 17 00  .....R..........
	0x0060 00 00 00 00 00 00 01 00 52 00 00 00 00 00 00 00  ........R.......
	0x0070 00 00 00 00 00 00 00 00 00                       .........
	rel 8+8 t=1 command-line-arguments.IterateBits8<1>+0
	rel 59+8 t=1 command-line-arguments.IterateBits8<1>+0
aux for command-line-arguments.IterateBits8<0> SDWARFLINES size=44
	0x0000 00 09 02 00 00 00 00 00 00 00 00 04 02 06 03 a3  ................
	0x0010 03 14 25 06 27 06 2d 06 2e 06 2d 06 03 7f 1f 06  ..%.'.-...-.....
	0x0020 23 06 03 02 28 06 2d 02 01 00 01 01              #...(.-.....
	rel 3+8 t=1 command-line-arguments.IterateBits8<1>+0
aux for command-line-arguments.IterateBits8<0> SDWARFFCN size=101
	0x0000 03 63 6f 6d 6d 61 6e 64 2d 6c 69 6e 65 2d 61 72  .command-line-ar
	0x0010 67 75 6d 65 6e 74 73 2e 49 74 65 72 61 74 65 42  guments.IterateB
	0x0020 69 74 73 38 00 00 00 00 00 00 00 00 00 00 00 00  its8............
	0x0030 00 00 00 00 00 01 9c 02 00 00 00 01 12 6e 00 00  .............n..
	0x0040 a9 03 00 00 00 00 00 00 00 00 11 7e 72 30 00 01  ...........~r0..
	0x0050 a9 03 00 00 00 00 00 0d 69 00 aa 03 00 00 00 00  ........i.......
	0x0060 00 00 00 00 00                                   .....
	rel 0+0 t=22 type:int<0>+0
	rel 37+8 t=1 command-line-arguments.IterateBits8<1>+0
	rel 45+8 t=1 command-line-arguments.IterateBits8<1>+23
	rel 66+4 t=31 go:info.uint8<0>+0
	rel 70+4 t=31 <0>+0
	rel 82+4 t=31 go:info.int<0>+0
	rel 92+4 t=31 go:info.int<0>+0
	rel 96+4 t=31 <0>+51
aux for command-line-arguments.Add<0> SDWARFLOC size=153
	0x0000 ff ff ff ff ff ff ff ff 00 00 00 00 00 00 00 00  ................
	0x0010 00 00 00 00 00 00 00 00 08 00 00 00 00 00 00 00  ................
	0x0020 01 00 50 00 00 00 00 00 00 00 00 00 00 00 00 00  ..P.............
	0x0030 00 00 00 ff ff ff ff ff ff ff ff 00 00 00 00 00  ................
	0x0040 00 00 00 00 00 00 00 00 00 00 00 08 00 00 00 00  ................
	0x0050 00 00 00 01 00 53 00 00 00 00 00 00 00 00 00 00  .....S..........
	0x0060 00 00 00 00 00 00 ff ff ff ff ff ff ff ff 00 00  ................
	0x0070 00 00 00 00 00 00 00 00 00 00 00 00 00 00 0c 00  ................
	0x0080 00 00 00 00 00 00 01 00 52 00 00 00 00 00 00 00  ........R.......
	0x0090 00 00 00 00 00 00 00 00 00                       .........
	rel 8+8 t=1 command-line-arguments.Add<1>+0
	rel 59+8 t=1 command-line-arguments.Add<1>+0
	rel 110+8 t=1 command-line-arguments.Add<1>+0
aux for command-line-arguments.Add<0> SDWARFLINES size=24
	0x0000 00 09 02 00 00 00 00 00 00 00 00 04 02 03 ba 03  ................
	0x0010 14 06 23 02 0a 00 01 01                          ..#.....
	rel 3+8 t=1 command-line-arguments.Add<1>+0
aux for command-line-arguments.Add<0> SDWARFFCN size=118
	0x0000 03 63 6f 6d 6d 61 6e 64 2d 6c 69 6e 65 2d 61 72  .command-line-ar
	0x0010 67 75 6d 65 6e 74 73 2e 41 64 64 00 00 00 00 00  guments.Add.....
	0x0020 00 00 00 00 00 00 00 00 00 00 00 00 01 9c 02 00  ................
	0x0030 00 00 01 12 78 00 00 b9 03 00 00 00 00 00 00 00  ....x...........
	0x0040 00 12 79 00 00 b9 03 00 00 00 00 00 00 00 00 12  ..y.............
	0x0050 63 69 00 00 b9 03 00 00 00 00 00 00 00 00 11 72  ci.............r
	0x0060 00 01 b9 03 00 00 00 00 00 11 63 6f 00 01 b9 03  ..........co....
	0x0070 00 00 00 00 00 00                                ......
	rel 0+0 t=22 type:uint<0>+0
	rel 28+8 t=1 command-line-arguments.Add<1>+0
	rel 36+8 t=1 command-line-arguments.Add<1>+12
	rel 57+4 t=31 go:info.uint<0>+0
	rel 61+4 t=31 <0>+0
	rel 71+4 t=31 go:info.uint<0>+0
	rel 75+4 t=31 <0>+51
	rel 86+4 t=31 go:info.uint<0>+0
	rel 90+4 t=31 <0>+102
	rel 100+4 t=31 go:info.uint<0>+0
	rel 112+4 t=31 go:info.uint<0>+0
aux for command-line-arguments.AddC<0> SDWARFLOC size=102
	0x0000 ff ff ff ff ff ff ff ff 00 00 00 00 00 00 00 00  ................
	0x0010 00 00 00 00 00 00 00 00 09 00 00 00 00 00 00 00  ................
	0x0020 01 00 50 00 00 00 00 00 00 00 00 00 00 00 00 00  ..P.............
	0x0030 00 00 00 ff ff ff ff ff ff ff ff 00 00 00 00 00  ................
	0x0040 00 00 00 00 00 00 00 00 00 00 00 09 00 00 00 00  ................
	0x0050 00 00 00 01 00 53 00 00 00 00 00 00 00 00 00 00  .....S..........
	0x0060 00 00 00 00 00 00                                ......
	rel 8+8 t=1 command-line-arguments.AddC<1>+0
	rel 59+8 t=1 command-line-arguments.AddC<1>+0
aux for command-line-arguments.AddC<0> SDWARFLINES size=24
	0x0000 00 09 02 00 00 00 00 00 00 00 00 04 02 03 c5 03  ................
	0x0010 14 06 23 02 0b 00 01 01                          ..#.....
	rel 3+8 t=1 command-line-arguments.AddC<1>+0
aux for command-line-arguments.AddC<0> SDWARFFCN size=105
	0x0000 03 63 6f 6d 6d 61 6e 64 2d 6c 69 6e 65 2d 61 72  .command-line-ar
	0x0010 67 75 6d 65 6e 74 73 2e 41 64 64 43 00 00 00 00  guments.AddC....
	0x0020 00 00 00 00 00 00 00 00 00 00 00 00 00 01 9c 02  ................
	0x0030 00 00 00 01 12 78 00 00 c3 03 00 00 00 00 00 00  .....x..........
	0x0040 00 00 12 63 69 00 00 c3 03 00 00 00 00 00 00 00  ...ci...........
	0x0050 00 11 72 00 01 c3 03 00 00 00 00 00 11 63 6f 00  ..r..........co.
	0x0060 01 c3 03 00 00 00 00 00 00                       .........
	rel 0+0 t=22 type:uint<0>+0
	rel 29+8 t=1 command-line-arguments.AddC<1>+0
	rel 37+8 t=1 command-line-arguments.AddC<1>+13
	rel 58+4 t=31 go:info.uint<0>+0
	rel 62+4 t=31 <0>+0
	rel 73+4 t=31 go:info.uint<0>+0
	rel 77+4 t=31 <0>+51
	rel 87+4 t=31 go:info.uint<0>+0
	rel 99+4 t=31 go:info.uint<0>+0
aux for command-line-arguments.AddZ<0> SDWARFLOC size=102
	0x0000 ff ff ff ff ff ff ff ff 00 00 00 00 00 00 00 00  ................
	0x0010 00 00 00 00 00 00 00 00 06 00 00 00 00 00 00 00  ................
	0x0020 01 00 50 00 00 00 00 00 00 00 00 00 00 00 00 00  ..P.............
	0x0030 00 00 00 ff ff ff ff ff ff ff ff 00 00 00 00 00  ................
	0x0040 00 00 00 00 00 00 00 00 00 00 00 06 00 00 00 00  ................
	0x0050 00 00 00 01 00 53 00 00 00 00 00 00 00 00 00 00  .....S..........
	0x0060 00 00 00 00 00 00                                ......
	rel 8+8 t=1 command-line-arguments.AddZ<1>+0
	rel 59+8 t=1 command-line-arguments.AddZ<1>+0
aux for command-line-arguments.AddZ<0> SDWARFLINES size=24
	0x0000 00 09 02 00 00 00 00 00 00 00 00 04 02 03 d0 03  ................
	0x0010 14 06 2d 02 07 00 01 01                          ..-.....
	rel 3+8 t=1 command-line-arguments.AddZ<1>+0
aux for command-line-arguments.AddZ<0> SDWARFFCN size=104
	0x0000 03 63 6f 6d 6d 61 6e 64 2d 6c 69 6e 65 2d 61 72  .command-line-ar
	0x0010 67 75 6d 65 6e 74 73 2e 41 64 64 5a 00 00 00 00  guments.AddZ....
	0x0020 00 00 00 00 00 00 00 00 00 00 00 00 00 01 9c 02  ................
	0x0030 00 00 00 01 12 78 00 00 ce 03 00 00 00 00 00 00  .....x..........
	0x0040 00 00 12 79 00 00 ce 03 00 00 00 00 00 00 00 00  ...y............
	0x0050 11 72 00 01 ce 03 00 00 00 00 00 11 63 6f 00 01  .r..........co..
	0x0060 ce 03 00 00 00 00 00 00                          ........
	rel 0+0 t=22 type:uint<0>+0
	rel 29+8 t=1 command-line-arguments.AddZ<1>+0
	rel 37+8 t=1 command-line-arguments.AddZ<1>+10
	rel 58+4 t=31 go:info.uint<0>+0
	rel 62+4 t=31 <0>+0
	rel 72+4 t=31 go:info.uint<0>+0
	rel 76+4 t=31 <0>+51
	rel 86+4 t=31 go:info.uint<0>+0
	rel 98+4 t=31 go:info.uint<0>+0
aux for command-line-arguments.AddR<0> SDWARFLOC size=204
	0x0000 ff ff ff ff ff ff ff ff 00 00 00 00 00 00 00 00  ................
	0x0010 00 00 00 00 00 00 00 00 05 00 00 00 00 00 00 00  ................
	0x0020 01 00 50 00 00 00 00 00 00 00 00 00 00 00 00 00  ..P.............
	0x0030 00 00 00 ff ff ff ff ff ff ff ff 00 00 00 00 00  ................
	0x0040 00 00 00 00 00 00 00 00 00 00 00 06 00 00 00 00  ................
	0x0050 00 00 00 01 00 53 00 00 00 00 00 00 00 00 00 00  .....S..........
	0x0060 00 00 00 00 00 00 ff ff ff ff ff ff ff ff 00 00  ................
	0x0070 00 00 00 00 00 00 00 00 00 00 00 00 00 00 06 00  ................
	0x0080 00 00 00 00 00 00 01 00 52 00 00 00 00 00 00 00  ........R.......
	0x0090 00 00 00 00 00 00 00 00 00 ff ff ff ff ff ff ff  ................
	0x00a0 ff 00 00 00 00 00 00 00 00 05 00 00 00 00 00 00  ................
	0x00b0 00 06 00 00 00 00 00 00 00 01 00 50 00 00 00 00  ...........P....
	0x00c0 00 00 00 00 00 00 00 00 00 00 00 00              ............
	rel 8+8 t=1 command-line-arguments.AddR<1>+0
	rel 59+8 t=1 command-line-arguments.AddR<1>+0
	rel 110+8 t=1 command-line-arguments.AddR<1>+0
	rel 161+8 t=1 command-line-arguments.AddR<1>+0
aux for command-line-arguments.AddR<0> SDWARFLINES size=26
	0x0000 00 09 02 00 00 00 00 00 00 00 00 04 02 03 db 03  ................
	0x0010 14 06 23 06 2e 02 01 00 01 01                    ..#.......
	rel 3+8 t=1 command-line-arguments.AddR<1>+0
aux for command-line-arguments.AddR<0> SDWARFFCN size=122
	0x0000 03 63 6f 6d 6d 61 6e 64 2d 6c 69 6e 65 2d 61 72  .command-line-ar
	0x0010 67 75 6d 65 6e 74 73 2e 41 64 64 52 00 00 00 00  guments.AddR....
	0x0020 00 00 00 00 00 00 00 00 00 00 00 00 00 01 9c 02  ................
	0x0030 00 00 00 01 12 78 00 00 d9 03 00 00 00 00 00 00  .....x..........
	0x0040 00 00 12 79 00 00 d9 03 00 00 00 00 00 00 00 00  ...y............
	0x0050 12 63 69 00 00 d9 03 00 00 00 00 00 00 00 00 11  .ci.............
	0x0060 7e 72 30 00 01 d9 03 00 00 00 00 00 0d 72 00 e1  ~r0..........r..
	0x0070 03 00 00 00 00 00 00 00 00 00                    ..........
	rel 0+0 t=22 type:uint<0>+0
	rel 29+8 t=1 command-line-arguments.AddR<1>+0
	rel 37+8 t=1 command-line-arguments.AddR<1>+6
	rel 58+4 t=31 go:info.uint<0>+0
	rel 62+4 t=31 <0>+0
	rel 72+4 t=31 go:info.uint<0>+0
	rel 76+4 t=31 <0>+51
	rel 87+4 t=31 go:info.uint<0>+0
	rel 91+4 t=31 <0>+102
	rel 103+4 t=31 go:info.uint<0>+0
	rel 113+4 t=31 go:info.uint<0>+0
	rel 117+4 t=31 <0>+153
aux for command-line-arguments.AddM<0> SDWARFLOC size=153
	0x0000 ff ff ff ff ff ff ff ff 00 00 00 00 00 00 00 00  ................
	0x0010 00 00 00 00 00 00 00 00 1f 00 00 00 00 00 00 00  ................
	0x0020 01 00 50 00 00 00 00 00 00 00 00 00 00 00 00 00  ..P.............
	0x0030 00 00 00 ff ff ff ff ff ff ff ff 00 00 00 00 00  ................
	0x0040 00 00 00 00 00 00 00 00 00 00 00 2b 00 00 00 00  ...........+....
	0x0050 00 00 00 01 00 53 00 00 00 00 00 00 00 00 00 00  .....S..........
	0x0060 00 00 00 00 00 00 ff ff ff ff ff ff ff ff 00 00  ................
	0x0070 00 00 00 00 00 00 00 00 00 00 00 00 00 00 2b 00  ..............+.
	0x0080 00 00 00 00 00 00 01 00 52 00 00 00 00 00 00 00  ........R.......
	0x0090 00 00 00 00 00 00 00 00 00                       .........
	rel 8+8 t=1 command-line-arguments.AddM<1>+0
	rel 59+8 t=1 command-line-arguments.AddM<1>+0
	rel 110+8 t=1 command-line-arguments.AddM<1>+0
aux for command-line-arguments.AddM<0> SDWARFLINES size=34
	0x0000 00 09 02 00 00 00 00 00 00 00 00 04 02 03 e1 03  ................
	0x0010 14 06 2d 06 6d 06 37 06 7e 06 37 06 7e 02 01 00  ..-.m.7.~.7.~...
	0x0020 01 01                                            ..
	rel 3+8 t=1 command-line-arguments.AddM<1>+0
aux for command-line-arguments.AddM<0> SDWARFFCN size=95
	0x0000 03 63 6f 6d 6d 61 6e 64 2d 6c 69 6e 65 2d 61 72  .command-line-ar
	0x0010 67 75 6d 65 6e 74 73 2e 41 64 64 4d 00 00 00 00  guments.AddM....
	0x0020 00 00 00 00 00 00 00 00 00 00 00 00 00 01 9c 02  ................
	0x0030 00 00 00 01 12 70 00 00 e5 03 00 00 00 00 00 00  .....p..........
	0x0040 00 00 12 71 00 00 e5 03 00 00 00 00 00 00 00 00  ...q............
	0x0050 12 72 00 00 e5 03 00 00 00 00 00 00 00 00 00     .r.............
	rel 29+8 t=1 command-line-arguments.AddM<1>+0
	rel 37+8 t=1 command-line-arguments.AddM<1>+43
	rel 58+4 t=31 go:info.*[3]uint<0>+0
	rel 62+4 t=31 <0>+0
	rel 72+4 t=31 go:info.*[3]uint<0>+0
	rel 76+4 t=31 <0>+51
	rel 86+4 t=31 go:info.*[3]uint<0>+0
	rel 90+4 t=31 <0>+102
aux for command-line-arguments.Add64<0> SDWARFLOC size=153
	0x0000 ff ff ff ff ff ff ff ff 00 00 00 00 00 00 00 00  ................
	0x0010 00 00 00 00 00 00 00 00 08 00 00 00 00 00 00 00  ................
	0x0020 01 00 50 00 00 00 00 00 00 00 00 00 00 00 00 00  ..P.............
	0x0030 00 00 00 ff ff ff ff ff ff ff ff 00 00 00 00 00  ................
	0x0040 00 00 00 00 00 00 00 00 00 00 00 08 00 00 00 00  ................
	0x0050 00 00 00 01 00 53 00 00 00 00 00 00 00 00 00 00  .....S..........
	0x0060 00 00 00 00 00 00 ff ff ff ff ff ff ff ff 00 00  ................
	0x0070 00 00 00 00 00 00 00 00 00 00 00 00 00 00 0c 00  ................
	0x0080 00 00 00 00 00 00 01 00 52 00 00 00 00 00 00 00  ........R.......
	0x0090 00 00 00 00 00 00 00 00 00                       .........
	rel 8+8 t=1 command-line-arguments.Add64<1>+0
	rel 59+8 t=1 command-line-arguments.Add64<1>+0
	rel 110+8 t=1 command-line-arguments.Add64<1>+0
aux for command-line-arguments.Add64<0> SDWARFLINES size=24
	0x0000 00 09 02 00 00 00 00 00 00 00 00 04 02 03 f1 03  ................
	0x0010 14 06 23 02 0a 00 01 01                          ..#.....
	rel 3+8 t=1 command-line-arguments.Add64<1>+0
aux for command-line-arguments.Add64<0> SDWARFFCN size=120
	0x0000 03 63 6f 6d 6d 61 6e 64 2d 6c 69 6e 65 2d 61 72  .command-line-ar
	0x0010 67 75 6d 65 6e 74 73 2e 41 64 64 36 34 00 00 00  guments.Add64...
	0x0020 00 00 00 00 00 00 00 00 00 00 00 00 00 00 01 9c  ................
	0x0030 02 00 00 00 01 12 78 00 00 ef 03 00 00 00 00 00  ......x.........
	0x0040 00 00 00 12 79 00 00 ef 03 00 00 00 00 00 00 00  ....y...........
	0x0050 00 12 63 69 00 00 ef 03 00 00 00 00 00 00 00 00  ..ci............
	0x0060 11 72 00 01 ef 03 00 00 00 00 00 11 63 6f 00 01  .r..........co..
	0x0070 ef 03 00 00 00 00 00 00                          ........
	rel 0+0 t=22 type:uint64<0>+0
	rel 30+8 t=1 command-line-arguments.Add64<1>+0
	rel 38+8 t=1 command-line-arguments.Add64<1>+12
	rel 59+4 t=31 go:info.uint64<0>+0
	rel 63+4 t=31 <0>+0
	rel 73+4 t=31 go:info.uint64<0>+0
	rel 77+4 t=31 <0>+51
	rel 88+4 t=31 go:info.uint64<0>+0
	rel 92+4 t=31 <0>+102
	rel 102+4 t=31 go:info.uint64<0>+0
	rel 114+4 t=31 go:info.uint64<0>+0
aux for command-line-arguments.Add64C<0> SDWARFLOC size=102
	0x0000 ff ff ff ff ff ff ff ff 00 00 00 00 00 00 00 00  ................
	0x0010 00 00 00 00 00 00 00 00 09 00 00 00 00 00 00 00  ................
	0x0020 01 00 50 00 00 00 00 00 00 00 00 00 00 00 00 00  ..P.............
	0x0030 00 00 00 ff ff ff ff ff ff ff ff 00 00 00 00 00  ................
	0x0040 00 00 00 00 00 00 00 00 00 00 00 09 00 00 00 00  ................
	0x0050 00 00 00 01 00 53 00 00 00 00 00 00 00 00 00 00  .....S..........
	0x0060 00 00 00 00 00 00                                ......
	rel 8+8 t=1 command-line-arguments.Add64C<1>+0
	rel 59+8 t=1 command-line-arguments.Add64C<1>+0
aux for command-line-arguments.Add64C<0> SDWARFLINES size=24
	0x0000 00 09 02 00 00 00 00 00 00 00 00 04 02 03 fc 03  ................
	0x0010 14 06 23 02 0b 00 01 01                          ..#.....
	rel 3+8 t=1 command-line-arguments.Add64C<1>+0
aux for command-line-arguments.Add64C<0> SDWARFFCN size=107
	0x0000 03 63 6f 6d 6d 61 6e 64 2d 6c 69 6e 65 2d 61 72  .command-line-ar
	0x0010 67 75 6d 65 6e 74 73 2e 41 64 64 36 34 43 00 00  guments.Add64C..
	0x0020 00 00 00 00 00 00 00 00 00 00 00 00 00 00 00 01  ................
	0x0030 9c 02 00 00 00 01 12 78 00 00 fa 03 00 00 00 00  .......x........
	0x0040 00 00 00 00 12 63 69 00 00 fa 03 00 00 00 00 00  .....ci.........
	0x0050 00 00 00 11 72 00 01 fa 03 00 00 00 00 00 11 63  ....r..........c
	0x0060 6f 00 01 fa 03 00 00 00 00 00 00                 o..........
	rel 0+0 t=22 type:uint64<0>+0
	rel 31+8 t=1 command-line-arguments.Add64C<1>+0
	rel 39+8 t=1 command-line-arguments.Add64C<1>+13
	rel 60+4 t=31 go:info.uint64<0>+0
	rel 64+4 t=31 <0>+0
	rel 75+4 t=31 go:info.uint64<0>+0
	rel 79+4 t=31 <0>+51
	rel 89+4 t=31 go:info.uint64<0>+0
	rel 101+4 t=31 go:info.uint64<0>+0
aux for command-line-arguments.Add64Z<0> SDWARFLOC size=102
	0x0000 ff ff ff ff ff ff ff ff 00 00 00 00 00 00 00 00  ................
	0x0010 00 00 00 00 00 00 00 00 06 00 00 00 00 00 00 00  ................
	0x0020 01 00 50 00 00 00 00 00 00 00 00 00 00 00 00 00  ..P.............
	0x0030 00 00 00 ff ff ff ff ff ff ff ff 00 00 00 00 00  ................
	0x0040 00 00 00 00 00 00 00 00 00 00 00 06 00 00 00 00  ................
	0x0050 00 00 00 01 00 53 00 00 00 00 00 00 00 00 00 00  .....S..........
	0x0060 00 00 00 00 00 00                                ......
	rel 8+8 t=1 command-line-arguments.Add64Z<1>+0
	rel 59+8 t=1 command-line-arguments.Add64Z<1>+0
aux for command-line-arguments.Add64Z<0> SDWARFLINES size=24
	0x0000 00 09 02 00 00 00 00 00 00 00 00 04 02 03 87 04  ................
	0x0010 14 06 2d 02 07 00 01 01                          ..-.....
	rel 3+8 t=1 command-line-arguments.Add64Z<1>+0
aux for command-line-arguments.Add64Z<0> SDWARFFCN size=106
	0x0000 03 63 6f 6d 6d 61 6e 64 2d 6c 69 6e 65 2d 61 72  .command-line-ar
	0x0010 67 75 6d 65 6e 74 73 2e 41 64 64 36 34 5a 00 00  guments.Add64Z..
	0x0020 00 00 00 00 00 00 00 00 00 00 00 00 00 00 00 01  ................
	0x0030 9c 02 00 00 00 01 12 78 00 00 85 04 00 00 00 00  .......x........
	0x0040 00 00 00 00 12 79 00 00 85 04 00 00 00 00 00 00  .....y..........
	0x0050 00 00 11 72 00 01 85 04 00 00 00 00 00 11 63 6f  ...r..........co
	0x0060 00 01 85 04 00 00 00 00 00 00                    ..........
	rel 0+0 t=22 type:uint64<0>+0
	rel 31+8 t=1 command-line-arguments.Add64Z<1>+0
	rel 39+8 t=1 command-line-arguments.Add64Z<1>+10
	rel 60+4 t=31 go:info.uint64<0>+0
	rel 64+4 t=31 <0>+0
	rel 74+4 t=31 go:info.uint64<0>+0
	rel 78+4 t=31 <0>+51
	rel 88+4 t=31 go:info.uint64<0>+0
	rel 100+4 t=31 go:info.uint64<0>+0
aux for command-line-arguments.Add64R<0> SDWARFLOC size=204
	0x0000 ff ff ff ff ff ff ff ff 00 00 00 00 00 00 00 00  ................
	0x0010 00 00 00 00 00 00 00 00 05 00 00 00 00 00 00 00  ................
	0x0020 01 00 50 00 00 00 00 00 00 00 00 00 00 00 00 00  ..P.............
	0x0030 00 00 00 ff ff ff ff ff ff ff ff 00 00 00 00 00  ................
	0x0040 00 00 00 00 00 00 00 00 00 00 00 06 00 00 00 00  ................
	0x0050 00 00 00 01 00 53 00 00 00 00 00 00 00 00 00 00  .....S..........
	0x0060 00 00 00 00 00 00 ff ff ff ff ff ff ff ff 00 00  ................
	0x0070 00 00 00 00 00 00 00 00 00 00 00 00 00 00 06 00  ................
	0x0080 00 00 00 00 00 00 01 00 52 00 00 00 00 00 00 00  ........R.......
	0x0090 00 00 00 00 00 00 00 00 00 ff ff ff ff ff ff ff  ................
	0x00a0 ff 00 00 00 00 00 00 00 00 05 00 00 00 00 00 00  ................
	0x00b0 00 06 00 00 00 00 00 00 00 01 00 50 00 00 00 00  ...........P....
	0x00c0 00 00 00 00 00 00 00 00 00 00 00 00              ............
	rel 8+8 t=1 command-line-arguments.Add64R<1>+0
	rel 59+8 t=1 command-line-arguments.Add64R<1>+0
	rel 110+8 t=1 command-line-arguments.Add64R<1>+0
	rel 161+8 t=1 command-line-arguments.Add64R<1>+0
aux for command-line-arguments.Add64R<0> SDWARFLINES size=26
	0x0000 00 09 02 00 00 00 00 00 00 00 00 04 02 03 92 04  ................
	0x0010 14 06 23 06 2e 02 01 00 01 01                    ..#.......
	rel 3+8 t=1 command-line-arguments.Add64R<1>+0
aux for command-line-arguments.Add64R<0> SDWARFFCN size=124
	0x0000 03 63 6f 6d 6d 61 6e 64 2d 6c 69 6e 65 2d 61 72  .command-line-ar
	0x0010 67 75 6d 65 6e 74 73 2e 41 64 64 36 34 52 00 00  guments.Add64R..
	0x0020 00 00 00 00 00 00 00 00 00 00 00 00 00 00 00 01  ................
	0x0030 9c 02 00 00 00 01 12 78 00 00 90 04 00 00 00 00  .......x........
	0x0040 00 00 00 00 12 79 00 00 90 04 00 00 00 00 00 00  .....y..........
	0x0050 00 00 12 63 69 00 00 90 04 00 00 00 00 00 00 00  ...ci...........
	0x0060 00 11 7e 72 30 00 01 90 04 00 00 00 00 00 0d 72  ..~r0..........r
	0x0070 00 98 04 00 00 00 00 00 00 00 00 00              ............
	rel 0+0 t=22 type:uint64<0>+0
	rel 31+8 t=1 command-line-arguments.Add64R<1>+0
	rel 39+8 t=1 command-line-arguments.Add64R<1>+6
	rel 60+4 t=31 go:info.uint64<0>+0
	rel 64+4 t=31 <0>+0
	rel 74+4 t=31 go:info.uint64<0>+0
	rel 78+4 t=31 <0>+51
	rel 89+4 t=31 go:info.uint64<0>+0
	rel 93+4 t=31 <0>+102
	rel 105+4 t=31 go:info.uint64<0>+0
	rel 115+4 t=31 go:info.uint64<0>+0
	rel 119+4 t=31 <0>+153
aux for command-line-arguments.Add64M<0> SDWARFLOC size=153
	0x0000 ff ff ff ff ff ff ff ff 00 00 00 00 00 00 00 00  ................
	0x0010 00 00 00 00 00 00 00 00 1f 00 00 00 00 00 00 00  ................
	0x0020 01 00 50 00 00 00 00 00 00 00 00 00 00 00 00 00  ..P.............
	0x0030 00 00 00 ff ff ff ff ff ff ff ff 00 00 00 00 00  ................
	0x0040 00 00 00 00 00 00 00 00 00 00 00 2b 00 00 00 00  ...........+....
	0x0050 00 00 00 01 00 53 00 00 00 00 00 00 00 00 00 00  .....S..........
	0x0060 00 00 00 00 00 00 ff ff ff ff ff ff ff ff 00 00  ................
	0x0070 00 00 00 00 00 00 00 00 00 00 00 00 00 00 2b 00  ..............+.
	0x0080 00 00 00 00 00 00 01 00 52 00 00 00 00 00 00 00  ........R.......
	0x0090 00 00 00 00 00 00 00 00 00                       .........
	rel 8+8 t=1 command-line-arguments.Add64M<1>+0
	rel 59+8 t=1 command-line-arguments.Add64M<1>+0
	rel 110+8 t=1 command-line-arguments.Add64M<1>+0
aux for command-line-arguments.Add64M<0> SDWARFLINES size=36
	0x0000 00 09 02 00 00 00 00 00 00 00 00 04 02 03 97 04  ................
	0x0010 14 06 2d 06 03 01 6e 06 37 06 7e 06 37 06 7e 02  ..-...n.7.~.7.~.
	0x0020 01 00 01 01                                      ....
	rel 3+8 t=1 command-line-arguments.Add64M<1>+0
aux for command-line-arguments.Add64M<0> SDWARFFCN size=97
	0x0000 03 63 6f 6d 6d 61 6e 64 2d 6c 69 6e 65 2d 61 72  .command-line-ar
	0x0010 67 75 6d 65 6e 74 73 2e 41 64 64 36 34 4d 00 00  guments.Add64M..
	0x0020 00 00 00 00 00 00 00 00 00 00 00 00 00 00 00 01  ................
	0x0030 9c 02 00 00 00 01 12 70 00 00 9b 04 00 00 00 00  .......p........
	0x0040 00 00 00 00 12 71 00 00 9b 04 00 00 00 00 00 00  .....q..........
	0x0050 00 00 12 72 00 00 9b 04 00 00 00 00 00 00 00 00  ...r............
	0x0060 00                                               .
	rel 31+8 t=1 command-line-arguments.Add64M<1>+0
	rel 39+8 t=1 command-line-arguments.Add64M<1>+43
	rel 60+4 t=31 go:info.*[3]uint64<0>+0
	rel 64+4 t=31 <0>+0
	rel 74+4 t=31 go:info.*[3]uint64<0>+0
	rel 78+4 t=31 <0>+51
	rel 88+4 t=31 go:info.*[3]uint64<0>+0
	rel 92+4 t=31 <0>+102
aux for command-line-arguments.Add64MSaveC<0> SDWARFLOC size=204
	0x0000 ff ff ff ff ff ff ff ff 00 00 00 00 00 00 00 00  ................
	0x0010 00 00 00 00 00 00 00 00 1c 00 00 00 00 00 00 00  ................
	0x0020 01 00 50 00 00 00 00 00 00 00 00 00 00 00 00 00  ..P.............
	0x0030 00 00 00 ff ff ff ff ff ff ff ff 00 00 00 00 00  ................
	0x0040 00 00 00 00 00 00 00 00 00 00 00 20 00 00 00 00  ........... ....
	0x0050 00 00 00 01 00 53 00 00 00 00 00 00 00 00 00 00  .....S..........
	0x0060 00 00 00 00 00 00 ff ff ff ff ff ff ff ff 00 00  ................
	0x0070 00 00 00 00 00 00 00 00 00 00 00 00 00 00 35 00  ..............5.
	0x0080 00 00 00 00 00 00 01 00 52 00 00 00 00 00 00 00  ........R.......
	0x0090 00 00 00 00 00 00 00 00 00 ff ff ff ff ff ff ff  ................
	0x00a0 ff 00 00 00 00 00 00 00 00 00 00 00 00 00 00 00  ................
	0x00b0 00 35 00 00 00 00 00 00 00 01 00 55 00 00 00 00  .5.........U....
	0x00c0 00 00 00 00 00 00 00 00 00 00 00 00              ............
	rel 8+8 t=1 command-line-arguments.Add64MSaveC<1>+0
	rel 59+8 t=1 command-line-arguments.Add64MSaveC<1>+0
	rel 110+8 t=1 command-line-arguments.Add64MSaveC<1>+0
	rel 161+8 t=1 command-line-arguments.Add64MSaveC<1>+0
aux for command-line-arguments.Add64MSaveC<0> SDWARFLINES size=32
	0x0000 00 09 02 00 00 00 00 00 00 00 00 04 02 03 a4 04  ................
	0x0010 14 06 2d 06 e4 06 37 34 30 06 ba 02 01 00 01 01  ..-...740.......
	rel 3+8 t=1 command-line-arguments.Add64MSaveC<1>+0
aux for command-line-arguments.Add64MSaveC<0> SDWARFFCN size=116
	0x0000 03 63 6f 6d 6d 61 6e 64 2d 6c 69 6e 65 2d 61 72  .command-line-ar
	0x0010 67 75 6d 65 6e 74 73 2e 41 64 64 36 34 4d 53 61  guments.Add64MSa
	0x0020 76 65 43 00 00 00 00 00 00 00 00 00 00 00 00 00  veC.............
	0x0030 00 00 00 00 01 9c 02 00 00 00 01 12 70 00 00 a7  ............p...
	0x0040 04 00 00 00 00 00 00 00 00 12 71 00 00 a7 04 00  ..........q.....
	0x0050 00 00 00 00 00 00 00 12 72 00 00 a7 04 00 00 00  ........r.......
	0x0060 00 00 00 00 00 12 63 00 00 a7 04 00 00 00 00 00  ......c.........
	0x0070 00 00 00 00                                      ....
	rel 36+8 t=1 command-line-arguments.Add64MSaveC<1>+0
	rel 44+8 t=1 command-line-arguments.Add64MSaveC<1>+53
	rel 65+4 t=31 go:info.*[2]uint64<0>+0
	rel 69+4 t=31 <0>+0
	rel 79+4 t=31 go:info.*[2]uint64<0>+0
	rel 83+4 t=31 <0>+51
	rel 93+4 t=31 go:info.*[2]uint64<0>+0
	rel 97+4 t=31 <0>+102
	rel 107+4 t=31 go:info.*[2]uint64<0>+0
	rel 111+4 t=31 <0>+153
aux for command-line-arguments.Add64PanicOnOverflowEQ<0> SDWARFLOC size=204
	0x0000 ff ff ff ff ff ff ff ff 00 00 00 00 00 00 00 00  ................
	0x0010 00 00 00 00 00 00 00 00 1a 00 00 00 00 00 00 00  ................
	0x0020 01 00 50 00 00 00 00 00 00 00 00 00 00 00 00 00  ..P.............
	0x0030 00 00 00 ff ff ff ff ff ff ff ff 00 00 00 00 00  ................
	0x0040 00 00 00 00 00 00 00 00 00 00 00 3e 00 00 00 00  ...........>....
	0x0050 00 00 00 01 00 53 00 00 00 00 00 00 00 00 00 00  .....S..........
	0x0060 00 00 00 00 00 00 ff ff ff ff ff ff ff ff 00 00  ................
	0x0070 00 00 00 00 00 00 1a 00 00 00 00 00 00 00 37 00  ..............7.
	0x0080 00 00 00 00 00 00 01 00 50 00 00 00 00 00 00 00  ........P.......
	0x0090 00 00 00 00 00 00 00 00 00 ff ff ff ff ff ff ff  ................
	0x00a0 ff 00 00 00 00 00 00 00 00 20 00 00 00 00 00 00  ......... ......
	0x00b0 00 45 00 00 00 00 00 00 00 01 00 52 00 00 00 00  .E.........R....
	0x00c0 00 00 00 00 00 00 00 00 00 00 00 00              ............
	rel 8+8 t=1 command-line-arguments.Add64PanicOnOverflowEQ<1>+0
	rel 59+8 t=1 command-line-arguments.Add64PanicOnOverflowEQ<1>+0
	rel 110+8 t=1 command-line-arguments.Add64PanicOnOverflowEQ<1>+0
	rel 161+8 t=1 command-line-arguments.Add64PanicOnOverflowEQ<1>+0
aux for command-line-arguments.Add64PanicOnOverflowEQ<0> SDWARFLINES size=44
	0x0000 00 09 02 00 00 00 00 00 00 00 00 04 02 03 aa 04  ................
	0x0010 14 0a 4b 9c 06 2d 06 6b 06 37 06 26 71 06 55 06  ..K..-.k.7.&q.U.
	0x0020 69 47 06 08 19 06 19 02 02 00 01 01              iG..........
	rel 3+8 t=1 command-line-arguments.Add64PanicOnOverflowEQ<1>+0
aux for command-line-arguments.Add64PanicOnOverflowEQ<0> SDWARFFCN size=138
	0x0000 03 63 6f 6d 6d 61 6e 64 2d 6c 69 6e 65 2d 61 72  .command-line-ar
	0x0010 67 75 6d 65 6e 74 73 2e 41 64 64 36 34 50 61 6e  guments.Add64Pan
	0x0020 69 63 4f 6e 4f 76 65 72 66 6c 6f 77 45 51 00 00  icOnOverflowEQ..
	0x0030 00 00 00 00 00 00 00 00 00 00 00 00 00 00 00 01  ................
	0x0040 9c 02 00 00 00 01 12 61 00 00 b0 04 00 00 00 00  .......a........
	0x0050 00 00 00 00 12 62 00 00 b0 04 00 00 00 00 00 00  .....b..........
	0x0060 00 00 11 7e 72 30 00 01 b0 04 00 00 00 00 00 0d  ...~r0..........
	0x0070 72 00 b1 04 00 00 00 00 00 00 00 00 0d 63 00 b1  r............c..
	0x0080 04 00 00 00 00 00 00 00 00 00                    ..........
	rel 0+0 t=22 type:uint64<0>+0
	rel 47+8 t=1 command-line-arguments.Add64PanicOnOverflowEQ<1>+0
	rel 55+8 t=1 command-line-arguments.Add64PanicOnOverflowEQ<1>+98
	rel 76+4 t=31 go:info.uint64<0>+0
	rel 80+4 t=31 <0>+0
	rel 90+4 t=31 go:info.uint64<0>+0
	rel 94+4 t=31 <0>+51
	rel 106+4 t=31 go:info.uint64<0>+0
	rel 116+4 t=31 go:info.uint64<0>+0
	rel 120+4 t=31 <0>+102
	rel 129+4 t=31 go:info.uint64<0>+0
	rel 133+4 t=31 <0>+153
aux for command-line-arguments.Add64PanicOnOverflowNE<0> SDWARFLOC size=204
	0x0000 ff ff ff ff ff ff ff ff 00 00 00 00 00 00 00 00  ................
	0x0010 00 00 00 00 00 00 00 00 1a 00 00 00 00 00 00 00  ................
	0x0020 01 00 50 00 00 00 00 00 00 00 00 00 00 00 00 00  ..P.............
	0x0030 00 00 00 ff ff ff ff ff ff ff ff 00 00 00 00 00  ................
	0x0040 00 00 00 00 00 00 00 00 00 00 00 3d 00 00 00 00  ...........=....
	0x0050 00 00 00 01 00 53 00 00 00 00 00 00 00 00 00 00  .....S..........
	0x0060 00 00 00 00 00 00 ff ff ff ff ff ff ff ff 00 00  ................
	0x0070 00 00 00 00 00 00 1a 00 00 00 00 00 00 00 36 00  ..............6.
	0x0080 00 00 00 00 00 00 01 00 50 00 00 00 00 00 00 00  ........P.......
	0x0090 00 00 00 00 00 00 00 00 00 ff ff ff ff ff ff ff  ................
	0x00a0 ff 00 00 00 00 00 00 00 00 20 00 00 00 00 00 00  ......... ......
	0x00b0 00 45 00 00 00 00 00 00 00 01 00 52 00 00 00 00  .E.........R....
	0x00c0 00 00 00 00 00 00 00 00 00 00 00 00              ............
	rel 8+8 t=1 command-line-arguments.Add64PanicOnOverflowNE<1>+0
	rel 59+8 t=1 command-line-arguments.Add64PanicOnOverflowNE<1>+0
	rel 110+8 t=1 command-line-arguments.Add64PanicOnOverflowNE<1>+0
	rel 161+8 t=1 command-line-arguments.Add64PanicOnOverflowNE<1>+0
aux for command-line-arguments.Add64PanicOnOverflowNE<0> SDWARFLINES size=44
	0x0000 00 09 02 00 00 00 00 00 00 00 00 04 02 03 b3 04  ................
	0x0010 14 0a 4b 9c 06 2d 06 6b 06 2d 06 26 71 06 55 06  ..K..-.k.-.&q.U.
	0x0020 73 47 06 08 19 06 19 02 02 00 01 01              sG..........
	rel 3+8 t=1 command-line-arguments.Add64PanicOnOverflowNE<1>+0
aux for command-line-arguments.Add64PanicOnOverflowNE<0> SDWARFFCN size=138
	0x0000 03 63 6f 6d 6d 61 6e 64 2d 6c 69 6e 65 2d 61 72  .command-line-ar
	0x0010 67 75 6d 65 6e 74 73 2e 41 64 64 36 34 50 61 6e  guments.Add64Pan
	0x0020 69 63 4f 6e 4f 76 65 72 66 6c 6f 77 4e 45 00 00  icOnOverflowNE..
	0x0030 00 00 00 00 00 00 00 00 00 00 00 00 00 00 00 01  ................
	0x0040 9c 02 00 00 00 01 12 61 00 00 b9 04 00 00 00 00  .......a........
	0x0050 00 00 00 00 12 62 00 00 b9 04 00 00 00 00 00 00  .....b..........
	0x0060 00 00 11 7e 72 30 00 01 b9 04 00 00 00 00 00 0d  ...~r0..........
	0x0070 72 00 ba 04 00 00 00 00 00 00 00 00 0d 63 00 ba  r............c..
	0x0080 04 00 00 00 00 00 00 00 00 00                    ..........
	rel 0+0 t=22 type:uint64<0>+0
	rel 47+8 t=1 command-line-arguments.Add64PanicOnOverflowNE<1>+0
	rel 55+8 t=1 command-line-arguments.Add64PanicOnOverflowNE<1>+98
	rel 76+4 t=31 go:info.uint64<0>+0
	rel 80+4 t=31 <0>+0
	rel 90+4 t=31 go:info.uint64<0>+0
	rel 94+4 t=31 <0>+51
	rel 106+4 t=31 go:info.uint64<0>+0
	rel 116+4 t=31 go:info.uint64<0>+0
	rel 120+4 t=31 <0>+102
	rel 129+4 t=31 go:info.uint64<0>+0
	rel 133+4 t=31 <0>+153
aux for command-line-arguments.Add64PanicOnOverflowGT<0> SDWARFLOC size=204
	0x0000 ff ff ff ff ff ff ff ff 00 00 00 00 00 00 00 00  ................
	0x0010 00 00 00 00 00 00 00 00 1a 00 00 00 00 00 00 00  ................
	0x0020 01 00 50 00 00 00 00 00 00 00 00 00 00 00 00 00  ..P.............
	0x0030 00 00 00 ff ff ff ff ff ff ff ff 00 00 00 00 00  ................
	0x0040 00 00 00 00 00 00 00 00 00 00 00 3d 00 00 00 00  ...........=....
	0x0050 00 00 00 01 00 53 00 00 00 00 00 00 00 00 00 00  .....S..........
	0x0060 00 00 00 00 00 00 ff ff ff ff ff ff ff ff 00 00  ................
	0x0070 00 00 00 00 00 00 1a 00 00 00 00 00 00 00 36 00  ..............6.
	0x0080 00 00 00 00 00 00 01 00 50 00 00 00 00 00 00 00  ........P.......
	0x0090 00 00 00 00 00 00 00 00 00 ff ff ff ff ff ff ff  ................
	0x00a0 ff 00 00 00 00 00 00 00 00 20 00 00 00 00 00 00  ......... ......
	0x00b0 00 45 00 00 00 00 00 00 00 01 00 52 00 00 00 00  .E.........R....
	0x00c0 00 00 00 00 00 00 00 00 00 00 00 00              ............
	rel 8+8 t=1 command-line-arguments.Add64PanicOnOverflowGT<1>+0
	rel 59+8 t=1 command-line-arguments.Add64PanicOnOverflowGT<1>+0
	rel 110+8 t=1 command-line-arguments.Add64PanicOnOverflowGT<1>+0
	rel 161+8 t=1 command-line-arguments.Add64PanicOnOverflowGT<1>+0
aux for command-line-arguments.Add64PanicOnOverflowGT<0> SDWARFLINES size=44
	0x0000 00 09 02 00 00 00 00 00 00 00 00 04 02 03 bc 04  ................
	0x0010 14 0a 4b 9c 06 2d 06 6b 06 2d 06 26 71 06 55 06  ..K..-.k.-.&q.U.
	0x0020 73 47 06 08 19 06 19 02 02 00 01 01              sG..........
	rel 3+8 t=1 command-line-arguments.Add64PanicOnOverflowGT<1>+0
aux for command-line-arguments.Add64PanicOnOverflowGT<0> SDWARFFCN size=138
	0x0000 03 63 6f 6d 6d 61 6e 64 2d 6c 69 6e 65 2d 61 72  .command-line-ar
	0x0010 67 75 6d 65 6e 74 73 2e 41 64 64 36 34 50 61 6e  guments.Add64Pan
	0x0020 69 63 4f 6e 4f 76 65 72 66 6c 6f 77 47 54 00 00  icOnOverflowGT..
	0x0030 00 00 00 00 00 00 00 00 00 00 00 00 00 00 00 01  ................
	0x0040 9c 02 00 00 00 01 12 61 00 00 c2 04 00 00 00 00  .......a........
	0x0050 00 00 00 00 12 62 00 00 c2 04 00 00 00 00 00 00  .....b..........
	0x0060 00 00 11 7e 72 30 00 01 c2 04 00 00 00 00 00 0d  ...~r0..........
	0x0070 72 00 c3 04 00 00 00 00 00 00 00 00 0d 63 00 c3  r............c..
	0x0080 04 00 00 00 00 00 00 00 00 00                    ..........
	rel 0+0 t=22 type:uint64<0>+0
	rel 47+8 t=1 command-line-arguments.Add64PanicOnOverflowGT<1>+0
	rel 55+8 t=1 command-line-arguments.Add64PanicOnOverflowGT<1>+98
	rel 76+4 t=31 go:info.uint64<0>+0
	rel 80+4 t=31 <0>+0
	rel 90+4 t=31 go:info.uint64<0>+0
	rel 94+4 t=31 <0>+51
	rel 106+4 t=31 go:info.uint64<0>+0
	rel 116+4 t=31 go:info.uint64<0>+0
	rel 120+4 t=31 <0>+102
	rel 129+4 t=31 go:info.uint64<0>+0
	rel 133+4 t=31 <0>+153
aux for command-line-arguments.Add64MPanicOnOverflowEQ<0> SDWARFLOC size=51
	0x0000 ff ff ff ff ff ff ff ff 00 00 00 00 00 00 00 00  ................
	0x0010 40 00 00 00 00 00 00 00 6d 00 00 00 00 00 00 00  @.......m.......
	0x0020 01 00 52 00 00 00 00 00 00 00 00 00 00 00 00 00  ..R.............
	0x0030 00 00 00                                         ...
	rel 8+8 t=1 command-line-arguments.Add64MPanicOnOverflowEQ<1>+0
aux for command-line-arguments.Add64MPanicOnOverflowEQ<0> SDWARFLINES size=50
	0x0000 00 09 02 00 00 00 00 00 00 00 00 04 02 03 c5 04  ................
	0x0010 14 0a 4b da 06 41 06 42 06 41 40 2e 06 a7 06 37  ..K..A.B.A@....7
	0x0020 06 26 06 41 06 a3 06 55 06 55 03 7d 47 02 07 00  .&.A...U.U.}G...
	0x0030 01 01                                            ..
	rel 3+8 t=1 command-line-arguments.Add64MPanicOnOverflowEQ<1>+0
aux for command-line-arguments.Add64MPanicOnOverflowEQ<0> SDWARFFCN size=123
	0x0000 03 63 6f 6d 6d 61 6e 64 2d 6c 69 6e 65 2d 61 72  .command-line-ar
	0x0010 67 75 6d 65 6e 74 73 2e 41 64 64 36 34 4d 50 61  guments.Add64MPa
	0x0020 6e 69 63 4f 6e 4f 76 65 72 66 6c 6f 77 45 51 00  nicOnOverflowEQ.
	0x0030 00 00 00 00 00 00 00 00 00 00 00 00 00 00 00 00  ................
	0x0040 01 9c 02 00 00 00 01 11 61 00 00 cb 04 00 00 00  ........a.......
	0x0050 00 01 9c 11 62 00 00 cb 04 00 00 00 00 02 91 10  ....b...........
	0x0060 11 7e 72 30 00 01 cb 04 00 00 00 00 00 0d 63 00  .~r0..........c.
	0x0070 cd 04 00 00 00 00 00 00 00 00 00                 ...........
	rel 0+0 t=22 type:[2]uint64<0>+0
	rel 48+8 t=1 command-line-arguments.Add64MPanicOnOverflowEQ<1>+0
	rel 56+8 t=1 command-line-arguments.Add64MPanicOnOverflowEQ<1>+117
	rel 77+4 t=31 go:info.[2]uint64<0>+0
	rel 89+4 t=31 go:info.[2]uint64<0>+0
	rel 104+4 t=31 go:info.[2]uint64<0>+0
	rel 114+4 t=31 go:info.uint64<0>+0
	rel 118+4 t=31 <0>+0
aux for command-line-arguments.Add64MPanicOnOverflowNE<0> SDWARFLOC size=51
	0x0000 ff ff ff ff ff ff ff ff 00 00 00 00 00 00 00 00  ................
	0x0010 3a 00 00 00 00 00 00 00 66 00 00 00 00 00 00 00  :.......f.......
	0x0020 01 00 52 00 00 00 00 00 00 00 00 00 00 00 00 00  ..R.............
	0x0030 00 00 00                                         ...
	rel 8+8 t=1 command-line-arguments.Add64MPanicOnOverflowNE<1>+0
aux for command-line-arguments.Add64MPanicOnOverflowNE<0> SDWARFLINES size=50
	0x0000 00 09 02 00 00 00 00 00 00 00 00 04 02 03 d1 04  ................
	0x0010 14 0a 4b da 06 41 06 42 06 41 40 2e 06 6b 06 2d  ..K..A.B.A@..k.-
	0x0020 06 26 06 41 06 a3 06 55 06 55 03 7d 47 02 07 00  .&.A...U.U.}G...
	0x0030 01 01                                            ..
	rel 3+8 t=1 command-line-arguments.Add64MPanicOnOverflowNE<1>+0
aux for command-line-arguments.Add64MPanicOnOverflowNE<0> SDWARFFCN size=123
	0x0000 03 63 6f 6d 6d 61 6e 64 2d 6c 69 6e 65 2d 61 72  .command-line-ar
	0x0010 67 75 6d 65 6e 74 73 2e 41 64 64 36 34 4d 50 61  guments.Add64MPa
	0x0020 6e 69 63 4f 6e 4f 76 65 72 66 6c 6f 77 4e 45 00  nicOnOverflowNE.
	0x0030 00 00 00 00 00 00 00 00 00 00 00 00 00 00 00 00  ................
	0x0040 01 9c 02 00 00 00 01 11 61 00 00 d7 04 00 00 00  ........a.......
	0x0050 00 01 9c 11 62 00 00 d7 04 00 00 00 00 02 91 10  ....b...........
	0x0060 11 7e 72 30 00 01 d7 04 00 00 00 00 00 0d 63 00  .~r0..........c.
	0x0070 d9 04 00 00 00 00 00 00 00 00 00                 ...........
	rel 0+0 t=22 type:[2]uint64<0>+0
	rel 48+8 t=1 command-line-arguments.Add64MPanicOnOverflowNE<1>+0
	rel 56+8 t=1 command-line-arguments.Add64MPanicOnOverflowNE<1>+110
	rel 77+4 t=31 go:info.[2]uint64<0>+0
	rel 89+4 t=31 go:info.[2]uint64<0>+0
	rel 104+4 t=31 go:info.[2]uint64<0>+0
	rel 114+4 t=31 go:info.uint64<0>+0
	rel 118+4 t=31 <0>+0
aux for command-line-arguments.Add64MPanicOnOverflowGT<0> SDWARFLOC size=51
	0x0000 ff ff ff ff ff ff ff ff 00 00 00 00 00 00 00 00  ................
	0x0010 3a 00 00 00 00 00 00 00 66 00 00 00 00 00 00 00  :.......f.......
	0x0020 01 00 52 00 00 00 00 00 00 00 00 00 00 00 00 00  ..R.............
	0x0030 00 00 00                                         ...
	rel 8+8 t=1 command-line-arguments.Add64MPanicOnOverflowGT<1>+0
aux for command-line-arguments.Add64MPanicOnOverflowGT<0> SDWARFLINES size=50
	0x0000 00 09 02 00 00 00 00 00 00 00 00 04 02 03 dd 04  ................
	0x0010 14 0a 4b da 06 41 06 42 06 41 40 2e 06 6b 06 2d  ..K..A.B.A@..k.-
	0x0020 06 26 06 41 06 a3 06 55 06 55 03 7d 47 02 07 00  .&.A...U.U.}G...
	0x0030 01 01                                            ..
	rel 3+8 t=1 command-line-arguments.Add64MPanicOnOverflowGT<1>+0
aux for command-line-arguments.Add64MPanicOnOverflowGT<0> SDWARFFCN size=123
	0x0000 03 63 6f 6d 6d 61 6e 64 2d 6c 69 6e 65 2d 61 72  .command-line-ar
	0x0010 67 75 6d 65 6e 74 73 2e 41 64 64 36 34 4d 50 61  guments.Add64MPa
	0x0020 6e 69 63 4f 6e 4f 76 65 72 66 6c 6f 77 47 54 00  nicOnOverflowGT.
	0x0030 00 00 00 00 00 00 00 00 00 00 00 00 00 00 00 00  ................
	0x0040 01 9c 02 00 00 00 01 11 61 00 00 e3 04 00 00 00  ........a.......
	0x0050 00 01 9c 11 62 00 00 e3 04 00 00 00 00 02 91 10  ....b...........
	0x0060 11 7e 72 30 00 01 e3 04 00 00 00 00 00 0d 63 00  .~r0..........c.
	0x0070 e5 04 00 00 00 00 00 00 00 00 00                 ...........
	rel 0+0 t=22 type:[2]uint64<0>+0
	rel 48+8 t=1 command-line-arguments.Add64MPanicOnOverflowGT<1>+0
	rel 56+8 t=1 command-line-arguments.Add64MPanicOnOverflowGT<1>+110
	rel 77+4 t=31 go:info.[2]uint64<0>+0
	rel 89+4 t=31 go:info.[2]uint64<0>+0
	rel 104+4 t=31 go:info.[2]uint64<0>+0
	rel 114+4 t=31 go:info.uint64<0>+0
	rel 118+4 t=31 <0>+0
aux for command-line-arguments.Add64MultipleChains<0> SDWARFLOC size=408
	0x0000 ff ff ff ff ff ff ff ff 00 00 00 00 00 00 00 00  ................
	0x0010 1a 00 00 00 00 00 00 00 35 00 00 00 00 00 00 00  ........5.......
	0x0020 01 00 51 00 00 00 00 00 00 00 00 00 00 00 00 00  ..Q.............
	0x0030 00 00 00 ff ff ff ff ff ff ff ff 00 00 00 00 00  ................
	0x0040 00 00 00 1f 00 00 00 00 00 00 00 35 00 00 00 00  ...........5....
	0x0050 00 00 00 01 00 53 00 00 00 00 00 00 00 00 00 00  .....S..........
	0x0060 00 00 00 00 00 00 ff ff ff ff ff ff ff ff 00 00  ................
	0x0070 00 00 00 00 00 00 05 00 00 00 00 00 00 00 1f 00  ................
	0x0080 00 00 00 00 00 00 01 00 50 00 00 00 00 00 00 00  ........P.......
	0x0090 00 00 00 00 00 00 00 00 00 ff ff ff ff ff ff ff  ................
	0x00a0 ff 00 00 00 00 00 00 00 00 0a 00 00 00 00 00 00  ................
	0x00b0 00 24 00 00 00 00 00 00 00 01 00 52 00 00 00 00  .$.........R....
	0x00c0 00 00 00 00 00 00 00 00 00 00 00 00 ff ff ff ff  ................
	0x00d0 ff ff ff ff 00 00 00 00 00 00 00 00 0f 00 00 00  ................
	0x00e0 00 00 00 00 1a 00 00 00 00 00 00 00 01 00 51 00  ..............Q.
	0x00f0 00 00 00 00 00 00 00 00 00 00 00 00 00 00 00 ff  ................
	0x0100 ff ff ff ff ff ff ff 00 00 00 00 00 00 00 00 14  ................
	0x0110 00 00 00 00 00 00 00 1f 00 00 00 00 00 00 00 01  ................
	0x0120 00 53 00 00 00 00 00 00 00 00 00 00 00 00 00 00  .S..............
	0x0130 00 00 ff ff ff ff ff ff ff ff 00 00 00 00 00 00  ................
	0x0140 00 00 1f 00 00 00 00 00 00 00 35 00 00 00 00 00  ..........5.....
	0x0150 00 00 01 00 50 00 00 00 00 00 00 00 00 00 00 00  ....P...........
	0x0160 00 00 00 00 00 ff ff ff ff ff ff ff ff 00 00 00  ................
	0x0170 00 00 00 00 00 24 00 00 00 00 00 00 00 2f 00 00  .....$......./..
	0x0180 00 00 00 00 00 01 00 52 00 00 00 00 00 00 00 00  .......R........
	0x0190 00 00 00 00 00 00 00 00                          ........
	rel 8+8 t=1 command-line-arguments.Add64MultipleChains<1>+0
	rel 59+8 t=1 command-line-arguments.Add64MultipleChains<1>+0
	rel 110+8 t=1 command-line-arguments.Add64MultipleChains<1>+0
	rel 161+8 t=1 command-line-arguments.Add64MultipleChains<1>+0
	rel 212+8 t=1 command-line-arguments.Add64MultipleChains<1>+0
	rel 263+8 t=1 command-line-arguments.Add64MultipleChains<1>+0
	rel 314+8 t=1 command-line-arguments.Add64MultipleChains<1>+0
	rel 365+8 t=1 command-line-arguments.Add64MultipleChains<1>+0
aux for command-line-arguments.Add64MultipleChains<0> SDWARFLINES size=44
	0x0000 00 09 02 00 00 00 00 00 00 00 00 04 02 03 f5 04  ................
	0x0010 14 06 41 06 42 06 41 46 30 06 03 7d 29 06 41 03  ..A.B.AF0..}).A.
	0x0020 06 46 30 06 2e 42 42 02 01 00 01 01              .F0..BB.....
	rel 3+8 t=1 command-line-arguments.Add64MultipleChains<1>+0
aux for command-line-arguments.Add64MultipleChains<0> SDWARFFCN size=231
	0x0000 03 63 6f 6d 6d 61 6e 64 2d 6c 69 6e 65 2d 61 72  .command-line-ar
	0x0010 67 75 6d 65 6e 74 73 2e 41 64 64 36 34 4d 75 6c  guments.Add64Mul
	0x0020 74 69 70 6c 65 43 68 61 69 6e 73 00 00 00 00 00  tipleChains.....
	0x0030 00 00 00 00 00 00 00 00 00 00 00 00 01 9c 02 00  ................
	0x0040 00 00 01 11 61 00 00 f9 04 00 00 00 00 01 9c 11  ....a...........
	0x0050 62 00 00 f9 04 00 00 00 00 02 91 10 11 63 00 00  b............c..
	0x0060 f9 04 00 00 00 00 02 91 20 11 64 00 00 f9 04 00  ........ .d.....
	0x0070 00 00 00 02 91 30 0d 64 31 00 fa 04 00 00 00 00  .....0.d1.......
	0x0080 00 00 00 00 0d 64 32 00 fa 04 00 00 00 00 00 00  .....d2.........
	0x0090 00 00 0d 61 31 00 fb 04 00 00 00 00 00 00 00 00  ...a1...........
	0x00a0 0d 61 32 00 fb 04 00 00 00 00 00 00 00 00 0d 62  .a2............b
	0x00b0 31 00 fc 04 00 00 00 00 00 00 00 00 0d 62 32 00  1............b2.
	0x00c0 fc 04 00 00 00 00 00 00 00 00 0d 63 31 00 fd 04  ...........c1...
	0x00d0 00 00 00 00 00 00 00 00 0d 63 32 00 fd 04 00 00  .........c2.....
	0x00e0 00 00 00 00 00 00 00                             .......
	rel 44+8 t=1 command-line-arguments.Add64MultipleChains<1>+0
	rel 52+8 t=1 command-line-arguments.Add64MultipleChains<1>+53
	rel 73+4 t=31 go:info.[2]uint64<0>+0
	rel 85+4 t=31 go:info.[2]uint64<0>+0
	rel 98+4 t=31 go:info.[2]uint64<0>+0
	rel 111+4 t=31 go:info.[2]uint64<0>+0
	rel 124+4 t=31 go:info.uint64<0>+0
	rel 128+4 t=31 <0>+0
	rel 138+4 t=31 go:info.uint64<0>+0
	rel 142+4 t=31 <0>+51
	rel 152+4 t=31 go:info.uint64<0>+0
	rel 156+4 t=31 <0>+102
	rel 166+4 t=31 go:info.uint64<0>+0
	rel 170+4 t=31 <0>+153
	rel 180+4 t=31 go:info.uint64<0>+0
	rel 184+4 t=31 <0>+204
	rel 194+4 t=31 go:info.uint64<0>+0
	rel 198+4 t=31 <0>+255
	rel 208+4 t=31 go:info.uint64<0>+0
	rel 212+4 t=31 <0>+306
	rel 222+4 t=31 go:info.uint64<0>+0
	rel 226+4 t=31 <0>+357
aux for command-line-arguments.Sub<0> SDWARFLOC size=153
	0x0000 ff ff ff ff ff ff ff ff 00 00 00 00 00 00 00 00  ................
	0x0010 00 00 00 00 00 00 00 00 08 00 00 00 00 00 00 00  ................
	0x0020 01 00 50 00 00 00 00 00 00 00 00 00 00 00 00 00  ..P.............
	0x0030 00 00 00 ff ff ff ff ff ff ff ff 00 00 00 00 00  ................
	0x0040 00 00 00 00 00 00 00 00 00 00 00 08 00 00 00 00  ................
	0x0050 00 00 00 01 00 53 00 00 00 00 00 00 00 00 00 00  .....S..........
	0x0060 00 00 00 00 00 00 ff ff ff ff ff ff ff ff 00 00  ................
	0x0070 00 00 00 00 00 00 00 00 00 00 00 00 00 00 0c 00  ................
	0x0080 00 00 00 00 00 00 01 00 52 00 00 00 00 00 00 00  ........R.......
	0x0090 00 00 00 00 00 00 00 00 00                       .........
	rel 8+8 t=1 command-line-arguments.Sub<1>+0
	rel 59+8 t=1 command-line-arguments.Sub<1>+0
	rel 110+8 t=1 command-line-arguments.Sub<1>+0
aux for command-line-arguments.Sub<0> SDWARFLINES size=24
	0x0000 00 09 02 00 00 00 00 00 00 00 00 04 02 03 96 05  ................
	0x0010 14 06 23 02 0a 00 01 01                          ..#.....
	rel 3+8 t=1 command-line-arguments.Sub<1>+0
aux for command-line-arguments.Sub<0> SDWARFFCN size=118
	0x0000 03 63 6f 6d 6d 61 6e 64 2d 6c 69 6e 65 2d 61 72  .command-line-ar
	0x0010 67 75 6d 65 6e 74 73 2e 53 75 62 00 00 00 00 00  guments.Sub.....
	0x0020 00 00 00 00 00 00 00 00 00 00 00 00 01 9c 02 00  ................
	0x0030 00 00 01 12 78 00 00 94 05 00 00 00 00 00 00 00  ....x...........
	0x0040 00 12 79 00 00 94 05 00 00 00 00 00 00 00 00 12  ..y.............
	0x0050 63 69 00 00 94 05 00 00 00 00 00 00 00 00 11 72  ci.............r
	0x0060 00 01 94 05 00 00 00 00 00 11 63 6f 00 01 94 05  ..........co....
	0x0070 00 00 00 00 00 00                                ......
	rel 0+0 t=22 type:uint<0>+0
	rel 28+8 t=1 command-line-arguments.Sub<1>+0
	rel 36+8 t=1 command-line-arguments.Sub<1>+12
	rel 57+4 t=31 go:info.uint<0>+0
	rel 61+4 t=31 <0>+0
	rel 71+4 t=31 go:info.uint<0>+0
	rel 75+4 t=31 <0>+51
	rel 86+4 t=31 go:info.uint<0>+0
	rel 90+4 t=31 <0>+102
	rel 100+4 t=31 go:info.uint<0>+0
	rel 112+4 t=31 go:info.uint<0>+0
aux for command-line-arguments.SubC<0> SDWARFLOC size=102
	0x0000 ff ff ff ff ff ff ff ff 00 00 00 00 00 00 00 00  ................
	0x0010 00 00 00 00 00 00 00 00 09 00 00 00 00 00 00 00  ................
	0x0020 01 00 50 00 00 00 00 00 00 00 00 00 00 00 00 00  ..P.............
	0x0030 00 00 00 ff ff ff ff ff ff ff ff 00 00 00 00 00  ................
	0x0040 00 00 00 00 00 00 00 00 00 00 00 09 00 00 00 00  ................
	0x0050 00 00 00 01 00 53 00 00 00 00 00 00 00 00 00 00  .....S..........
	0x0060 00 00 00 00 00 00                                ......
	rel 8+8 t=1 command-line-arguments.SubC<1>+0
	rel 59+8 t=1 command-line-arguments.SubC<1>+0
aux for command-line-arguments.SubC<0> SDWARFLINES size=24
	0x0000 00 09 02 00 00 00 00 00 00 00 00 04 02 03 a1 05  ................
	0x0010 14 06 23 02 0b 00 01 01                          ..#.....
	rel 3+8 t=1 command-line-arguments.SubC<1>+0
aux for command-line-arguments.SubC<0> SDWARFFCN size=105
	0x0000 03 63 6f 6d 6d 61 6e 64 2d 6c 69 6e 65 2d 61 72  .command-line-ar
	0x0010 67 75 6d 65 6e 74 73 2e 53 75 62 43 00 00 00 00  guments.SubC....
	0x0020 00 00 00 00 00 00 00 00 00 00 00 00 00 01 9c 02  ................
	0x0030 00 00 00 01 12 78 00 00 9f 05 00 00 00 00 00 00  .....x..........
	0x0040 00 00 12 63 69 00 00 9f 05 00 00 00 00 00 00 00  ...ci...........
	0x0050 00 11 72 00 01 9f 05 00 00 00 00 00 11 63 6f 00  ..r..........co.
	0x0060 01 9f 05 00 00 00 00 00 00                       .........
	rel 0+0 t=22 type:uint<0>+0
	rel 29+8 t=1 command-line-arguments.SubC<1>+0
	rel 37+8 t=1 command-line-arguments.SubC<1>+13
	rel 58+4 t=31 go:info.uint<0>+0
	rel 62+4 t=31 <0>+0
	rel 73+4 t=31 go:info.uint<0>+0
	rel 77+4 t=31 <0>+51
	rel 87+4 t=31 go:info.uint<0>+0
	rel 99+4 t=31 go:info.uint<0>+0
aux for command-line-arguments.SubZ<0> SDWARFLOC size=102
	0x0000 ff ff ff ff ff ff ff ff 00 00 00 00 00 00 00 00  ................
	0x0010 00 00 00 00 00 00 00 00 06 00 00 00 00 00 00 00  ................
	0x0020 01 00 50 00 00 00 00 00 00 00 00 00 00 00 00 00  ..P.............
	0x0030 00 00 00 ff ff ff ff ff ff ff ff 00 00 00 00 00  ................
	0x0040 00 00 00 00 00 00 00 00 00 00 00 06 00 00 00 00  ................
	0x0050 00 00 00 01 00 53 00 00 00 00 00 00 00 00 00 00  .....S..........
	0x0060 00 00 00 00 00 00                                ......
	rel 8+8 t=1 command-line-arguments.SubZ<1>+0
	rel 59+8 t=1 command-line-arguments.SubZ<1>+0
aux for command-line-arguments.SubZ<0> SDWARFLINES size=24
	0x0000 00 09 02 00 00 00 00 00 00 00 00 04 02 03 ac 05  ................
	0x0010 14 06 2d 02 07 00 01 01                          ..-.....
	rel 3+8 t=1 command-line-arguments.SubZ<1>+0
aux for command-line-arguments.SubZ<0> SDWARFFCN size=104
	0x0000 03 63 6f 6d 6d 61 6e 64 2d 6c 69 6e 65 2d 61 72  .command-line-ar
	0x0010 67 75 6d 65 6e 74 73 2e 53 75 62 5a 00 00 00 00  guments.SubZ....
	0x0020 00 00 00 00 00 00 00 00 00 00 00 00 00 01 9c 02  ................
	0x0030 00 00 00 01 12 78 00 00 aa 05 00 00 00 00 00 00  .....x..........
	0x0040 00 00 12 79 00 00 aa 05 00 00 00 00 00 00 00 00  ...y............
	0x0050 11 72 00 01 aa 05 00 00 00 00 00 11 63 6f 00 01  .r..........co..
	0x0060 aa 05 00 00 00 00 00 00                          ........
	rel 0+0 t=22 type:uint<0>+0
	rel 29+8 t=1 command-line-arguments.SubZ<1>+0
	rel 37+8 t=1 command-line-arguments.SubZ<1>+10
	rel 58+4 t=31 go:info.uint<0>+0
	rel 62+4 t=31 <0>+0
	rel 72+4 t=31 go:info.uint<0>+0
	rel 76+4 t=31 <0>+51
	rel 86+4 t=31 go:info.uint<0>+0
	rel 98+4 t=31 go:info.uint<0>+0
aux for command-line-arguments.SubR<0> SDWARFLOC size=204
	0x0000 ff ff ff ff ff ff ff ff 00 00 00 00 00 00 00 00  ................
	0x0010 00 00 00 00 00 00 00 00 05 00 00 00 00 00 00 00  ................
	0x0020 01 00 50 00 00 00 00 00 00 00 00 00 00 00 00 00  ..P.............
	0x0030 00 00 00 ff ff ff ff ff ff ff ff 00 00 00 00 00  ................
	0x0040 00 00 00 00 00 00 00 00 00 00 00 06 00 00 00 00  ................
	0x0050 00 00 00 01 00 53 00 00 00 00 00 00 00 00 00 00  .....S..........
	0x0060 00 00 00 00 00 00 ff ff ff ff ff ff ff ff 00 00  ................
	0x0070 00 00 00 00 00 00 00 00 00 00 00 00 00 00 06 00  ................
	0x0080 00 00 00 00 00 00 01 00 52 00 00 00 00 00 00 00  ........R.......
	0x0090 00 00 00 00 00 00 00 00 00 ff ff ff ff ff ff ff  ................
	0x00a0 ff 00 00 00 00 00 00 00 00 05 00 00 00 00 00 00  ................
	0x00b0 00 06 00 00 00 00 00 00 00 01 00 50 00 00 00 00  ...........P....
	0x00c0 00 00 00 00 00 00 00 00 00 00 00 00              ............
	rel 8+8 t=1 command-line-arguments.SubR<1>+0
	rel 59+8 t=1 command-line-arguments.SubR<1>+0
	rel 110+8 t=1 command-line-arguments.SubR<1>+0
	rel 161+8 t=1 command-line-arguments.SubR<1>+0
aux for command-line-arguments.SubR<0> SDWARFLINES size=26
	0x0000 00 09 02 00 00 00 00 00 00 00 00 04 02 03 b7 05  ................
	0x0010 14 06 23 06 2e 02 01 00 01 01                    ..#.......
	rel 3+8 t=1 command-line-arguments.SubR<1>+0
aux for command-line-arguments.SubR<0> SDWARFFCN size=122
	0x0000 03 63 6f 6d 6d 61 6e 64 2d 6c 69 6e 65 2d 61 72  .command-line-ar
	0x0010 67 75 6d 65 6e 74 73 2e 53 75 62 52 00 00 00 00  guments.SubR....
	0x0020 00 00 00 00 00 00 00 00 00 00 00 00 00 01 9c 02  ................
	0x0030 00 00 00 01 12 78 00 00 b5 05 00 00 00 00 00 00  .....x..........
	0x0040 00 00 12 79 00 00 b5 05 00 00 00 00 00 00 00 00  ...y............
	0x0050 12 63 69 00 00 b5 05 00 00 00 00 00 00 00 00 11  .ci.............
	0x0060 7e 72 30 00 01 b5 05 00 00 00 00 00 0d 72 00 bd  ~r0..........r..
	0x0070 05 00 00 00 00 00 00 00 00 00                    ..........
	rel 0+0 t=22 type:uint<0>+0
	rel 29+8 t=1 command-line-arguments.SubR<1>+0
	rel 37+8 t=1 command-line-arguments.SubR<1>+6
	rel 58+4 t=31 go:info.uint<0>+0
	rel 62+4 t=31 <0>+0
	rel 72+4 t=31 go:info.uint<0>+0
	rel 76+4 t=31 <0>+51
	rel 87+4 t=31 go:info.uint<0>+0
	rel 91+4 t=31 <0>+102
	rel 103+4 t=31 go:info.uint<0>+0
	rel 113+4 t=31 go:info.uint<0>+0
	rel 117+4 t=31 <0>+153
aux for command-line-arguments.SubM<0> SDWARFLOC size=153
	0x0000 ff ff ff ff ff ff ff ff 00 00 00 00 00 00 00 00  ................
	0x0010 00 00 00 00 00 00 00 00 1f 00 00 00 00 00 00 00  ................
	0x0020 01 00 50 00 00 00 00 00 00 00 00 00 00 00 00 00  ..P.............
	0x0030 00 00 00 ff ff ff ff ff ff ff ff 00 00 00 00 00  ................
	0x0040 00 00 00 00 00 00 00 00 00 00 00 2b 00 00 00 00  ...........+....
	0x0050 00 00 00 01 00 53 00 00 00 00 00 00 00 00 00 00  .....S..........
	0x0060 00 00 00 00 00 00 ff ff ff ff ff ff ff ff 00 00  ................
	0x0070 00 00 00 00 00 00 00 00 00 00 00 00 00 00 2b 00  ..............+.
	0x0080 00 00 00 00 00 00 01 00 52 00 00 00 00 00 00 00  ........R.......
	0x0090 00 00 00 00 00 00 00 00 00                       .........
	rel 8+8 t=1 command-line-arguments.SubM<1>+0
	rel 59+8 t=1 command-line-arguments.SubM<1>+0
	rel 110+8 t=1 command-line-arguments.SubM<1>+0
aux for command-line-arguments.SubM<0> SDWARFLINES size=36
	0x0000 00 09 02 00 00 00 00 00 00 00 00 04 02 03 bc 05  ................
	0x0010 14 06 2d 06 03 01 6e 06 37 06 7e 06 37 06 7e 02  ..-...n.7.~.7.~.
	0x0020 01 00 01 01                                      ....
	rel 3+8 t=1 command-line-arguments.SubM<1>+0
aux for command-line-arguments.SubM<0> SDWARFFCN size=95
	0x0000 03 63 6f 6d 6d 61 6e 64 2d 6c 69 6e 65 2d 61 72  .command-line-ar
	0x0010 67 75 6d 65 6e 74 73 2e 53 75 62 4d 00 00 00 00  guments.SubM....
	0x0020 00 00 00 00 00 00 00 00 00 00 00 00 00 01 9c 02  ................
	0x0030 00 00 00 01 12 70 00 00 c0 05 00 00 00 00 00 00  .....p..........
	0x0040 00 00 12 71 00 00 c0 05 00 00 00 00 00 00 00 00  ...q............
	0x0050 12 72 00 00 c0 05 00 00 00 00 00 00 00 00 00     .r.............
	rel 29+8 t=1 command-line-arguments.SubM<1>+0
	rel 37+8 t=1 command-line-arguments.SubM<1>+43
	rel 58+4 t=31 go:info.*[3]uint<0>+0
	rel 62+4 t=31 <0>+0
	rel 72+4 t=31 go:info.*[3]uint<0>+0
	rel 76+4 t=31 <0>+51
	rel 86+4 t=31 go:info.*[3]uint<0>+0
	rel 90+4 t=31 <0>+102
aux for command-line-arguments.Sub64<0> SDWARFLOC size=153
	0x0000 ff ff ff ff ff ff ff ff 00 00 00 00 00 00 00 00  ................
	0x0010 00 00 00 00 00 00 00 00 08 00 00 00 00 00 00 00  ................
	0x0020 01 00 50 00 00 00 00 00 00 00 00 00 00 00 00 00  ..P.............
	0x0030 00 00 00 ff ff ff ff ff ff ff ff 00 00 00 00 00  ................
	0x0040 00 00 00 00 00 00 00 00 00 00 00 08 00 00 00 00  ................
	0x0050 00 00 00 01 00 53 00 00 00 00 00 00 00 00 00 00  .....S..........
	0x0060 00 00 00 00 00 00 ff ff ff ff ff ff ff ff 00 00  ................
	0x0070 00 00 00 00 00 00 00 00 00 00 00 00 00 00 0c 00  ................
	0x0080 00 00 00 00 00 00 01 00 52 00 00 00 00 00 00 00  ........R.......
	0x0090 00 00 00 00 00 00 00 00 00                       .........
	rel 8+8 t=1 command-line-arguments.Sub64<1>+0
	rel 59+8 t=1 command-line-arguments.Sub64<1>+0
	rel 110+8 t=1 command-line-arguments.Sub64<1>+0
aux for command-line-arguments.Sub64<0> SDWARFLINES size=24
	0x0000 00 09 02 00 00 00 00 00 00 00 00 04 02 03 ce 05  ................
	0x0010 14 06 23 02 0a 00 01 01                          ..#.....
	rel 3+8 t=1 command-line-arguments.Sub64<1>+0
aux for command-line-arguments.Sub64<0> SDWARFFCN size=120
	0x0000 03 63 6f 6d 6d 61 6e 64 2d 6c 69 6e 65 2d 61 72  .command-line-ar
	0x0010 67 75 6d 65 6e 74 73 2e 53 75 62 36 34 00 00 00  guments.Sub64...
	0x0020 00 00 00 00 00 00 00 00 00 00 00 00 00 00 01 9c  ................
	0x0030 02 00 00 00 01 12 78 00 00 cc 05 00 00 00 00 00  ......x.........
	0x0040 00 00 00 12 79 00 00 cc 05 00 00 00 00 00 00 00  ....y...........
	0x0050 00 12 63 69 00 00 cc 05 00 00 00 00 00 00 00 00  ..ci............
	0x0060 11 72 00 01 cc 05 00 00 00 00 00 11 63 6f 00 01  .r..........co..
	0x0070 cc 05 00 00 00 00 00 00                          ........
	rel 0+0 t=22 type:uint64<0>+0
	rel 30+8 t=1 command-line-arguments.Sub64<1>+0
	rel 38+8 t=1 command-line-arguments.Sub64<1>+12
	rel 59+4 t=31 go:info.uint64<0>+0
	rel 63+4 t=31 <0>+0
	rel 73+4 t=31 go:info.uint64<0>+0
	rel 77+4 t=31 <0>+51
	rel 88+4 t=31 go:info.uint64<0>+0
	rel 92+4 t=31 <0>+102
	rel 102+4 t=31 go:info.uint64<0>+0
	rel 114+4 t=31 go:info.uint64<0>+0
aux for command-line-arguments.Sub64C<0> SDWARFLOC size=102
	0x0000 ff ff ff ff ff ff ff ff 00 00 00 00 00 00 00 00  ................
	0x0010 00 00 00 00 00 00 00 00 09 00 00 00 00 00 00 00  ................
	0x0020 01 00 50 00 00 00 00 00 00 00 00 00 00 00 00 00  ..P.............
	0x0030 00 00 00 ff ff ff ff ff ff ff ff 00 00 00 00 00  ................
	0x0040 00 00 00 00 00 00 00 00 00 00 00 09 00 00 00 00  ................
	0x0050 00 00 00 01 00 53 00 00 00 00 00 00 00 00 00 00  .....S..........
	0x0060 00 00 00 00 00 00                                ......
	rel 8+8 t=1 command-line-arguments.Sub64C<1>+0
	rel 59+8 t=1 command-line-arguments.Sub64C<1>+0
aux for command-line-arguments.Sub64C<0> SDWARFLINES size=24
	0x0000 00 09 02 00 00 00 00 00 00 00 00 04 02 03 d9 05  ................
	0x0010 14 06 23 02 0b 00 01 01                          ..#.....
	rel 3+8 t=1 command-line-arguments.Sub64C<1>+0
aux for command-line-arguments.Sub64C<0> SDWARFFCN size=107
	0x0000 03 63 6f 6d 6d 61 6e 64 2d 6c 69 6e 65 2d 61 72  .command-line-ar
	0x0010 67 75 6d 65 6e 74 73 2e 53 75 62 36 34 43 00 00  guments.Sub64C..
	0x0020 00 00 00 00 00 00 00 00 00 00 00 00 00 00 00 01  ................
	0x0030 9c 02 00 00 00 01 12 78 00 00 d7 05 00 00 00 00  .......x........
	0x0040 00 00 00 00 12 63 69 00 00 d7 05 00 00 00 00 00  .....ci.........
	0x0050 00 00 00 11 72 00 01 d7 05 00 00 00 00 00 11 63  ....r..........c
	0x0060 6f 00 01 d7 05 00 00 00 00 00 00                 o..........
	rel 0+0 t=22 type:uint64<0>+0
	rel 31+8 t=1 command-line-arguments.Sub64C<1>+0
	rel 39+8 t=1 command-line-arguments.Sub64C<1>+13
	rel 60+4 t=31 go:info.uint64<0>+0
	rel 64+4 t=31 <0>+0
	rel 75+4 t=31 go:info.uint64<0>+0
	rel 79+4 t=31 <0>+51
	rel 89+4 t=31 go:info.uint64<0>+0
	rel 101+4 t=31 go:info.uint64<0>+0
aux for command-line-arguments.Sub64Z<0> SDWARFLOC size=102
	0x0000 ff ff ff ff ff ff ff ff 00 00 00 00 00 00 00 00  ................
	0x0010 00 00 00 00 00 00 00 00 06 00 00 00 00 00 00 00  ................
	0x0020 01 00 50 00 00 00 00 00 00 00 00 00 00 00 00 00  ..P.............
	0x0030 00 00 00 ff ff ff ff ff ff ff ff 00 00 00 00 00  ................
	0x0040 00 00 00 00 00 00 00 00 00 00 00 06 00 00 00 00  ................
	0x0050 00 00 00 01 00 53 00 00 00 00 00 00 00 00 00 00  .....S..........
	0x0060 00 00 00 00 00 00                                ......
	rel 8+8 t=1 command-line-arguments.Sub64Z<1>+0
	rel 59+8 t=1 command-line-arguments.Sub64Z<1>+0
aux for command-line-arguments.Sub64Z<0> SDWARFLINES size=24
	0x0000 00 09 02 00 00 00 00 00 00 00 00 04 02 03 e4 05  ................
	0x0010 14 06 2d 02 07 00 01 01                          ..-.....
	rel 3+8 t=1 command-line-arguments.Sub64Z<1>+0
aux for command-line-arguments.Sub64Z<0> SDWARFFCN size=106
	0x0000 03 63 6f 6d 6d 61 6e 64 2d 6c 69 6e 65 2d 61 72  .command-line-ar
	0x0010 67 75 6d 65 6e 74 73 2e 53 75 62 36 34 5a 00 00  guments.Sub64Z..
	0x0020 00 00 00 00 00 00 00 00 00 00 00 00 00 00 00 01  ................
	0x0030 9c 02 00 00 00 01 12 78 00 00 e2 05 00 00 00 00  .......x........
	0x0040 00 00 00 00 12 79 00 00 e2 05 00 00 00 00 00 00  .....y..........
	0x0050 00 00 11 72 00 01 e2 05 00 00 00 00 00 11 63 6f  ...r..........co
	0x0060 00 01 e2 05 00 00 00 00 00 00                    ..........
	rel 0+0 t=22 type:uint64<0>+0
	rel 31+8 t=1 command-line-arguments.Sub64Z<1>+0
	rel 39+8 t=1 command-line-arguments.Sub64Z<1>+10
	rel 60+4 t=31 go:info.uint64<0>+0
	rel 64+4 t=31 <0>+0
	rel 74+4 t=31 go:info.uint64<0>+0
	rel 78+4 t=31 <0>+51
	rel 88+4 t=31 go:info.uint64<0>+0
	rel 100+4 t=31 go:info.uint64<0>+0
aux for command-line-arguments.Sub64R<0> SDWARFLOC size=204
	0x0000 ff ff ff ff ff ff ff ff 00 00 00 00 00 00 00 00  ................
	0x0010 00 00 00 00 00 00 00 00 05 00 00 00 00 00 00 00  ................
	0x0020 01 00 50 00 00 00 00 00 00 00 00 00 00 00 00 00  ..P.............
	0x0030 00 00 00 ff ff ff ff ff ff ff ff 00 00 00 00 00  ................
	0x0040 00 00 00 00 00 00 00 00 00 00 00 06 00 00 00 00  ................
	0x0050 00 00 00 01 00 53 00 00 00 00 00 00 00 00 00 00  .....S..........
	0x0060 00 00 00 00 00 00 ff ff ff ff ff ff ff ff 00 00  ................
	0x0070 00 00 00 00 00 00 00 00 00 00 00 00 00 00 06 00  ................
	0x0080 00 00 00 00 00 00 01 00 52 00 00 00 00 00 00 00  ........R.......
	0x0090 00 00 00 00 00 00 00 00 00 ff ff ff ff ff ff ff  ................
	0x00a0 ff 00 00 00 00 00 00 00 00 05 00 00 00 00 00 00  ................
	0x00b0 00 06 00 00 00 00 00 00 00 01 00 50 00 00 00 00  ...........P....
	0x00c0 00 00 00 00 00 00 00 00 00 00 00 00              ............
	rel 8+8 t=1 command-line-arguments.Sub64R<1>+0
	rel 59+8 t=1 command-line-arguments.Sub64R<1>+0
	rel 110+8 t=1 command-line-arguments.Sub64R<1>+0
	rel 161+8 t=1 command-line-arguments.Sub64R<1>+0
aux for command-line-arguments.Sub64R<0> SDWARFLINES size=26
	0x0000 00 09 02 00 00 00 00 00 00 00 00 04 02 03 ef 05  ................
	0x0010 14 06 23 06 2e 02 01 00 01 01                    ..#.......
	rel 3+8 t=1 command-line-arguments.Sub64R<1>+0
aux for command-line-arguments.Sub64R<0> SDWARFFCN size=124
	0x0000 03 63 6f 6d 6d 61 6e 64 2d 6c 69 6e 65 2d 61 72  .command-line-ar
	0x0010 67 75 6d 65 6e 74 73 2e 53 75 62 36 34 52 00 00  guments.Sub64R..
	0x0020 00 00 00 00 00 00 00 00 00 00 00 00 00 00 00 01  ................
	0x0030 9c 02 00 00 00 01 12 78 00 00 ed 05 00 00 00 00  .......x........
	0x0040 00 00 00 00 12 79 00 00 ed 05 00 00 00 00 00 00  .....y..........
	0x0050 00 00 12 63 69 00 00 ed 05 00 00 00 00 00 00 00  ...ci...........
	0x0060 00 11 7e 72 30 00 01 ed 05 00 00 00 00 00 0d 72  ..~r0..........r
	0x0070 00 f5 05 00 00 00 00 00 00 00 00 00              ............
	rel 0+0 t=22 type:uint64<0>+0
	rel 31+8 t=1 command-line-arguments.Sub64R<1>+0
	rel 39+8 t=1 command-line-arguments.Sub64R<1>+6
	rel 60+4 t=31 go:info.uint64<0>+0
	rel 64+4 t=31 <0>+0
	rel 74+4 t=31 go:info.uint64<0>+0
	rel 78+4 t=31 <0>+51
	rel 89+4 t=31 go:info.uint64<0>+0
	rel 93+4 t=31 <0>+102
	rel 105+4 t=31 go:info.uint64<0>+0
	rel 115+4 t=31 go:info.uint64<0>+0
	rel 119+4 t=31 <0>+153
aux for command-line-arguments.Sub64M<0> SDWARFLOC size=153
	0x0000 ff ff ff ff ff ff ff ff 00 00 00 00 00 00 00 00  ................
	0x0010 00 00 00 00 00 00 00 00 1f 00 00 00 00 00 00 00  ................
	0x0020 01 00 50 00 00 00 00 00 00 00 00 00 00 00 00 00  ..P.............
	0x0030 00 00 00 ff ff ff ff ff ff ff ff 00 00 00 00 00  ................
	0x0040 00 00 00 00 00 00 00 00 00 00 00 2b 00 00 00 00  ...........+....
	0x0050 00 00 00 01 00 53 00 00 00 00 00 00 00 00 00 00  .....S..........
	0x0060 00 00 00 00 00 00 ff ff ff ff ff ff ff ff 00 00  ................
	0x0070 00 00 00 00 00 00 00 00 00 00 00 00 00 00 2b 00  ..............+.
	0x0080 00 00 00 00 00 00 01 00 52 00 00 00 00 00 00 00  ........R.......
	0x0090 00 00 00 00 00 00 00 00 00                       .........
	rel 8+8 t=1 command-line-arguments.Sub64M<1>+0
	rel 59+8 t=1 command-line-arguments.Sub64M<1>+0
	rel 110+8 t=1 command-line-arguments.Sub64M<1>+0
aux for command-line-arguments.Sub64M<0> SDWARFLINES size=34
	0x0000 00 09 02 00 00 00 00 00 00 00 00 04 02 03 f4 05  ................
	0x0010 14 06 2d 06 6d 06 37 06 7e 06 37 06 7e 02 01 00  ..-.m.7.~.7.~...
	0x0020 01 01                                            ..
	rel 3+8 t=1 command-line-arguments.Sub64M<1>+0
aux for command-line-arguments.Sub64M<0> SDWARFFCN size=97
	0x0000 03 63 6f 6d 6d 61 6e 64 2d 6c 69 6e 65 2d 61 72  .command-line-ar
	0x0010 67 75 6d 65 6e 74 73 2e 53 75 62 36 34 4d 00 00  guments.Sub64M..
	0x0020 00 00 00 00 00 00 00 00 00 00 00 00 00 00 00 01  ................
	0x0030 9c 02 00 00 00 01 12 70 00 00 f8 05 00 00 00 00  .......p........
	0x0040 00 00 00 00 12 71 00 00 f8 05 00 00 00 00 00 00  .....q..........
	0x0050 00 00 12 72 00 00 f8 05 00 00 00 00 00 00 00 00  ...r............
	0x0060 00                                               .
	rel 31+8 t=1 command-line-arguments.Sub64M<1>+0
	rel 39+8 t=1 command-line-arguments.Sub64M<1>+43
	rel 60+4 t=31 go:info.*[3]uint64<0>+0
	rel 64+4 t=31 <0>+0
	rel 74+4 t=31 go:info.*[3]uint64<0>+0
	rel 78+4 t=31 <0>+51
	rel 88+4 t=31 go:info.*[3]uint64<0>+0
	rel 92+4 t=31 <0>+102
aux for command-line-arguments.Sub64MSaveC<0> SDWARFLOC size=204
	0x0000 ff ff ff ff ff ff ff ff 00 00 00 00 00 00 00 00  ................
	0x0010 00 00 00 00 00 00 00 00 1c 00 00 00 00 00 00 00  ................
	0x0020 01 00 50 00 00 00 00 00 00 00 00 00 00 00 00 00  ..P.............
	0x0030 00 00 00 ff ff ff ff ff ff ff ff 00 00 00 00 00  ................
	0x0040 00 00 00 00 00 00 00 00 00 00 00 35 00 00 00 00  ...........5....
	0x0050 00 00 00 01 00 53 00 00 00 00 00 00 00 00 00 00  .....S..........
	0x0060 00 00 00 00 00 00 ff ff ff ff ff ff ff ff 00 00  ................
	0x0070 00 00 00 00 00 00 00 00 00 00 00 00 00 00 35 00  ..............5.
	0x0080 00 00 00 00 00 00 01 00 52 00 00 00 00 00 00 00  ........R.......
	0x0090 00 00 00 00 00 00 00 00 00 ff ff ff ff ff ff ff  ................
	0x00a0 ff 00 00 00 00 00 00 00 00 00 00 00 00 00 00 00  ................
	0x00b0 00 35 00 00 00 00 00 00 00 01 00 55 00 00 00 00  .5.........U....
	0x00c0 00 00 00 00 00 00 00 00 00 00 00 00              ............
	rel 8+8 t=1 command-line-arguments.Sub64MSaveC<1>+0
	rel 59+8 t=1 command-line-arguments.Sub64MSaveC<1>+0
	rel 110+8 t=1 command-line-arguments.Sub64MSaveC<1>+0
	rel 161+8 t=1 command-line-arguments.Sub64MSaveC<1>+0
aux for command-line-arguments.Sub64MSaveC<0> SDWARFLINES size=32
	0x0000 00 09 02 00 00 00 00 00 00 00 00 04 02 03 ff 05  ................
	0x0010 14 06 2d 06 e4 06 37 34 30 06 ba 02 01 00 01 01  ..-...740.......
	rel 3+8 t=1 command-line-arguments.Sub64MSaveC<1>+0
aux for command-line-arguments.Sub64MSaveC<0> SDWARFFCN size=116
	0x0000 03 63 6f 6d 6d 61 6e 64 2d 6c 69 6e 65 2d 61 72  .command-line-ar
	0x0010 67 75 6d 65 6e 74 73 2e 53 75 62 36 34 4d 53 61  guments.Sub64MSa
	0x0020 76 65 43 00 00 00 00 00 00 00 00 00 00 00 00 00  veC.............
	0x0030 00 00 00 00 01 9c 02 00 00 00 01 12 70 00 00 82  ............p...
	0x0040 06 00 00 00 00 00 00 00 00 12 71 00 00 82 06 00  ..........q.....
	0x0050 00 00 00 00 00 00 00 12 72 00 00 82 06 00 00 00  ........r.......
	0x0060 00 00 00 00 00 12 63 00 00 82 06 00 00 00 00 00  ......c.........
	0x0070 00 00 00 00                                      ....
	rel 36+8 t=1 command-line-arguments.Sub64MSaveC<1>+0
	rel 44+8 t=1 command-line-arguments.Sub64MSaveC<1>+53
	rel 65+4 t=31 go:info.*[2]uint64<0>+0
	rel 69+4 t=31 <0>+0
	rel 79+4 t=31 go:info.*[2]uint64<0>+0
	rel 83+4 t=31 <0>+51
	rel 93+4 t=31 go:info.*[2]uint64<0>+0
	rel 97+4 t=31 <0>+102
	rel 107+4 t=31 go:info.*[2]uint64<0>+0
	rel 111+4 t=31 <0>+153
aux for command-line-arguments.Sub64PanicOnOverflowEQ<0> SDWARFLOC size=172
	0x0000 ff ff ff ff ff ff ff ff 00 00 00 00 00 00 00 00  ................
	0x0010 00 00 00 00 00 00 00 00 1a 00 00 00 00 00 00 00  ................
	0x0020 01 00 50 00 00 00 00 00 00 00 00 00 00 00 00 00  ..P.............
	0x0030 00 00 00 ff ff ff ff ff ff ff ff 00 00 00 00 00  ................
	0x0040 00 00 00 00 00 00 00 00 00 00 00 3e 00 00 00 00  ...........>....
	0x0050 00 00 00 01 00 53 3e 00 00 00 00 00 00 00 45 00  .....S>.......E.
	0x0060 00 00 00 00 00 00 01 00 52 00 00 00 00 00 00 00  ........R.......
	0x0070 00 00 00 00 00 00 00 00 00 ff ff ff ff ff ff ff  ................
	0x0080 ff 00 00 00 00 00 00 00 00 1a 00 00 00 00 00 00  ................
	0x0090 00 37 00 00 00 00 00 00 00 01 00 50 00 00 00 00  .7.........P....
	0x00a0 00 00 00 00 00 00 00 00 00 00 00 00              ............
	rel 8+8 t=1 command-line-arguments.Sub64PanicOnOverflowEQ<1>+0
	rel 59+8 t=1 command-line-arguments.Sub64PanicOnOverflowEQ<1>+0
	rel 129+8 t=1 command-line-arguments.Sub64PanicOnOverflowEQ<1>+0
aux for command-line-arguments.Sub64PanicOnOverflowEQ<0> SDWARFLINES size=44
	0x0000 00 09 02 00 00 00 00 00 00 00 00 04 02 03 85 06  ................
	0x0010 14 0a 4b 9c 06 2d 06 6b 06 37 06 26 71 06 55 06  ..K..-.k.7.&q.U.
	0x0020 69 47 06 08 19 06 19 02 02 00 01 01              iG..........
	rel 3+8 t=1 command-line-arguments.Sub64PanicOnOverflowEQ<1>+0
aux for command-line-arguments.Sub64PanicOnOverflowEQ<0> SDWARFFCN size=125
	0x0000 03 63 6f 6d 6d 61 6e 64 2d 6c 69 6e 65 2d 61 72  .command-line-ar
	0x0010 67 75 6d 65 6e 74 73 2e 53 75 62 36 34 50 61 6e  guments.Sub64Pan
	0x0020 69 63 4f 6e 4f 76 65 72 66 6c 6f 77 45 51 00 00  icOnOverflowEQ..
	0x0030 00 00 00 00 00 00 00 00 00 00 00 00 00 00 00 01  ................
	0x0040 9c 02 00 00 00 01 12 61 00 00 8b 06 00 00 00 00  .......a........
	0x0050 00 00 00 00 12 62 00 00 8b 06 00 00 00 00 00 00  .....b..........
	0x0060 00 00 11 7e 72 30 00 01 8b 06 00 00 00 00 00 0d  ...~r0..........
	0x0070 72 00 8c 06 00 00 00 00 00 00 00 00 00           r............
	rel 0+0 t=22 type:uint64<0>+0
	rel 47+8 t=1 command-line-arguments.Sub64PanicOnOverflowEQ<1>+0
	rel 55+8 t=1 command-line-arguments.Sub64PanicOnOverflowEQ<1>+98
	rel 76+4 t=31 go:info.uint64<0>+0
	rel 80+4 t=31 <0>+0
	rel 90+4 t=31 go:info.uint64<0>+0
	rel 94+4 t=31 <0>+51
	rel 106+4 t=31 go:info.uint64<0>+0
	rel 116+4 t=31 go:info.uint64<0>+0
	rel 120+4 t=31 <0>+121
aux for command-line-arguments.Sub64PanicOnOverflowNE<0> SDWARFLOC size=172
	0x0000 ff ff ff ff ff ff ff ff 00 00 00 00 00 00 00 00  ................
	0x0010 00 00 00 00 00 00 00 00 1a 00 00 00 00 00 00 00  ................
	0x0020 01 00 50 00 00 00 00 00 00 00 00 00 00 00 00 00  ..P.............
	0x0030 00 00 00 ff ff ff ff ff ff ff ff 00 00 00 00 00  ................
	0x0040 00 00 00 00 00 00 00 00 00 00 00 3d 00 00 00 00  ...........=....
	0x0050 00 00 00 01 00 53 3d 00 00 00 00 00 00 00 45 00  .....S=.......E.
	0x0060 00 00 00 00 00 00 01 00 52 00 00 00 00 00 00 00  ........R.......
	0x0070 00 00 00 00 00 00 00 00 00 ff ff ff ff ff ff ff  ................
	0x0080 ff 00 00 00 00 00 00 00 00 1a 00 00 00 00 00 00  ................
	0x0090 00 36 00 00 00 00 00 00 00 01 00 50 00 00 00 00  .6.........P....
	0x00a0 00 00 00 00 00 00 00 00 00 00 00 00              ............
	rel 8+8 t=1 command-line-arguments.Sub64PanicOnOverflowNE<1>+0
	rel 59+8 t=1 command-line-arguments.Sub64PanicOnOverflowNE<1>+0
	rel 129+8 t=1 command-line-arguments.Sub64PanicOnOverflowNE<1>+0
aux for command-line-arguments.Sub64PanicOnOverflowNE<0> SDWARFLINES size=44
	0x0000 00 09 02 00 00 00 00 00 00 00 00 04 02 03 8e 06  ................
	0x0010 14 0a 4b 9c 06 2d 06 6b 06 2d 06 26 71 06 55 06  ..K..-.k.-.&q.U.
	0x0020 73 47 06 08 19 06 19 02 02 00 01 01              sG..........
	rel 3+8 t=1 command-line-arguments.Sub64PanicOnOverflowNE<1>+0
aux for command-line-arguments.Sub64PanicOnOverflowNE<0> SDWARFFCN size=125
	0x0000 03 63 6f 6d 6d 61 6e 64 2d 6c 69 6e 65 2d 61 72  .command-line-ar
	0x0010 67 75 6d 65 6e 74 73 2e 53 75 62 36 34 50 61 6e  guments.Sub64Pan
	0x0020 69 63 4f 6e 4f 76 65 72 66 6c 6f 77 4e 45 00 00  icOnOverflowNE..
	0x0030 00 00 00 00 00 00 00 00 00 00 00 00 00 00 00 01  ................
	0x0040 9c 02 00 00 00 01 12 61 00 00 94 06 00 00 00 00  .......a........
	0x0050 00 00 00 00 12 62 00 00 94 06 00 00 00 00 00 00  .....b..........
	0x0060 00 00 11 7e 72 30 00 01 94 06 00 00 00 00 00 0d  ...~r0..........
	0x0070 72 00 95 06 00 00 00 00 00 00 00 00 00           r............
	rel 0+0 t=22 type:uint64<0>+0
	rel 47+8 t=1 command-line-arguments.Sub64PanicOnOverflowNE<1>+0
	rel 55+8 t=1 command-line-arguments.Sub64PanicOnOverflowNE<1>+98
	rel 76+4 t=31 go:info.uint64<0>+0
	rel 80+4 t=31 <0>+0
	rel 90+4 t=31 go:info.uint64<0>+0
	rel 94+4 t=31 <0>+51
	rel 106+4 t=31 go:info.uint64<0>+0
	rel 116+4 t=31 go:info.uint64<0>+0
	rel 120+4 t=31 <0>+121
aux for command-line-arguments.Sub64PanicOnOverflowGT<0> SDWARFLOC size=172
	0x0000 ff ff ff ff ff ff ff ff 00 00 00 00 00 00 00 00  ................
	0x0010 00 00 00 00 00 00 00 00 1a 00 00 00 00 00 00 00  ................
	0x0020 01 00 50 00 00 00 00 00 00 00 00 00 00 00 00 00  ..P.............
	0x0030 00 00 00 ff ff ff ff ff ff ff ff 00 00 00 00 00  ................
	0x0040 00 00 00 00 00 00 00 00 00 00 00 3d 00 00 00 00  ...........=....
	0x0050 00 00 00 01 00 53 3d 00 00 00 00 00 00 00 45 00  .....S=.......E.
	0x0060 00 00 00 00 00 00 01 00 52 00 00 00 00 00 00 00  ........R.......
	0x0070 00 00 00 00 00 00 00 00 00 ff ff ff ff ff ff ff  ................
	0x0080 ff 00 00 00 00 00 00 00 00 1a 00 00 00 00 00 00  ................
	0x0090 00 36 00 00 00 00 00 00 00 01 00 50 00 00 00 00  .6.........P....
	0x00a0 00 00 00 00 00 00 00 00 00 00 00 00              ............
	rel 8+8 t=1 command-line-arguments.Sub64PanicOnOverflowGT<1>+0
	rel 59+8 t=1 command-line-arguments.Sub64PanicOnOverflowGT<1>+0
	rel 129+8 t=1 command-line-arguments.Sub64PanicOnOverflowGT<1>+0
aux for command-line-arguments.Sub64PanicOnOverflowGT<0> SDWARFLINES size=44
	0x0000 00 09 02 00 00 00 00 00 00 00 00 04 02 03 97 06  ................
	0x0010 14 0a 4b 9c 06 2d 06 6b 06 2d 06 26 71 06 55 06  ..K..-.k.-.&q.U.
	0x0020 73 47 06 08 19 06 19 02 02 00 01 01              sG..........
	rel 3+8 t=1 command-line-arguments.Sub64PanicOnOverflowGT<1>+0
aux for command-line-arguments.Sub64PanicOnOverflowGT<0> SDWARFFCN size=125
	0x0000 03 63 6f 6d 6d 61 6e 64 2d 6c 69 6e 65 2d 61 72  .command-line-ar
	0x0010 67 75 6d 65 6e 74 73 2e 53 75 62 36 34 50 61 6e  guments.Sub64Pan
	0x0020 69 63 4f 6e 4f 76 65 72 66 6c 6f 77 47 54 00 00  icOnOverflowGT..
	0x0030 00 00 00 00 00 00 00 00 00 00 00 00 00 00 00 01  ................
	0x0040 9c 02 00 00 00 01 12 61 00 00 9d 06 00 00 00 00  .......a........
	0x0050 00 00 00 00 12 62 00 00 9d 06 00 00 00 00 00 00  .....b..........
	0x0060 00 00 11 7e 72 30 00 01 9d 06 00 00 00 00 00 0d  ...~r0..........
	0x0070 72 00 9e 06 00 00 00 00 00 00 00 00 00           r............
	rel 0+0 t=22 type:uint64<0>+0
	rel 47+8 t=1 command-line-arguments.Sub64PanicOnOverflowGT<1>+0
	rel 55+8 t=1 command-line-arguments.Sub64PanicOnOverflowGT<1>+98
	rel 76+4 t=31 go:info.uint64<0>+0
	rel 80+4 t=31 <0>+0
	rel 90+4 t=31 go:info.uint64<0>+0
	rel 94+4 t=31 <0>+51
	rel 106+4 t=31 go:info.uint64<0>+0
	rel 116+4 t=31 go:info.uint64<0>+0
	rel 120+4 t=31 <0>+121
aux for command-line-arguments.Sub64MPanicOnOverflowEQ<0> SDWARFLOC size=51
	0x0000 ff ff ff ff ff ff ff ff 00 00 00 00 00 00 00 00  ................
	0x0010 40 00 00 00 00 00 00 00 6d 00 00 00 00 00 00 00  @.......m.......
	0x0020 01 00 51 00 00 00 00 00 00 00 00 00 00 00 00 00  ..Q.............
	0x0030 00 00 00                                         ...
	rel 8+8 t=1 command-line-arguments.Sub64MPanicOnOverflowEQ<1>+0
aux for command-line-arguments.Sub64MPanicOnOverflowEQ<0> SDWARFLINES size=50
	0x0000 00 09 02 00 00 00 00 00 00 00 00 04 02 03 a0 06  ................
	0x0010 14 0a 4b da 06 41 06 42 06 41 40 2e 06 a7 06 37  ..K..A.B.A@....7
	0x0020 06 26 06 41 06 a3 06 55 06 55 03 7d 47 02 07 00  .&.A...U.U.}G...
	0x0030 01 01                                            ..
	rel 3+8 t=1 command-line-arguments.Sub64MPanicOnOverflowEQ<1>+0
aux for command-line-arguments.Sub64MPanicOnOverflowEQ<0> SDWARFFCN size=123
	0x0000 03 63 6f 6d 6d 61 6e 64 2d 6c 69 6e 65 2d 61 72  .command-line-ar
	0x0010 67 75 6d 65 6e 74 73 2e 53 75 62 36 34 4d 50 61  guments.Sub64MPa
	0x0020 6e 69 63 4f 6e 4f 76 65 72 66 6c 6f 77 45 51 00  nicOnOverflowEQ.
	0x0030 00 00 00 00 00 00 00 00 00 00 00 00 00 00 00 00  ................
	0x0040 01 9c 02 00 00 00 01 11 61 00 00 a6 06 00 00 00  ........a.......
	0x0050 00 01 9c 11 62 00 00 a6 06 00 00 00 00 02 91 10  ....b...........
	0x0060 11 7e 72 30 00 01 a6 06 00 00 00 00 00 0d 63 00  .~r0..........c.
	0x0070 a8 06 00 00 00 00 00 00 00 00 00                 ...........
	rel 0+0 t=22 type:[2]uint64<0>+0
	rel 48+8 t=1 command-line-arguments.Sub64MPanicOnOverflowEQ<1>+0
	rel 56+8 t=1 command-line-arguments.Sub64MPanicOnOverflowEQ<1>+117
	rel 77+4 t=31 go:info.[2]uint64<0>+0
	rel 89+4 t=31 go:info.[2]uint64<0>+0
	rel 104+4 t=31 go:info.[2]uint64<0>+0
	rel 114+4 t=31 go:info.uint64<0>+0
	rel 118+4 t=31 <0>+0
aux for command-line-arguments.Sub64MPanicOnOverflowNE<0> SDWARFLOC size=51
	0x0000 ff ff ff ff ff ff ff ff 00 00 00 00 00 00 00 00  ................
	0x0010 3a 00 00 00 00 00 00 00 66 00 00 00 00 00 00 00  :.......f.......
	0x0020 01 00 51 00 00 00 00 00 00 00 00 00 00 00 00 00  ..Q.............
	0x0030 00 00 00                                         ...
	rel 8+8 t=1 command-line-arguments.Sub64MPanicOnOverflowNE<1>+0
aux for command-line-arguments.Sub64MPanicOnOverflowNE<0> SDWARFLINES size=50
	0x0000 00 09 02 00 00 00 00 00 00 00 00 04 02 03 ac 06  ................
	0x0010 14 0a 4b da 06 41 06 42 06 41 40 2e 06 6b 06 2d  ..K..A.B.A@..k.-
	0x0020 06 26 06 41 06 a3 06 55 06 55 03 7d 47 02 07 00  .&.A...U.U.}G...
	0x0030 01 01                                            ..
	rel 3+8 t=1 command-line-arguments.Sub64MPanicOnOverflowNE<1>+0
aux for command-line-arguments.Sub64MPanicOnOverflowNE<0> SDWARFFCN size=123
	0x0000 03 63 6f 6d 6d 61 6e 64 2d 6c 69 6e 65 2d 61 72  .command-line-ar
	0x0010 67 75 6d 65 6e 74 73 2e 53 75 62 36 34 4d 50 61  guments.Sub64MPa
	0x0020 6e 69 63 4f 6e 4f 76 65 72 66 6c 6f 77 4e 45 00  nicOnOverflowNE.
	0x0030 00 00 00 00 00 00 00 00 00 00 00 00 00 00 00 00  ................
	0x0040 01 9c 02 00 00 00 01 11 61 00 00 b2 06 00 00 00  ........a.......
	0x0050 00 01 9c 11 62 00 00 b2 06 00 00 00 00 02 91 10  ....b...........
	0x0060 11 7e 72 30 00 01 b2 06 00 00 00 00 00 0d 63 00  .~r0..........c.
	0x0070 b4 06 00 00 00 00 00 00 00 00 00                 ...........
	rel 0+0 t=22 type:[2]uint64<0>+0
	rel 48+8 t=1 command-line-arguments.Sub64MPanicOnOverflowNE<1>+0
	rel 56+8 t=1 command-line-arguments.Sub64MPanicOnOverflowNE<1>+110
	rel 77+4 t=31 go:info.[2]uint64<0>+0
	rel 89+4 t=31 go:info.[2]uint64<0>+0
	rel 104+4 t=31 go:info.[2]uint64<0>+0
	rel 114+4 t=31 go:info.uint64<0>+0
	rel 118+4 t=31 <0>+0
aux for command-line-arguments.Sub64MPanicOnOverflowGT<0> SDWARFLOC size=51
	0x0000 ff ff ff ff ff ff ff ff 00 00 00 00 00 00 00 00  ................
	0x0010 3a 00 00 00 00 00 00 00 66 00 00 00 00 00 00 00  :.......f.......
	0x0020 01 00 51 00 00 00 00 00 00 00 00 00 00 00 00 00  ..Q.............
	0x0030 00 00 00                                         ...
	rel 8+8 t=1 command-line-arguments.Sub64MPanicOnOverflowGT<1>+0
aux for command-line-arguments.Sub64MPanicOnOverflowGT<0> SDWARFLINES size=50
	0x0000 00 09 02 00 00 00 00 00 00 00 00 04 02 03 b8 06  ................
	0x0010 14 0a 4b da 06 41 06 42 06 41 40 2e 06 6b 06 2d  ..K..A.B.A@..k.-
	0x0020 06 26 06 41 06 a3 06 55 06 55 03 7d 47 02 07 00  .&.A...U.U.}G...
	0x0030 01 01                                            ..
	rel 3+8 t=1 command-line-arguments.Sub64MPanicOnOverflowGT<1>+0
aux for command-line-arguments.Sub64MPanicOnOverflowGT<0> SDWARFFCN size=123
	0x0000 03 63 6f 6d 6d 61 6e 64 2d 6c 69 6e 65 2d 61 72  .command-line-ar
	0x0010 67 75 6d 65 6e 74 73 2e 53 75 62 36 34 4d 50 61  guments.Sub64MPa
	0x0020 6e 69 63 4f 6e 4f 76 65 72 66 6c 6f 77 47 54 00  nicOnOverflowGT.
	0x0030 00 00 00 00 00 00 00 00 00 00 00 00 00 00 00 00  ................
	0x0040 01 9c 02 00 00 00 01 11 61 00 00 be 06 00 00 00  ........a.......
	0x0050 00 01 9c 11 62 00 00 be 06 00 00 00 00 02 91 10  ....b...........
	0x0060 11 7e 72 30 00 01 be 06 00 00 00 00 00 0d 63 00  .~r0..........c.
	0x0070 c0 06 00 00 00 00 00 00 00 00 00                 ...........
	rel 0+0 t=22 type:[2]uint64<0>+0
	rel 48+8 t=1 command-line-arguments.Sub64MPanicOnOverflowGT<1>+0
	rel 56+8 t=1 command-line-arguments.Sub64MPanicOnOverflowGT<1>+110
	rel 77+4 t=31 go:info.[2]uint64<0>+0
	rel 89+4 t=31 go:info.[2]uint64<0>+0
	rel 104+4 t=31 go:info.[2]uint64<0>+0
	rel 114+4 t=31 go:info.uint64<0>+0
	rel 118+4 t=31 <0>+0
aux for command-line-arguments.Mul<0> SDWARFLOC size=102
	0x0000 ff ff ff ff ff ff ff ff 00 00 00 00 00 00 00 00  ................
	0x0010 00 00 00 00 00 00 00 00 06 00 00 00 00 00 00 00  ................
	0x0020 01 00 50 00 00 00 00 00 00 00 00 00 00 00 00 00  ..P.............
	0x0030 00 00 00 ff ff ff ff ff ff ff ff 00 00 00 00 00  ................
	0x0040 00 00 00 00 00 00 00 00 00 00 00 06 00 00 00 00  ................
	0x0050 00 00 00 01 00 53 00 00 00 00 00 00 00 00 00 00  .....S..........
	0x0060 00 00 00 00 00 00                                ......
	rel 8+8 t=1 command-line-arguments.Mul<1>+0
	rel 59+8 t=1 command-line-arguments.Mul<1>+0
aux for command-line-arguments.Mul<0> SDWARFLINES size=24
	0x0000 00 09 02 00 00 00 00 00 00 00 00 04 02 03 cf 06  ................
	0x0010 14 06 2d 02 07 00 01 01                          ..-.....
	rel 3+8 t=1 command-line-arguments.Mul<1>+0
aux for command-line-arguments.Mul<0> SDWARFFCN size=104
	0x0000 03 63 6f 6d 6d 61 6e 64 2d 6c 69 6e 65 2d 61 72  .command-line-ar
	0x0010 67 75 6d 65 6e 74 73 2e 4d 75 6c 00 00 00 00 00  guments.Mul.....
	0x0020 00 00 00 00 00 00 00 00 00 00 00 00 01 9c 02 00  ................
	0x0030 00 00 01 12 78 00 00 ce 06 00 00 00 00 00 00 00  ....x...........
	0x0040 00 12 79 00 00 ce 06 00 00 00 00 00 00 00 00 11  ..y.............
	0x0050 68 69 00 01 ce 06 00 00 00 00 00 11 6c 6f 00 01  hi..........lo..
	0x0060 ce 06 00 00 00 00 00 00                          ........
	rel 0+0 t=22 type:uint<0>+0
	rel 28+8 t=1 command-line-arguments.Mul<1>+0
	rel 36+8 t=1 command-line-arguments.Mul<1>+10
	rel 57+4 t=31 go:info.uint<0>+0
	rel 61+4 t=31 <0>+0
	rel 71+4 t=31 go:info.uint<0>+0
	rel 75+4 t=31 <0>+51
	rel 86+4 t=31 go:info.uint<0>+0
	rel 98+4 t=31 go:info.uint<0>+0
aux for command-line-arguments.Mul64<0> SDWARFLOC size=102
	0x0000 ff ff ff ff ff ff ff ff 00 00 00 00 00 00 00 00  ................
	0x0010 00 00 00 00 00 00 00 00 06 00 00 00 00 00 00 00  ................
	0x0020 01 00 50 00 00 00 00 00 00 00 00 00 00 00 00 00  ..P.............
	0x0030 00 00 00 ff ff ff ff ff ff ff ff 00 00 00 00 00  ................
	0x0040 00 00 00 00 00 00 00 00 00 00 00 06 00 00 00 00  ................
	0x0050 00 00 00 01 00 53 00 00 00 00 00 00 00 00 00 00  .....S..........
	0x0060 00 00 00 00 00 00                                ......
	rel 8+8 t=1 command-line-arguments.Mul64<1>+0
	rel 59+8 t=1 command-line-arguments.Mul64<1>+0
aux for command-line-arguments.Mul64<0> SDWARFLINES size=24
	0x0000 00 09 02 00 00 00 00 00 00 00 00 04 02 03 da 06  ................
	0x0010 14 06 2d 02 07 00 01 01                          ..-.....
	rel 3+8 t=1 command-line-arguments.Mul64<1>+0
aux for command-line-arguments.Mul64<0> SDWARFFCN size=106
	0x0000 03 63 6f 6d 6d 61 6e 64 2d 6c 69 6e 65 2d 61 72  .command-line-ar
	0x0010 67 75 6d 65 6e 74 73 2e 4d 75 6c 36 34 00 00 00  guments.Mul64...
	0x0020 00 00 00 00 00 00 00 00 00 00 00 00 00 00 01 9c  ................
	0x0030 02 00 00 00 01 12 78 00 00 d8 06 00 00 00 00 00  ......x.........
	0x0040 00 00 00 12 79 00 00 d8 06 00 00 00 00 00 00 00  ....y...........
	0x0050 00 11 68 69 00 01 d8 06 00 00 00 00 00 11 6c 6f  ..hi..........lo
	0x0060 00 01 d8 06 00 00 00 00 00 00                    ..........
	rel 0+0 t=22 type:uint64<0>+0
	rel 30+8 t=1 command-line-arguments.Mul64<1>+0
	rel 38+8 t=1 command-line-arguments.Mul64<1>+10
	rel 59+4 t=31 go:info.uint64<0>+0
	rel 63+4 t=31 <0>+0
	rel 73+4 t=31 go:info.uint64<0>+0
	rel 77+4 t=31 <0>+51
	rel 88+4 t=31 go:info.uint64<0>+0
	rel 100+4 t=31 go:info.uint64<0>+0
aux for command-line-arguments.Mul64HiOnly<0> SDWARFLOC size=153
	0x0000 ff ff ff ff ff ff ff ff 00 00 00 00 00 00 00 00  ................
	0x0010 00 00 00 00 00 00 00 00 06 00 00 00 00 00 00 00  ................
	0x0020 01 00 50 00 00 00 00 00 00 00 00 00 00 00 00 00  ..P.............
	0x0030 00 00 00 ff ff ff ff ff ff ff ff 00 00 00 00 00  ................
	0x0040 00 00 00 00 00 00 00 00 00 00 00 07 00 00 00 00  ................
	0x0050 00 00 00 01 00 53 00 00 00 00 00 00 00 00 00 00  .....S..........
	0x0060 00 00 00 00 00 00 ff ff ff ff ff ff ff ff 00 00  ................
	0x0070 00 00 00 00 00 00 06 00 00 00 00 00 00 00 07 00  ................
	0x0080 00 00 00 00 00 00 01 00 51 00 00 00 00 00 00 00  ........Q.......
	0x0090 00 00 00 00 00 00 00 00 00                       .........
	rel 8+8 t=1 command-line-arguments.Mul64HiOnly<1>+0
	rel 59+8 t=1 command-line-arguments.Mul64HiOnly<1>+0
	rel 110+8 t=1 command-line-arguments.Mul64HiOnly<1>+0
aux for command-line-arguments.Mul64HiOnly<0> SDWARFLINES size=25
	0x0000 00 09 02 00 00 00 00 00 00 00 00 04 02 03 e0 06  ................
	0x0010 14 2e 06 2d 02 01 00 01 01                       ...-.....
	rel 3+8 t=1 command-line-arguments.Mul64HiOnly<1>+0
aux for command-line-arguments.Mul64HiOnly<0> SDWARFFCN size=115
	0x0000 03 63 6f 6d 6d 61 6e 64 2d 6c 69 6e 65 2d 61 72  .command-line-ar
	0x0010 67 75 6d 65 6e 74 73 2e 4d 75 6c 36 34 48 69 4f  guments.Mul64HiO
	0x0020 6e 6c 79 00 00 00 00 00 00 00 00 00 00 00 00 00  nly.............
	0x0030 00 00 00 00 01 9c 02 00 00 00 01 12 78 00 00 e3  ............x...
	0x0040 06 00 00 00 00 00 00 00 00 12 79 00 00 e3 06 00  ..........y.....
	0x0050 00 00 00 00 00 00 00 11 7e 72 30 00 01 e3 06 00  ........~r0.....
	0x0060 00 00 00 00 0d 68 69 00 e6 06 00 00 00 00 00 00  .....hi.........
	0x0070 00 00 00                                         ...
	rel 0+0 t=22 type:uint64<0>+0
	rel 36+8 t=1 command-line-arguments.Mul64HiOnly<1>+0
	rel 44+8 t=1 command-line-arguments.Mul64HiOnly<1>+7
	rel 65+4 t=31 go:info.uint64<0>+0
	rel 69+4 t=31 <0>+0
	rel 79+4 t=31 go:info.uint64<0>+0
	rel 83+4 t=31 <0>+51
	rel 95+4 t=31 go:info.uint64<0>+0
	rel 106+4 t=31 go:info.uint64<0>+0
	rel 110+4 t=31 <0>+102
aux for command-line-arguments.Mul64LoOnly<0> SDWARFLOC size=153
	0x0000 ff ff ff ff ff ff ff ff 00 00 00 00 00 00 00 00  ................
	0x0010 00 00 00 00 00 00 00 00 03 00 00 00 00 00 00 00  ................
	0x0020 01 00 50 00 00 00 00 00 00 00 00 00 00 00 00 00  ..P.............
	0x0030 00 00 00 ff ff ff ff ff ff ff ff 00 00 00 00 00  ................
	0x0040 00 00 00 00 00 00 00 00 00 00 00 04 00 00 00 00  ................
	0x0050 00 00 00 01 00 53 00 00 00 00 00 00 00 00 00 00  .....S..........
	0x0060 00 00 00 00 00 00 ff ff ff ff ff ff ff ff 00 00  ................
	0x0070 00 00 00 00 00 00 03 00 00 00 00 00 00 00 04 00  ................
	0x0080 00 00 00 00 00 00 01 00 50 00 00 00 00 00 00 00  ........P.......
	0x0090 00 00 00 00 00 00 00 00 00                       .........
	rel 8+8 t=1 command-line-arguments.Mul64LoOnly<1>+0
	rel 59+8 t=1 command-line-arguments.Mul64LoOnly<1>+0
	rel 110+8 t=1 command-line-arguments.Mul64LoOnly<1>+0
aux for command-line-arguments.Mul64LoOnly<0> SDWARFLINES size=23
	0x0000 00 09 02 00 00 00 00 00 00 00 00 04 02 03 e7 06  ................
	0x0010 14 2e 02 01 00 01 01                             .......
	rel 3+8 t=1 command-line-arguments.Mul64LoOnly<1>+0
aux for command-line-arguments.Mul64LoOnly<0> SDWARFFCN size=115
	0x0000 03 63 6f 6d 6d 61 6e 64 2d 6c 69 6e 65 2d 61 72  .command-line-ar
	0x0010 67 75 6d 65 6e 74 73 2e 4d 75 6c 36 34 4c 6f 4f  guments.Mul64LoO
	0x0020 6e 6c 79 00 00 00 00 00 00 00 00 00 00 00 00 00  nly.............
	0x0030 00 00 00 00 01 9c 02 00 00 00 01 12 78 00 00 ea  ............x...
	0x0040 06 00 00 00 00 00 00 00 00 12 79 00 00 ea 06 00  ..........y.....
	0x0050 00 00 00 00 00 00 00 11 7e 72 30 00 01 ea 06 00  ........~r0.....
	0x0060 00 00 00 00 0d 6c 6f 00 ed 06 00 00 00 00 00 00  .....lo.........
	0x0070 00 00 00                                         ...
	rel 0+0 t=22 type:uint64<0>+0
	rel 36+8 t=1 command-line-arguments.Mul64LoOnly<1>+0
	rel 44+8 t=1 command-line-arguments.Mul64LoOnly<1>+4
	rel 65+4 t=31 go:info.uint64<0>+0
	rel 69+4 t=31 <0>+0
	rel 79+4 t=31 go:info.uint64<0>+0
	rel 83+4 t=31 <0>+51
	rel 95+4 t=31 go:info.uint64<0>+0
	rel 106+4 t=31 go:info.uint64<0>+0
	rel 110+4 t=31 <0>+102
aux for command-line-arguments.Div<0> SDWARFLOC size=153
	0x0000 ff ff ff ff ff ff ff ff 00 00 00 00 00 00 00 00  ................
	0x0010 00 00 00 00 00 00 00 00 22 00 00 00 00 00 00 00  ........".......
	0x0020 01 00 50 00 00 00 00 00 00 00 00 00 00 00 00 00  ..P.............
	0x0030 00 00 00 ff ff ff ff ff ff ff ff 00 00 00 00 00  ................
	0x0040 00 00 00 00 00 00 00 00 00 00 00 28 00 00 00 00  ...........(....
	0x0050 00 00 00 01 00 53 00 00 00 00 00 00 00 00 00 00  .....S..........
	0x0060 00 00 00 00 00 00 ff ff ff ff ff ff ff ff 00 00  ................
	0x0070 00 00 00 00 00 00 00 00 00 00 00 00 00 00 36 00  ..............6.
	0x0080 00 00 00 00 00 00 01 00 52 00 00 00 00 00 00 00  ........R.......
	0x0090 00 00 00 00 00 00 00 00 00                       .........
	rel 8+8 t=1 command-line-arguments.Div<1>+0
	rel 59+8 t=1 command-line-arguments.Div<1>+0
	rel 110+8 t=1 command-line-arguments.Div<1>+0
aux for command-line-arguments.Div<0> SDWARFLINES size=40
	0x0000 00 09 02 00 00 00 00 00 00 00 00 04 02 03 ef 06  ................
	0x0010 14 0a 4b 89 06 2d 06 55 06 2d 06 08 37 17 06 08  ..K..-.U.-..7...
	0x0020 7d 06 19 02 02 00 01 01                          }.......
	rel 3+8 t=1 command-line-arguments.Div<1>+0
aux for command-line-arguments.Div<0> SDWARFFCN size=118
	0x0000 03 63 6f 6d 6d 61 6e 64 2d 6c 69 6e 65 2d 61 72  .command-line-ar
	0x0010 67 75 6d 65 6e 74 73 2e 44 69 76 00 00 00 00 00  guments.Div.....
	0x0020 00 00 00 00 00 00 00 00 00 00 00 00 01 9c 02 00  ................
	0x0030 00 00 01 12 68 69 00 00 f5 06 00 00 00 00 00 00  ....hi..........
	0x0040 00 00 12 6c 6f 00 00 f5 06 00 00 00 00 00 00 00  ...lo...........
	0x0050 00 12 78 00 00 f5 06 00 00 00 00 00 00 00 00 11  ..x.............
	0x0060 71 00 01 f5 06 00 00 00 00 00 11 72 00 01 f5 06  q..........r....
	0x0070 00 00 00 00 00 00                                ......
	rel 0+0 t=22 type:uint<0>+0
	rel 28+8 t=1 command-line-arguments.Div<1>+0
	rel 36+8 t=1 command-line-arguments.Div<1>+98
	rel 58+4 t=31 go:info.uint<0>+0
	rel 62+4 t=31 <0>+0
	rel 73+4 t=31 go:info.uint<0>+0
	rel 77+4 t=31 <0>+51
	rel 87+4 t=31 go:info.uint<0>+0
	rel 91+4 t=31 <0>+102
	rel 101+4 t=31 go:info.uint<0>+0
	rel 112+4 t=31 go:info.uint<0>+0
aux for command-line-arguments.Div32<0> SDWARFRANGE size=64
	0x0000 ff ff ff ff ff ff ff ff 00 00 00 00 00 00 00 00  ................
	0x0010 16 00 00 00 00 00 00 00 33 00 00 00 00 00 00 00  ........3.......
	0x0020 41 00 00 00 00 00 00 00 66 00 00 00 00 00 00 00  A.......f.......
	0x0030 00 00 00 00 00 00 00 00 00 00 00 00 00 00 00 00  ................
	rel 8+8 t=1 command-line-arguments.Div32<1>+0
aux for command-line-arguments.Div32<0> SDWARFLOC size=357
	0x0000 ff ff ff ff ff ff ff ff 00 00 00 00 00 00 00 00  ................
	0x0010 00 00 00 00 00 00 00 00 1e 00 00 00 00 00 00 00  ................
	0x0020 01 00 50 00 00 00 00 00 00 00 00 00 00 00 00 00  ..P.............
	0x0030 00 00 00 ff ff ff ff ff ff ff ff 00 00 00 00 00  ................
	0x0040 00 00 00 00 00 00 00 00 00 00 00 36 00 00 00 00  ...........6....
	0x0050 00 00 00 01 00 53 00 00 00 00 00 00 00 00 00 00  .....S..........
	0x0060 00 00 00 00 00 00 ff ff ff ff ff ff ff ff 00 00  ................
	0x0070 00 00 00 00 00 00 00 00 00 00 00 00 00 00 29 00  ..............).
	0x0080 00 00 00 00 00 00 01 00 52 00 00 00 00 00 00 00  ........R.......
	0x0090 00 00 00 00 00 00 00 00 00 ff ff ff ff ff ff ff  ................
	0x00a0 ff 00 00 00 00 00 00 00 00 00 00 00 00 00 00 00  ................
	0x00b0 00 1e 00 00 00 00 00 00 00 01 00 50 00 00 00 00  ...........P....
	0x00c0 00 00 00 00 00 00 00 00 00 00 00 00 ff ff ff ff  ................
	0x00d0 ff ff ff ff 00 00 00 00 00 00 00 00 00 00 00 00  ................
	0x00e0 00 00 00 00 36 00 00 00 00 00 00 00 01 00 53 00  ....6.........S.
	0x00f0 00 00 00 00 00 00 00 00 00 00 00 00 00 00 00 ff  ................
	0x0100 ff ff ff ff ff ff ff 00 00 00 00 00 00 00 00 00  ................
	0x0110 00 00 00 00 00 00 00 29 00 00 00 00 00 00 00 01  .......)........
	0x0120 00 52 00 00 00 00 00 00 00 00 00 00 00 00 00 00  .R..............
	0x0130 00 00 ff ff ff ff ff ff ff ff 00 00 00 00 00 00  ................
	0x0140 00 00 27 00 00 00 00 00 00 00 36 00 00 00 00 00  ..'.......6.....
	0x0150 00 00 01 00 50 00 00 00 00 00 00 00 00 00 00 00  ....P...........
	0x0160 00 00 00 00 00                                   .....
	rel 8+8 t=1 command-line-arguments.Div32<1>+0
	rel 59+8 t=1 command-line-arguments.Div32<1>+0
	rel 110+8 t=1 command-line-arguments.Div32<1>+0
	rel 161+8 t=1 command-line-arguments.Div32<1>+0
	rel 212+8 t=1 command-line-arguments.Div32<1>+0
	rel 263+8 t=1 command-line-arguments.Div32<1>+0
	rel 314+8 t=1 command-line-arguments.Div32<1>+0
aux for command-line-arguments.Div32<0> SDWARFLINES size=67
	0x0000 00 09 02 00 00 00 00 00 00 00 00 04 02 03 f4 06  ................
	0x0010 14 0a 4b 9d 04 03 06 03 82 7d 1f 06 4e 06 23 06  ..K......}..N.#.
	0x0020 6a 06 23 04 02 06 03 f9 02 78 06 2d 04 03 03 86  j.#......x.-....
	0x0030 7d 79 06 3e 06 55 06 ff 04 02 03 fa 02 1e 02 22  }y.>.U........."
	0x0040 00 01 01                                         ...
	rel 3+8 t=1 command-line-arguments.Div32<1>+0
aux for command-line-arguments.Div32<0> SDWARFFCN size=172
	0x0000 03 63 6f 6d 6d 61 6e 64 2d 6c 69 6e 65 2d 61 72  .command-line-ar
	0x0010 67 75 6d 65 6e 74 73 2e 44 69 76 33 32 00 00 00  guments.Div32...
	0x0020 00 00 00 00 00 00 00 00 00 00 00 00 00 00 01 9c  ................
	0x0030 02 00 00 00 01 12 68 69 00 00 fa 06 00 00 00 00  ......hi........
	0x0040 00 00 00 00 12 6c 6f 00 00 fa 06 00 00 00 00 00  .....lo.........
	0x0050 00 00 00 12 78 00 00 fa 06 00 00 00 00 00 00 00  ....x...........
	0x0060 00 11 71 00 01 fa 06 00 00 00 00 00 11 72 00 01  ..q..........r..
	0x0070 fa 06 00 00 00 00 00 09 00 00 00 00 00 00 00 00  ................
	0x0080 02 00 00 00 fc 06 15 00 00 00 00 00 00 00 00 15  ................
	0x0090 00 00 00 00 00 00 00 00 15 00 00 00 00 00 00 00  ................
	0x00a0 00 10 00 00 00 00 00 00 00 00 00 00              ............
	rel 0+0 t=22 type:uint32<0>+0
	rel 30+8 t=1 command-line-arguments.Div32<1>+0
	rel 38+8 t=1 command-line-arguments.Div32<1>+136
	rel 60+4 t=31 go:info.uint32<0>+0
	rel 64+4 t=31 <0>+0
	rel 75+4 t=31 go:info.uint32<0>+0
	rel 79+4 t=31 <0>+51
	rel 89+4 t=31 go:info.uint32<0>+0
	rel 93+4 t=31 <0>+102
	rel 103+4 t=31 go:info.uint32<0>+0
	rel 114+4 t=31 go:info.uint32<0>+0
	rel 120+4 t=31 go:info.math/bits.Div32$abstract<0>+0
	rel 124+4 t=31 <0>+0
	rel 135+4 t=31 go:info.math/bits.Div32$abstract<0>+19
	rel 139+4 t=31 <0>+153
	rel 144+4 t=31 go:info.math/bits.Div32$abstract<0>+28
	rel 148+4 t=31 <0>+204
	rel 153+4 t=31 go:info.math/bits.Div32$abstract<0>+37
	rel 157+4 t=31 <0>+255
	rel 162+4 t=31 go:info.math/bits.Div32$abstract<0>+65
	rel 166+4 t=31 <0>+306
aux for command-line-arguments.Div64<0> SDWARFLOC size=153
	0x0000 ff ff ff ff ff ff ff ff 00 00 00 00 00 00 00 00  ................
	0x0010 00 00 00 00 00 00 00 00 22 00 00 00 00 00 00 00  ........".......
	0x0020 01 00 50 00 00 00 00 00 00 00 00 00 00 00 00 00  ..P.............
	0x0030 00 00 00 ff ff ff ff ff ff ff ff 00 00 00 00 00  ................
	0x0040 00 00 00 00 00 00 00 00 00 00 00 28 00 00 00 00  ...........(....
	0x0050 00 00 00 01 00 53 00 00 00 00 00 00 00 00 00 00  .....S..........
	0x0060 00 00 00 00 00 00 ff ff ff ff ff ff ff ff 00 00  ................
	0x0070 00 00 00 00 00 00 00 00 00 00 00 00 00 00 36 00  ..............6.
	0x0080 00 00 00 00 00 00 01 00 52 00 00 00 00 00 00 00  ........R.......
	0x0090 00 00 00 00 00 00 00 00 00                       .........
	rel 8+8 t=1 command-line-arguments.Div64<1>+0
	rel 59+8 t=1 command-line-arguments.Div64<1>+0
	rel 110+8 t=1 command-line-arguments.Div64<1>+0
aux for command-line-arguments.Div64<0> SDWARFLINES size=40
	0x0000 00 09 02 00 00 00 00 00 00 00 00 04 02 03 f9 06  ................
	0x0010 14 0a 4b 89 06 2d 06 55 06 2d 06 08 37 17 06 08  ..K..-.U.-..7...
	0x0020 7d 06 19 02 02 00 01 01                          }.......
	rel 3+8 t=1 command-line-arguments.Div64<1>+0
aux for command-line-arguments.Div64<0> SDWARFFCN size=120
	0x0000 03 63 6f 6d 6d 61 6e 64 2d 6c 69 6e 65 2d 61 72  .command-line-ar
	0x0010 67 75 6d 65 6e 74 73 2e 44 69 76 36 34 00 00 00  guments.Div64...
	0x0020 00 00 00 00 00 00 00 00 00 00 00 00 00 00 01 9c  ................
	0x0030 02 00 00 00 01 12 68 69 00 00 ff 06 00 00 00 00  ......hi........
	0x0040 00 00 00 00 12 6c 6f 00 00 ff 06 00 00 00 00 00  .....lo.........
	0x0050 00 00 00 12 78 00 00 ff 06 00 00 00 00 00 00 00  ....x...........
	0x0060 00 11 71 00 01 ff 06 00 00 00 00 00 11 72 00 01  ..q..........r..
	0x0070 ff 06 00 00 00 00 00 00                          ........
	rel 0+0 t=22 type:uint64<0>+0
	rel 30+8 t=1 command-line-arguments.Div64<1>+0
	rel 38+8 t=1 command-line-arguments.Div64<1>+98
	rel 60+4 t=31 go:info.uint64<0>+0
	rel 64+4 t=31 <0>+0
	rel 75+4 t=31 go:info.uint64<0>+0
	rel 79+4 t=31 <0>+51
	rel 89+4 t=31 go:info.uint64<0>+0
	rel 93+4 t=31 <0>+102
	rel 103+4 t=31 go:info.uint64<0>+0
	rel 114+4 t=31 go:info.uint64<0>+0
aux for command-line-arguments.Div64degenerate<0> SDWARFLOC size=51
	0x0000 ff ff ff ff ff ff ff ff 00 00 00 00 00 00 00 00  ................
	0x0010 00 00 00 00 00 00 00 00 0d 00 00 00 00 00 00 00  ................
	0x0020 01 00 50 00 00 00 00 00 00 00 00 00 00 00 00 00  ..P.............
	0x0030 00 00 00                                         ...
	rel 8+8 t=1 command-line-arguments.Div64degenerate<1>+0
aux for command-line-arguments.Div64degenerate<0> SDWARFLINES size=24
	0x0000 00 09 02 00 00 00 00 00 00 00 00 04 02 03 80 07  ................
	0x0010 14 06 2d 02 1f 00 01 01                          ..-.....
	rel 3+8 t=1 command-line-arguments.Div64degenerate<1>+0
aux for command-line-arguments.Div64degenerate<0> SDWARFFCN size=100
	0x0000 03 63 6f 6d 6d 61 6e 64 2d 6c 69 6e 65 2d 61 72  .command-line-ar
	0x0010 67 75 6d 65 6e 74 73 2e 44 69 76 36 34 64 65 67  guments.Div64deg
	0x0020 65 6e 65 72 61 74 65 00 00 00 00 00 00 00 00 00  enerate.........
	0x0030 00 00 00 00 00 00 00 00 01 9c 02 00 00 00 01 12  ................
	0x0040 78 00 00 84 07 00 00 00 00 00 00 00 00 11 71 00  x.............q.
	0x0050 01 84 07 00 00 00 00 00 11 72 00 01 84 07 00 00  .........r......
	0x0060 00 00 00 00                                      ....
	rel 0+0 t=22 type:uint64<0>+0
	rel 40+8 t=1 command-line-arguments.Div64degenerate<1>+0
	rel 48+8 t=1 command-line-arguments.Div64degenerate<1>+34
	rel 69+4 t=31 go:info.uint64<0>+0
	rel 73+4 t=31 <0>+0
	rel 83+4 t=31 go:info.uint64<0>+0
	rel 94+4 t=31 go:info.uint64<0>+0
