# command-line-arguments
command-line-arguments.mapCompoundAssignmentInt8<1> STEXT size=372 args=0x0 locals=0x78 funcid=0x0 align=0x0
	0x0000 00000 (/bigdata/qiuhan/codet5/usage/goroot/test/codegen/mapaccess.go:12)	TEXT	command-line-arguments.mapCompoundAssignmentInt8(SB), ABIInternal, $120-0
	0x0000 00000 (/bigdata/qiuhan/codet5/usage/goroot/test/codegen/mapaccess.go:12)	CMPQ	SP, 16(R14)
	0x0004 00004 (/bigdata/qiuhan/codet5/usage/goroot/test/codegen/mapaccess.go:12)	PCDATA	$0, $-2
	0x0004 00004 (/bigdata/qiuhan/codet5/usage/goroot/test/codegen/mapaccess.go:12)	JLS	362
	0x000a 00010 (/bigdata/qiuhan/codet5/usage/goroot/test/codegen/mapaccess.go:12)	PCDATA	$0, $-1
	0x000a 00010 (/bigdata/qiuhan/codet5/usage/goroot/test/codegen/mapaccess.go:12)	SUBQ	$120, SP
	0x000e 00014 (/bigdata/qiuhan/codet5/usage/goroot/test/codegen/mapaccess.go:12)	MOVQ	BP, 112(SP)
	0x0013 00019 (/bigdata/qiuhan/codet5/usage/goroot/test/codegen/mapaccess.go:12)	LEAQ	112(SP), BP
	0x0018 00024 (/bigdata/qiuhan/codet5/usage/goroot/test/codegen/mapaccess.go:12)	FUNCDATA	$0, gclocals·J5F+7Qw7O7ve2QcWC7DpeQ==(SB)
	0x0018 00024 (/bigdata/qiuhan/codet5/usage/goroot/test/codegen/mapaccess.go:12)	FUNCDATA	$1, gclocals·Gi+ewyUrOze142o4ULSYMg==(SB)
	0x0018 00024 (/bigdata/qiuhan/codet5/usage/goroot/test/codegen/mapaccess.go:12)	FUNCDATA	$2, command-line-arguments.mapCompoundAssignmentInt8.stkobj(SB)
	0x0018 00024 (/bigdata/qiuhan/codet5/usage/goroot/test/codegen/mapaccess.go:13)	MOVUPS	X15, command-line-arguments..autotmp_2+64(SP)
	0x001e 00030 (/bigdata/qiuhan/codet5/usage/goroot/test/codegen/mapaccess.go:13)	MOVUPS	X15, command-line-arguments..autotmp_2+80(SP)
	0x0024 00036 (/bigdata/qiuhan/codet5/usage/goroot/test/codegen/mapaccess.go:13)	MOVUPS	X15, command-line-arguments..autotmp_2+96(SP)
	0x002a 00042 (/bigdata/qiuhan/codet5/usage/goroot/test/codegen/mapaccess.go:13)	MOVUPS	X15, command-line-arguments..autotmp_3+32(SP)
	0x0030 00048 (/bigdata/qiuhan/codet5/usage/goroot/test/codegen/mapaccess.go:13)	MOVUPS	X15, command-line-arguments..autotmp_3+48(SP)
	0x0036 00054 (/bigdata/qiuhan/codet5/usage/goroot/test/codegen/mapaccess.go:13)	LEAQ	command-line-arguments..autotmp_3+32(SP), AX
	0x003b 00059 (/bigdata/qiuhan/codet5/usage/goroot/test/codegen/mapaccess.go:13)	MOVQ	AX, command-line-arguments..autotmp_2+80(SP)
	0x0040 00064 (/bigdata/qiuhan/codet5/usage/goroot/test/codegen/mapaccess.go:13)	PCDATA	$1, $1
	0x0040 00064 (/bigdata/qiuhan/codet5/usage/goroot/test/codegen/mapaccess.go:13)	CALL	runtime.fastrand(SB)
	0x0045 00069 (/bigdata/qiuhan/codet5/usage/goroot/test/codegen/mapaccess.go:13)	MOVL	AX, command-line-arguments..autotmp_2+76(SP)
	0x0049 00073 (/bigdata/qiuhan/codet5/usage/goroot/test/codegen/mapaccess.go:14)	MOVB	$0, command-line-arguments.k+31(SP)
	0x004e 00078 (/bigdata/qiuhan/codet5/usage/goroot/test/codegen/mapaccess.go:20)	LEAQ	type:map[int8]int8(SB), AX
	0x0055 00085 (/bigdata/qiuhan/codet5/usage/goroot/test/codegen/mapaccess.go:20)	LEAQ	command-line-arguments..autotmp_2+64(SP), BX
	0x005a 00090 (/bigdata/qiuhan/codet5/usage/goroot/test/codegen/mapaccess.go:20)	LEAQ	command-line-arguments.k+31(SP), CX
	0x005f 00095 (/bigdata/qiuhan/codet5/usage/goroot/test/codegen/mapaccess.go:20)	NOP
	0x0060 00096 (/bigdata/qiuhan/codet5/usage/goroot/test/codegen/mapaccess.go:20)	CALL	runtime.mapassign(SB)
	0x0065 00101 (/bigdata/qiuhan/codet5/usage/goroot/test/codegen/mapaccess.go:20)	MOVBLZX	(AX), CX
	0x0068 00104 (/bigdata/qiuhan/codet5/usage/goroot/test/codegen/mapaccess.go:20)	ADDL	$67, CX
	0x006b 00107 (/bigdata/qiuhan/codet5/usage/goroot/test/codegen/mapaccess.go:20)	MOVB	CL, (AX)
	0x006d 00109 (/bigdata/qiuhan/codet5/usage/goroot/test/codegen/mapaccess.go:26)	LEAQ	type:map[int8]int8(SB), AX
	0x0074 00116 (/bigdata/qiuhan/codet5/usage/goroot/test/codegen/mapaccess.go:26)	LEAQ	command-line-arguments..autotmp_2+64(SP), BX
	0x0079 00121 (/bigdata/qiuhan/codet5/usage/goroot/test/codegen/mapaccess.go:26)	LEAQ	command-line-arguments.k+31(SP), CX
	0x007e 00126 (/bigdata/qiuhan/codet5/usage/goroot/test/codegen/mapaccess.go:26)	NOP
	0x0080 00128 (/bigdata/qiuhan/codet5/usage/goroot/test/codegen/mapaccess.go:26)	CALL	runtime.mapassign(SB)
	0x0085 00133 (/bigdata/qiuhan/codet5/usage/goroot/test/codegen/mapaccess.go:26)	MOVBLZX	(AX), CX
	0x0088 00136 (/bigdata/qiuhan/codet5/usage/goroot/test/codegen/mapaccess.go:26)	ADDL	$-123, CX
	0x008b 00139 (/bigdata/qiuhan/codet5/usage/goroot/test/codegen/mapaccess.go:26)	MOVB	CL, (AX)
	0x008d 00141 (/bigdata/qiuhan/codet5/usage/goroot/test/codegen/mapaccess.go:32)	LEAQ	type:map[int8]int8(SB), AX
	0x0094 00148 (/bigdata/qiuhan/codet5/usage/goroot/test/codegen/mapaccess.go:32)	LEAQ	command-line-arguments..autotmp_2+64(SP), BX
	0x0099 00153 (/bigdata/qiuhan/codet5/usage/goroot/test/codegen/mapaccess.go:32)	LEAQ	command-line-arguments.k+31(SP), CX
	0x009e 00158 (/bigdata/qiuhan/codet5/usage/goroot/test/codegen/mapaccess.go:32)	NOP
	0x00a0 00160 (/bigdata/qiuhan/codet5/usage/goroot/test/codegen/mapaccess.go:32)	CALL	runtime.mapassign(SB)
	0x00a5 00165 (/bigdata/qiuhan/codet5/usage/goroot/test/codegen/mapaccess.go:32)	MOVBLZX	(AX), CX
	0x00a8 00168 (/bigdata/qiuhan/codet5/usage/goroot/test/codegen/mapaccess.go:32)	LEAL	(CX)(CX*4), CX
	0x00ab 00171 (/bigdata/qiuhan/codet5/usage/goroot/test/codegen/mapaccess.go:32)	LEAL	(CX)(CX*8), CX
	0x00ae 00174 (/bigdata/qiuhan/codet5/usage/goroot/test/codegen/mapaccess.go:32)	MOVB	CL, (AX)
	0x00b0 00176 (/bigdata/qiuhan/codet5/usage/goroot/test/codegen/mapaccess.go:38)	LEAQ	type:map[int8]int8(SB), AX
	0x00b7 00183 (/bigdata/qiuhan/codet5/usage/goroot/test/codegen/mapaccess.go:38)	LEAQ	command-line-arguments..autotmp_2+64(SP), BX
	0x00bc 00188 (/bigdata/qiuhan/codet5/usage/goroot/test/codegen/mapaccess.go:38)	LEAQ	command-line-arguments.k+31(SP), CX
	0x00c1 00193 (/bigdata/qiuhan/codet5/usage/goroot/test/codegen/mapaccess.go:38)	CALL	runtime.mapassign(SB)
	0x00c6 00198 (/bigdata/qiuhan/codet5/usage/goroot/test/codegen/mapaccess.go:38)	MOVBLZX	(AX), CX
	0x00c9 00201 (/bigdata/qiuhan/codet5/usage/goroot/test/codegen/mapaccess.go:38)	ORL	$78, CX
	0x00cc 00204 (/bigdata/qiuhan/codet5/usage/goroot/test/codegen/mapaccess.go:38)	MOVB	CL, (AX)
	0x00ce 00206 (/bigdata/qiuhan/codet5/usage/goroot/test/codegen/mapaccess.go:44)	LEAQ	type:map[int8]int8(SB), AX
	0x00d5 00213 (/bigdata/qiuhan/codet5/usage/goroot/test/codegen/mapaccess.go:44)	LEAQ	command-line-arguments..autotmp_2+64(SP), BX
	0x00da 00218 (/bigdata/qiuhan/codet5/usage/goroot/test/codegen/mapaccess.go:44)	LEAQ	command-line-arguments.k+31(SP), CX
	0x00df 00223 (/bigdata/qiuhan/codet5/usage/goroot/test/codegen/mapaccess.go:44)	NOP
	0x00e0 00224 (/bigdata/qiuhan/codet5/usage/goroot/test/codegen/mapaccess.go:44)	CALL	runtime.mapassign(SB)
	0x00e5 00229 (/bigdata/qiuhan/codet5/usage/goroot/test/codegen/mapaccess.go:44)	MOVBLZX	(AX), CX
	0x00e8 00232 (/bigdata/qiuhan/codet5/usage/goroot/test/codegen/mapaccess.go:44)	XORL	$89, CX
	0x00eb 00235 (/bigdata/qiuhan/codet5/usage/goroot/test/codegen/mapaccess.go:44)	MOVB	CL, (AX)
	0x00ed 00237 (/bigdata/qiuhan/codet5/usage/goroot/test/codegen/mapaccess.go:50)	LEAQ	type:map[int8]int8(SB), AX
	0x00f4 00244 (/bigdata/qiuhan/codet5/usage/goroot/test/codegen/mapaccess.go:50)	LEAQ	command-line-arguments..autotmp_2+64(SP), BX
	0x00f9 00249 (/bigdata/qiuhan/codet5/usage/goroot/test/codegen/mapaccess.go:50)	LEAQ	command-line-arguments.k+31(SP), CX
	0x00fe 00254 (/bigdata/qiuhan/codet5/usage/goroot/test/codegen/mapaccess.go:50)	NOP
	0x0100 00256 (/bigdata/qiuhan/codet5/usage/goroot/test/codegen/mapaccess.go:50)	CALL	runtime.mapassign(SB)
	0x0105 00261 (/bigdata/qiuhan/codet5/usage/goroot/test/codegen/mapaccess.go:50)	MOVB	$0, (AX)
	0x0108 00264 (/bigdata/qiuhan/codet5/usage/goroot/test/codegen/mapaccess.go:56)	LEAQ	type:map[int8]int8(SB), AX
	0x010f 00271 (/bigdata/qiuhan/codet5/usage/goroot/test/codegen/mapaccess.go:56)	LEAQ	command-line-arguments..autotmp_2+64(SP), BX
	0x0114 00276 (/bigdata/qiuhan/codet5/usage/goroot/test/codegen/mapaccess.go:56)	LEAQ	command-line-arguments.k+31(SP), CX
	0x0119 00281 (/bigdata/qiuhan/codet5/usage/goroot/test/codegen/mapaccess.go:56)	CALL	runtime.mapassign(SB)
	0x011e 00286 (/bigdata/qiuhan/codet5/usage/goroot/test/codegen/mapaccess.go:56)	MOVBLZX	(AX), CX
	0x0121 00289 (/bigdata/qiuhan/codet5/usage/goroot/test/codegen/mapaccess.go:56)	SARB	$7, CL
	0x0124 00292 (/bigdata/qiuhan/codet5/usage/goroot/test/codegen/mapaccess.go:56)	MOVB	CL, (AX)
	0x0126 00294 (/bigdata/qiuhan/codet5/usage/goroot/test/codegen/mapaccess.go:62)	LEAQ	type:map[int8]int8(SB), AX
	0x012d 00301 (/bigdata/qiuhan/codet5/usage/goroot/test/codegen/mapaccess.go:62)	LEAQ	command-line-arguments..autotmp_2+64(SP), BX
	0x0132 00306 (/bigdata/qiuhan/codet5/usage/goroot/test/codegen/mapaccess.go:62)	LEAQ	command-line-arguments.k+31(SP), CX
	0x0137 00311 (/bigdata/qiuhan/codet5/usage/goroot/test/codegen/mapaccess.go:62)	CALL	runtime.mapassign(SB)
	0x013c 00316 (/bigdata/qiuhan/codet5/usage/goroot/test/codegen/mapaccess.go:62)	MOVBLZX	(AX), CX
	0x013f 00319 (/bigdata/qiuhan/codet5/usage/goroot/test/codegen/mapaccess.go:62)	INCL	CX
	0x0141 00321 (/bigdata/qiuhan/codet5/usage/goroot/test/codegen/mapaccess.go:62)	MOVB	CL, (AX)
	0x0143 00323 (/bigdata/qiuhan/codet5/usage/goroot/test/codegen/mapaccess.go:68)	LEAQ	type:map[int8]int8(SB), AX
	0x014a 00330 (/bigdata/qiuhan/codet5/usage/goroot/test/codegen/mapaccess.go:68)	LEAQ	command-line-arguments..autotmp_2+64(SP), BX
	0x014f 00335 (/bigdata/qiuhan/codet5/usage/goroot/test/codegen/mapaccess.go:68)	LEAQ	command-line-arguments.k+31(SP), CX
	0x0154 00340 (/bigdata/qiuhan/codet5/usage/goroot/test/codegen/mapaccess.go:68)	PCDATA	$1, $0
	0x0154 00340 (/bigdata/qiuhan/codet5/usage/goroot/test/codegen/mapaccess.go:68)	CALL	runtime.mapassign(SB)
	0x0159 00345 (/bigdata/qiuhan/codet5/usage/goroot/test/codegen/mapaccess.go:68)	MOVBLZX	(AX), CX
	0x015c 00348 (/bigdata/qiuhan/codet5/usage/goroot/test/codegen/mapaccess.go:68)	DECL	CX
	0x015e 00350 (/bigdata/qiuhan/codet5/usage/goroot/test/codegen/mapaccess.go:68)	MOVB	CL, (AX)
	0x0160 00352 (/bigdata/qiuhan/codet5/usage/goroot/test/codegen/mapaccess.go:69)	MOVQ	112(SP), BP
	0x0165 00357 (/bigdata/qiuhan/codet5/usage/goroot/test/codegen/mapaccess.go:69)	ADDQ	$120, SP
	0x0169 00361 (/bigdata/qiuhan/codet5/usage/goroot/test/codegen/mapaccess.go:69)	RET
	0x016a 00362 (/bigdata/qiuhan/codet5/usage/goroot/test/codegen/mapaccess.go:69)	NOP
	0x016a 00362 (/bigdata/qiuhan/codet5/usage/goroot/test/codegen/mapaccess.go:12)	PCDATA	$1, $-1
	0x016a 00362 (/bigdata/qiuhan/codet5/usage/goroot/test/codegen/mapaccess.go:12)	PCDATA	$0, $-2
	0x016a 00362 (/bigdata/qiuhan/codet5/usage/goroot/test/codegen/mapaccess.go:12)	CALL	runtime.morestack_noctxt(SB)
	0x016f 00367 (/bigdata/qiuhan/codet5/usage/goroot/test/codegen/mapaccess.go:12)	PCDATA	$0, $-1
	0x016f 00367 (/bigdata/qiuhan/codet5/usage/goroot/test/codegen/mapaccess.go:12)	JMP	0
	0x0000 49 3b 66 10 0f 86 60 01 00 00 48 83 ec 78 48 89  I;f...`...H..xH.
	0x0010 6c 24 70 48 8d 6c 24 70 44 0f 11 7c 24 40 44 0f  l$pH.l$pD..|$@D.
	0x0020 11 7c 24 50 44 0f 11 7c 24 60 44 0f 11 7c 24 20  .|$PD..|$`D..|$ 
	0x0030 44 0f 11 7c 24 30 48 8d 44 24 20 48 89 44 24 50  D..|$0H.D$ H.D$P
	0x0040 e8 00 00 00 00 89 44 24 4c c6 44 24 1f 00 48 8d  ......D$L.D$..H.
	0x0050 05 00 00 00 00 48 8d 5c 24 40 48 8d 4c 24 1f 90  .....H.\$@H.L$..
	0x0060 e8 00 00 00 00 0f b6 08 83 c1 43 88 08 48 8d 05  ..........C..H..
	0x0070 00 00 00 00 48 8d 5c 24 40 48 8d 4c 24 1f 66 90  ....H.\$@H.L$.f.
	0x0080 e8 00 00 00 00 0f b6 08 83 c1 85 88 08 48 8d 05  .............H..
	0x0090 00 00 00 00 48 8d 5c 24 40 48 8d 4c 24 1f 66 90  ....H.\$@H.L$.f.
	0x00a0 e8 00 00 00 00 0f b6 08 8d 0c 89 8d 0c c9 88 08  ................
	0x00b0 48 8d 05 00 00 00 00 48 8d 5c 24 40 48 8d 4c 24  H......H.\$@H.L$
	0x00c0 1f e8 00 00 00 00 0f b6 08 83 c9 4e 88 08 48 8d  ...........N..H.
	0x00d0 05 00 00 00 00 48 8d 5c 24 40 48 8d 4c 24 1f 90  .....H.\$@H.L$..
	0x00e0 e8 00 00 00 00 0f b6 08 83 f1 59 88 08 48 8d 05  ..........Y..H..
	0x00f0 00 00 00 00 48 8d 5c 24 40 48 8d 4c 24 1f 66 90  ....H.\$@H.L$.f.
	0x0100 e8 00 00 00 00 c6 00 00 48 8d 05 00 00 00 00 48  ........H......H
	0x0110 8d 5c 24 40 48 8d 4c 24 1f e8 00 00 00 00 0f b6  .\$@H.L$........
	0x0120 08 c0 f9 07 88 08 48 8d 05 00 00 00 00 48 8d 5c  ......H......H.\
	0x0130 24 40 48 8d 4c 24 1f e8 00 00 00 00 0f b6 08 ff  $@H.L$..........
	0x0140 c1 88 08 48 8d 05 00 00 00 00 48 8d 5c 24 40 48  ...H......H.\$@H
	0x0150 8d 4c 24 1f e8 00 00 00 00 0f b6 08 ff c9 88 08  .L$.............
	0x0160 48 8b 6c 24 70 48 83 c4 78 c3 e8 00 00 00 00 e9  H.l$pH..x.......
	0x0170 8c fe ff ff                                      ....
	rel 65+4 t=7 runtime.fastrand<1>+0
	rel 81+4 t=14 type:map[int8]int8<0>+0
	rel 97+4 t=7 runtime.mapassign<1>+0
	rel 112+4 t=14 type:map[int8]int8<0>+0
	rel 129+4 t=7 runtime.mapassign<1>+0
	rel 144+4 t=14 type:map[int8]int8<0>+0
	rel 161+4 t=7 runtime.mapassign<1>+0
	rel 179+4 t=14 type:map[int8]int8<0>+0
	rel 194+4 t=7 runtime.mapassign<1>+0
	rel 209+4 t=14 type:map[int8]int8<0>+0
	rel 225+4 t=7 runtime.mapassign<1>+0
	rel 240+4 t=14 type:map[int8]int8<0>+0
	rel 257+4 t=7 runtime.mapassign<1>+0
	rel 267+4 t=14 type:map[int8]int8<0>+0
	rel 282+4 t=7 runtime.mapassign<1>+0
	rel 297+4 t=14 type:map[int8]int8<0>+0
	rel 312+4 t=7 runtime.mapassign<1>+0
	rel 326+4 t=14 type:map[int8]int8<0>+0
	rel 341+4 t=7 runtime.mapassign<1>+0
	rel 363+4 t=7 runtime.morestack_noctxt<0>+0
command-line-arguments.mapCompoundAssignmentInt32<1> STEXT size=346 args=0x0 locals=0xa0 funcid=0x0 align=0x0
	0x0000 00000 (/bigdata/qiuhan/codet5/usage/goroot/test/codegen/mapaccess.go:71)	TEXT	command-line-arguments.mapCompoundAssignmentInt32(SB), ABIInternal, $160-0
	0x0000 00000 (/bigdata/qiuhan/codet5/usage/goroot/test/codegen/mapaccess.go:71)	LEAQ	-32(SP), R12
	0x0005 00005 (/bigdata/qiuhan/codet5/usage/goroot/test/codegen/mapaccess.go:71)	CMPQ	R12, 16(R14)
	0x0009 00009 (/bigdata/qiuhan/codet5/usage/goroot/test/codegen/mapaccess.go:71)	PCDATA	$0, $-2
	0x0009 00009 (/bigdata/qiuhan/codet5/usage/goroot/test/codegen/mapaccess.go:71)	JLS	336
	0x000f 00015 (/bigdata/qiuhan/codet5/usage/goroot/test/codegen/mapaccess.go:71)	PCDATA	$0, $-1
	0x000f 00015 (/bigdata/qiuhan/codet5/usage/goroot/test/codegen/mapaccess.go:71)	SUBQ	$160, SP
	0x0016 00022 (/bigdata/qiuhan/codet5/usage/goroot/test/codegen/mapaccess.go:71)	MOVQ	BP, 152(SP)
	0x001e 00030 (/bigdata/qiuhan/codet5/usage/goroot/test/codegen/mapaccess.go:71)	LEAQ	152(SP), BP
	0x0026 00038 (/bigdata/qiuhan/codet5/usage/goroot/test/codegen/mapaccess.go:71)	FUNCDATA	$0, gclocals·J5F+7Qw7O7ve2QcWC7DpeQ==(SB)
	0x0026 00038 (/bigdata/qiuhan/codet5/usage/goroot/test/codegen/mapaccess.go:71)	FUNCDATA	$1, gclocals·Gi+ewyUrOze142o4ULSYMg==(SB)
	0x0026 00038 (/bigdata/qiuhan/codet5/usage/goroot/test/codegen/mapaccess.go:71)	FUNCDATA	$2, command-line-arguments.mapCompoundAssignmentInt32.stkobj(SB)
	0x0026 00038 (/bigdata/qiuhan/codet5/usage/goroot/test/codegen/mapaccess.go:72)	MOVUPS	X15, command-line-arguments..autotmp_2+104(SP)
	0x002c 00044 (/bigdata/qiuhan/codet5/usage/goroot/test/codegen/mapaccess.go:72)	MOVUPS	X15, command-line-arguments..autotmp_2+120(SP)
	0x0032 00050 (/bigdata/qiuhan/codet5/usage/goroot/test/codegen/mapaccess.go:72)	MOVUPS	X15, command-line-arguments..autotmp_2+136(SP)
	0x003b 00059 (/bigdata/qiuhan/codet5/usage/goroot/test/codegen/mapaccess.go:72)	LEAQ	command-line-arguments..autotmp_3+24(SP), DI
	0x0040 00064 (/bigdata/qiuhan/codet5/usage/goroot/test/codegen/mapaccess.go:72)	PCDATA	$0, $-2
	0x0040 00064 (/bigdata/qiuhan/codet5/usage/goroot/test/codegen/mapaccess.go:72)	LEAQ	-48(DI), DI
	0x0044 00068 (/bigdata/qiuhan/codet5/usage/goroot/test/codegen/mapaccess.go:72)	DUFFZERO	$336
	0x0057 00087 (/bigdata/qiuhan/codet5/usage/goroot/test/codegen/mapaccess.go:72)	PCDATA	$0, $-1
	0x0057 00087 (/bigdata/qiuhan/codet5/usage/goroot/test/codegen/mapaccess.go:72)	LEAQ	command-line-arguments..autotmp_3+24(SP), AX
	0x005c 00092 (/bigdata/qiuhan/codet5/usage/goroot/test/codegen/mapaccess.go:72)	MOVQ	AX, command-line-arguments..autotmp_2+120(SP)
	0x0061 00097 (/bigdata/qiuhan/codet5/usage/goroot/test/codegen/mapaccess.go:72)	PCDATA	$1, $1
	0x0061 00097 (/bigdata/qiuhan/codet5/usage/goroot/test/codegen/mapaccess.go:72)	CALL	runtime.fastrand(SB)
	0x0066 00102 (/bigdata/qiuhan/codet5/usage/goroot/test/codegen/mapaccess.go:72)	MOVL	AX, command-line-arguments..autotmp_2+116(SP)
	0x006a 00106 (/bigdata/qiuhan/codet5/usage/goroot/test/codegen/mapaccess.go:79)	LEAQ	type:map[int32]int32(SB), AX
	0x0071 00113 (/bigdata/qiuhan/codet5/usage/goroot/test/codegen/mapaccess.go:79)	LEAQ	command-line-arguments..autotmp_2+104(SP), BX
	0x0076 00118 (/bigdata/qiuhan/codet5/usage/goroot/test/codegen/mapaccess.go:79)	XORL	CX, CX
	0x0078 00120 (/bigdata/qiuhan/codet5/usage/goroot/test/codegen/mapaccess.go:79)	CALL	runtime.mapassign_fast32(SB)
	0x007d 00125 (/bigdata/qiuhan/codet5/usage/goroot/test/codegen/mapaccess.go:79)	ADDL	$67890, (AX)
	0x0083 00131 (/bigdata/qiuhan/codet5/usage/goroot/test/codegen/mapaccess.go:85)	LEAQ	type:map[int32]int32(SB), AX
	0x008a 00138 (/bigdata/qiuhan/codet5/usage/goroot/test/codegen/mapaccess.go:85)	LEAQ	command-line-arguments..autotmp_2+104(SP), BX
	0x008f 00143 (/bigdata/qiuhan/codet5/usage/goroot/test/codegen/mapaccess.go:85)	XORL	CX, CX
	0x0091 00145 (/bigdata/qiuhan/codet5/usage/goroot/test/codegen/mapaccess.go:85)	CALL	runtime.mapassign_fast32(SB)
	0x0096 00150 (/bigdata/qiuhan/codet5/usage/goroot/test/codegen/mapaccess.go:85)	ADDL	$-123, (AX)
	0x0099 00153 (/bigdata/qiuhan/codet5/usage/goroot/test/codegen/mapaccess.go:91)	LEAQ	type:map[int32]int32(SB), AX
	0x00a0 00160 (/bigdata/qiuhan/codet5/usage/goroot/test/codegen/mapaccess.go:91)	LEAQ	command-line-arguments..autotmp_2+104(SP), BX
	0x00a5 00165 (/bigdata/qiuhan/codet5/usage/goroot/test/codegen/mapaccess.go:91)	XORL	CX, CX
	0x00a7 00167 (/bigdata/qiuhan/codet5/usage/goroot/test/codegen/mapaccess.go:91)	CALL	runtime.mapassign_fast32(SB)
	0x00ac 00172 (/bigdata/qiuhan/codet5/usage/goroot/test/codegen/mapaccess.go:91)	MOVL	(AX), CX
	0x00ae 00174 (/bigdata/qiuhan/codet5/usage/goroot/test/codegen/mapaccess.go:91)	IMUL3L	$456, CX, CX
	0x00b4 00180 (/bigdata/qiuhan/codet5/usage/goroot/test/codegen/mapaccess.go:91)	MOVL	CX, (AX)
	0x00b6 00182 (/bigdata/qiuhan/codet5/usage/goroot/test/codegen/mapaccess.go:97)	LEAQ	type:map[int32]int32(SB), AX
	0x00bd 00189 (/bigdata/qiuhan/codet5/usage/goroot/test/codegen/mapaccess.go:97)	LEAQ	command-line-arguments..autotmp_2+104(SP), BX
	0x00c2 00194 (/bigdata/qiuhan/codet5/usage/goroot/test/codegen/mapaccess.go:97)	XORL	CX, CX
	0x00c4 00196 (/bigdata/qiuhan/codet5/usage/goroot/test/codegen/mapaccess.go:97)	CALL	runtime.mapassign_fast32(SB)
	0x00c9 00201 (/bigdata/qiuhan/codet5/usage/goroot/test/codegen/mapaccess.go:97)	ORL	$78, (AX)
	0x00cc 00204 (/bigdata/qiuhan/codet5/usage/goroot/test/codegen/mapaccess.go:103)	LEAQ	type:map[int32]int32(SB), AX
	0x00d3 00211 (/bigdata/qiuhan/codet5/usage/goroot/test/codegen/mapaccess.go:103)	LEAQ	command-line-arguments..autotmp_2+104(SP), BX
	0x00d8 00216 (/bigdata/qiuhan/codet5/usage/goroot/test/codegen/mapaccess.go:103)	XORL	CX, CX
	0x00da 00218 (/bigdata/qiuhan/codet5/usage/goroot/test/codegen/mapaccess.go:103)	CALL	runtime.mapassign_fast32(SB)
	0x00df 00223 (/bigdata/qiuhan/codet5/usage/goroot/test/codegen/mapaccess.go:103)	XORL	$89, (AX)
	0x00e2 00226 (/bigdata/qiuhan/codet5/usage/goroot/test/codegen/mapaccess.go:109)	LEAQ	type:map[int32]int32(SB), AX
	0x00e9 00233 (/bigdata/qiuhan/codet5/usage/goroot/test/codegen/mapaccess.go:109)	LEAQ	command-line-arguments..autotmp_2+104(SP), BX
	0x00ee 00238 (/bigdata/qiuhan/codet5/usage/goroot/test/codegen/mapaccess.go:109)	XORL	CX, CX
	0x00f0 00240 (/bigdata/qiuhan/codet5/usage/goroot/test/codegen/mapaccess.go:109)	CALL	runtime.mapassign_fast32(SB)
	0x00f5 00245 (/bigdata/qiuhan/codet5/usage/goroot/test/codegen/mapaccess.go:109)	MOVL	(AX), CX
	0x00f7 00247 (/bigdata/qiuhan/codet5/usage/goroot/test/codegen/mapaccess.go:109)	SHLL	$9, CX
	0x00fa 00250 (/bigdata/qiuhan/codet5/usage/goroot/test/codegen/mapaccess.go:109)	MOVL	CX, (AX)
	0x00fc 00252 (/bigdata/qiuhan/codet5/usage/goroot/test/codegen/mapaccess.go:115)	LEAQ	type:map[int32]int32(SB), AX
	0x0103 00259 (/bigdata/qiuhan/codet5/usage/goroot/test/codegen/mapaccess.go:115)	LEAQ	command-line-arguments..autotmp_2+104(SP), BX
	0x0108 00264 (/bigdata/qiuhan/codet5/usage/goroot/test/codegen/mapaccess.go:115)	XORL	CX, CX
	0x010a 00266 (/bigdata/qiuhan/codet5/usage/goroot/test/codegen/mapaccess.go:115)	CALL	runtime.mapassign_fast32(SB)
	0x010f 00271 (/bigdata/qiuhan/codet5/usage/goroot/test/codegen/mapaccess.go:115)	MOVL	(AX), CX
	0x0111 00273 (/bigdata/qiuhan/codet5/usage/goroot/test/codegen/mapaccess.go:115)	SARL	$10, CX
	0x0114 00276 (/bigdata/qiuhan/codet5/usage/goroot/test/codegen/mapaccess.go:115)	MOVL	CX, (AX)
	0x0116 00278 (/bigdata/qiuhan/codet5/usage/goroot/test/codegen/mapaccess.go:121)	LEAQ	type:map[int32]int32(SB), AX
	0x011d 00285 (/bigdata/qiuhan/codet5/usage/goroot/test/codegen/mapaccess.go:121)	LEAQ	command-line-arguments..autotmp_2+104(SP), BX
	0x0122 00290 (/bigdata/qiuhan/codet5/usage/goroot/test/codegen/mapaccess.go:121)	XORL	CX, CX
	0x0124 00292 (/bigdata/qiuhan/codet5/usage/goroot/test/codegen/mapaccess.go:121)	CALL	runtime.mapassign_fast32(SB)
	0x0129 00297 (/bigdata/qiuhan/codet5/usage/goroot/test/codegen/mapaccess.go:121)	INCL	(AX)
	0x012b 00299 (/bigdata/qiuhan/codet5/usage/goroot/test/codegen/mapaccess.go:127)	LEAQ	type:map[int32]int32(SB), AX
	0x0132 00306 (/bigdata/qiuhan/codet5/usage/goroot/test/codegen/mapaccess.go:127)	LEAQ	command-line-arguments..autotmp_2+104(SP), BX
	0x0137 00311 (/bigdata/qiuhan/codet5/usage/goroot/test/codegen/mapaccess.go:127)	XORL	CX, CX
	0x0139 00313 (/bigdata/qiuhan/codet5/usage/goroot/test/codegen/mapaccess.go:127)	PCDATA	$1, $0
	0x0139 00313 (/bigdata/qiuhan/codet5/usage/goroot/test/codegen/mapaccess.go:127)	CALL	runtime.mapassign_fast32(SB)
	0x013e 00318 (/bigdata/qiuhan/codet5/usage/goroot/test/codegen/mapaccess.go:127)	DECL	(AX)
	0x0140 00320 (/bigdata/qiuhan/codet5/usage/goroot/test/codegen/mapaccess.go:128)	MOVQ	152(SP), BP
	0x0148 00328 (/bigdata/qiuhan/codet5/usage/goroot/test/codegen/mapaccess.go:128)	ADDQ	$160, SP
	0x014f 00335 (/bigdata/qiuhan/codet5/usage/goroot/test/codegen/mapaccess.go:128)	RET
	0x0150 00336 (/bigdata/qiuhan/codet5/usage/goroot/test/codegen/mapaccess.go:128)	NOP
	0x0150 00336 (/bigdata/qiuhan/codet5/usage/goroot/test/codegen/mapaccess.go:71)	PCDATA	$1, $-1
	0x0150 00336 (/bigdata/qiuhan/codet5/usage/goroot/test/codegen/mapaccess.go:71)	PCDATA	$0, $-2
	0x0150 00336 (/bigdata/qiuhan/codet5/usage/goroot/test/codegen/mapaccess.go:71)	CALL	runtime.morestack_noctxt(SB)
	0x0155 00341 (/bigdata/qiuhan/codet5/usage/goroot/test/codegen/mapaccess.go:71)	PCDATA	$0, $-1
	0x0155 00341 (/bigdata/qiuhan/codet5/usage/goroot/test/codegen/mapaccess.go:71)	JMP	0
	0x0000 4c 8d 64 24 e0 4d 3b 66 10 0f 86 41 01 00 00 48  L.d$.M;f...A...H
	0x0010 81 ec a0 00 00 00 48 89 ac 24 98 00 00 00 48 8d  ......H..$....H.
	0x0020 ac 24 98 00 00 00 44 0f 11 7c 24 68 44 0f 11 7c  .$....D..|$hD..|
	0x0030 24 78 44 0f 11 bc 24 88 00 00 00 48 8d 7c 24 18  $xD...$....H.|$.
	0x0040 48 8d 7f d0 48 89 6c 24 f0 48 8d 6c 24 f0 e8 00  H...H.l$.H.l$...
	0x0050 00 00 00 48 8b 6d 00 48 8d 44 24 18 48 89 44 24  ...H.m.H.D$.H.D$
	0x0060 78 e8 00 00 00 00 89 44 24 74 48 8d 05 00 00 00  x......D$tH.....
	0x0070 00 48 8d 5c 24 68 31 c9 e8 00 00 00 00 81 00 32  .H.\$h1........2
	0x0080 09 01 00 48 8d 05 00 00 00 00 48 8d 5c 24 68 31  ...H......H.\$h1
	0x0090 c9 e8 00 00 00 00 83 00 85 48 8d 05 00 00 00 00  .........H......
	0x00a0 48 8d 5c 24 68 31 c9 e8 00 00 00 00 8b 08 69 c9  H.\$h1........i.
	0x00b0 c8 01 00 00 89 08 48 8d 05 00 00 00 00 48 8d 5c  ......H......H.\
	0x00c0 24 68 31 c9 e8 00 00 00 00 83 08 4e 48 8d 05 00  $h1........NH...
	0x00d0 00 00 00 48 8d 5c 24 68 31 c9 e8 00 00 00 00 83  ...H.\$h1.......
	0x00e0 30 59 48 8d 05 00 00 00 00 48 8d 5c 24 68 31 c9  0YH......H.\$h1.
	0x00f0 e8 00 00 00 00 8b 08 c1 e1 09 89 08 48 8d 05 00  ............H...
	0x0100 00 00 00 48 8d 5c 24 68 31 c9 e8 00 00 00 00 8b  ...H.\$h1.......
	0x0110 08 c1 f9 0a 89 08 48 8d 05 00 00 00 00 48 8d 5c  ......H......H.\
	0x0120 24 68 31 c9 e8 00 00 00 00 ff 00 48 8d 05 00 00  $h1........H....
	0x0130 00 00 48 8d 5c 24 68 31 c9 e8 00 00 00 00 ff 08  ..H.\$h1........
	0x0140 48 8b ac 24 98 00 00 00 48 81 c4 a0 00 00 00 c3  H..$....H.......
	0x0150 e8 00 00 00 00 e9 a6 fe ff ff                    ..........
	rel 79+4 t=7 runtime.duffzero<1>+336
	rel 98+4 t=7 runtime.fastrand<1>+0
	rel 109+4 t=14 type:map[int32]int32<0>+0
	rel 121+4 t=7 runtime.mapassign_fast32<1>+0
	rel 134+4 t=14 type:map[int32]int32<0>+0
	rel 146+4 t=7 runtime.mapassign_fast32<1>+0
	rel 156+4 t=14 type:map[int32]int32<0>+0
	rel 168+4 t=7 runtime.mapassign_fast32<1>+0
	rel 185+4 t=14 type:map[int32]int32<0>+0
	rel 197+4 t=7 runtime.mapassign_fast32<1>+0
	rel 207+4 t=14 type:map[int32]int32<0>+0
	rel 219+4 t=7 runtime.mapassign_fast32<1>+0
	rel 229+4 t=14 type:map[int32]int32<0>+0
	rel 241+4 t=7 runtime.mapassign_fast32<1>+0
	rel 255+4 t=14 type:map[int32]int32<0>+0
	rel 267+4 t=7 runtime.mapassign_fast32<1>+0
	rel 281+4 t=14 type:map[int32]int32<0>+0
	rel 293+4 t=7 runtime.mapassign_fast32<1>+0
	rel 302+4 t=14 type:map[int32]int32<0>+0
	rel 314+4 t=7 runtime.mapassign_fast32<1>+0
	rel 337+4 t=7 runtime.morestack_noctxt<0>+0
command-line-arguments.mapCompoundAssignmentInt64<1> STEXT size=405 args=0x0 locals=0xe0 funcid=0x0 align=0x0
	0x0000 00000 (/bigdata/qiuhan/codet5/usage/goroot/test/codegen/mapaccess.go:130)	TEXT	command-line-arguments.mapCompoundAssignmentInt64(SB), ABIInternal, $224-0
	0x0000 00000 (/bigdata/qiuhan/codet5/usage/goroot/test/codegen/mapaccess.go:130)	LEAQ	-96(SP), R12
	0x0005 00005 (/bigdata/qiuhan/codet5/usage/goroot/test/codegen/mapaccess.go:130)	CMPQ	R12, 16(R14)
	0x0009 00009 (/bigdata/qiuhan/codet5/usage/goroot/test/codegen/mapaccess.go:130)	PCDATA	$0, $-2
	0x0009 00009 (/bigdata/qiuhan/codet5/usage/goroot/test/codegen/mapaccess.go:130)	JLS	395
	0x000f 00015 (/bigdata/qiuhan/codet5/usage/goroot/test/codegen/mapaccess.go:130)	PCDATA	$0, $-1
	0x000f 00015 (/bigdata/qiuhan/codet5/usage/goroot/test/codegen/mapaccess.go:130)	SUBQ	$224, SP
	0x0016 00022 (/bigdata/qiuhan/codet5/usage/goroot/test/codegen/mapaccess.go:130)	MOVQ	BP, 216(SP)
	0x001e 00030 (/bigdata/qiuhan/codet5/usage/goroot/test/codegen/mapaccess.go:130)	LEAQ	216(SP), BP
	0x0026 00038 (/bigdata/qiuhan/codet5/usage/goroot/test/codegen/mapaccess.go:130)	FUNCDATA	$0, gclocals·J5F+7Qw7O7ve2QcWC7DpeQ==(SB)
	0x0026 00038 (/bigdata/qiuhan/codet5/usage/goroot/test/codegen/mapaccess.go:130)	FUNCDATA	$1, gclocals·Gi+ewyUrOze142o4ULSYMg==(SB)
	0x0026 00038 (/bigdata/qiuhan/codet5/usage/goroot/test/codegen/mapaccess.go:130)	FUNCDATA	$2, command-line-arguments.mapCompoundAssignmentInt64.stkobj(SB)
	0x0026 00038 (/bigdata/qiuhan/codet5/usage/goroot/test/codegen/mapaccess.go:131)	MOVUPS	X15, command-line-arguments..autotmp_2+168(SP)
	0x002f 00047 (/bigdata/qiuhan/codet5/usage/goroot/test/codegen/mapaccess.go:131)	MOVUPS	X15, command-line-arguments..autotmp_2+184(SP)
	0x0038 00056 (/bigdata/qiuhan/codet5/usage/goroot/test/codegen/mapaccess.go:131)	MOVUPS	X15, command-line-arguments..autotmp_2+200(SP)
	0x0041 00065 (/bigdata/qiuhan/codet5/usage/goroot/test/codegen/mapaccess.go:131)	LEAQ	command-line-arguments..autotmp_3+24(SP), DI
	0x0046 00070 (/bigdata/qiuhan/codet5/usage/goroot/test/codegen/mapaccess.go:131)	PCDATA	$0, $-2
	0x0046 00070 (/bigdata/qiuhan/codet5/usage/goroot/test/codegen/mapaccess.go:131)	LEAQ	-48(DI), DI
	0x004a 00074 (/bigdata/qiuhan/codet5/usage/goroot/test/codegen/mapaccess.go:131)	DUFFZERO	$313
	0x005d 00093 (/bigdata/qiuhan/codet5/usage/goroot/test/codegen/mapaccess.go:131)	PCDATA	$0, $-1
	0x005d 00093 (/bigdata/qiuhan/codet5/usage/goroot/test/codegen/mapaccess.go:131)	LEAQ	command-line-arguments..autotmp_3+24(SP), AX
	0x0062 00098 (/bigdata/qiuhan/codet5/usage/goroot/test/codegen/mapaccess.go:131)	MOVQ	AX, command-line-arguments..autotmp_2+184(SP)
	0x006a 00106 (/bigdata/qiuhan/codet5/usage/goroot/test/codegen/mapaccess.go:131)	PCDATA	$1, $1
	0x006a 00106 (/bigdata/qiuhan/codet5/usage/goroot/test/codegen/mapaccess.go:131)	CALL	runtime.fastrand(SB)
	0x006f 00111 (/bigdata/qiuhan/codet5/usage/goroot/test/codegen/mapaccess.go:131)	MOVL	AX, command-line-arguments..autotmp_2+180(SP)
	0x0076 00118 (/bigdata/qiuhan/codet5/usage/goroot/test/codegen/mapaccess.go:138)	LEAQ	type:map[int64]int64(SB), AX
	0x007d 00125 (/bigdata/qiuhan/codet5/usage/goroot/test/codegen/mapaccess.go:138)	LEAQ	command-line-arguments..autotmp_2+168(SP), BX
	0x0085 00133 (/bigdata/qiuhan/codet5/usage/goroot/test/codegen/mapaccess.go:138)	XORL	CX, CX
	0x0087 00135 (/bigdata/qiuhan/codet5/usage/goroot/test/codegen/mapaccess.go:138)	CALL	runtime.mapassign_fast64(SB)
	0x008c 00140 (/bigdata/qiuhan/codet5/usage/goroot/test/codegen/mapaccess.go:138)	ADDQ	$67890, (AX)
	0x0093 00147 (/bigdata/qiuhan/codet5/usage/goroot/test/codegen/mapaccess.go:144)	LEAQ	type:map[int64]int64(SB), AX
	0x009a 00154 (/bigdata/qiuhan/codet5/usage/goroot/test/codegen/mapaccess.go:144)	LEAQ	command-line-arguments..autotmp_2+168(SP), BX
	0x00a2 00162 (/bigdata/qiuhan/codet5/usage/goroot/test/codegen/mapaccess.go:144)	XORL	CX, CX
	0x00a4 00164 (/bigdata/qiuhan/codet5/usage/goroot/test/codegen/mapaccess.go:144)	CALL	runtime.mapassign_fast64(SB)
	0x00a9 00169 (/bigdata/qiuhan/codet5/usage/goroot/test/codegen/mapaccess.go:144)	ADDQ	$-123, (AX)
	0x00ad 00173 (/bigdata/qiuhan/codet5/usage/goroot/test/codegen/mapaccess.go:150)	LEAQ	type:map[int64]int64(SB), AX
	0x00b4 00180 (/bigdata/qiuhan/codet5/usage/goroot/test/codegen/mapaccess.go:150)	LEAQ	command-line-arguments..autotmp_2+168(SP), BX
	0x00bc 00188 (/bigdata/qiuhan/codet5/usage/goroot/test/codegen/mapaccess.go:150)	XORL	CX, CX
	0x00be 00190 (/bigdata/qiuhan/codet5/usage/goroot/test/codegen/mapaccess.go:150)	NOP
	0x00c0 00192 (/bigdata/qiuhan/codet5/usage/goroot/test/codegen/mapaccess.go:150)	CALL	runtime.mapassign_fast64(SB)
	0x00c5 00197 (/bigdata/qiuhan/codet5/usage/goroot/test/codegen/mapaccess.go:150)	MOVQ	(AX), CX
	0x00c8 00200 (/bigdata/qiuhan/codet5/usage/goroot/test/codegen/mapaccess.go:150)	IMUL3Q	$456, CX, CX
	0x00cf 00207 (/bigdata/qiuhan/codet5/usage/goroot/test/codegen/mapaccess.go:150)	MOVQ	CX, (AX)
	0x00d2 00210 (/bigdata/qiuhan/codet5/usage/goroot/test/codegen/mapaccess.go:156)	LEAQ	type:map[int64]int64(SB), AX
	0x00d9 00217 (/bigdata/qiuhan/codet5/usage/goroot/test/codegen/mapaccess.go:156)	LEAQ	command-line-arguments..autotmp_2+168(SP), BX
	0x00e1 00225 (/bigdata/qiuhan/codet5/usage/goroot/test/codegen/mapaccess.go:156)	XORL	CX, CX
	0x00e3 00227 (/bigdata/qiuhan/codet5/usage/goroot/test/codegen/mapaccess.go:156)	CALL	runtime.mapassign_fast64(SB)
	0x00e8 00232 (/bigdata/qiuhan/codet5/usage/goroot/test/codegen/mapaccess.go:156)	ORQ	$78, (AX)
	0x00ec 00236 (/bigdata/qiuhan/codet5/usage/goroot/test/codegen/mapaccess.go:162)	LEAQ	type:map[int64]int64(SB), AX
	0x00f3 00243 (/bigdata/qiuhan/codet5/usage/goroot/test/codegen/mapaccess.go:162)	LEAQ	command-line-arguments..autotmp_2+168(SP), BX
	0x00fb 00251 (/bigdata/qiuhan/codet5/usage/goroot/test/codegen/mapaccess.go:162)	XORL	CX, CX
	0x00fd 00253 (/bigdata/qiuhan/codet5/usage/goroot/test/codegen/mapaccess.go:162)	NOP
	0x0100 00256 (/bigdata/qiuhan/codet5/usage/goroot/test/codegen/mapaccess.go:162)	CALL	runtime.mapassign_fast64(SB)
	0x0105 00261 (/bigdata/qiuhan/codet5/usage/goroot/test/codegen/mapaccess.go:162)	XORQ	$89, (AX)
	0x0109 00265 (/bigdata/qiuhan/codet5/usage/goroot/test/codegen/mapaccess.go:168)	LEAQ	type:map[int64]int64(SB), AX
	0x0110 00272 (/bigdata/qiuhan/codet5/usage/goroot/test/codegen/mapaccess.go:168)	LEAQ	command-line-arguments..autotmp_2+168(SP), BX
	0x0118 00280 (/bigdata/qiuhan/codet5/usage/goroot/test/codegen/mapaccess.go:168)	XORL	CX, CX
	0x011a 00282 (/bigdata/qiuhan/codet5/usage/goroot/test/codegen/mapaccess.go:168)	CALL	runtime.mapassign_fast64(SB)
	0x011f 00287 (/bigdata/qiuhan/codet5/usage/goroot/test/codegen/mapaccess.go:168)	MOVQ	(AX), CX
	0x0122 00290 (/bigdata/qiuhan/codet5/usage/goroot/test/codegen/mapaccess.go:168)	SHLQ	$9, CX
	0x0126 00294 (/bigdata/qiuhan/codet5/usage/goroot/test/codegen/mapaccess.go:168)	MOVQ	CX, (AX)
	0x0129 00297 (/bigdata/qiuhan/codet5/usage/goroot/test/codegen/mapaccess.go:174)	LEAQ	type:map[int64]int64(SB), AX
	0x0130 00304 (/bigdata/qiuhan/codet5/usage/goroot/test/codegen/mapaccess.go:174)	LEAQ	command-line-arguments..autotmp_2+168(SP), BX
	0x0138 00312 (/bigdata/qiuhan/codet5/usage/goroot/test/codegen/mapaccess.go:174)	XORL	CX, CX
	0x013a 00314 (/bigdata/qiuhan/codet5/usage/goroot/test/codegen/mapaccess.go:174)	CALL	runtime.mapassign_fast64(SB)
	0x013f 00319 (/bigdata/qiuhan/codet5/usage/goroot/test/codegen/mapaccess.go:174)	MOVQ	(AX), CX
	0x0142 00322 (/bigdata/qiuhan/codet5/usage/goroot/test/codegen/mapaccess.go:174)	SARQ	$10, CX
	0x0146 00326 (/bigdata/qiuhan/codet5/usage/goroot/test/codegen/mapaccess.go:174)	MOVQ	CX, (AX)
	0x0149 00329 (/bigdata/qiuhan/codet5/usage/goroot/test/codegen/mapaccess.go:180)	LEAQ	type:map[int64]int64(SB), AX
	0x0150 00336 (/bigdata/qiuhan/codet5/usage/goroot/test/codegen/mapaccess.go:180)	LEAQ	command-line-arguments..autotmp_2+168(SP), BX
	0x0158 00344 (/bigdata/qiuhan/codet5/usage/goroot/test/codegen/mapaccess.go:180)	XORL	CX, CX
	0x015a 00346 (/bigdata/qiuhan/codet5/usage/goroot/test/codegen/mapaccess.go:180)	CALL	runtime.mapassign_fast64(SB)
	0x015f 00351 (/bigdata/qiuhan/codet5/usage/goroot/test/codegen/mapaccess.go:180)	INCQ	(AX)
	0x0162 00354 (/bigdata/qiuhan/codet5/usage/goroot/test/codegen/mapaccess.go:186)	LEAQ	type:map[int64]int64(SB), AX
	0x0169 00361 (/bigdata/qiuhan/codet5/usage/goroot/test/codegen/mapaccess.go:186)	LEAQ	command-line-arguments..autotmp_2+168(SP), BX
	0x0171 00369 (/bigdata/qiuhan/codet5/usage/goroot/test/codegen/mapaccess.go:186)	XORL	CX, CX
	0x0173 00371 (/bigdata/qiuhan/codet5/usage/goroot/test/codegen/mapaccess.go:186)	PCDATA	$1, $0
	0x0173 00371 (/bigdata/qiuhan/codet5/usage/goroot/test/codegen/mapaccess.go:186)	CALL	runtime.mapassign_fast64(SB)
	0x0178 00376 (/bigdata/qiuhan/codet5/usage/goroot/test/codegen/mapaccess.go:186)	DECQ	(AX)
	0x017b 00379 (/bigdata/qiuhan/codet5/usage/goroot/test/codegen/mapaccess.go:187)	MOVQ	216(SP), BP
	0x0183 00387 (/bigdata/qiuhan/codet5/usage/goroot/test/codegen/mapaccess.go:187)	ADDQ	$224, SP
	0x018a 00394 (/bigdata/qiuhan/codet5/usage/goroot/test/codegen/mapaccess.go:187)	RET
	0x018b 00395 (/bigdata/qiuhan/codet5/usage/goroot/test/codegen/mapaccess.go:187)	NOP
	0x018b 00395 (/bigdata/qiuhan/codet5/usage/goroot/test/codegen/mapaccess.go:130)	PCDATA	$1, $-1
	0x018b 00395 (/bigdata/qiuhan/codet5/usage/goroot/test/codegen/mapaccess.go:130)	PCDATA	$0, $-2
	0x018b 00395 (/bigdata/qiuhan/codet5/usage/goroot/test/codegen/mapaccess.go:130)	CALL	runtime.morestack_noctxt(SB)
	0x0190 00400 (/bigdata/qiuhan/codet5/usage/goroot/test/codegen/mapaccess.go:130)	PCDATA	$0, $-1
	0x0190 00400 (/bigdata/qiuhan/codet5/usage/goroot/test/codegen/mapaccess.go:130)	JMP	0
	0x0000 4c 8d 64 24 a0 4d 3b 66 10 0f 86 7c 01 00 00 48  L.d$.M;f...|...H
	0x0010 81 ec e0 00 00 00 48 89 ac 24 d8 00 00 00 48 8d  ......H..$....H.
	0x0020 ac 24 d8 00 00 00 44 0f 11 bc 24 a8 00 00 00 44  .$....D...$....D
	0x0030 0f 11 bc 24 b8 00 00 00 44 0f 11 bc 24 c8 00 00  ...$....D...$...
	0x0040 00 48 8d 7c 24 18 48 8d 7f d0 48 89 6c 24 f0 48  .H.|$.H...H.l$.H
	0x0050 8d 6c 24 f0 e8 00 00 00 00 48 8b 6d 00 48 8d 44  .l$......H.m.H.D
	0x0060 24 18 48 89 84 24 b8 00 00 00 e8 00 00 00 00 89  $.H..$..........
	0x0070 84 24 b4 00 00 00 48 8d 05 00 00 00 00 48 8d 9c  .$....H......H..
	0x0080 24 a8 00 00 00 31 c9 e8 00 00 00 00 48 81 00 32  $....1......H..2
	0x0090 09 01 00 48 8d 05 00 00 00 00 48 8d 9c 24 a8 00  ...H......H..$..
	0x00a0 00 00 31 c9 e8 00 00 00 00 48 83 00 85 48 8d 05  ..1......H...H..
	0x00b0 00 00 00 00 48 8d 9c 24 a8 00 00 00 31 c9 66 90  ....H..$....1.f.
	0x00c0 e8 00 00 00 00 48 8b 08 48 69 c9 c8 01 00 00 48  .....H..Hi.....H
	0x00d0 89 08 48 8d 05 00 00 00 00 48 8d 9c 24 a8 00 00  ..H......H..$...
	0x00e0 00 31 c9 e8 00 00 00 00 48 83 08 4e 48 8d 05 00  .1......H..NH...
	0x00f0 00 00 00 48 8d 9c 24 a8 00 00 00 31 c9 0f 1f 00  ...H..$....1....
	0x0100 e8 00 00 00 00 48 83 30 59 48 8d 05 00 00 00 00  .....H.0YH......
	0x0110 48 8d 9c 24 a8 00 00 00 31 c9 e8 00 00 00 00 48  H..$....1......H
	0x0120 8b 08 48 c1 e1 09 48 89 08 48 8d 05 00 00 00 00  ..H...H..H......
	0x0130 48 8d 9c 24 a8 00 00 00 31 c9 e8 00 00 00 00 48  H..$....1......H
	0x0140 8b 08 48 c1 f9 0a 48 89 08 48 8d 05 00 00 00 00  ..H...H..H......
	0x0150 48 8d 9c 24 a8 00 00 00 31 c9 e8 00 00 00 00 48  H..$....1......H
	0x0160 ff 00 48 8d 05 00 00 00 00 48 8d 9c 24 a8 00 00  ..H......H..$...
	0x0170 00 31 c9 e8 00 00 00 00 48 ff 08 48 8b ac 24 d8  .1......H..H..$.
	0x0180 00 00 00 48 81 c4 e0 00 00 00 c3 e8 00 00 00 00  ...H............
	0x0190 e9 6b fe ff ff                                   .k...
	rel 85+4 t=7 runtime.duffzero<1>+313
	rel 107+4 t=7 runtime.fastrand<1>+0
	rel 121+4 t=14 type:map[int64]int64<0>+0
	rel 136+4 t=7 runtime.mapassign_fast64<1>+0
	rel 150+4 t=14 type:map[int64]int64<0>+0
	rel 165+4 t=7 runtime.mapassign_fast64<1>+0
	rel 176+4 t=14 type:map[int64]int64<0>+0
	rel 193+4 t=7 runtime.mapassign_fast64<1>+0
	rel 213+4 t=14 type:map[int64]int64<0>+0
	rel 228+4 t=7 runtime.mapassign_fast64<1>+0
	rel 239+4 t=14 type:map[int64]int64<0>+0
	rel 257+4 t=7 runtime.mapassign_fast64<1>+0
	rel 268+4 t=14 type:map[int64]int64<0>+0
	rel 283+4 t=7 runtime.mapassign_fast64<1>+0
	rel 300+4 t=14 type:map[int64]int64<0>+0
	rel 315+4 t=7 runtime.mapassign_fast64<1>+0
	rel 332+4 t=14 type:map[int64]int64<0>+0
	rel 347+4 t=7 runtime.mapassign_fast64<1>+0
	rel 357+4 t=14 type:map[int64]int64<0>+0
	rel 372+4 t=7 runtime.mapassign_fast64<1>+0
	rel 396+4 t=7 runtime.morestack_noctxt<0>+0
command-line-arguments.mapCompoundAssignmentComplex128<1> STEXT size=517 args=0x0 locals=0x170 funcid=0x0 align=0x0
	0x0000 00000 (/bigdata/qiuhan/codet5/usage/goroot/test/codegen/mapaccess.go:189)	TEXT	command-line-arguments.mapCompoundAssignmentComplex128(SB), ABIInternal, $368-0
	0x0000 00000 (/bigdata/qiuhan/codet5/usage/goroot/test/codegen/mapaccess.go:189)	LEAQ	-240(SP), R12
	0x0008 00008 (/bigdata/qiuhan/codet5/usage/goroot/test/codegen/mapaccess.go:189)	CMPQ	R12, 16(R14)
	0x000c 00012 (/bigdata/qiuhan/codet5/usage/goroot/test/codegen/mapaccess.go:189)	PCDATA	$0, $-2
	0x000c 00012 (/bigdata/qiuhan/codet5/usage/goroot/test/codegen/mapaccess.go:189)	JLS	506
	0x0012 00018 (/bigdata/qiuhan/codet5/usage/goroot/test/codegen/mapaccess.go:189)	PCDATA	$0, $-1
	0x0012 00018 (/bigdata/qiuhan/codet5/usage/goroot/test/codegen/mapaccess.go:189)	SUBQ	$368, SP
	0x0019 00025 (/bigdata/qiuhan/codet5/usage/goroot/test/codegen/mapaccess.go:189)	MOVQ	BP, 360(SP)
	0x0021 00033 (/bigdata/qiuhan/codet5/usage/goroot/test/codegen/mapaccess.go:189)	LEAQ	360(SP), BP
	0x0029 00041 (/bigdata/qiuhan/codet5/usage/goroot/test/codegen/mapaccess.go:189)	FUNCDATA	$0, gclocals·J5F+7Qw7O7ve2QcWC7DpeQ==(SB)
	0x0029 00041 (/bigdata/qiuhan/codet5/usage/goroot/test/codegen/mapaccess.go:189)	FUNCDATA	$1, gclocals·Gi+ewyUrOze142o4ULSYMg==(SB)
	0x0029 00041 (/bigdata/qiuhan/codet5/usage/goroot/test/codegen/mapaccess.go:189)	FUNCDATA	$2, command-line-arguments.mapCompoundAssignmentComplex128.stkobj(SB)
	0x0029 00041 (/bigdata/qiuhan/codet5/usage/goroot/test/codegen/mapaccess.go:190)	MOVUPS	X15, command-line-arguments..autotmp_2+312(SP)
	0x0032 00050 (/bigdata/qiuhan/codet5/usage/goroot/test/codegen/mapaccess.go:190)	MOVUPS	X15, command-line-arguments..autotmp_2+328(SP)
	0x003b 00059 (/bigdata/qiuhan/codet5/usage/goroot/test/codegen/mapaccess.go:190)	MOVUPS	X15, command-line-arguments..autotmp_2+344(SP)
	0x0044 00068 (/bigdata/qiuhan/codet5/usage/goroot/test/codegen/mapaccess.go:190)	LEAQ	command-line-arguments..autotmp_3+40(SP), DI
	0x0049 00073 (/bigdata/qiuhan/codet5/usage/goroot/test/codegen/mapaccess.go:190)	PCDATA	$0, $-2
	0x0049 00073 (/bigdata/qiuhan/codet5/usage/goroot/test/codegen/mapaccess.go:190)	LEAQ	-48(DI), DI
	0x004d 00077 (/bigdata/qiuhan/codet5/usage/goroot/test/codegen/mapaccess.go:190)	NOP
	0x0060 00096 (/bigdata/qiuhan/codet5/usage/goroot/test/codegen/mapaccess.go:190)	DUFFZERO	$267
	0x0073 00115 (/bigdata/qiuhan/codet5/usage/goroot/test/codegen/mapaccess.go:190)	PCDATA	$0, $-1
	0x0073 00115 (/bigdata/qiuhan/codet5/usage/goroot/test/codegen/mapaccess.go:190)	LEAQ	command-line-arguments..autotmp_3+40(SP), AX
	0x0078 00120 (/bigdata/qiuhan/codet5/usage/goroot/test/codegen/mapaccess.go:190)	MOVQ	AX, command-line-arguments..autotmp_2+328(SP)
	0x0080 00128 (/bigdata/qiuhan/codet5/usage/goroot/test/codegen/mapaccess.go:190)	PCDATA	$1, $1
	0x0080 00128 (/bigdata/qiuhan/codet5/usage/goroot/test/codegen/mapaccess.go:190)	CALL	runtime.fastrand(SB)
	0x0085 00133 (/bigdata/qiuhan/codet5/usage/goroot/test/codegen/mapaccess.go:190)	MOVL	AX, command-line-arguments..autotmp_2+324(SP)
	0x008c 00140 (/bigdata/qiuhan/codet5/usage/goroot/test/codegen/mapaccess.go:191)	XORPS	X0, X0
	0x008f 00143 (/bigdata/qiuhan/codet5/usage/goroot/test/codegen/mapaccess.go:191)	MOVSD	X0, command-line-arguments.k+24(SP)
	0x0095 00149 (/bigdata/qiuhan/codet5/usage/goroot/test/codegen/mapaccess.go:191)	MOVSD	X0, command-line-arguments.k+32(SP)
	0x009b 00155 (/bigdata/qiuhan/codet5/usage/goroot/test/codegen/mapaccess.go:197)	LEAQ	type:map[complex128]complex128(SB), AX
	0x00a2 00162 (/bigdata/qiuhan/codet5/usage/goroot/test/codegen/mapaccess.go:197)	LEAQ	command-line-arguments..autotmp_2+312(SP), BX
	0x00aa 00170 (/bigdata/qiuhan/codet5/usage/goroot/test/codegen/mapaccess.go:197)	LEAQ	command-line-arguments.k+24(SP), CX
	0x00af 00175 (/bigdata/qiuhan/codet5/usage/goroot/test/codegen/mapaccess.go:197)	CALL	runtime.mapassign(SB)
	0x00b4 00180 (/bigdata/qiuhan/codet5/usage/goroot/test/codegen/mapaccess.go:197)	MOVSD	8(AX), X0
	0x00b9 00185 (/bigdata/qiuhan/codet5/usage/goroot/test/codegen/mapaccess.go:197)	MOVSD	$f64.40f0932000000000(SB), X1
	0x00c1 00193 (/bigdata/qiuhan/codet5/usage/goroot/test/codegen/mapaccess.go:197)	ADDSD	(AX), X1
	0x00c5 00197 (/bigdata/qiuhan/codet5/usage/goroot/test/codegen/mapaccess.go:197)	MOVSD	X1, (AX)
	0x00c9 00201 (/bigdata/qiuhan/codet5/usage/goroot/test/codegen/mapaccess.go:197)	XORPS	X1, X1
	0x00cc 00204 (/bigdata/qiuhan/codet5/usage/goroot/test/codegen/mapaccess.go:197)	ADDSD	X1, X0
	0x00d0 00208 (/bigdata/qiuhan/codet5/usage/goroot/test/codegen/mapaccess.go:197)	MOVSD	X0, 8(AX)
	0x00d5 00213 (/bigdata/qiuhan/codet5/usage/goroot/test/codegen/mapaccess.go:203)	LEAQ	type:map[complex128]complex128(SB), AX
	0x00dc 00220 (/bigdata/qiuhan/codet5/usage/goroot/test/codegen/mapaccess.go:203)	LEAQ	command-line-arguments..autotmp_2+312(SP), BX
	0x00e4 00228 (/bigdata/qiuhan/codet5/usage/goroot/test/codegen/mapaccess.go:203)	LEAQ	command-line-arguments.k+24(SP), CX
	0x00e9 00233 (/bigdata/qiuhan/codet5/usage/goroot/test/codegen/mapaccess.go:203)	CALL	runtime.mapassign(SB)
	0x00ee 00238 (/bigdata/qiuhan/codet5/usage/goroot/test/codegen/mapaccess.go:203)	MOVSD	(AX), X0
	0x00f2 00242 (/bigdata/qiuhan/codet5/usage/goroot/test/codegen/mapaccess.go:203)	MOVSD	8(AX), X1
	0x00f7 00247 (/bigdata/qiuhan/codet5/usage/goroot/test/codegen/mapaccess.go:203)	MOVSD	$f64.405ec00000000000(SB), X2
	0x00ff 00255 (/bigdata/qiuhan/codet5/usage/goroot/test/codegen/mapaccess.go:203)	SUBSD	X2, X0
	0x0103 00259 (/bigdata/qiuhan/codet5/usage/goroot/test/codegen/mapaccess.go:203)	MOVSD	X0, (AX)
	0x0107 00263 (/bigdata/qiuhan/codet5/usage/goroot/test/codegen/mapaccess.go:203)	XORPS	X0, X0
	0x010a 00266 (/bigdata/qiuhan/codet5/usage/goroot/test/codegen/mapaccess.go:203)	SUBSD	X0, X1
	0x010e 00270 (/bigdata/qiuhan/codet5/usage/goroot/test/codegen/mapaccess.go:203)	MOVSD	X1, 8(AX)
	0x0113 00275 (/bigdata/qiuhan/codet5/usage/goroot/test/codegen/mapaccess.go:209)	LEAQ	type:map[complex128]complex128(SB), AX
	0x011a 00282 (/bigdata/qiuhan/codet5/usage/goroot/test/codegen/mapaccess.go:209)	LEAQ	command-line-arguments..autotmp_2+312(SP), BX
	0x0122 00290 (/bigdata/qiuhan/codet5/usage/goroot/test/codegen/mapaccess.go:209)	LEAQ	command-line-arguments.k+24(SP), CX
	0x0127 00295 (/bigdata/qiuhan/codet5/usage/goroot/test/codegen/mapaccess.go:209)	CALL	runtime.mapassign(SB)
	0x012c 00300 (/bigdata/qiuhan/codet5/usage/goroot/test/codegen/mapaccess.go:209)	MOVSD	(AX), X0
	0x0130 00304 (/bigdata/qiuhan/codet5/usage/goroot/test/codegen/mapaccess.go:209)	MOVSD	8(AX), X1
	0x0135 00309 (/bigdata/qiuhan/codet5/usage/goroot/test/codegen/mapaccess.go:209)	MOVSD	$f64.407c800000000000(SB), X2
	0x013d 00317 (/bigdata/qiuhan/codet5/usage/goroot/test/codegen/mapaccess.go:209)	MULSD	X0, X2
	0x0141 00321 (/bigdata/qiuhan/codet5/usage/goroot/test/codegen/mapaccess.go:209)	XORPS	X3, X3
	0x0144 00324 (/bigdata/qiuhan/codet5/usage/goroot/test/codegen/mapaccess.go:209)	MULSD	X1, X3
	0x0148 00328 (/bigdata/qiuhan/codet5/usage/goroot/test/codegen/mapaccess.go:209)	SUBSD	X3, X2
	0x014c 00332 (/bigdata/qiuhan/codet5/usage/goroot/test/codegen/mapaccess.go:209)	MOVSD	X2, (AX)
	0x0150 00336 (/bigdata/qiuhan/codet5/usage/goroot/test/codegen/mapaccess.go:209)	XORPS	X2, X2
	0x0153 00339 (/bigdata/qiuhan/codet5/usage/goroot/test/codegen/mapaccess.go:209)	MULSD	X2, X0
	0x0157 00343 (/bigdata/qiuhan/codet5/usage/goroot/test/codegen/mapaccess.go:209)	MOVSD	$f64.407c800000000000(SB), X3
	0x015f 00351 (/bigdata/qiuhan/codet5/usage/goroot/test/codegen/mapaccess.go:209)	MULSD	X1, X3
	0x0163 00355 (/bigdata/qiuhan/codet5/usage/goroot/test/codegen/mapaccess.go:209)	ADDSD	X3, X0
	0x0167 00359 (/bigdata/qiuhan/codet5/usage/goroot/test/codegen/mapaccess.go:209)	MOVSD	X0, 8(AX)
	0x016c 00364 (/bigdata/qiuhan/codet5/usage/goroot/test/codegen/mapaccess.go:215)	LEAQ	type:map[complex128]complex128(SB), AX
	0x0173 00371 (/bigdata/qiuhan/codet5/usage/goroot/test/codegen/mapaccess.go:215)	LEAQ	command-line-arguments..autotmp_2+312(SP), BX
	0x017b 00379 (/bigdata/qiuhan/codet5/usage/goroot/test/codegen/mapaccess.go:215)	LEAQ	command-line-arguments.k+24(SP), CX
	0x0180 00384 (/bigdata/qiuhan/codet5/usage/goroot/test/codegen/mapaccess.go:215)	CALL	runtime.mapassign(SB)
	0x0185 00389 (/bigdata/qiuhan/codet5/usage/goroot/test/codegen/mapaccess.go:215)	MOVSD	(AX), X0
	0x0189 00393 (/bigdata/qiuhan/codet5/usage/goroot/test/codegen/mapaccess.go:215)	MOVSD	8(AX), X1
	0x018e 00398 (/bigdata/qiuhan/codet5/usage/goroot/test/codegen/mapaccess.go:215)	MOVSD	$f64.3ff0000000000000(SB), X2
	0x0196 00406 (/bigdata/qiuhan/codet5/usage/goroot/test/codegen/mapaccess.go:215)	ADDSD	X2, X0
	0x019a 00410 (/bigdata/qiuhan/codet5/usage/goroot/test/codegen/mapaccess.go:215)	MOVSD	X0, (AX)
	0x019e 00414 (/bigdata/qiuhan/codet5/usage/goroot/test/codegen/mapaccess.go:215)	XORPS	X0, X0
	0x01a1 00417 (/bigdata/qiuhan/codet5/usage/goroot/test/codegen/mapaccess.go:215)	ADDSD	X0, X1
	0x01a5 00421 (/bigdata/qiuhan/codet5/usage/goroot/test/codegen/mapaccess.go:215)	MOVSD	X1, 8(AX)
	0x01aa 00426 (/bigdata/qiuhan/codet5/usage/goroot/test/codegen/mapaccess.go:221)	LEAQ	type:map[complex128]complex128(SB), AX
	0x01b1 00433 (/bigdata/qiuhan/codet5/usage/goroot/test/codegen/mapaccess.go:221)	LEAQ	command-line-arguments..autotmp_2+312(SP), BX
	0x01b9 00441 (/bigdata/qiuhan/codet5/usage/goroot/test/codegen/mapaccess.go:221)	LEAQ	command-line-arguments.k+24(SP), CX
	0x01be 00446 (/bigdata/qiuhan/codet5/usage/goroot/test/codegen/mapaccess.go:221)	PCDATA	$1, $0
	0x01be 00446 (/bigdata/qiuhan/codet5/usage/goroot/test/codegen/mapaccess.go:221)	NOP
	0x01c0 00448 (/bigdata/qiuhan/codet5/usage/goroot/test/codegen/mapaccess.go:221)	CALL	runtime.mapassign(SB)
	0x01c5 00453 (/bigdata/qiuhan/codet5/usage/goroot/test/codegen/mapaccess.go:221)	MOVSD	(AX), X0
	0x01c9 00457 (/bigdata/qiuhan/codet5/usage/goroot/test/codegen/mapaccess.go:221)	MOVSD	8(AX), X1
	0x01ce 00462 (/bigdata/qiuhan/codet5/usage/goroot/test/codegen/mapaccess.go:221)	MOVSD	$f64.3ff0000000000000(SB), X2
	0x01d6 00470 (/bigdata/qiuhan/codet5/usage/goroot/test/codegen/mapaccess.go:221)	SUBSD	X2, X0
	0x01da 00474 (/bigdata/qiuhan/codet5/usage/goroot/test/codegen/mapaccess.go:221)	MOVSD	X0, (AX)
	0x01de 00478 (/bigdata/qiuhan/codet5/usage/goroot/test/codegen/mapaccess.go:221)	XORPS	X0, X0
	0x01e1 00481 (/bigdata/qiuhan/codet5/usage/goroot/test/codegen/mapaccess.go:221)	SUBSD	X0, X1
	0x01e5 00485 (/bigdata/qiuhan/codet5/usage/goroot/test/codegen/mapaccess.go:221)	MOVSD	X1, 8(AX)
	0x01ea 00490 (/bigdata/qiuhan/codet5/usage/goroot/test/codegen/mapaccess.go:222)	MOVQ	360(SP), BP
	0x01f2 00498 (/bigdata/qiuhan/codet5/usage/goroot/test/codegen/mapaccess.go:222)	ADDQ	$368, SP
	0x01f9 00505 (/bigdata/qiuhan/codet5/usage/goroot/test/codegen/mapaccess.go:222)	RET
	0x01fa 00506 (/bigdata/qiuhan/codet5/usage/goroot/test/codegen/mapaccess.go:222)	NOP
	0x01fa 00506 (/bigdata/qiuhan/codet5/usage/goroot/test/codegen/mapaccess.go:189)	PCDATA	$1, $-1
	0x01fa 00506 (/bigdata/qiuhan/codet5/usage/goroot/test/codegen/mapaccess.go:189)	PCDATA	$0, $-2
	0x01fa 00506 (/bigdata/qiuhan/codet5/usage/goroot/test/codegen/mapaccess.go:189)	CALL	runtime.morestack_noctxt(SB)
	0x01ff 00511 (/bigdata/qiuhan/codet5/usage/goroot/test/codegen/mapaccess.go:189)	PCDATA	$0, $-1
	0x01ff 00511 (/bigdata/qiuhan/codet5/usage/goroot/test/codegen/mapaccess.go:189)	NOP
	0x0200 00512 (/bigdata/qiuhan/codet5/usage/goroot/test/codegen/mapaccess.go:189)	JMP	0
	0x0000 4c 8d a4 24 10 ff ff ff 4d 3b 66 10 0f 86 e8 01  L..$....M;f.....
	0x0010 00 00 48 81 ec 70 01 00 00 48 89 ac 24 68 01 00  ..H..p...H..$h..
	0x0020 00 48 8d ac 24 68 01 00 00 44 0f 11 bc 24 38 01  .H..$h...D...$8.
	0x0030 00 00 44 0f 11 bc 24 48 01 00 00 44 0f 11 bc 24  ..D...$H...D...$
	0x0040 58 01 00 00 48 8d 7c 24 28 48 8d 7f d0 66 0f 1f  X...H.|$(H...f..
	0x0050 84 00 00 00 00 00 66 0f 1f 84 00 00 00 00 00 90  ......f.........
	0x0060 48 89 6c 24 f0 48 8d 6c 24 f0 e8 00 00 00 00 48  H.l$.H.l$......H
	0x0070 8b 6d 00 48 8d 44 24 28 48 89 84 24 48 01 00 00  .m.H.D$(H..$H...
	0x0080 e8 00 00 00 00 89 84 24 44 01 00 00 0f 57 c0 f2  .......$D....W..
	0x0090 0f 11 44 24 18 f2 0f 11 44 24 20 48 8d 05 00 00  ..D$....D$ H....
	0x00a0 00 00 48 8d 9c 24 38 01 00 00 48 8d 4c 24 18 e8  ..H..$8...H.L$..
	0x00b0 00 00 00 00 f2 0f 10 40 08 f2 0f 10 0d 00 00 00  .......@........
	0x00c0 00 f2 0f 58 08 f2 0f 11 08 0f 57 c9 f2 0f 58 c1  ...X......W...X.
	0x00d0 f2 0f 11 40 08 48 8d 05 00 00 00 00 48 8d 9c 24  ...@.H......H..$
	0x00e0 38 01 00 00 48 8d 4c 24 18 e8 00 00 00 00 f2 0f  8...H.L$........
	0x00f0 10 00 f2 0f 10 48 08 f2 0f 10 15 00 00 00 00 f2  .....H..........
	0x0100 0f 5c c2 f2 0f 11 00 0f 57 c0 f2 0f 5c c8 f2 0f  .\......W...\...
	0x0110 11 48 08 48 8d 05 00 00 00 00 48 8d 9c 24 38 01  .H.H......H..$8.
	0x0120 00 00 48 8d 4c 24 18 e8 00 00 00 00 f2 0f 10 00  ..H.L$..........
	0x0130 f2 0f 10 48 08 f2 0f 10 15 00 00 00 00 f2 0f 59  ...H...........Y
	0x0140 d0 0f 57 db f2 0f 59 d9 f2 0f 5c d3 f2 0f 11 10  ..W...Y...\.....
	0x0150 0f 57 d2 f2 0f 59 c2 f2 0f 10 1d 00 00 00 00 f2  .W...Y..........
	0x0160 0f 59 d9 f2 0f 58 c3 f2 0f 11 40 08 48 8d 05 00  .Y...X....@.H...
	0x0170 00 00 00 48 8d 9c 24 38 01 00 00 48 8d 4c 24 18  ...H..$8...H.L$.
	0x0180 e8 00 00 00 00 f2 0f 10 00 f2 0f 10 48 08 f2 0f  ............H...
	0x0190 10 15 00 00 00 00 f2 0f 58 c2 f2 0f 11 00 0f 57  ........X......W
	0x01a0 c0 f2 0f 58 c8 f2 0f 11 48 08 48 8d 05 00 00 00  ...X....H.H.....
	0x01b0 00 48 8d 9c 24 38 01 00 00 48 8d 4c 24 18 66 90  .H..$8...H.L$.f.
	0x01c0 e8 00 00 00 00 f2 0f 10 00 f2 0f 10 48 08 f2 0f  ............H...
	0x01d0 10 15 00 00 00 00 f2 0f 5c c2 f2 0f 11 00 0f 57  ........\......W
	0x01e0 c0 f2 0f 5c c8 f2 0f 11 48 08 48 8b ac 24 68 01  ...\....H.H..$h.
	0x01f0 00 00 48 81 c4 70 01 00 00 c3 e8 00 00 00 00 90  ..H..p..........
	0x0200 e9 fb fd ff ff                                   .....
	rel 107+4 t=7 runtime.duffzero<1>+267
	rel 129+4 t=7 runtime.fastrand<1>+0
	rel 158+4 t=14 type:map[complex128]complex128<0>+0
	rel 176+4 t=7 runtime.mapassign<1>+0
	rel 189+4 t=14 $f64.40f0932000000000<0>+0
	rel 216+4 t=14 type:map[complex128]complex128<0>+0
	rel 234+4 t=7 runtime.mapassign<1>+0
	rel 251+4 t=14 $f64.405ec00000000000<0>+0
	rel 278+4 t=14 type:map[complex128]complex128<0>+0
	rel 296+4 t=7 runtime.mapassign<1>+0
	rel 313+4 t=14 $f64.407c800000000000<0>+0
	rel 347+4 t=14 $f64.407c800000000000<0>+0
	rel 367+4 t=14 type:map[complex128]complex128<0>+0
	rel 385+4 t=7 runtime.mapassign<1>+0
	rel 402+4 t=14 $f64.3ff0000000000000<0>+0
	rel 429+4 t=14 type:map[complex128]complex128<0>+0
	rel 449+4 t=7 runtime.mapassign<1>+0
	rel 466+4 t=14 $f64.3ff0000000000000<0>+0
	rel 507+4 t=7 runtime.morestack_noctxt<0>+0
command-line-arguments.mapCompoundAssignmentString<1> STEXT size=223 args=0x0 locals=0x178 funcid=0x0 align=0x0
	0x0000 00000 (/bigdata/qiuhan/codet5/usage/goroot/test/codegen/mapaccess.go:224)	TEXT	command-line-arguments.mapCompoundAssignmentString(SB), ABIInternal, $376-0
	0x0000 00000 (/bigdata/qiuhan/codet5/usage/goroot/test/codegen/mapaccess.go:224)	LEAQ	-248(SP), R12
	0x0008 00008 (/bigdata/qiuhan/codet5/usage/goroot/test/codegen/mapaccess.go:224)	CMPQ	R12, 16(R14)
	0x000c 00012 (/bigdata/qiuhan/codet5/usage/goroot/test/codegen/mapaccess.go:224)	PCDATA	$0, $-2
	0x000c 00012 (/bigdata/qiuhan/codet5/usage/goroot/test/codegen/mapaccess.go:224)	JLS	213
	0x0012 00018 (/bigdata/qiuhan/codet5/usage/goroot/test/codegen/mapaccess.go:224)	PCDATA	$0, $-1
	0x0012 00018 (/bigdata/qiuhan/codet5/usage/goroot/test/codegen/mapaccess.go:224)	SUBQ	$376, SP
	0x0019 00025 (/bigdata/qiuhan/codet5/usage/goroot/test/codegen/mapaccess.go:224)	MOVQ	BP, 368(SP)
	0x0021 00033 (/bigdata/qiuhan/codet5/usage/goroot/test/codegen/mapaccess.go:224)	LEAQ	368(SP), BP
	0x0029 00041 (/bigdata/qiuhan/codet5/usage/goroot/test/codegen/mapaccess.go:224)	FUNCDATA	$0, gclocals·ykHN0vawYuq1dUW4zEe2gA==(SB)
	0x0029 00041 (/bigdata/qiuhan/codet5/usage/goroot/test/codegen/mapaccess.go:224)	FUNCDATA	$1, gclocals·IgXLcjGnOTLM81NKbKpXQA==(SB)
	0x0029 00041 (/bigdata/qiuhan/codet5/usage/goroot/test/codegen/mapaccess.go:224)	FUNCDATA	$2, command-line-arguments.mapCompoundAssignmentString.stkobj(SB)
	0x0029 00041 (/bigdata/qiuhan/codet5/usage/goroot/test/codegen/mapaccess.go:225)	MOVUPS	X15, command-line-arguments..autotmp_2+48(SP)
	0x002f 00047 (/bigdata/qiuhan/codet5/usage/goroot/test/codegen/mapaccess.go:225)	MOVUPS	X15, command-line-arguments..autotmp_2+64(SP)
	0x0035 00053 (/bigdata/qiuhan/codet5/usage/goroot/test/codegen/mapaccess.go:225)	MOVUPS	X15, command-line-arguments..autotmp_2+80(SP)
	0x003b 00059 (/bigdata/qiuhan/codet5/usage/goroot/test/codegen/mapaccess.go:225)	LEAQ	command-line-arguments..autotmp_3+96(SP), DI
	0x0040 00064 (/bigdata/qiuhan/codet5/usage/goroot/test/codegen/mapaccess.go:225)	PCDATA	$0, $-2
	0x0040 00064 (/bigdata/qiuhan/codet5/usage/goroot/test/codegen/mapaccess.go:225)	LEAQ	-48(DI), DI
	0x0044 00068 (/bigdata/qiuhan/codet5/usage/goroot/test/codegen/mapaccess.go:225)	DUFFZERO	$267
	0x0057 00087 (/bigdata/qiuhan/codet5/usage/goroot/test/codegen/mapaccess.go:225)	PCDATA	$0, $-1
	0x0057 00087 (/bigdata/qiuhan/codet5/usage/goroot/test/codegen/mapaccess.go:225)	LEAQ	command-line-arguments..autotmp_3+96(SP), AX
	0x005c 00092 (/bigdata/qiuhan/codet5/usage/goroot/test/codegen/mapaccess.go:225)	MOVQ	AX, command-line-arguments..autotmp_2+64(SP)
	0x0061 00097 (/bigdata/qiuhan/codet5/usage/goroot/test/codegen/mapaccess.go:225)	PCDATA	$1, $1
	0x0061 00097 (/bigdata/qiuhan/codet5/usage/goroot/test/codegen/mapaccess.go:225)	CALL	runtime.fastrand(SB)
	0x0066 00102 (/bigdata/qiuhan/codet5/usage/goroot/test/codegen/mapaccess.go:225)	MOVL	AX, command-line-arguments..autotmp_2+60(SP)
	0x006a 00106 (/bigdata/qiuhan/codet5/usage/goroot/test/codegen/mapaccess.go:232)	LEAQ	type:map[string]string(SB), AX
	0x0071 00113 (/bigdata/qiuhan/codet5/usage/goroot/test/codegen/mapaccess.go:232)	LEAQ	command-line-arguments..autotmp_2+48(SP), BX
	0x0076 00118 (/bigdata/qiuhan/codet5/usage/goroot/test/codegen/mapaccess.go:232)	LEAQ	go:string."key"(SB), CX
	0x007d 00125 (/bigdata/qiuhan/codet5/usage/goroot/test/codegen/mapaccess.go:232)	MOVL	$3, DI
	0x0082 00130 (/bigdata/qiuhan/codet5/usage/goroot/test/codegen/mapaccess.go:232)	PCDATA	$1, $0
	0x0082 00130 (/bigdata/qiuhan/codet5/usage/goroot/test/codegen/mapaccess.go:232)	CALL	runtime.mapassign_faststr(SB)
	0x0087 00135 (/bigdata/qiuhan/codet5/usage/goroot/test/codegen/mapaccess.go:232)	MOVQ	AX, command-line-arguments..autotmp_10+40(SP)
	0x008c 00140 (/bigdata/qiuhan/codet5/usage/goroot/test/codegen/mapaccess.go:232)	MOVQ	(AX), BX
	0x008f 00143 (/bigdata/qiuhan/codet5/usage/goroot/test/codegen/mapaccess.go:232)	MOVQ	8(AX), CX
	0x0093 00147 (/bigdata/qiuhan/codet5/usage/goroot/test/codegen/mapaccess.go:232)	LEAQ	go:string."value"(SB), DI
	0x009a 00154 (/bigdata/qiuhan/codet5/usage/goroot/test/codegen/mapaccess.go:232)	MOVL	$5, SI
	0x009f 00159 (/bigdata/qiuhan/codet5/usage/goroot/test/codegen/mapaccess.go:232)	XORL	AX, AX
	0x00a1 00161 (/bigdata/qiuhan/codet5/usage/goroot/test/codegen/mapaccess.go:232)	PCDATA	$1, $2
	0x00a1 00161 (/bigdata/qiuhan/codet5/usage/goroot/test/codegen/mapaccess.go:232)	CALL	runtime.concatstring2(SB)
	0x00a6 00166 (/bigdata/qiuhan/codet5/usage/goroot/test/codegen/mapaccess.go:232)	MOVQ	command-line-arguments..autotmp_10+40(SP), DI
	0x00ab 00171 (/bigdata/qiuhan/codet5/usage/goroot/test/codegen/mapaccess.go:232)	MOVQ	BX, 8(DI)
	0x00af 00175 (/bigdata/qiuhan/codet5/usage/goroot/test/codegen/mapaccess.go:232)	PCDATA	$0, $-2
	0x00af 00175 (/bigdata/qiuhan/codet5/usage/goroot/test/codegen/mapaccess.go:232)	CMPL	runtime.writeBarrier(SB), $0
	0x00b6 00182 (/bigdata/qiuhan/codet5/usage/goroot/test/codegen/mapaccess.go:232)	JNE	192
	0x00b8 00184 (/bigdata/qiuhan/codet5/usage/goroot/test/codegen/mapaccess.go:232)	MOVQ	AX, (DI)
	0x00bb 00187 (/bigdata/qiuhan/codet5/usage/goroot/test/codegen/mapaccess.go:232)	JMP	197
	0x00bd 00189 (/bigdata/qiuhan/codet5/usage/goroot/test/codegen/mapaccess.go:232)	NOP
	0x00c0 00192 (/bigdata/qiuhan/codet5/usage/goroot/test/codegen/mapaccess.go:232)	CALL	runtime.gcWriteBarrier(SB)
	0x00c5 00197 (/bigdata/qiuhan/codet5/usage/goroot/test/codegen/mapaccess.go:233)	PCDATA	$0, $-1
	0x00c5 00197 (/bigdata/qiuhan/codet5/usage/goroot/test/codegen/mapaccess.go:233)	PCDATA	$1, $-1
	0x00c5 00197 (/bigdata/qiuhan/codet5/usage/goroot/test/codegen/mapaccess.go:233)	MOVQ	368(SP), BP
	0x00cd 00205 (/bigdata/qiuhan/codet5/usage/goroot/test/codegen/mapaccess.go:233)	ADDQ	$376, SP
	0x00d4 00212 (/bigdata/qiuhan/codet5/usage/goroot/test/codegen/mapaccess.go:233)	RET
	0x00d5 00213 (/bigdata/qiuhan/codet5/usage/goroot/test/codegen/mapaccess.go:233)	NOP
	0x00d5 00213 (/bigdata/qiuhan/codet5/usage/goroot/test/codegen/mapaccess.go:224)	PCDATA	$1, $-1
	0x00d5 00213 (/bigdata/qiuhan/codet5/usage/goroot/test/codegen/mapaccess.go:224)	PCDATA	$0, $-2
	0x00d5 00213 (/bigdata/qiuhan/codet5/usage/goroot/test/codegen/mapaccess.go:224)	CALL	runtime.morestack_noctxt(SB)
	0x00da 00218 (/bigdata/qiuhan/codet5/usage/goroot/test/codegen/mapaccess.go:224)	PCDATA	$0, $-1
	0x00da 00218 (/bigdata/qiuhan/codet5/usage/goroot/test/codegen/mapaccess.go:224)	JMP	0
	0x0000 4c 8d a4 24 08 ff ff ff 4d 3b 66 10 0f 86 c3 00  L..$....M;f.....
	0x0010 00 00 48 81 ec 78 01 00 00 48 89 ac 24 70 01 00  ..H..x...H..$p..
	0x0020 00 48 8d ac 24 70 01 00 00 44 0f 11 7c 24 30 44  .H..$p...D..|$0D
	0x0030 0f 11 7c 24 40 44 0f 11 7c 24 50 48 8d 7c 24 60  ..|$@D..|$PH.|$`
	0x0040 48 8d 7f d0 48 89 6c 24 f0 48 8d 6c 24 f0 e8 00  H...H.l$.H.l$...
	0x0050 00 00 00 48 8b 6d 00 48 8d 44 24 60 48 89 44 24  ...H.m.H.D$`H.D$
	0x0060 40 e8 00 00 00 00 89 44 24 3c 48 8d 05 00 00 00  @......D$<H.....
	0x0070 00 48 8d 5c 24 30 48 8d 0d 00 00 00 00 bf 03 00  .H.\$0H.........
	0x0080 00 00 e8 00 00 00 00 48 89 44 24 28 48 8b 18 48  .......H.D$(H..H
	0x0090 8b 48 08 48 8d 3d 00 00 00 00 be 05 00 00 00 31  .H.H.=.........1
	0x00a0 c0 e8 00 00 00 00 48 8b 7c 24 28 48 89 5f 08 83  ......H.|$(H._..
	0x00b0 3d 00 00 00 00 00 75 08 48 89 07 eb 08 0f 1f 00  =.....u.H.......
	0x00c0 e8 00 00 00 00 48 8b ac 24 70 01 00 00 48 81 c4  .....H..$p...H..
	0x00d0 78 01 00 00 c3 e8 00 00 00 00 e9 21 ff ff ff     x..........!...
	rel 79+4 t=7 runtime.duffzero<1>+267
	rel 98+4 t=7 runtime.fastrand<1>+0
	rel 109+4 t=14 type:map[string]string<0>+0
	rel 121+4 t=14 go:string."key"<0>+0
	rel 131+4 t=7 runtime.mapassign_faststr<1>+0
	rel 150+4 t=14 go:string."value"<0>+0
	rel 162+4 t=7 runtime.concatstring2<1>+0
	rel 177+4 t=14 runtime.writeBarrier<0>+-1
	rel 193+4 t=7 runtime.gcWriteBarrier<1>+0
	rel 214+4 t=7 runtime.morestack_noctxt<0>+0
command-line-arguments.mapAppendAssignmentInt8<1> STEXT size=1189 args=0x0 locals=0x1a8 funcid=0x0 align=0x0
	0x0000 00000 (/bigdata/qiuhan/codet5/usage/goroot/test/codegen/mapaccess.go:237)	TEXT	command-line-arguments.mapAppendAssignmentInt8(SB), ABIInternal, $424-0
	0x0000 00000 (/bigdata/qiuhan/codet5/usage/goroot/test/codegen/mapaccess.go:237)	LEAQ	-296(SP), R12
	0x0008 00008 (/bigdata/qiuhan/codet5/usage/goroot/test/codegen/mapaccess.go:237)	CMPQ	R12, 16(R14)
	0x000c 00012 (/bigdata/qiuhan/codet5/usage/goroot/test/codegen/mapaccess.go:237)	PCDATA	$0, $-2
	0x000c 00012 (/bigdata/qiuhan/codet5/usage/goroot/test/codegen/mapaccess.go:237)	JLS	1176
	0x0012 00018 (/bigdata/qiuhan/codet5/usage/goroot/test/codegen/mapaccess.go:237)	PCDATA	$0, $-1
	0x0012 00018 (/bigdata/qiuhan/codet5/usage/goroot/test/codegen/mapaccess.go:237)	SUBQ	$424, SP
	0x0019 00025 (/bigdata/qiuhan/codet5/usage/goroot/test/codegen/mapaccess.go:237)	MOVQ	BP, 416(SP)
	0x0021 00033 (/bigdata/qiuhan/codet5/usage/goroot/test/codegen/mapaccess.go:237)	LEAQ	416(SP), BP
	0x0029 00041 (/bigdata/qiuhan/codet5/usage/goroot/test/codegen/mapaccess.go:237)	FUNCDATA	$0, gclocals·Xu4NijPRinf///4s/1zhiQ==(SB)
	0x0029 00041 (/bigdata/qiuhan/codet5/usage/goroot/test/codegen/mapaccess.go:237)	FUNCDATA	$1, gclocals·rTrIRj9HGwiheagnE5GEbA==(SB)
	0x0029 00041 (/bigdata/qiuhan/codet5/usage/goroot/test/codegen/mapaccess.go:237)	FUNCDATA	$2, command-line-arguments.mapAppendAssignmentInt8.stkobj(SB)
	0x0029 00041 (/bigdata/qiuhan/codet5/usage/goroot/test/codegen/mapaccess.go:238)	MOVUPS	X15, command-line-arguments..autotmp_5+152(SP)
	0x0032 00050 (/bigdata/qiuhan/codet5/usage/goroot/test/codegen/mapaccess.go:238)	MOVUPS	X15, command-line-arguments..autotmp_5+168(SP)
	0x003b 00059 (/bigdata/qiuhan/codet5/usage/goroot/test/codegen/mapaccess.go:238)	MOVUPS	X15, command-line-arguments..autotmp_5+184(SP)
	0x0044 00068 (/bigdata/qiuhan/codet5/usage/goroot/test/codegen/mapaccess.go:238)	MOVUPS	X15, command-line-arguments..autotmp_6+200(SP)
	0x004d 00077 (/bigdata/qiuhan/codet5/usage/goroot/test/codegen/mapaccess.go:238)	LEAQ	command-line-arguments..autotmp_6+208(SP), DI
	0x0055 00085 (/bigdata/qiuhan/codet5/usage/goroot/test/codegen/mapaccess.go:238)	PCDATA	$0, $-2
	0x0055 00085 (/bigdata/qiuhan/codet5/usage/goroot/test/codegen/mapaccess.go:238)	LEAQ	-48(DI), DI
	0x0059 00089 (/bigdata/qiuhan/codet5/usage/goroot/test/codegen/mapaccess.go:238)	NOP
	0x0060 00096 (/bigdata/qiuhan/codet5/usage/goroot/test/codegen/mapaccess.go:238)	DUFFZERO	$290
	0x0073 00115 (/bigdata/qiuhan/codet5/usage/goroot/test/codegen/mapaccess.go:238)	PCDATA	$0, $-1
	0x0073 00115 (/bigdata/qiuhan/codet5/usage/goroot/test/codegen/mapaccess.go:238)	LEAQ	command-line-arguments..autotmp_6+200(SP), AX
	0x007b 00123 (/bigdata/qiuhan/codet5/usage/goroot/test/codegen/mapaccess.go:238)	MOVQ	AX, command-line-arguments..autotmp_5+168(SP)
	0x0083 00131 (/bigdata/qiuhan/codet5/usage/goroot/test/codegen/mapaccess.go:238)	PCDATA	$1, $1
	0x0083 00131 (/bigdata/qiuhan/codet5/usage/goroot/test/codegen/mapaccess.go:238)	CALL	runtime.fastrand(SB)
	0x0088 00136 (/bigdata/qiuhan/codet5/usage/goroot/test/codegen/mapaccess.go:238)	MOVL	AX, command-line-arguments..autotmp_5+164(SP)
	0x008f 00143 (/bigdata/qiuhan/codet5/usage/goroot/test/codegen/mapaccess.go:239)	MOVB	$0, command-line-arguments.k+69(SP)
	0x0094 00148 (/bigdata/qiuhan/codet5/usage/goroot/test/codegen/mapaccess.go:245)	LEAQ	type:map[int8][]int8(SB), AX
	0x009b 00155 (/bigdata/qiuhan/codet5/usage/goroot/test/codegen/mapaccess.go:245)	LEAQ	command-line-arguments..autotmp_5+152(SP), BX
	0x00a3 00163 (/bigdata/qiuhan/codet5/usage/goroot/test/codegen/mapaccess.go:245)	LEAQ	command-line-arguments.k+69(SP), CX
	0x00a8 00168 (/bigdata/qiuhan/codet5/usage/goroot/test/codegen/mapaccess.go:245)	CALL	runtime.mapassign(SB)
	0x00ad 00173 (/bigdata/qiuhan/codet5/usage/goroot/test/codegen/mapaccess.go:245)	MOVQ	(AX), CX
	0x00b0 00176 (/bigdata/qiuhan/codet5/usage/goroot/test/codegen/mapaccess.go:245)	MOVQ	16(AX), DX
	0x00b4 00180 (/bigdata/qiuhan/codet5/usage/goroot/test/codegen/mapaccess.go:245)	MOVQ	8(AX), BX
	0x00b8 00184 (/bigdata/qiuhan/codet5/usage/goroot/test/codegen/mapaccess.go:245)	INCQ	BX
	0x00bb 00187 (/bigdata/qiuhan/codet5/usage/goroot/test/codegen/mapaccess.go:245)	NOP
	0x00c0 00192 (/bigdata/qiuhan/codet5/usage/goroot/test/codegen/mapaccess.go:245)	CMPQ	DX, BX
	0x00c3 00195 (/bigdata/qiuhan/codet5/usage/goroot/test/codegen/mapaccess.go:245)	JCC	267
	0x00c5 00197 (/bigdata/qiuhan/codet5/usage/goroot/test/codegen/mapaccess.go:245)	MOVQ	AX, command-line-arguments..autotmp_30+144(SP)
	0x00cd 00205 (/bigdata/qiuhan/codet5/usage/goroot/test/codegen/mapaccess.go:245)	MOVQ	CX, AX
	0x00d0 00208 (/bigdata/qiuhan/codet5/usage/goroot/test/codegen/mapaccess.go:245)	MOVQ	DX, CX
	0x00d3 00211 (/bigdata/qiuhan/codet5/usage/goroot/test/codegen/mapaccess.go:245)	MOVL	$1, DI
	0x00d8 00216 (/bigdata/qiuhan/codet5/usage/goroot/test/codegen/mapaccess.go:245)	LEAQ	type:int8(SB), SI
	0x00df 00223 (/bigdata/qiuhan/codet5/usage/goroot/test/codegen/mapaccess.go:245)	PCDATA	$1, $2
	0x00df 00223 (/bigdata/qiuhan/codet5/usage/goroot/test/codegen/mapaccess.go:245)	NOP
	0x00e0 00224 (/bigdata/qiuhan/codet5/usage/goroot/test/codegen/mapaccess.go:245)	CALL	runtime.growslice(SB)
	0x00e5 00229 (/bigdata/qiuhan/codet5/usage/goroot/test/codegen/mapaccess.go:245)	MOVQ	command-line-arguments..autotmp_30+144(SP), DI
	0x00ed 00237 (/bigdata/qiuhan/codet5/usage/goroot/test/codegen/mapaccess.go:245)	MOVQ	CX, 16(DI)
	0x00f1 00241 (/bigdata/qiuhan/codet5/usage/goroot/test/codegen/mapaccess.go:245)	PCDATA	$0, $-2
	0x00f1 00241 (/bigdata/qiuhan/codet5/usage/goroot/test/codegen/mapaccess.go:245)	CMPL	runtime.writeBarrier(SB), $0
	0x00f8 00248 (/bigdata/qiuhan/codet5/usage/goroot/test/codegen/mapaccess.go:245)	JNE	256
	0x00fa 00250 (/bigdata/qiuhan/codet5/usage/goroot/test/codegen/mapaccess.go:245)	MOVQ	AX, (DI)
	0x00fd 00253 (/bigdata/qiuhan/codet5/usage/goroot/test/codegen/mapaccess.go:245)	JMP	261
	0x00ff 00255 (/bigdata/qiuhan/codet5/usage/goroot/test/codegen/mapaccess.go:245)	NOP
	0x0100 00256 (/bigdata/qiuhan/codet5/usage/goroot/test/codegen/mapaccess.go:245)	CALL	runtime.gcWriteBarrier(SB)
	0x0105 00261 (/bigdata/qiuhan/codet5/usage/goroot/test/codegen/mapaccess.go:245)	PCDATA	$0, $-1
	0x0105 00261 (/bigdata/qiuhan/codet5/usage/goroot/test/codegen/mapaccess.go:245)	MOVQ	AX, CX
	0x0108 00264 (/bigdata/qiuhan/codet5/usage/goroot/test/codegen/mapaccess.go:245)	MOVQ	DI, AX
	0x010b 00267 (/bigdata/qiuhan/codet5/usage/goroot/test/codegen/mapaccess.go:245)	MOVQ	BX, 8(AX)
	0x010f 00271 (/bigdata/qiuhan/codet5/usage/goroot/test/codegen/mapaccess.go:245)	MOVB	$1, -1(BX)(CX*1)
	0x0114 00276 (/bigdata/qiuhan/codet5/usage/goroot/test/codegen/mapaccess.go:251)	LEAQ	type:map[int8][]int8(SB), AX
	0x011b 00283 (/bigdata/qiuhan/codet5/usage/goroot/test/codegen/mapaccess.go:251)	LEAQ	command-line-arguments..autotmp_5+152(SP), BX
	0x0123 00291 (/bigdata/qiuhan/codet5/usage/goroot/test/codegen/mapaccess.go:251)	LEAQ	command-line-arguments.k+69(SP), CX
	0x0128 00296 (/bigdata/qiuhan/codet5/usage/goroot/test/codegen/mapaccess.go:251)	PCDATA	$1, $1
	0x0128 00296 (/bigdata/qiuhan/codet5/usage/goroot/test/codegen/mapaccess.go:251)	CALL	runtime.mapassign(SB)
	0x012d 00301 (/bigdata/qiuhan/codet5/usage/goroot/test/codegen/mapaccess.go:251)	MOVQ	(AX), DX
	0x0130 00304 (/bigdata/qiuhan/codet5/usage/goroot/test/codegen/mapaccess.go:251)	MOVQ	16(AX), CX
	0x0134 00308 (/bigdata/qiuhan/codet5/usage/goroot/test/codegen/mapaccess.go:251)	MOVQ	8(AX), BX
	0x0138 00312 (/bigdata/qiuhan/codet5/usage/goroot/test/codegen/mapaccess.go:251)	ADDQ	$3, BX
	0x013c 00316 (/bigdata/qiuhan/codet5/usage/goroot/test/codegen/mapaccess.go:251)	NOP
	0x0140 00320 (/bigdata/qiuhan/codet5/usage/goroot/test/codegen/mapaccess.go:251)	CMPQ	CX, BX
	0x0143 00323 (/bigdata/qiuhan/codet5/usage/goroot/test/codegen/mapaccess.go:251)	JCC	395
	0x0145 00325 (/bigdata/qiuhan/codet5/usage/goroot/test/codegen/mapaccess.go:251)	MOVQ	AX, command-line-arguments..autotmp_31+136(SP)
	0x014d 00333 (/bigdata/qiuhan/codet5/usage/goroot/test/codegen/mapaccess.go:251)	MOVQ	DX, AX
	0x0150 00336 (/bigdata/qiuhan/codet5/usage/goroot/test/codegen/mapaccess.go:251)	MOVL	$3, DI
	0x0155 00341 (/bigdata/qiuhan/codet5/usage/goroot/test/codegen/mapaccess.go:251)	LEAQ	type:int8(SB), SI
	0x015c 00348 (/bigdata/qiuhan/codet5/usage/goroot/test/codegen/mapaccess.go:251)	PCDATA	$1, $3
	0x015c 00348 (/bigdata/qiuhan/codet5/usage/goroot/test/codegen/mapaccess.go:251)	NOP
	0x0160 00352 (/bigdata/qiuhan/codet5/usage/goroot/test/codegen/mapaccess.go:251)	CALL	runtime.growslice(SB)
	0x0165 00357 (/bigdata/qiuhan/codet5/usage/goroot/test/codegen/mapaccess.go:251)	MOVQ	command-line-arguments..autotmp_31+136(SP), DI
	0x016d 00365 (/bigdata/qiuhan/codet5/usage/goroot/test/codegen/mapaccess.go:251)	MOVQ	CX, 16(DI)
	0x0171 00369 (/bigdata/qiuhan/codet5/usage/goroot/test/codegen/mapaccess.go:251)	PCDATA	$0, $-2
	0x0171 00369 (/bigdata/qiuhan/codet5/usage/goroot/test/codegen/mapaccess.go:251)	CMPL	runtime.writeBarrier(SB), $0
	0x0178 00376 (/bigdata/qiuhan/codet5/usage/goroot/test/codegen/mapaccess.go:251)	JNE	384
	0x017a 00378 (/bigdata/qiuhan/codet5/usage/goroot/test/codegen/mapaccess.go:251)	MOVQ	AX, (DI)
	0x017d 00381 (/bigdata/qiuhan/codet5/usage/goroot/test/codegen/mapaccess.go:251)	JMP	389
	0x017f 00383 (/bigdata/qiuhan/codet5/usage/goroot/test/codegen/mapaccess.go:251)	NOP
	0x0180 00384 (/bigdata/qiuhan/codet5/usage/goroot/test/codegen/mapaccess.go:251)	CALL	runtime.gcWriteBarrier(SB)
	0x0185 00389 (/bigdata/qiuhan/codet5/usage/goroot/test/codegen/mapaccess.go:251)	PCDATA	$0, $-1
	0x0185 00389 (/bigdata/qiuhan/codet5/usage/goroot/test/codegen/mapaccess.go:251)	MOVQ	AX, DX
	0x0188 00392 (/bigdata/qiuhan/codet5/usage/goroot/test/codegen/mapaccess.go:251)	MOVQ	DI, AX
	0x018b 00395 (/bigdata/qiuhan/codet5/usage/goroot/test/codegen/mapaccess.go:251)	MOVQ	BX, 8(AX)
	0x018f 00399 (/bigdata/qiuhan/codet5/usage/goroot/test/codegen/mapaccess.go:251)	MOVW	$513, -3(BX)(DX*1)
	0x0196 00406 (/bigdata/qiuhan/codet5/usage/goroot/test/codegen/mapaccess.go:251)	MOVB	$3, -1(BX)(DX*1)
	0x019b 00411 (/bigdata/qiuhan/codet5/usage/goroot/test/codegen/mapaccess.go:253)	LEAQ	type:[4]int8(SB), AX
	0x01a2 00418 (/bigdata/qiuhan/codet5/usage/goroot/test/codegen/mapaccess.go:253)	PCDATA	$1, $1
	0x01a2 00418 (/bigdata/qiuhan/codet5/usage/goroot/test/codegen/mapaccess.go:253)	CALL	runtime.newobject(SB)
	0x01a7 00423 (/bigdata/qiuhan/codet5/usage/goroot/test/codegen/mapaccess.go:253)	MOVQ	AX, command-line-arguments..autotmp_32+128(SP)
	0x01af 00431 (/bigdata/qiuhan/codet5/usage/goroot/test/codegen/mapaccess.go:253)	MOVL	$591879, (AX)
	0x01b5 00437 (/bigdata/qiuhan/codet5/usage/goroot/test/codegen/mapaccess.go:259)	LEAQ	command-line-arguments..autotmp_5+152(SP), BX
	0x01bd 00445 (/bigdata/qiuhan/codet5/usage/goroot/test/codegen/mapaccess.go:259)	LEAQ	command-line-arguments.k+69(SP), CX
	0x01c2 00450 (/bigdata/qiuhan/codet5/usage/goroot/test/codegen/mapaccess.go:259)	LEAQ	type:map[int8][]int8(SB), AX
	0x01c9 00457 (/bigdata/qiuhan/codet5/usage/goroot/test/codegen/mapaccess.go:259)	PCDATA	$1, $4
	0x01c9 00457 (/bigdata/qiuhan/codet5/usage/goroot/test/codegen/mapaccess.go:259)	CALL	runtime.mapassign(SB)
	0x01ce 00462 (/bigdata/qiuhan/codet5/usage/goroot/test/codegen/mapaccess.go:259)	MOVQ	16(AX), CX
	0x01d2 00466 (/bigdata/qiuhan/codet5/usage/goroot/test/codegen/mapaccess.go:259)	MOVQ	(AX), DX
	0x01d5 00469 (/bigdata/qiuhan/codet5/usage/goroot/test/codegen/mapaccess.go:259)	MOVQ	8(AX), BX
	0x01d9 00473 (/bigdata/qiuhan/codet5/usage/goroot/test/codegen/mapaccess.go:259)	LEAQ	4(BX), SI
	0x01dd 00477 (/bigdata/qiuhan/codet5/usage/goroot/test/codegen/mapaccess.go:259)	NOP
	0x01e0 00480 (/bigdata/qiuhan/codet5/usage/goroot/test/codegen/mapaccess.go:259)	CMPQ	CX, SI
	0x01e3 00483 (/bigdata/qiuhan/codet5/usage/goroot/test/codegen/mapaccess.go:259)	JCC	534
	0x01e5 00485 (/bigdata/qiuhan/codet5/usage/goroot/test/codegen/mapaccess.go:259)	MOVQ	AX, command-line-arguments..autotmp_33+120(SP)
	0x01ea 00490 (/bigdata/qiuhan/codet5/usage/goroot/test/codegen/mapaccess.go:259)	MOVQ	BX, command-line-arguments..autotmp_34+80(SP)
	0x01ef 00495 (/bigdata/qiuhan/codet5/usage/goroot/test/codegen/mapaccess.go:259)	MOVQ	DX, AX
	0x01f2 00498 (/bigdata/qiuhan/codet5/usage/goroot/test/codegen/mapaccess.go:259)	MOVQ	SI, BX
	0x01f5 00501 (/bigdata/qiuhan/codet5/usage/goroot/test/codegen/mapaccess.go:259)	MOVL	$4, DI
	0x01fa 00506 (/bigdata/qiuhan/codet5/usage/goroot/test/codegen/mapaccess.go:259)	LEAQ	type:int8(SB), SI
	0x0201 00513 (/bigdata/qiuhan/codet5/usage/goroot/test/codegen/mapaccess.go:259)	PCDATA	$1, $5
	0x0201 00513 (/bigdata/qiuhan/codet5/usage/goroot/test/codegen/mapaccess.go:259)	CALL	runtime.growslice(SB)
	0x0206 00518 (/bigdata/qiuhan/codet5/usage/goroot/test/codegen/mapaccess.go:259)	MOVQ	AX, DX
	0x0209 00521 (/bigdata/qiuhan/codet5/usage/goroot/test/codegen/mapaccess.go:259)	MOVQ	BX, SI
	0x020c 00524 (/bigdata/qiuhan/codet5/usage/goroot/test/codegen/mapaccess.go:259)	MOVQ	command-line-arguments..autotmp_33+120(SP), AX
	0x0211 00529 (/bigdata/qiuhan/codet5/usage/goroot/test/codegen/mapaccess.go:259)	MOVQ	command-line-arguments..autotmp_34+80(SP), BX
	0x0216 00534 (/bigdata/qiuhan/codet5/usage/goroot/test/codegen/mapaccess.go:259)	MOVQ	command-line-arguments..autotmp_32+128(SP), R8
	0x021e 00542 (/bigdata/qiuhan/codet5/usage/goroot/test/codegen/mapaccess.go:259)	MOVL	(R8), R9
	0x0221 00545 (/bigdata/qiuhan/codet5/usage/goroot/test/codegen/mapaccess.go:259)	MOVL	R9, (DX)(BX*1)
	0x0225 00549 (/bigdata/qiuhan/codet5/usage/goroot/test/codegen/mapaccess.go:259)	MOVQ	SI, 8(AX)
	0x0229 00553 (/bigdata/qiuhan/codet5/usage/goroot/test/codegen/mapaccess.go:259)	MOVQ	CX, 16(AX)
	0x022d 00557 (/bigdata/qiuhan/codet5/usage/goroot/test/codegen/mapaccess.go:259)	PCDATA	$0, $-2
	0x022d 00557 (/bigdata/qiuhan/codet5/usage/goroot/test/codegen/mapaccess.go:259)	CMPL	runtime.writeBarrier(SB), $0
	0x0234 00564 (/bigdata/qiuhan/codet5/usage/goroot/test/codegen/mapaccess.go:259)	JNE	571
	0x0236 00566 (/bigdata/qiuhan/codet5/usage/goroot/test/codegen/mapaccess.go:259)	MOVQ	DX, (AX)
	0x0239 00569 (/bigdata/qiuhan/codet5/usage/goroot/test/codegen/mapaccess.go:259)	JMP	581
	0x023b 00571 (/bigdata/qiuhan/codet5/usage/goroot/test/codegen/mapaccess.go:259)	MOVQ	AX, DI
	0x023e 00574 (/bigdata/qiuhan/codet5/usage/goroot/test/codegen/mapaccess.go:259)	NOP
	0x0240 00576 (/bigdata/qiuhan/codet5/usage/goroot/test/codegen/mapaccess.go:259)	CALL	runtime.gcWriteBarrierDX(SB)
	0x0245 00581 (/bigdata/qiuhan/codet5/usage/goroot/test/codegen/mapaccess.go:267)	PCDATA	$0, $-1
	0x0245 00581 (/bigdata/qiuhan/codet5/usage/goroot/test/codegen/mapaccess.go:267)	LEAQ	type:map[int8][]int8(SB), AX
	0x024c 00588 (/bigdata/qiuhan/codet5/usage/goroot/test/codegen/mapaccess.go:267)	LEAQ	command-line-arguments..autotmp_5+152(SP), BX
	0x0254 00596 (/bigdata/qiuhan/codet5/usage/goroot/test/codegen/mapaccess.go:267)	LEAQ	command-line-arguments.k+69(SP), CX
	0x0259 00601 (/bigdata/qiuhan/codet5/usage/goroot/test/codegen/mapaccess.go:267)	PCDATA	$1, $4
	0x0259 00601 (/bigdata/qiuhan/codet5/usage/goroot/test/codegen/mapaccess.go:267)	CALL	runtime.mapaccess1(SB)
	0x025e 00606 (/bigdata/qiuhan/codet5/usage/goroot/test/codegen/mapaccess.go:267)	MOVQ	8(AX), BX
	0x0262 00610 (/bigdata/qiuhan/codet5/usage/goroot/test/codegen/mapaccess.go:267)	LEAQ	4(BX), DX
	0x0266 00614 (/bigdata/qiuhan/codet5/usage/goroot/test/codegen/mapaccess.go:267)	MOVQ	(AX), SI
	0x0269 00617 (/bigdata/qiuhan/codet5/usage/goroot/test/codegen/mapaccess.go:267)	CMPQ	DX, $4
	0x026d 00621 (/bigdata/qiuhan/codet5/usage/goroot/test/codegen/mapaccess.go:267)	JHI	638
	0x026f 00623 (/bigdata/qiuhan/codet5/usage/goroot/test/codegen/mapaccess.go:267)	MOVQ	command-line-arguments..autotmp_32+128(SP), AX
	0x0277 00631 (/bigdata/qiuhan/codet5/usage/goroot/test/codegen/mapaccess.go:267)	MOVL	$4, CX
	0x027c 00636 (/bigdata/qiuhan/codet5/usage/goroot/test/codegen/mapaccess.go:267)	JMP	692
	0x027e 00638 (/bigdata/qiuhan/codet5/usage/goroot/test/codegen/mapaccess.go:267)	MOVQ	BX, command-line-arguments..autotmp_34+80(SP)
	0x0283 00643 (/bigdata/qiuhan/codet5/usage/goroot/test/codegen/mapaccess.go:267)	MOVQ	SI, command-line-arguments..autotmp_35+112(SP)
	0x0288 00648 (/bigdata/qiuhan/codet5/usage/goroot/test/codegen/mapaccess.go:267)	MOVQ	command-line-arguments..autotmp_32+128(SP), AX
	0x0290 00656 (/bigdata/qiuhan/codet5/usage/goroot/test/codegen/mapaccess.go:267)	MOVL	$4, CX
	0x0295 00661 (/bigdata/qiuhan/codet5/usage/goroot/test/codegen/mapaccess.go:267)	MOVQ	BX, DI
	0x0298 00664 (/bigdata/qiuhan/codet5/usage/goroot/test/codegen/mapaccess.go:267)	LEAQ	type:int8(SB), SI
	0x029f 00671 (/bigdata/qiuhan/codet5/usage/goroot/test/codegen/mapaccess.go:267)	MOVQ	DX, BX
	0x02a2 00674 (/bigdata/qiuhan/codet5/usage/goroot/test/codegen/mapaccess.go:267)	PCDATA	$1, $6
	0x02a2 00674 (/bigdata/qiuhan/codet5/usage/goroot/test/codegen/mapaccess.go:267)	CALL	runtime.growslice(SB)
	0x02a7 00679 (/bigdata/qiuhan/codet5/usage/goroot/test/codegen/mapaccess.go:267)	MOVQ	command-line-arguments..autotmp_35+112(SP), SI
	0x02ac 00684 (/bigdata/qiuhan/codet5/usage/goroot/test/codegen/mapaccess.go:267)	MOVQ	BX, DX
	0x02af 00687 (/bigdata/qiuhan/codet5/usage/goroot/test/codegen/mapaccess.go:267)	MOVQ	command-line-arguments..autotmp_34+80(SP), BX
	0x02b4 00692 (/bigdata/qiuhan/codet5/usage/goroot/test/codegen/mapaccess.go:267)	MOVQ	AX, command-line-arguments..autotmp_36+104(SP)
	0x02b9 00697 (/bigdata/qiuhan/codet5/usage/goroot/test/codegen/mapaccess.go:267)	MOVQ	CX, command-line-arguments..autotmp_34+80(SP)
	0x02be 00702 (/bigdata/qiuhan/codet5/usage/goroot/test/codegen/mapaccess.go:267)	MOVQ	DX, command-line-arguments..autotmp_37+72(SP)
	0x02c3 00707 (/bigdata/qiuhan/codet5/usage/goroot/test/codegen/mapaccess.go:267)	LEAQ	4(AX), DI
	0x02c7 00711 (/bigdata/qiuhan/codet5/usage/goroot/test/codegen/mapaccess.go:267)	MOVQ	DI, AX
	0x02ca 00714 (/bigdata/qiuhan/codet5/usage/goroot/test/codegen/mapaccess.go:267)	MOVQ	BX, R9
	0x02cd 00717 (/bigdata/qiuhan/codet5/usage/goroot/test/codegen/mapaccess.go:267)	MOVQ	SI, BX
	0x02d0 00720 (/bigdata/qiuhan/codet5/usage/goroot/test/codegen/mapaccess.go:267)	MOVQ	R9, CX
	0x02d3 00723 (/bigdata/qiuhan/codet5/usage/goroot/test/codegen/mapaccess.go:267)	PCDATA	$1, $7
	0x02d3 00723 (/bigdata/qiuhan/codet5/usage/goroot/test/codegen/mapaccess.go:267)	CALL	runtime.memmove(SB)
	0x02d8 00728 (/bigdata/qiuhan/codet5/usage/goroot/test/codegen/mapaccess.go:267)	LEAQ	type:map[int8][]int8(SB), AX
	0x02df 00735 (/bigdata/qiuhan/codet5/usage/goroot/test/codegen/mapaccess.go:267)	LEAQ	command-line-arguments..autotmp_5+152(SP), BX
	0x02e7 00743 (/bigdata/qiuhan/codet5/usage/goroot/test/codegen/mapaccess.go:267)	LEAQ	command-line-arguments.k+69(SP), CX
	0x02ec 00748 (/bigdata/qiuhan/codet5/usage/goroot/test/codegen/mapaccess.go:267)	CALL	runtime.mapassign(SB)
	0x02f1 00753 (/bigdata/qiuhan/codet5/usage/goroot/test/codegen/mapaccess.go:267)	MOVQ	command-line-arguments..autotmp_37+72(SP), DX
	0x02f6 00758 (/bigdata/qiuhan/codet5/usage/goroot/test/codegen/mapaccess.go:267)	MOVQ	DX, 8(AX)
	0x02fa 00762 (/bigdata/qiuhan/codet5/usage/goroot/test/codegen/mapaccess.go:267)	MOVQ	command-line-arguments..autotmp_34+80(SP), DX
	0x02ff 00767 (/bigdata/qiuhan/codet5/usage/goroot/test/codegen/mapaccess.go:267)	MOVQ	DX, 16(AX)
	0x0303 00771 (/bigdata/qiuhan/codet5/usage/goroot/test/codegen/mapaccess.go:267)	PCDATA	$0, $-2
	0x0303 00771 (/bigdata/qiuhan/codet5/usage/goroot/test/codegen/mapaccess.go:267)	CMPL	runtime.writeBarrier(SB), $0
	0x030a 00778 (/bigdata/qiuhan/codet5/usage/goroot/test/codegen/mapaccess.go:267)	JNE	790
	0x030c 00780 (/bigdata/qiuhan/codet5/usage/goroot/test/codegen/mapaccess.go:267)	MOVQ	command-line-arguments..autotmp_36+104(SP), DX
	0x0311 00785 (/bigdata/qiuhan/codet5/usage/goroot/test/codegen/mapaccess.go:267)	MOVQ	DX, (AX)
	0x0314 00788 (/bigdata/qiuhan/codet5/usage/goroot/test/codegen/mapaccess.go:267)	JMP	805
	0x0316 00790 (/bigdata/qiuhan/codet5/usage/goroot/test/codegen/mapaccess.go:267)	MOVQ	AX, DI
	0x0319 00793 (/bigdata/qiuhan/codet5/usage/goroot/test/codegen/mapaccess.go:267)	MOVQ	command-line-arguments..autotmp_36+104(SP), DX
	0x031e 00798 (/bigdata/qiuhan/codet5/usage/goroot/test/codegen/mapaccess.go:267)	NOP
	0x0320 00800 (/bigdata/qiuhan/codet5/usage/goroot/test/codegen/mapaccess.go:267)	CALL	runtime.gcWriteBarrierDX(SB)
	0x0325 00805 (/bigdata/qiuhan/codet5/usage/goroot/test/codegen/mapaccess.go:273)	PCDATA	$0, $-1
	0x0325 00805 (/bigdata/qiuhan/codet5/usage/goroot/test/codegen/mapaccess.go:273)	LEAQ	type:map[int8][]int8(SB), AX
	0x032c 00812 (/bigdata/qiuhan/codet5/usage/goroot/test/codegen/mapaccess.go:273)	LEAQ	command-line-arguments..autotmp_5+152(SP), BX
	0x0334 00820 (/bigdata/qiuhan/codet5/usage/goroot/test/codegen/mapaccess.go:273)	LEAQ	command-line-arguments.k+69(SP), CX
	0x0339 00825 (/bigdata/qiuhan/codet5/usage/goroot/test/codegen/mapaccess.go:273)	PCDATA	$1, $1
	0x0339 00825 (/bigdata/qiuhan/codet5/usage/goroot/test/codegen/mapaccess.go:273)	CALL	runtime.mapaccess1(SB)
	0x033e 00830 (/bigdata/qiuhan/codet5/usage/goroot/test/codegen/mapaccess.go:273)	MOVQ	8(AX), BX
	0x0342 00834 (/bigdata/qiuhan/codet5/usage/goroot/test/codegen/mapaccess.go:273)	INCQ	BX
	0x0345 00837 (/bigdata/qiuhan/codet5/usage/goroot/test/codegen/mapaccess.go:273)	MOVQ	16(AX), CX
	0x0349 00841 (/bigdata/qiuhan/codet5/usage/goroot/test/codegen/mapaccess.go:273)	MOVQ	(AX), AX
	0x034c 00844 (/bigdata/qiuhan/codet5/usage/goroot/test/codegen/mapaccess.go:273)	CMPQ	CX, BX
	0x034f 00847 (/bigdata/qiuhan/codet5/usage/goroot/test/codegen/mapaccess.go:273)	JCC	869
	0x0351 00849 (/bigdata/qiuhan/codet5/usage/goroot/test/codegen/mapaccess.go:273)	MOVL	$1, DI
	0x0356 00854 (/bigdata/qiuhan/codet5/usage/goroot/test/codegen/mapaccess.go:273)	LEAQ	type:int8(SB), SI
	0x035d 00861 (/bigdata/qiuhan/codet5/usage/goroot/test/codegen/mapaccess.go:273)	NOP
	0x0360 00864 (/bigdata/qiuhan/codet5/usage/goroot/test/codegen/mapaccess.go:273)	CALL	runtime.growslice(SB)
	0x0365 00869 (/bigdata/qiuhan/codet5/usage/goroot/test/codegen/mapaccess.go:273)	MOVQ	AX, command-line-arguments..autotmp_38+96(SP)
	0x036a 00874 (/bigdata/qiuhan/codet5/usage/goroot/test/codegen/mapaccess.go:273)	MOVQ	BX, command-line-arguments..autotmp_34+80(SP)
	0x036f 00879 (/bigdata/qiuhan/codet5/usage/goroot/test/codegen/mapaccess.go:273)	MOVQ	CX, command-line-arguments..autotmp_37+72(SP)
	0x0374 00884 (/bigdata/qiuhan/codet5/usage/goroot/test/codegen/mapaccess.go:273)	MOVB	$99, -1(BX)(AX*1)
	0x0379 00889 (/bigdata/qiuhan/codet5/usage/goroot/test/codegen/mapaccess.go:273)	MOVBLZX	command-line-arguments.k+69(SP), DX
	0x037e 00894 (/bigdata/qiuhan/codet5/usage/goroot/test/codegen/mapaccess.go:273)	MOVB	DL, command-line-arguments..autotmp_24+71(SP)
	0x0382 00898 (/bigdata/qiuhan/codet5/usage/goroot/test/codegen/mapaccess.go:273)	MOVBLZX	command-line-arguments.sinkAppend(SB), DX
	0x0389 00905 (/bigdata/qiuhan/codet5/usage/goroot/test/codegen/mapaccess.go:273)	XORL	$1, DX
	0x038c 00908 (/bigdata/qiuhan/codet5/usage/goroot/test/codegen/mapaccess.go:273)	MOVB	DL, command-line-arguments.sinkAppend(SB)
	0x0392 00914 (/bigdata/qiuhan/codet5/usage/goroot/test/codegen/mapaccess.go:273)	LEAQ	type:map[int8][]int8(SB), AX
	0x0399 00921 (/bigdata/qiuhan/codet5/usage/goroot/test/codegen/mapaccess.go:273)	LEAQ	command-line-arguments..autotmp_5+152(SP), BX
	0x03a1 00929 (/bigdata/qiuhan/codet5/usage/goroot/test/codegen/mapaccess.go:273)	LEAQ	command-line-arguments..autotmp_24+71(SP), CX
	0x03a6 00934 (/bigdata/qiuhan/codet5/usage/goroot/test/codegen/mapaccess.go:273)	PCDATA	$1, $8
	0x03a6 00934 (/bigdata/qiuhan/codet5/usage/goroot/test/codegen/mapaccess.go:273)	CALL	runtime.mapassign(SB)
	0x03ab 00939 (/bigdata/qiuhan/codet5/usage/goroot/test/codegen/mapaccess.go:273)	MOVQ	command-line-arguments..autotmp_34+80(SP), DX
	0x03b0 00944 (/bigdata/qiuhan/codet5/usage/goroot/test/codegen/mapaccess.go:273)	MOVQ	DX, 8(AX)
	0x03b4 00948 (/bigdata/qiuhan/codet5/usage/goroot/test/codegen/mapaccess.go:273)	MOVQ	command-line-arguments..autotmp_37+72(SP), DX
	0x03b9 00953 (/bigdata/qiuhan/codet5/usage/goroot/test/codegen/mapaccess.go:273)	MOVQ	DX, 16(AX)
	0x03bd 00957 (/bigdata/qiuhan/codet5/usage/goroot/test/codegen/mapaccess.go:273)	PCDATA	$0, $-2
	0x03bd 00957 (/bigdata/qiuhan/codet5/usage/goroot/test/codegen/mapaccess.go:273)	CMPL	runtime.writeBarrier(SB), $0
	0x03c4 00964 (/bigdata/qiuhan/codet5/usage/goroot/test/codegen/mapaccess.go:273)	JNE	976
	0x03c6 00966 (/bigdata/qiuhan/codet5/usage/goroot/test/codegen/mapaccess.go:273)	MOVQ	command-line-arguments..autotmp_38+96(SP), DX
	0x03cb 00971 (/bigdata/qiuhan/codet5/usage/goroot/test/codegen/mapaccess.go:273)	MOVQ	DX, (AX)
	0x03ce 00974 (/bigdata/qiuhan/codet5/usage/goroot/test/codegen/mapaccess.go:273)	JMP	989
	0x03d0 00976 (/bigdata/qiuhan/codet5/usage/goroot/test/codegen/mapaccess.go:273)	MOVQ	AX, DI
	0x03d3 00979 (/bigdata/qiuhan/codet5/usage/goroot/test/codegen/mapaccess.go:273)	MOVQ	command-line-arguments..autotmp_38+96(SP), DX
	0x03d8 00984 (/bigdata/qiuhan/codet5/usage/goroot/test/codegen/mapaccess.go:273)	CALL	runtime.gcWriteBarrierDX(SB)
	0x03dd 00989 (/bigdata/qiuhan/codet5/usage/goroot/test/codegen/mapaccess.go:279)	PCDATA	$0, $-1
	0x03dd 00989 (/bigdata/qiuhan/codet5/usage/goroot/test/codegen/mapaccess.go:279)	MOVBLZX	command-line-arguments.k+69(SP), DX
	0x03e2 00994 (/bigdata/qiuhan/codet5/usage/goroot/test/codegen/mapaccess.go:279)	INCL	DX
	0x03e4 00996 (/bigdata/qiuhan/codet5/usage/goroot/test/codegen/mapaccess.go:279)	MOVB	DL, command-line-arguments..autotmp_4+70(SP)
	0x03e8 01000 (/bigdata/qiuhan/codet5/usage/goroot/test/codegen/mapaccess.go:279)	LEAQ	type:map[int8][]int8(SB), AX
	0x03ef 01007 (/bigdata/qiuhan/codet5/usage/goroot/test/codegen/mapaccess.go:279)	LEAQ	command-line-arguments..autotmp_5+152(SP), BX
	0x03f7 01015 (/bigdata/qiuhan/codet5/usage/goroot/test/codegen/mapaccess.go:279)	LEAQ	command-line-arguments..autotmp_4+70(SP), CX
	0x03fc 01020 (/bigdata/qiuhan/codet5/usage/goroot/test/codegen/mapaccess.go:279)	PCDATA	$1, $1
	0x03fc 01020 (/bigdata/qiuhan/codet5/usage/goroot/test/codegen/mapaccess.go:279)	NOP
	0x0400 01024 (/bigdata/qiuhan/codet5/usage/goroot/test/codegen/mapaccess.go:279)	CALL	runtime.mapaccess1(SB)
	0x0405 01029 (/bigdata/qiuhan/codet5/usage/goroot/test/codegen/mapaccess.go:279)	MOVQ	8(AX), BX
	0x0409 01033 (/bigdata/qiuhan/codet5/usage/goroot/test/codegen/mapaccess.go:279)	INCQ	BX
	0x040c 01036 (/bigdata/qiuhan/codet5/usage/goroot/test/codegen/mapaccess.go:279)	MOVQ	16(AX), CX
	0x0410 01040 (/bigdata/qiuhan/codet5/usage/goroot/test/codegen/mapaccess.go:279)	MOVQ	(AX), AX
	0x0413 01043 (/bigdata/qiuhan/codet5/usage/goroot/test/codegen/mapaccess.go:279)	CMPQ	CX, BX
	0x0416 01046 (/bigdata/qiuhan/codet5/usage/goroot/test/codegen/mapaccess.go:279)	JCC	1065
	0x0418 01048 (/bigdata/qiuhan/codet5/usage/goroot/test/codegen/mapaccess.go:279)	MOVL	$1, DI
	0x041d 01053 (/bigdata/qiuhan/codet5/usage/goroot/test/codegen/mapaccess.go:279)	LEAQ	type:int8(SB), SI
	0x0424 01060 (/bigdata/qiuhan/codet5/usage/goroot/test/codegen/mapaccess.go:279)	CALL	runtime.growslice(SB)
	0x0429 01065 (/bigdata/qiuhan/codet5/usage/goroot/test/codegen/mapaccess.go:279)	MOVQ	AX, command-line-arguments..autotmp_39+88(SP)
	0x042e 01070 (/bigdata/qiuhan/codet5/usage/goroot/test/codegen/mapaccess.go:279)	MOVQ	BX, command-line-arguments..autotmp_34+80(SP)
	0x0433 01075 (/bigdata/qiuhan/codet5/usage/goroot/test/codegen/mapaccess.go:279)	MOVQ	CX, command-line-arguments..autotmp_37+72(SP)
	0x0438 01080 (/bigdata/qiuhan/codet5/usage/goroot/test/codegen/mapaccess.go:279)	MOVB	$100, -1(BX)(AX*1)
	0x043d 01085 (/bigdata/qiuhan/codet5/usage/goroot/test/codegen/mapaccess.go:279)	LEAQ	type:map[int8][]int8(SB), AX
	0x0444 01092 (/bigdata/qiuhan/codet5/usage/goroot/test/codegen/mapaccess.go:279)	LEAQ	command-line-arguments..autotmp_5+152(SP), BX
	0x044c 01100 (/bigdata/qiuhan/codet5/usage/goroot/test/codegen/mapaccess.go:279)	LEAQ	command-line-arguments.k+69(SP), CX
	0x0451 01105 (/bigdata/qiuhan/codet5/usage/goroot/test/codegen/mapaccess.go:279)	PCDATA	$1, $9
	0x0451 01105 (/bigdata/qiuhan/codet5/usage/goroot/test/codegen/mapaccess.go:279)	CALL	runtime.mapassign(SB)
	0x0456 01110 (/bigdata/qiuhan/codet5/usage/goroot/test/codegen/mapaccess.go:279)	MOVQ	command-line-arguments..autotmp_34+80(SP), DX
	0x045b 01115 (/bigdata/qiuhan/codet5/usage/goroot/test/codegen/mapaccess.go:279)	MOVQ	DX, 8(AX)
	0x045f 01119 (/bigdata/qiuhan/codet5/usage/goroot/test/codegen/mapaccess.go:279)	MOVQ	command-line-arguments..autotmp_37+72(SP), DX
	0x0464 01124 (/bigdata/qiuhan/codet5/usage/goroot/test/codegen/mapaccess.go:279)	MOVQ	DX, 16(AX)
	0x0468 01128 (/bigdata/qiuhan/codet5/usage/goroot/test/codegen/mapaccess.go:279)	PCDATA	$0, $-2
	0x0468 01128 (/bigdata/qiuhan/codet5/usage/goroot/test/codegen/mapaccess.go:279)	CMPL	runtime.writeBarrier(SB), $0
	0x046f 01135 (/bigdata/qiuhan/codet5/usage/goroot/test/codegen/mapaccess.go:279)	JNE	1147
	0x0471 01137 (/bigdata/qiuhan/codet5/usage/goroot/test/codegen/mapaccess.go:279)	MOVQ	command-line-arguments..autotmp_39+88(SP), CX
	0x0476 01142 (/bigdata/qiuhan/codet5/usage/goroot/test/codegen/mapaccess.go:279)	MOVQ	CX, (AX)
	0x0479 01145 (/bigdata/qiuhan/codet5/usage/goroot/test/codegen/mapaccess.go:279)	JMP	1160
	0x047b 01147 (/bigdata/qiuhan/codet5/usage/goroot/test/codegen/mapaccess.go:279)	MOVQ	AX, DI
	0x047e 01150 (/bigdata/qiuhan/codet5/usage/goroot/test/codegen/mapaccess.go:279)	MOVQ	command-line-arguments..autotmp_39+88(SP), AX
	0x0483 01155 (/bigdata/qiuhan/codet5/usage/goroot/test/codegen/mapaccess.go:279)	CALL	runtime.gcWriteBarrier(SB)
	0x0488 01160 (/bigdata/qiuhan/codet5/usage/goroot/test/codegen/mapaccess.go:280)	PCDATA	$0, $-1
	0x0488 01160 (/bigdata/qiuhan/codet5/usage/goroot/test/codegen/mapaccess.go:280)	PCDATA	$1, $-1
	0x0488 01160 (/bigdata/qiuhan/codet5/usage/goroot/test/codegen/mapaccess.go:280)	MOVQ	416(SP), BP
	0x0490 01168 (/bigdata/qiuhan/codet5/usage/goroot/test/codegen/mapaccess.go:280)	ADDQ	$424, SP
	0x0497 01175 (/bigdata/qiuhan/codet5/usage/goroot/test/codegen/mapaccess.go:280)	RET
	0x0498 01176 (/bigdata/qiuhan/codet5/usage/goroot/test/codegen/mapaccess.go:280)	NOP
	0x0498 01176 (/bigdata/qiuhan/codet5/usage/goroot/test/codegen/mapaccess.go:237)	PCDATA	$1, $-1
	0x0498 01176 (/bigdata/qiuhan/codet5/usage/goroot/test/codegen/mapaccess.go:237)	PCDATA	$0, $-2
	0x0498 01176 (/bigdata/qiuhan/codet5/usage/goroot/test/codegen/mapaccess.go:237)	CALL	runtime.morestack_noctxt(SB)
	0x049d 01181 (/bigdata/qiuhan/codet5/usage/goroot/test/codegen/mapaccess.go:237)	PCDATA	$0, $-1
	0x049d 01181 (/bigdata/qiuhan/codet5/usage/goroot/test/codegen/mapaccess.go:237)	NOP
	0x04a0 01184 (/bigdata/qiuhan/codet5/usage/goroot/test/codegen/mapaccess.go:237)	JMP	0
	0x0000 4c 8d a4 24 d8 fe ff ff 4d 3b 66 10 0f 86 86 04  L..$....M;f.....
	0x0010 00 00 48 81 ec a8 01 00 00 48 89 ac 24 a0 01 00  ..H......H..$...
	0x0020 00 48 8d ac 24 a0 01 00 00 44 0f 11 bc 24 98 00  .H..$....D...$..
	0x0030 00 00 44 0f 11 bc 24 a8 00 00 00 44 0f 11 bc 24  ..D...$....D...$
	0x0040 b8 00 00 00 44 0f 11 bc 24 c8 00 00 00 48 8d bc  ....D...$....H..
	0x0050 24 d0 00 00 00 48 8d 7f d0 0f 1f 80 00 00 00 00  $....H..........
	0x0060 48 89 6c 24 f0 48 8d 6c 24 f0 e8 00 00 00 00 48  H.l$.H.l$......H
	0x0070 8b 6d 00 48 8d 84 24 c8 00 00 00 48 89 84 24 a8  .m.H..$....H..$.
	0x0080 00 00 00 e8 00 00 00 00 89 84 24 a4 00 00 00 c6  ..........$.....
	0x0090 44 24 45 00 48 8d 05 00 00 00 00 48 8d 9c 24 98  D$E.H......H..$.
	0x00a0 00 00 00 48 8d 4c 24 45 e8 00 00 00 00 48 8b 08  ...H.L$E.....H..
	0x00b0 48 8b 50 10 48 8b 58 08 48 ff c3 0f 1f 44 00 00  H.P.H.X.H....D..
	0x00c0 48 39 da 73 46 48 89 84 24 90 00 00 00 48 89 c8  H9.sFH..$....H..
	0x00d0 48 89 d1 bf 01 00 00 00 48 8d 35 00 00 00 00 90  H.......H.5.....
	0x00e0 e8 00 00 00 00 48 8b bc 24 90 00 00 00 48 89 4f  .....H..$....H.O
	0x00f0 10 83 3d 00 00 00 00 00 75 06 48 89 07 eb 06 90  ..=.....u.H.....
	0x0100 e8 00 00 00 00 48 89 c1 48 89 f8 48 89 58 08 c6  .....H..H..H.X..
	0x0110 44 0b ff 01 48 8d 05 00 00 00 00 48 8d 9c 24 98  D...H......H..$.
	0x0120 00 00 00 48 8d 4c 24 45 e8 00 00 00 00 48 8b 10  ...H.L$E.....H..
	0x0130 48 8b 48 10 48 8b 58 08 48 83 c3 03 0f 1f 40 00  H.H.H.X.H.....@.
	0x0140 48 39 d9 73 46 48 89 84 24 88 00 00 00 48 89 d0  H9.sFH..$....H..
	0x0150 bf 03 00 00 00 48 8d 35 00 00 00 00 0f 1f 40 00  .....H.5......@.
	0x0160 e8 00 00 00 00 48 8b bc 24 88 00 00 00 48 89 4f  .....H..$....H.O
	0x0170 10 83 3d 00 00 00 00 00 75 06 48 89 07 eb 06 90  ..=.....u.H.....
	0x0180 e8 00 00 00 00 48 89 c2 48 89 f8 48 89 58 08 66  .....H..H..H.X.f
	0x0190 c7 44 13 fd 01 02 c6 44 13 ff 03 48 8d 05 00 00  .D.....D...H....
	0x01a0 00 00 e8 00 00 00 00 48 89 84 24 80 00 00 00 c7  .......H..$.....
	0x01b0 00 07 08 09 00 48 8d 9c 24 98 00 00 00 48 8d 4c  .....H..$....H.L
	0x01c0 24 45 48 8d 05 00 00 00 00 e8 00 00 00 00 48 8b  $EH...........H.
	0x01d0 48 10 48 8b 10 48 8b 58 08 48 8d 73 04 0f 1f 00  H.H..H.X.H.s....
	0x01e0 48 39 f1 73 31 48 89 44 24 78 48 89 5c 24 50 48  H9.s1H.D$xH.\$PH
	0x01f0 89 d0 48 89 f3 bf 04 00 00 00 48 8d 35 00 00 00  ..H.......H.5...
	0x0200 00 e8 00 00 00 00 48 89 c2 48 89 de 48 8b 44 24  ......H..H..H.D$
	0x0210 78 48 8b 5c 24 50 4c 8b 84 24 80 00 00 00 45 8b  xH.\$PL..$....E.
	0x0220 08 44 89 0c 1a 48 89 70 08 48 89 48 10 83 3d 00  .D...H.p.H.H..=.
	0x0230 00 00 00 00 75 05 48 89 10 eb 0a 48 89 c7 66 90  ....u.H....H..f.
	0x0240 e8 00 00 00 00 48 8d 05 00 00 00 00 48 8d 9c 24  .....H......H..$
	0x0250 98 00 00 00 48 8d 4c 24 45 e8 00 00 00 00 48 8b  ....H.L$E.....H.
	0x0260 58 08 48 8d 53 04 48 8b 30 48 83 fa 04 77 0f 48  X.H.S.H.0H...w.H
	0x0270 8b 84 24 80 00 00 00 b9 04 00 00 00 eb 36 48 89  ..$..........6H.
	0x0280 5c 24 50 48 89 74 24 70 48 8b 84 24 80 00 00 00  \$PH.t$pH..$....
	0x0290 b9 04 00 00 00 48 89 df 48 8d 35 00 00 00 00 48  .....H..H.5....H
	0x02a0 89 d3 e8 00 00 00 00 48 8b 74 24 70 48 89 da 48  .......H.t$pH..H
	0x02b0 8b 5c 24 50 48 89 44 24 68 48 89 4c 24 50 48 89  .\$PH.D$hH.L$PH.
	0x02c0 54 24 48 48 8d 78 04 48 89 f8 49 89 d9 48 89 f3  T$HH.x.H..I..H..
	0x02d0 4c 89 c9 e8 00 00 00 00 48 8d 05 00 00 00 00 48  L.......H......H
	0x02e0 8d 9c 24 98 00 00 00 48 8d 4c 24 45 e8 00 00 00  ..$....H.L$E....
	0x02f0 00 48 8b 54 24 48 48 89 50 08 48 8b 54 24 50 48  .H.T$HH.P.H.T$PH
	0x0300 89 50 10 83 3d 00 00 00 00 00 75 0a 48 8b 54 24  .P..=.....u.H.T$
	0x0310 68 48 89 10 eb 0f 48 89 c7 48 8b 54 24 68 66 90  hH....H..H.T$hf.
	0x0320 e8 00 00 00 00 48 8d 05 00 00 00 00 48 8d 9c 24  .....H......H..$
	0x0330 98 00 00 00 48 8d 4c 24 45 e8 00 00 00 00 48 8b  ....H.L$E.....H.
	0x0340 58 08 48 ff c3 48 8b 48 10 48 8b 00 48 39 d9 73  X.H..H.H.H..H9.s
	0x0350 14 bf 01 00 00 00 48 8d 35 00 00 00 00 0f 1f 00  ......H.5.......
	0x0360 e8 00 00 00 00 48 89 44 24 60 48 89 5c 24 50 48  .....H.D$`H.\$PH
	0x0370 89 4c 24 48 c6 44 03 ff 63 0f b6 54 24 45 88 54  .L$H.D..c..T$E.T
	0x0380 24 47 0f b6 15 00 00 00 00 83 f2 01 88 15 00 00  $G..............
	0x0390 00 00 48 8d 05 00 00 00 00 48 8d 9c 24 98 00 00  ..H......H..$...
	0x03a0 00 48 8d 4c 24 47 e8 00 00 00 00 48 8b 54 24 50  .H.L$G.....H.T$P
	0x03b0 48 89 50 08 48 8b 54 24 48 48 89 50 10 83 3d 00  H.P.H.T$HH.P..=.
	0x03c0 00 00 00 00 75 0a 48 8b 54 24 60 48 89 10 eb 0d  ....u.H.T$`H....
	0x03d0 48 89 c7 48 8b 54 24 60 e8 00 00 00 00 0f b6 54  H..H.T$`.......T
	0x03e0 24 45 ff c2 88 54 24 46 48 8d 05 00 00 00 00 48  $E...T$FH......H
	0x03f0 8d 9c 24 98 00 00 00 48 8d 4c 24 46 0f 1f 40 00  ..$....H.L$F..@.
	0x0400 e8 00 00 00 00 48 8b 58 08 48 ff c3 48 8b 48 10  .....H.X.H..H.H.
	0x0410 48 8b 00 48 39 d9 73 11 bf 01 00 00 00 48 8d 35  H..H9.s......H.5
	0x0420 00 00 00 00 e8 00 00 00 00 48 89 44 24 58 48 89  .........H.D$XH.
	0x0430 5c 24 50 48 89 4c 24 48 c6 44 03 ff 64 48 8d 05  \$PH.L$H.D..dH..
	0x0440 00 00 00 00 48 8d 9c 24 98 00 00 00 48 8d 4c 24  ....H..$....H.L$
	0x0450 45 e8 00 00 00 00 48 8b 54 24 50 48 89 50 08 48  E.....H.T$PH.P.H
	0x0460 8b 54 24 48 48 89 50 10 83 3d 00 00 00 00 00 75  .T$HH.P..=.....u
	0x0470 0a 48 8b 4c 24 58 48 89 08 eb 0d 48 89 c7 48 8b  .H.L$XH....H..H.
	0x0480 44 24 58 e8 00 00 00 00 48 8b ac 24 a0 01 00 00  D$X.....H..$....
	0x0490 48 81 c4 a8 01 00 00 c3 e8 00 00 00 00 0f 1f 00  H...............
	0x04a0 e9 5b fb ff ff                                   .[...
	rel 107+4 t=7 runtime.duffzero<1>+290
	rel 132+4 t=7 runtime.fastrand<1>+0
	rel 151+4 t=14 type:map[int8][]int8<0>+0
	rel 169+4 t=7 runtime.mapassign<1>+0
	rel 219+4 t=14 type:int8<0>+0
	rel 225+4 t=7 runtime.growslice<1>+0
	rel 243+4 t=14 runtime.writeBarrier<0>+-1
	rel 257+4 t=7 runtime.gcWriteBarrier<1>+0
	rel 279+4 t=14 type:map[int8][]int8<0>+0
	rel 297+4 t=7 runtime.mapassign<1>+0
	rel 344+4 t=14 type:int8<0>+0
	rel 353+4 t=7 runtime.growslice<1>+0
	rel 371+4 t=14 runtime.writeBarrier<0>+-1
	rel 385+4 t=7 runtime.gcWriteBarrier<1>+0
	rel 414+4 t=14 type:[4]int8<0>+0
	rel 419+4 t=7 runtime.newobject<1>+0
	rel 453+4 t=14 type:map[int8][]int8<0>+0
	rel 458+4 t=7 runtime.mapassign<1>+0
	rel 509+4 t=14 type:int8<0>+0
	rel 514+4 t=7 runtime.growslice<1>+0
	rel 559+4 t=14 runtime.writeBarrier<0>+-1
	rel 577+4 t=7 runtime.gcWriteBarrierDX<1>+0
	rel 584+4 t=14 type:map[int8][]int8<0>+0
	rel 602+4 t=7 runtime.mapaccess1<1>+0
	rel 667+4 t=14 type:int8<0>+0
	rel 675+4 t=7 runtime.growslice<1>+0
	rel 724+4 t=7 runtime.memmove<1>+0
	rel 731+4 t=14 type:map[int8][]int8<0>+0
	rel 749+4 t=7 runtime.mapassign<1>+0
	rel 773+4 t=14 runtime.writeBarrier<0>+-1
	rel 801+4 t=7 runtime.gcWriteBarrierDX<1>+0
	rel 808+4 t=14 type:map[int8][]int8<0>+0
	rel 826+4 t=7 runtime.mapaccess1<1>+0
	rel 857+4 t=14 type:int8<0>+0
	rel 865+4 t=7 runtime.growslice<1>+0
	rel 901+4 t=14 command-line-arguments.sinkAppend<0>+0
	rel 910+4 t=14 command-line-arguments.sinkAppend<0>+0
	rel 917+4 t=14 type:map[int8][]int8<0>+0
	rel 935+4 t=7 runtime.mapassign<1>+0
	rel 959+4 t=14 runtime.writeBarrier<0>+-1
	rel 985+4 t=7 runtime.gcWriteBarrierDX<1>+0
	rel 1003+4 t=14 type:map[int8][]int8<0>+0
	rel 1025+4 t=7 runtime.mapaccess1<1>+0
	rel 1056+4 t=14 type:int8<0>+0
	rel 1061+4 t=7 runtime.growslice<1>+0
	rel 1088+4 t=14 type:map[int8][]int8<0>+0
	rel 1106+4 t=7 runtime.mapassign<1>+0
	rel 1130+4 t=14 runtime.writeBarrier<0>+-1
	rel 1156+4 t=7 runtime.gcWriteBarrier<1>+0
	rel 1177+4 t=7 runtime.morestack_noctxt<0>+0
command-line-arguments.mapAppendAssignmentInt32<1> STEXT size=1439 args=0x0 locals=0x1b0 funcid=0x0 align=0x0
	0x0000 00000 (/bigdata/qiuhan/codet5/usage/goroot/test/codegen/mapaccess.go:282)	TEXT	command-line-arguments.mapAppendAssignmentInt32(SB), ABIInternal, $432-0
	0x0000 00000 (/bigdata/qiuhan/codet5/usage/goroot/test/codegen/mapaccess.go:282)	LEAQ	-304(SP), R12
	0x0008 00008 (/bigdata/qiuhan/codet5/usage/goroot/test/codegen/mapaccess.go:282)	CMPQ	R12, 16(R14)
	0x000c 00012 (/bigdata/qiuhan/codet5/usage/goroot/test/codegen/mapaccess.go:282)	PCDATA	$0, $-2
	0x000c 00012 (/bigdata/qiuhan/codet5/usage/goroot/test/codegen/mapaccess.go:282)	JLS	1429
	0x0012 00018 (/bigdata/qiuhan/codet5/usage/goroot/test/codegen/mapaccess.go:282)	PCDATA	$0, $-1
	0x0012 00018 (/bigdata/qiuhan/codet5/usage/goroot/test/codegen/mapaccess.go:282)	SUBQ	$432, SP
	0x0019 00025 (/bigdata/qiuhan/codet5/usage/goroot/test/codegen/mapaccess.go:282)	MOVQ	BP, 424(SP)
	0x0021 00033 (/bigdata/qiuhan/codet5/usage/goroot/test/codegen/mapaccess.go:282)	LEAQ	424(SP), BP
	0x0029 00041 (/bigdata/qiuhan/codet5/usage/goroot/test/codegen/mapaccess.go:282)	FUNCDATA	$0, gclocals·Xu4NijPRinf///4s/1zhiQ==(SB)
	0x0029 00041 (/bigdata/qiuhan/codet5/usage/goroot/test/codegen/mapaccess.go:282)	FUNCDATA	$1, gclocals·EbTz5M5v/PJ7mHPb46iC8g==(SB)
	0x0029 00041 (/bigdata/qiuhan/codet5/usage/goroot/test/codegen/mapaccess.go:282)	FUNCDATA	$2, command-line-arguments.mapAppendAssignmentInt32.stkobj(SB)
	0x0029 00041 (/bigdata/qiuhan/codet5/usage/goroot/test/codegen/mapaccess.go:283)	MOVUPS	X15, command-line-arguments..autotmp_4+136(SP)
	0x0032 00050 (/bigdata/qiuhan/codet5/usage/goroot/test/codegen/mapaccess.go:283)	MOVUPS	X15, command-line-arguments..autotmp_4+152(SP)
	0x003b 00059 (/bigdata/qiuhan/codet5/usage/goroot/test/codegen/mapaccess.go:283)	MOVUPS	X15, command-line-arguments..autotmp_4+168(SP)
	0x0044 00068 (/bigdata/qiuhan/codet5/usage/goroot/test/codegen/mapaccess.go:283)	LEAQ	command-line-arguments..autotmp_5+184(SP), DI
	0x004c 00076 (/bigdata/qiuhan/codet5/usage/goroot/test/codegen/mapaccess.go:283)	PCDATA	$0, $-2
	0x004c 00076 (/bigdata/qiuhan/codet5/usage/goroot/test/codegen/mapaccess.go:283)	LEAQ	-16(DI), DI
	0x0050 00080 (/bigdata/qiuhan/codet5/usage/goroot/test/codegen/mapaccess.go:283)	NOP
	0x0060 00096 (/bigdata/qiuhan/codet5/usage/goroot/test/codegen/mapaccess.go:283)	DUFFZERO	$280
	0x0073 00115 (/bigdata/qiuhan/codet5/usage/goroot/test/codegen/mapaccess.go:283)	PCDATA	$0, $-1
	0x0073 00115 (/bigdata/qiuhan/codet5/usage/goroot/test/codegen/mapaccess.go:283)	LEAQ	command-line-arguments..autotmp_5+184(SP), AX
	0x007b 00123 (/bigdata/qiuhan/codet5/usage/goroot/test/codegen/mapaccess.go:283)	MOVQ	AX, command-line-arguments..autotmp_4+152(SP)
	0x0083 00131 (/bigdata/qiuhan/codet5/usage/goroot/test/codegen/mapaccess.go:283)	PCDATA	$1, $1
	0x0083 00131 (/bigdata/qiuhan/codet5/usage/goroot/test/codegen/mapaccess.go:283)	CALL	runtime.fastrand(SB)
	0x0088 00136 (/bigdata/qiuhan/codet5/usage/goroot/test/codegen/mapaccess.go:283)	MOVL	AX, command-line-arguments..autotmp_4+148(SP)
	0x008f 00143 (/bigdata/qiuhan/codet5/usage/goroot/test/codegen/mapaccess.go:290)	LEAQ	type:map[int32][]int32(SB), AX
	0x0096 00150 (/bigdata/qiuhan/codet5/usage/goroot/test/codegen/mapaccess.go:290)	LEAQ	command-line-arguments..autotmp_4+136(SP), BX
	0x009e 00158 (/bigdata/qiuhan/codet5/usage/goroot/test/codegen/mapaccess.go:290)	XORL	CX, CX
	0x00a0 00160 (/bigdata/qiuhan/codet5/usage/goroot/test/codegen/mapaccess.go:290)	CALL	runtime.mapassign_fast32(SB)
	0x00a5 00165 (/bigdata/qiuhan/codet5/usage/goroot/test/codegen/mapaccess.go:290)	MOVQ	(AX), CX
	0x00a8 00168 (/bigdata/qiuhan/codet5/usage/goroot/test/codegen/mapaccess.go:290)	MOVQ	16(AX), DX
	0x00ac 00172 (/bigdata/qiuhan/codet5/usage/goroot/test/codegen/mapaccess.go:290)	MOVQ	8(AX), BX
	0x00b0 00176 (/bigdata/qiuhan/codet5/usage/goroot/test/codegen/mapaccess.go:290)	INCQ	BX
	0x00b3 00179 (/bigdata/qiuhan/codet5/usage/goroot/test/codegen/mapaccess.go:290)	CMPQ	DX, BX
	0x00b6 00182 (/bigdata/qiuhan/codet5/usage/goroot/test/codegen/mapaccess.go:290)	JCC	252
	0x00b8 00184 (/bigdata/qiuhan/codet5/usage/goroot/test/codegen/mapaccess.go:290)	MOVQ	AX, command-line-arguments..autotmp_43+128(SP)
	0x00c0 00192 (/bigdata/qiuhan/codet5/usage/goroot/test/codegen/mapaccess.go:290)	MOVQ	CX, AX
	0x00c3 00195 (/bigdata/qiuhan/codet5/usage/goroot/test/codegen/mapaccess.go:290)	MOVQ	DX, CX
	0x00c6 00198 (/bigdata/qiuhan/codet5/usage/goroot/test/codegen/mapaccess.go:290)	MOVL	$1, DI
	0x00cb 00203 (/bigdata/qiuhan/codet5/usage/goroot/test/codegen/mapaccess.go:290)	LEAQ	type:int32(SB), SI
	0x00d2 00210 (/bigdata/qiuhan/codet5/usage/goroot/test/codegen/mapaccess.go:290)	PCDATA	$1, $2
	0x00d2 00210 (/bigdata/qiuhan/codet5/usage/goroot/test/codegen/mapaccess.go:290)	CALL	runtime.growslice(SB)
	0x00d7 00215 (/bigdata/qiuhan/codet5/usage/goroot/test/codegen/mapaccess.go:290)	MOVQ	command-line-arguments..autotmp_43+128(SP), DI
	0x00df 00223 (/bigdata/qiuhan/codet5/usage/goroot/test/codegen/mapaccess.go:290)	MOVQ	CX, 16(DI)
	0x00e3 00227 (/bigdata/qiuhan/codet5/usage/goroot/test/codegen/mapaccess.go:290)	PCDATA	$0, $-2
	0x00e3 00227 (/bigdata/qiuhan/codet5/usage/goroot/test/codegen/mapaccess.go:290)	CMPL	runtime.writeBarrier(SB), $0
	0x00ea 00234 (/bigdata/qiuhan/codet5/usage/goroot/test/codegen/mapaccess.go:290)	JNE	241
	0x00ec 00236 (/bigdata/qiuhan/codet5/usage/goroot/test/codegen/mapaccess.go:290)	MOVQ	AX, (DI)
	0x00ef 00239 (/bigdata/qiuhan/codet5/usage/goroot/test/codegen/mapaccess.go:290)	JMP	246
	0x00f1 00241 (/bigdata/qiuhan/codet5/usage/goroot/test/codegen/mapaccess.go:290)	CALL	runtime.gcWriteBarrier(SB)
	0x00f6 00246 (/bigdata/qiuhan/codet5/usage/goroot/test/codegen/mapaccess.go:290)	PCDATA	$0, $-1
	0x00f6 00246 (/bigdata/qiuhan/codet5/usage/goroot/test/codegen/mapaccess.go:290)	MOVQ	AX, CX
	0x00f9 00249 (/bigdata/qiuhan/codet5/usage/goroot/test/codegen/mapaccess.go:290)	MOVQ	DI, AX
	0x00fc 00252 (/bigdata/qiuhan/codet5/usage/goroot/test/codegen/mapaccess.go:290)	MOVQ	BX, 8(AX)
	0x0100 00256 (/bigdata/qiuhan/codet5/usage/goroot/test/codegen/mapaccess.go:290)	MOVL	$1, -4(CX)(BX*4)
	0x0108 00264 (/bigdata/qiuhan/codet5/usage/goroot/test/codegen/mapaccess.go:296)	LEAQ	type:map[int32][]int32(SB), AX
	0x010f 00271 (/bigdata/qiuhan/codet5/usage/goroot/test/codegen/mapaccess.go:296)	LEAQ	command-line-arguments..autotmp_4+136(SP), BX
	0x0117 00279 (/bigdata/qiuhan/codet5/usage/goroot/test/codegen/mapaccess.go:296)	XORL	CX, CX
	0x0119 00281 (/bigdata/qiuhan/codet5/usage/goroot/test/codegen/mapaccess.go:296)	PCDATA	$1, $1
	0x0119 00281 (/bigdata/qiuhan/codet5/usage/goroot/test/codegen/mapaccess.go:296)	CALL	runtime.mapassign_fast32(SB)
	0x011e 00286 (/bigdata/qiuhan/codet5/usage/goroot/test/codegen/mapaccess.go:296)	MOVQ	(AX), DX
	0x0121 00289 (/bigdata/qiuhan/codet5/usage/goroot/test/codegen/mapaccess.go:296)	MOVQ	16(AX), CX
	0x0125 00293 (/bigdata/qiuhan/codet5/usage/goroot/test/codegen/mapaccess.go:296)	MOVQ	8(AX), BX
	0x0129 00297 (/bigdata/qiuhan/codet5/usage/goroot/test/codegen/mapaccess.go:296)	ADDQ	$3, BX
	0x012d 00301 (/bigdata/qiuhan/codet5/usage/goroot/test/codegen/mapaccess.go:296)	CMPQ	CX, BX
	0x0130 00304 (/bigdata/qiuhan/codet5/usage/goroot/test/codegen/mapaccess.go:296)	JCC	365
	0x0132 00306 (/bigdata/qiuhan/codet5/usage/goroot/test/codegen/mapaccess.go:296)	MOVQ	AX, command-line-arguments..autotmp_44+120(SP)
	0x0137 00311 (/bigdata/qiuhan/codet5/usage/goroot/test/codegen/mapaccess.go:296)	MOVQ	DX, AX
	0x013a 00314 (/bigdata/qiuhan/codet5/usage/goroot/test/codegen/mapaccess.go:296)	MOVL	$3, DI
	0x013f 00319 (/bigdata/qiuhan/codet5/usage/goroot/test/codegen/mapaccess.go:296)	LEAQ	type:int32(SB), SI
	0x0146 00326 (/bigdata/qiuhan/codet5/usage/goroot/test/codegen/mapaccess.go:296)	PCDATA	$1, $3
	0x0146 00326 (/bigdata/qiuhan/codet5/usage/goroot/test/codegen/mapaccess.go:296)	CALL	runtime.growslice(SB)
	0x014b 00331 (/bigdata/qiuhan/codet5/usage/goroot/test/codegen/mapaccess.go:296)	MOVQ	command-line-arguments..autotmp_44+120(SP), DI
	0x0150 00336 (/bigdata/qiuhan/codet5/usage/goroot/test/codegen/mapaccess.go:296)	MOVQ	CX, 16(DI)
	0x0154 00340 (/bigdata/qiuhan/codet5/usage/goroot/test/codegen/mapaccess.go:296)	PCDATA	$0, $-2
	0x0154 00340 (/bigdata/qiuhan/codet5/usage/goroot/test/codegen/mapaccess.go:296)	CMPL	runtime.writeBarrier(SB), $0
	0x015b 00347 (/bigdata/qiuhan/codet5/usage/goroot/test/codegen/mapaccess.go:296)	JNE	354
	0x015d 00349 (/bigdata/qiuhan/codet5/usage/goroot/test/codegen/mapaccess.go:296)	MOVQ	AX, (DI)
	0x0160 00352 (/bigdata/qiuhan/codet5/usage/goroot/test/codegen/mapaccess.go:296)	JMP	359
	0x0162 00354 (/bigdata/qiuhan/codet5/usage/goroot/test/codegen/mapaccess.go:296)	CALL	runtime.gcWriteBarrier(SB)
	0x0167 00359 (/bigdata/qiuhan/codet5/usage/goroot/test/codegen/mapaccess.go:296)	PCDATA	$0, $-1
	0x0167 00359 (/bigdata/qiuhan/codet5/usage/goroot/test/codegen/mapaccess.go:296)	MOVQ	AX, DX
	0x016a 00362 (/bigdata/qiuhan/codet5/usage/goroot/test/codegen/mapaccess.go:296)	MOVQ	DI, AX
	0x016d 00365 (/bigdata/qiuhan/codet5/usage/goroot/test/codegen/mapaccess.go:296)	MOVQ	BX, 8(AX)
	0x0171 00369 (/bigdata/qiuhan/codet5/usage/goroot/test/codegen/mapaccess.go:296)	LEAQ	(DX)(BX*4), CX
	0x0175 00373 (/bigdata/qiuhan/codet5/usage/goroot/test/codegen/mapaccess.go:296)	LEAQ	-12(CX), CX
	0x0179 00377 (/bigdata/qiuhan/codet5/usage/goroot/test/codegen/mapaccess.go:296)	MOVQ	$8589934593, SI
	0x0183 00387 (/bigdata/qiuhan/codet5/usage/goroot/test/codegen/mapaccess.go:296)	MOVQ	SI, (CX)
	0x0186 00390 (/bigdata/qiuhan/codet5/usage/goroot/test/codegen/mapaccess.go:296)	MOVL	$3, -4(DX)(BX*4)
	0x018e 00398 (/bigdata/qiuhan/codet5/usage/goroot/test/codegen/mapaccess.go:298)	LEAQ	type:[4]int32(SB), AX
	0x0195 00405 (/bigdata/qiuhan/codet5/usage/goroot/test/codegen/mapaccess.go:298)	PCDATA	$1, $1
	0x0195 00405 (/bigdata/qiuhan/codet5/usage/goroot/test/codegen/mapaccess.go:298)	CALL	runtime.newobject(SB)
	0x019a 00410 (/bigdata/qiuhan/codet5/usage/goroot/test/codegen/mapaccess.go:298)	MOVQ	AX, command-line-arguments..autotmp_45+112(SP)
	0x019f 00415 (/bigdata/qiuhan/codet5/usage/goroot/test/codegen/mapaccess.go:298)	MOVQ	$34359738375, CX
	0x01a9 00425 (/bigdata/qiuhan/codet5/usage/goroot/test/codegen/mapaccess.go:298)	MOVQ	CX, (AX)
	0x01ac 00428 (/bigdata/qiuhan/codet5/usage/goroot/test/codegen/mapaccess.go:298)	MOVQ	$9, 8(AX)
	0x01b4 00436 (/bigdata/qiuhan/codet5/usage/goroot/test/codegen/mapaccess.go:304)	LEAQ	command-line-arguments..autotmp_4+136(SP), BX
	0x01bc 00444 (/bigdata/qiuhan/codet5/usage/goroot/test/codegen/mapaccess.go:304)	XORL	CX, CX
	0x01be 00446 (/bigdata/qiuhan/codet5/usage/goroot/test/codegen/mapaccess.go:304)	LEAQ	type:map[int32][]int32(SB), AX
	0x01c5 00453 (/bigdata/qiuhan/codet5/usage/goroot/test/codegen/mapaccess.go:304)	PCDATA	$1, $4
	0x01c5 00453 (/bigdata/qiuhan/codet5/usage/goroot/test/codegen/mapaccess.go:304)	CALL	runtime.mapassign_fast32(SB)
	0x01ca 00458 (/bigdata/qiuhan/codet5/usage/goroot/test/codegen/mapaccess.go:304)	MOVQ	16(AX), CX
	0x01ce 00462 (/bigdata/qiuhan/codet5/usage/goroot/test/codegen/mapaccess.go:304)	MOVQ	(AX), DX
	0x01d1 00465 (/bigdata/qiuhan/codet5/usage/goroot/test/codegen/mapaccess.go:304)	MOVQ	8(AX), BX
	0x01d5 00469 (/bigdata/qiuhan/codet5/usage/goroot/test/codegen/mapaccess.go:304)	LEAQ	4(BX), SI
	0x01d9 00473 (/bigdata/qiuhan/codet5/usage/goroot/test/codegen/mapaccess.go:304)	CMPQ	CX, SI
	0x01dc 00476 (/bigdata/qiuhan/codet5/usage/goroot/test/codegen/mapaccess.go:304)	JCC	527
	0x01de 00478 (/bigdata/qiuhan/codet5/usage/goroot/test/codegen/mapaccess.go:304)	MOVQ	AX, command-line-arguments..autotmp_46+104(SP)
	0x01e3 00483 (/bigdata/qiuhan/codet5/usage/goroot/test/codegen/mapaccess.go:304)	MOVQ	BX, command-line-arguments..autotmp_47+72(SP)
	0x01e8 00488 (/bigdata/qiuhan/codet5/usage/goroot/test/codegen/mapaccess.go:304)	MOVQ	DX, AX
	0x01eb 00491 (/bigdata/qiuhan/codet5/usage/goroot/test/codegen/mapaccess.go:304)	MOVQ	SI, BX
	0x01ee 00494 (/bigdata/qiuhan/codet5/usage/goroot/test/codegen/mapaccess.go:304)	MOVL	$4, DI
	0x01f3 00499 (/bigdata/qiuhan/codet5/usage/goroot/test/codegen/mapaccess.go:304)	LEAQ	type:int32(SB), SI
	0x01fa 00506 (/bigdata/qiuhan/codet5/usage/goroot/test/codegen/mapaccess.go:304)	PCDATA	$1, $5
	0x01fa 00506 (/bigdata/qiuhan/codet5/usage/goroot/test/codegen/mapaccess.go:304)	CALL	runtime.growslice(SB)
	0x01ff 00511 (/bigdata/qiuhan/codet5/usage/goroot/test/codegen/mapaccess.go:304)	MOVQ	AX, DX
	0x0202 00514 (/bigdata/qiuhan/codet5/usage/goroot/test/codegen/mapaccess.go:304)	MOVQ	BX, SI
	0x0205 00517 (/bigdata/qiuhan/codet5/usage/goroot/test/codegen/mapaccess.go:304)	MOVQ	command-line-arguments..autotmp_46+104(SP), AX
	0x020a 00522 (/bigdata/qiuhan/codet5/usage/goroot/test/codegen/mapaccess.go:304)	MOVQ	command-line-arguments..autotmp_47+72(SP), BX
	0x020f 00527 (/bigdata/qiuhan/codet5/usage/goroot/test/codegen/mapaccess.go:304)	LEAQ	(DX)(BX*4), R8
	0x0213 00531 (/bigdata/qiuhan/codet5/usage/goroot/test/codegen/mapaccess.go:304)	MOVQ	command-line-arguments..autotmp_45+112(SP), R9
	0x0218 00536 (/bigdata/qiuhan/codet5/usage/goroot/test/codegen/mapaccess.go:304)	MOVUPS	(R9), X0
	0x021c 00540 (/bigdata/qiuhan/codet5/usage/goroot/test/codegen/mapaccess.go:304)	MOVUPS	X0, (R8)
	0x0220 00544 (/bigdata/qiuhan/codet5/usage/goroot/test/codegen/mapaccess.go:304)	MOVQ	SI, 8(AX)
	0x0224 00548 (/bigdata/qiuhan/codet5/usage/goroot/test/codegen/mapaccess.go:304)	MOVQ	CX, 16(AX)
	0x0228 00552 (/bigdata/qiuhan/codet5/usage/goroot/test/codegen/mapaccess.go:304)	PCDATA	$0, $-2
	0x0228 00552 (/bigdata/qiuhan/codet5/usage/goroot/test/codegen/mapaccess.go:304)	CMPL	runtime.writeBarrier(SB), $0
	0x022f 00559 (/bigdata/qiuhan/codet5/usage/goroot/test/codegen/mapaccess.go:304)	JNE	566
	0x0231 00561 (/bigdata/qiuhan/codet5/usage/goroot/test/codegen/mapaccess.go:304)	MOVQ	DX, (AX)
	0x0234 00564 (/bigdata/qiuhan/codet5/usage/goroot/test/codegen/mapaccess.go:304)	JMP	574
	0x0236 00566 (/bigdata/qiuhan/codet5/usage/goroot/test/codegen/mapaccess.go:304)	MOVQ	AX, DI
	0x0239 00569 (/bigdata/qiuhan/codet5/usage/goroot/test/codegen/mapaccess.go:304)	CALL	runtime.gcWriteBarrierDX(SB)
	0x023e 00574 (/bigdata/qiuhan/codet5/usage/goroot/test/codegen/mapaccess.go:310)	PCDATA	$0, $-1
	0x023e 00574 (/bigdata/qiuhan/codet5/usage/goroot/test/codegen/mapaccess.go:310)	LEAQ	type:map[int32][]int32(SB), AX
	0x0245 00581 (/bigdata/qiuhan/codet5/usage/goroot/test/codegen/mapaccess.go:310)	LEAQ	command-line-arguments..autotmp_4+136(SP), BX
	0x024d 00589 (/bigdata/qiuhan/codet5/usage/goroot/test/codegen/mapaccess.go:310)	MOVL	$1, CX
	0x0252 00594 (/bigdata/qiuhan/codet5/usage/goroot/test/codegen/mapaccess.go:310)	PCDATA	$1, $4
	0x0252 00594 (/bigdata/qiuhan/codet5/usage/goroot/test/codegen/mapaccess.go:310)	CALL	runtime.mapassign_fast32(SB)
	0x0257 00599 (/bigdata/qiuhan/codet5/usage/goroot/test/codegen/mapaccess.go:310)	MOVQ	16(AX), CX
	0x025b 00603 (/bigdata/qiuhan/codet5/usage/goroot/test/codegen/mapaccess.go:310)	MOVQ	(AX), DX
	0x025e 00606 (/bigdata/qiuhan/codet5/usage/goroot/test/codegen/mapaccess.go:310)	MOVQ	8(AX), BX
	0x0262 00610 (/bigdata/qiuhan/codet5/usage/goroot/test/codegen/mapaccess.go:310)	LEAQ	4(BX), SI
	0x0266 00614 (/bigdata/qiuhan/codet5/usage/goroot/test/codegen/mapaccess.go:310)	CMPQ	CX, SI
	0x0269 00617 (/bigdata/qiuhan/codet5/usage/goroot/test/codegen/mapaccess.go:310)	JCC	668
	0x026b 00619 (/bigdata/qiuhan/codet5/usage/goroot/test/codegen/mapaccess.go:310)	MOVQ	AX, command-line-arguments..autotmp_48+96(SP)
	0x0270 00624 (/bigdata/qiuhan/codet5/usage/goroot/test/codegen/mapaccess.go:310)	MOVQ	BX, command-line-arguments..autotmp_47+72(SP)
	0x0275 00629 (/bigdata/qiuhan/codet5/usage/goroot/test/codegen/mapaccess.go:310)	MOVQ	DX, AX
	0x0278 00632 (/bigdata/qiuhan/codet5/usage/goroot/test/codegen/mapaccess.go:310)	MOVQ	SI, BX
	0x027b 00635 (/bigdata/qiuhan/codet5/usage/goroot/test/codegen/mapaccess.go:310)	MOVL	$4, DI
	0x0280 00640 (/bigdata/qiuhan/codet5/usage/goroot/test/codegen/mapaccess.go:310)	LEAQ	type:int32(SB), SI
	0x0287 00647 (/bigdata/qiuhan/codet5/usage/goroot/test/codegen/mapaccess.go:310)	PCDATA	$1, $6
	0x0287 00647 (/bigdata/qiuhan/codet5/usage/goroot/test/codegen/mapaccess.go:310)	CALL	runtime.growslice(SB)
	0x028c 00652 (/bigdata/qiuhan/codet5/usage/goroot/test/codegen/mapaccess.go:310)	MOVQ	AX, DX
	0x028f 00655 (/bigdata/qiuhan/codet5/usage/goroot/test/codegen/mapaccess.go:310)	MOVQ	BX, SI
	0x0292 00658 (/bigdata/qiuhan/codet5/usage/goroot/test/codegen/mapaccess.go:310)	MOVQ	command-line-arguments..autotmp_48+96(SP), AX
	0x0297 00663 (/bigdata/qiuhan/codet5/usage/goroot/test/codegen/mapaccess.go:310)	MOVQ	command-line-arguments..autotmp_47+72(SP), BX
	0x029c 00668 (/bigdata/qiuhan/codet5/usage/goroot/test/codegen/mapaccess.go:310)	LEAQ	(DX)(BX*4), R8
	0x02a0 00672 (/bigdata/qiuhan/codet5/usage/goroot/test/codegen/mapaccess.go:310)	MOVQ	command-line-arguments..autotmp_45+112(SP), R9
	0x02a5 00677 (/bigdata/qiuhan/codet5/usage/goroot/test/codegen/mapaccess.go:310)	MOVUPS	(R9), X0
	0x02a9 00681 (/bigdata/qiuhan/codet5/usage/goroot/test/codegen/mapaccess.go:310)	MOVUPS	X0, (R8)
	0x02ad 00685 (/bigdata/qiuhan/codet5/usage/goroot/test/codegen/mapaccess.go:310)	MOVQ	SI, 8(AX)
	0x02b1 00689 (/bigdata/qiuhan/codet5/usage/goroot/test/codegen/mapaccess.go:310)	MOVQ	CX, 16(AX)
	0x02b5 00693 (/bigdata/qiuhan/codet5/usage/goroot/test/codegen/mapaccess.go:310)	PCDATA	$0, $-2
	0x02b5 00693 (/bigdata/qiuhan/codet5/usage/goroot/test/codegen/mapaccess.go:310)	CMPL	runtime.writeBarrier(SB), $0
	0x02bc 00700 (/bigdata/qiuhan/codet5/usage/goroot/test/codegen/mapaccess.go:310)	JNE	707
	0x02be 00702 (/bigdata/qiuhan/codet5/usage/goroot/test/codegen/mapaccess.go:310)	MOVQ	DX, (AX)
	0x02c1 00705 (/bigdata/qiuhan/codet5/usage/goroot/test/codegen/mapaccess.go:310)	JMP	715
	0x02c3 00707 (/bigdata/qiuhan/codet5/usage/goroot/test/codegen/mapaccess.go:310)	MOVQ	AX, DI
	0x02c6 00710 (/bigdata/qiuhan/codet5/usage/goroot/test/codegen/mapaccess.go:310)	CALL	runtime.gcWriteBarrierDX(SB)
	0x02cb 00715 (/bigdata/qiuhan/codet5/usage/goroot/test/codegen/mapaccess.go:316)	PCDATA	$0, $-1
	0x02cb 00715 (/bigdata/qiuhan/codet5/usage/goroot/test/codegen/mapaccess.go:316)	LEAQ	type:map[int32][]int32(SB), AX
	0x02d2 00722 (/bigdata/qiuhan/codet5/usage/goroot/test/codegen/mapaccess.go:316)	LEAQ	command-line-arguments..autotmp_4+136(SP), BX
	0x02da 00730 (/bigdata/qiuhan/codet5/usage/goroot/test/codegen/mapaccess.go:316)	XORL	CX, CX
	0x02dc 00732 (/bigdata/qiuhan/codet5/usage/goroot/test/codegen/mapaccess.go:316)	PCDATA	$1, $4
	0x02dc 00732 (/bigdata/qiuhan/codet5/usage/goroot/test/codegen/mapaccess.go:316)	NOP
	0x02e0 00736 (/bigdata/qiuhan/codet5/usage/goroot/test/codegen/mapaccess.go:316)	CALL	runtime.mapassign_fast32(SB)
	0x02e5 00741 (/bigdata/qiuhan/codet5/usage/goroot/test/codegen/mapaccess.go:316)	MOVQ	16(AX), CX
	0x02e9 00745 (/bigdata/qiuhan/codet5/usage/goroot/test/codegen/mapaccess.go:316)	MOVQ	(AX), DX
	0x02ec 00748 (/bigdata/qiuhan/codet5/usage/goroot/test/codegen/mapaccess.go:316)	MOVQ	8(AX), BX
	0x02f0 00752 (/bigdata/qiuhan/codet5/usage/goroot/test/codegen/mapaccess.go:316)	LEAQ	4(BX), SI
	0x02f4 00756 (/bigdata/qiuhan/codet5/usage/goroot/test/codegen/mapaccess.go:316)	CMPQ	CX, SI
	0x02f7 00759 (/bigdata/qiuhan/codet5/usage/goroot/test/codegen/mapaccess.go:316)	JCC	810
	0x02f9 00761 (/bigdata/qiuhan/codet5/usage/goroot/test/codegen/mapaccess.go:316)	MOVQ	BX, command-line-arguments..autotmp_47+72(SP)
	0x02fe 00766 (/bigdata/qiuhan/codet5/usage/goroot/test/codegen/mapaccess.go:316)	MOVQ	AX, command-line-arguments..autotmp_49+88(SP)
	0x0303 00771 (/bigdata/qiuhan/codet5/usage/goroot/test/codegen/mapaccess.go:316)	MOVQ	DX, AX
	0x0306 00774 (/bigdata/qiuhan/codet5/usage/goroot/test/codegen/mapaccess.go:316)	MOVQ	SI, BX
	0x0309 00777 (/bigdata/qiuhan/codet5/usage/goroot/test/codegen/mapaccess.go:316)	MOVL	$4, DI
	0x030e 00782 (/bigdata/qiuhan/codet5/usage/goroot/test/codegen/mapaccess.go:316)	LEAQ	type:int32(SB), SI
	0x0315 00789 (/bigdata/qiuhan/codet5/usage/goroot/test/codegen/mapaccess.go:316)	PCDATA	$1, $7
	0x0315 00789 (/bigdata/qiuhan/codet5/usage/goroot/test/codegen/mapaccess.go:316)	CALL	runtime.growslice(SB)
	0x031a 00794 (/bigdata/qiuhan/codet5/usage/goroot/test/codegen/mapaccess.go:316)	MOVQ	AX, DX
	0x031d 00797 (/bigdata/qiuhan/codet5/usage/goroot/test/codegen/mapaccess.go:316)	MOVQ	BX, SI
	0x0320 00800 (/bigdata/qiuhan/codet5/usage/goroot/test/codegen/mapaccess.go:316)	MOVQ	command-line-arguments..autotmp_49+88(SP), AX
	0x0325 00805 (/bigdata/qiuhan/codet5/usage/goroot/test/codegen/mapaccess.go:316)	MOVQ	command-line-arguments..autotmp_47+72(SP), BX
	0x032a 00810 (/bigdata/qiuhan/codet5/usage/goroot/test/codegen/mapaccess.go:316)	LEAQ	(DX)(BX*4), R8
	0x032e 00814 (/bigdata/qiuhan/codet5/usage/goroot/test/codegen/mapaccess.go:316)	MOVQ	command-line-arguments..autotmp_45+112(SP), R9
	0x0333 00819 (/bigdata/qiuhan/codet5/usage/goroot/test/codegen/mapaccess.go:316)	MOVUPS	(R9), X0
	0x0337 00823 (/bigdata/qiuhan/codet5/usage/goroot/test/codegen/mapaccess.go:316)	MOVUPS	X0, (R8)
	0x033b 00827 (/bigdata/qiuhan/codet5/usage/goroot/test/codegen/mapaccess.go:316)	MOVQ	SI, 8(AX)
	0x033f 00831 (/bigdata/qiuhan/codet5/usage/goroot/test/codegen/mapaccess.go:316)	MOVQ	CX, 16(AX)
	0x0343 00835 (/bigdata/qiuhan/codet5/usage/goroot/test/codegen/mapaccess.go:316)	PCDATA	$0, $-2
	0x0343 00835 (/bigdata/qiuhan/codet5/usage/goroot/test/codegen/mapaccess.go:316)	CMPL	runtime.writeBarrier(SB), $0
	0x034a 00842 (/bigdata/qiuhan/codet5/usage/goroot/test/codegen/mapaccess.go:316)	JNE	849
	0x034c 00844 (/bigdata/qiuhan/codet5/usage/goroot/test/codegen/mapaccess.go:316)	MOVQ	DX, (AX)
	0x034f 00847 (/bigdata/qiuhan/codet5/usage/goroot/test/codegen/mapaccess.go:316)	JMP	857
	0x0351 00849 (/bigdata/qiuhan/codet5/usage/goroot/test/codegen/mapaccess.go:316)	MOVQ	AX, DI
	0x0354 00852 (/bigdata/qiuhan/codet5/usage/goroot/test/codegen/mapaccess.go:316)	CALL	runtime.gcWriteBarrierDX(SB)
	0x0359 00857 (/bigdata/qiuhan/codet5/usage/goroot/test/codegen/mapaccess.go:324)	PCDATA	$0, $-1
	0x0359 00857 (/bigdata/qiuhan/codet5/usage/goroot/test/codegen/mapaccess.go:324)	LEAQ	type:map[int32][]int32(SB), AX
	0x0360 00864 (/bigdata/qiuhan/codet5/usage/goroot/test/codegen/mapaccess.go:324)	LEAQ	command-line-arguments..autotmp_4+136(SP), BX
	0x0368 00872 (/bigdata/qiuhan/codet5/usage/goroot/test/codegen/mapaccess.go:324)	XORL	CX, CX
	0x036a 00874 (/bigdata/qiuhan/codet5/usage/goroot/test/codegen/mapaccess.go:324)	PCDATA	$1, $4
	0x036a 00874 (/bigdata/qiuhan/codet5/usage/goroot/test/codegen/mapaccess.go:324)	CALL	runtime.mapaccess1_fast32(SB)
	0x036f 00879 (/bigdata/qiuhan/codet5/usage/goroot/test/codegen/mapaccess.go:324)	MOVQ	8(AX), BX
	0x0373 00883 (/bigdata/qiuhan/codet5/usage/goroot/test/codegen/mapaccess.go:324)	LEAQ	4(BX), DX
	0x0377 00887 (/bigdata/qiuhan/codet5/usage/goroot/test/codegen/mapaccess.go:324)	MOVQ	(AX), SI
	0x037a 00890 (/bigdata/qiuhan/codet5/usage/goroot/test/codegen/mapaccess.go:324)	NOP
	0x0380 00896 (/bigdata/qiuhan/codet5/usage/goroot/test/codegen/mapaccess.go:324)	CMPQ	DX, $4
	0x0384 00900 (/bigdata/qiuhan/codet5/usage/goroot/test/codegen/mapaccess.go:324)	JHI	914
	0x0386 00902 (/bigdata/qiuhan/codet5/usage/goroot/test/codegen/mapaccess.go:324)	MOVQ	command-line-arguments..autotmp_45+112(SP), AX
	0x038b 00907 (/bigdata/qiuhan/codet5/usage/goroot/test/codegen/mapaccess.go:324)	MOVL	$4, CX
	0x0390 00912 (/bigdata/qiuhan/codet5/usage/goroot/test/codegen/mapaccess.go:324)	JMP	965
	0x0392 00914 (/bigdata/qiuhan/codet5/usage/goroot/test/codegen/mapaccess.go:324)	MOVQ	SI, command-line-arguments..autotmp_50+80(SP)
	0x0397 00919 (/bigdata/qiuhan/codet5/usage/goroot/test/codegen/mapaccess.go:324)	MOVQ	BX, command-line-arguments..autotmp_47+72(SP)
	0x039c 00924 (/bigdata/qiuhan/codet5/usage/goroot/test/codegen/mapaccess.go:324)	MOVQ	command-line-arguments..autotmp_45+112(SP), AX
	0x03a1 00929 (/bigdata/qiuhan/codet5/usage/goroot/test/codegen/mapaccess.go:324)	MOVL	$4, CX
	0x03a6 00934 (/bigdata/qiuhan/codet5/usage/goroot/test/codegen/mapaccess.go:324)	MOVQ	BX, DI
	0x03a9 00937 (/bigdata/qiuhan/codet5/usage/goroot/test/codegen/mapaccess.go:324)	LEAQ	type:int32(SB), SI
	0x03b0 00944 (/bigdata/qiuhan/codet5/usage/goroot/test/codegen/mapaccess.go:324)	MOVQ	DX, BX
	0x03b3 00947 (/bigdata/qiuhan/codet5/usage/goroot/test/codegen/mapaccess.go:324)	PCDATA	$1, $8
	0x03b3 00947 (/bigdata/qiuhan/codet5/usage/goroot/test/codegen/mapaccess.go:324)	CALL	runtime.growslice(SB)
	0x03b8 00952 (/bigdata/qiuhan/codet5/usage/goroot/test/codegen/mapaccess.go:324)	MOVQ	command-line-arguments..autotmp_50+80(SP), SI
	0x03bd 00957 (/bigdata/qiuhan/codet5/usage/goroot/test/codegen/mapaccess.go:324)	MOVQ	BX, DX
	0x03c0 00960 (/bigdata/qiuhan/codet5/usage/goroot/test/codegen/mapaccess.go:324)	MOVQ	command-line-arguments..autotmp_47+72(SP), BX
	0x03c5 00965 (/bigdata/qiuhan/codet5/usage/goroot/test/codegen/mapaccess.go:324)	MOVQ	CX, command-line-arguments..autotmp_47+72(SP)
	0x03ca 00970 (/bigdata/qiuhan/codet5/usage/goroot/test/codegen/mapaccess.go:324)	MOVQ	DX, command-line-arguments..autotmp_51+64(SP)
	0x03cf 00975 (/bigdata/qiuhan/codet5/usage/goroot/test/codegen/mapaccess.go:324)	MOVQ	AX, command-line-arguments..autotmp_50+80(SP)
	0x03d4 00980 (/bigdata/qiuhan/codet5/usage/goroot/test/codegen/mapaccess.go:324)	SHLQ	$2, BX
	0x03d8 00984 (/bigdata/qiuhan/codet5/usage/goroot/test/codegen/mapaccess.go:324)	LEAQ	16(AX), DI
	0x03dc 00988 (/bigdata/qiuhan/codet5/usage/goroot/test/codegen/mapaccess.go:324)	MOVQ	DI, AX
	0x03df 00991 (/bigdata/qiuhan/codet5/usage/goroot/test/codegen/mapaccess.go:324)	MOVQ	BX, R9
	0x03e2 00994 (/bigdata/qiuhan/codet5/usage/goroot/test/codegen/mapaccess.go:324)	MOVQ	SI, BX
	0x03e5 00997 (/bigdata/qiuhan/codet5/usage/goroot/test/codegen/mapaccess.go:324)	MOVQ	R9, CX
	0x03e8 01000 (/bigdata/qiuhan/codet5/usage/goroot/test/codegen/mapaccess.go:324)	CALL	runtime.memmove(SB)
	0x03ed 01005 (/bigdata/qiuhan/codet5/usage/goroot/test/codegen/mapaccess.go:324)	LEAQ	type:map[int32][]int32(SB), AX
	0x03f4 01012 (/bigdata/qiuhan/codet5/usage/goroot/test/codegen/mapaccess.go:324)	LEAQ	command-line-arguments..autotmp_4+136(SP), BX
	0x03fc 01020 (/bigdata/qiuhan/codet5/usage/goroot/test/codegen/mapaccess.go:324)	XORL	CX, CX
	0x03fe 01022 (/bigdata/qiuhan/codet5/usage/goroot/test/codegen/mapaccess.go:324)	NOP
	0x0400 01024 (/bigdata/qiuhan/codet5/usage/goroot/test/codegen/mapaccess.go:324)	CALL	runtime.mapassign_fast32(SB)
	0x0405 01029 (/bigdata/qiuhan/codet5/usage/goroot/test/codegen/mapaccess.go:324)	MOVQ	command-line-arguments..autotmp_51+64(SP), DX
	0x040a 01034 (/bigdata/qiuhan/codet5/usage/goroot/test/codegen/mapaccess.go:324)	MOVQ	DX, 8(AX)
	0x040e 01038 (/bigdata/qiuhan/codet5/usage/goroot/test/codegen/mapaccess.go:324)	MOVQ	command-line-arguments..autotmp_47+72(SP), DX
	0x0413 01043 (/bigdata/qiuhan/codet5/usage/goroot/test/codegen/mapaccess.go:324)	MOVQ	DX, 16(AX)
	0x0417 01047 (/bigdata/qiuhan/codet5/usage/goroot/test/codegen/mapaccess.go:324)	PCDATA	$0, $-2
	0x0417 01047 (/bigdata/qiuhan/codet5/usage/goroot/test/codegen/mapaccess.go:324)	CMPL	runtime.writeBarrier(SB), $0
	0x041e 01054 (/bigdata/qiuhan/codet5/usage/goroot/test/codegen/mapaccess.go:324)	NOP
	0x0420 01056 (/bigdata/qiuhan/codet5/usage/goroot/test/codegen/mapaccess.go:324)	JNE	1068
	0x0422 01058 (/bigdata/qiuhan/codet5/usage/goroot/test/codegen/mapaccess.go:324)	MOVQ	command-line-arguments..autotmp_50+80(SP), DX
	0x0427 01063 (/bigdata/qiuhan/codet5/usage/goroot/test/codegen/mapaccess.go:324)	MOVQ	DX, (AX)
	0x042a 01066 (/bigdata/qiuhan/codet5/usage/goroot/test/codegen/mapaccess.go:324)	JMP	1081
	0x042c 01068 (/bigdata/qiuhan/codet5/usage/goroot/test/codegen/mapaccess.go:324)	MOVQ	AX, DI
	0x042f 01071 (/bigdata/qiuhan/codet5/usage/goroot/test/codegen/mapaccess.go:324)	MOVQ	command-line-arguments..autotmp_50+80(SP), DX
	0x0434 01076 (/bigdata/qiuhan/codet5/usage/goroot/test/codegen/mapaccess.go:324)	CALL	runtime.gcWriteBarrierDX(SB)
	0x0439 01081 (/bigdata/qiuhan/codet5/usage/goroot/test/codegen/mapaccess.go:330)	PCDATA	$0, $-1
	0x0439 01081 (/bigdata/qiuhan/codet5/usage/goroot/test/codegen/mapaccess.go:330)	LEAQ	type:map[int32][]int32(SB), AX
	0x0440 01088 (/bigdata/qiuhan/codet5/usage/goroot/test/codegen/mapaccess.go:330)	LEAQ	command-line-arguments..autotmp_4+136(SP), BX
	0x0448 01096 (/bigdata/qiuhan/codet5/usage/goroot/test/codegen/mapaccess.go:330)	XORL	CX, CX
	0x044a 01098 (/bigdata/qiuhan/codet5/usage/goroot/test/codegen/mapaccess.go:330)	PCDATA	$1, $1
	0x044a 01098 (/bigdata/qiuhan/codet5/usage/goroot/test/codegen/mapaccess.go:330)	CALL	runtime.mapaccess1_fast32(SB)
	0x044f 01103 (/bigdata/qiuhan/codet5/usage/goroot/test/codegen/mapaccess.go:330)	MOVQ	8(AX), BX
	0x0453 01107 (/bigdata/qiuhan/codet5/usage/goroot/test/codegen/mapaccess.go:330)	INCQ	BX
	0x0456 01110 (/bigdata/qiuhan/codet5/usage/goroot/test/codegen/mapaccess.go:330)	MOVQ	16(AX), CX
	0x045a 01114 (/bigdata/qiuhan/codet5/usage/goroot/test/codegen/mapaccess.go:330)	MOVQ	(AX), AX
	0x045d 01117 (/bigdata/qiuhan/codet5/usage/goroot/test/codegen/mapaccess.go:330)	NOP
	0x0460 01120 (/bigdata/qiuhan/codet5/usage/goroot/test/codegen/mapaccess.go:330)	CMPQ	CX, BX
	0x0463 01123 (/bigdata/qiuhan/codet5/usage/goroot/test/codegen/mapaccess.go:330)	JCC	1142
	0x0465 01125 (/bigdata/qiuhan/codet5/usage/goroot/test/codegen/mapaccess.go:330)	MOVL	$1, DI
	0x046a 01130 (/bigdata/qiuhan/codet5/usage/goroot/test/codegen/mapaccess.go:330)	LEAQ	type:int32(SB), SI
	0x0471 01137 (/bigdata/qiuhan/codet5/usage/goroot/test/codegen/mapaccess.go:330)	CALL	runtime.growslice(SB)
	0x0476 01142 (/bigdata/qiuhan/codet5/usage/goroot/test/codegen/mapaccess.go:330)	MOVQ	AX, command-line-arguments..autotmp_50+80(SP)
	0x047b 01147 (/bigdata/qiuhan/codet5/usage/goroot/test/codegen/mapaccess.go:330)	MOVQ	BX, command-line-arguments..autotmp_47+72(SP)
	0x0480 01152 (/bigdata/qiuhan/codet5/usage/goroot/test/codegen/mapaccess.go:330)	MOVQ	CX, command-line-arguments..autotmp_51+64(SP)
	0x0485 01157 (/bigdata/qiuhan/codet5/usage/goroot/test/codegen/mapaccess.go:330)	MOVL	$99, -4(AX)(BX*4)
	0x048d 01165 (/bigdata/qiuhan/codet5/usage/goroot/test/codegen/mapaccess.go:330)	MOVBLZX	command-line-arguments.sinkAppend(SB), DX
	0x0494 01172 (/bigdata/qiuhan/codet5/usage/goroot/test/codegen/mapaccess.go:330)	XORL	$1, DX
	0x0497 01175 (/bigdata/qiuhan/codet5/usage/goroot/test/codegen/mapaccess.go:330)	MOVB	DL, command-line-arguments.sinkAppend(SB)
	0x049d 01181 (/bigdata/qiuhan/codet5/usage/goroot/test/codegen/mapaccess.go:330)	LEAQ	type:map[int32][]int32(SB), AX
	0x04a4 01188 (/bigdata/qiuhan/codet5/usage/goroot/test/codegen/mapaccess.go:330)	LEAQ	command-line-arguments..autotmp_4+136(SP), BX
	0x04ac 01196 (/bigdata/qiuhan/codet5/usage/goroot/test/codegen/mapaccess.go:330)	XORL	CX, CX
	0x04ae 01198 (/bigdata/qiuhan/codet5/usage/goroot/test/codegen/mapaccess.go:330)	PCDATA	$1, $8
	0x04ae 01198 (/bigdata/qiuhan/codet5/usage/goroot/test/codegen/mapaccess.go:330)	CALL	runtime.mapassign_fast32(SB)
	0x04b3 01203 (/bigdata/qiuhan/codet5/usage/goroot/test/codegen/mapaccess.go:330)	MOVQ	command-line-arguments..autotmp_47+72(SP), DX
	0x04b8 01208 (/bigdata/qiuhan/codet5/usage/goroot/test/codegen/mapaccess.go:330)	MOVQ	DX, 8(AX)
	0x04bc 01212 (/bigdata/qiuhan/codet5/usage/goroot/test/codegen/mapaccess.go:330)	MOVQ	command-line-arguments..autotmp_51+64(SP), DX
	0x04c1 01217 (/bigdata/qiuhan/codet5/usage/goroot/test/codegen/mapaccess.go:330)	MOVQ	DX, 16(AX)
	0x04c5 01221 (/bigdata/qiuhan/codet5/usage/goroot/test/codegen/mapaccess.go:330)	PCDATA	$0, $-2
	0x04c5 01221 (/bigdata/qiuhan/codet5/usage/goroot/test/codegen/mapaccess.go:330)	CMPL	runtime.writeBarrier(SB), $0
	0x04cc 01228 (/bigdata/qiuhan/codet5/usage/goroot/test/codegen/mapaccess.go:330)	JNE	1240
	0x04ce 01230 (/bigdata/qiuhan/codet5/usage/goroot/test/codegen/mapaccess.go:330)	MOVQ	command-line-arguments..autotmp_50+80(SP), DX
	0x04d3 01235 (/bigdata/qiuhan/codet5/usage/goroot/test/codegen/mapaccess.go:330)	MOVQ	DX, (AX)
	0x04d6 01238 (/bigdata/qiuhan/codet5/usage/goroot/test/codegen/mapaccess.go:330)	JMP	1253
	0x04d8 01240 (/bigdata/qiuhan/codet5/usage/goroot/test/codegen/mapaccess.go:330)	MOVQ	AX, DI
	0x04db 01243 (/bigdata/qiuhan/codet5/usage/goroot/test/codegen/mapaccess.go:330)	MOVQ	command-line-arguments..autotmp_50+80(SP), DX
	0x04e0 01248 (/bigdata/qiuhan/codet5/usage/goroot/test/codegen/mapaccess.go:330)	CALL	runtime.gcWriteBarrierDX(SB)
	0x04e5 01253 (/bigdata/qiuhan/codet5/usage/goroot/test/codegen/mapaccess.go:336)	PCDATA	$0, $-1
	0x04e5 01253 (/bigdata/qiuhan/codet5/usage/goroot/test/codegen/mapaccess.go:336)	LEAQ	type:map[int32][]int32(SB), AX
	0x04ec 01260 (/bigdata/qiuhan/codet5/usage/goroot/test/codegen/mapaccess.go:336)	LEAQ	command-line-arguments..autotmp_4+136(SP), BX
	0x04f4 01268 (/bigdata/qiuhan/codet5/usage/goroot/test/codegen/mapaccess.go:336)	MOVL	$1, CX
	0x04f9 01273 (/bigdata/qiuhan/codet5/usage/goroot/test/codegen/mapaccess.go:336)	PCDATA	$1, $1
	0x04f9 01273 (/bigdata/qiuhan/codet5/usage/goroot/test/codegen/mapaccess.go:336)	CALL	runtime.mapaccess1_fast32(SB)
	0x04fe 01278 (/bigdata/qiuhan/codet5/usage/goroot/test/codegen/mapaccess.go:336)	MOVQ	8(AX), BX
	0x0502 01282 (/bigdata/qiuhan/codet5/usage/goroot/test/codegen/mapaccess.go:336)	INCQ	BX
	0x0505 01285 (/bigdata/qiuhan/codet5/usage/goroot/test/codegen/mapaccess.go:336)	MOVQ	16(AX), CX
	0x0509 01289 (/bigdata/qiuhan/codet5/usage/goroot/test/codegen/mapaccess.go:336)	MOVQ	(AX), AX
	0x050c 01292 (/bigdata/qiuhan/codet5/usage/goroot/test/codegen/mapaccess.go:336)	CMPQ	CX, BX
	0x050f 01295 (/bigdata/qiuhan/codet5/usage/goroot/test/codegen/mapaccess.go:336)	JCC	1317
	0x0511 01297 (/bigdata/qiuhan/codet5/usage/goroot/test/codegen/mapaccess.go:336)	MOVL	$1, DI
	0x0516 01302 (/bigdata/qiuhan/codet5/usage/goroot/test/codegen/mapaccess.go:336)	LEAQ	type:int32(SB), SI
	0x051d 01309 (/bigdata/qiuhan/codet5/usage/goroot/test/codegen/mapaccess.go:336)	NOP
	0x0520 01312 (/bigdata/qiuhan/codet5/usage/goroot/test/codegen/mapaccess.go:336)	CALL	runtime.growslice(SB)
	0x0525 01317 (/bigdata/qiuhan/codet5/usage/goroot/test/codegen/mapaccess.go:336)	MOVQ	AX, command-line-arguments..autotmp_50+80(SP)
	0x052a 01322 (/bigdata/qiuhan/codet5/usage/goroot/test/codegen/mapaccess.go:336)	MOVQ	BX, command-line-arguments..autotmp_47+72(SP)
	0x052f 01327 (/bigdata/qiuhan/codet5/usage/goroot/test/codegen/mapaccess.go:336)	MOVQ	CX, command-line-arguments..autotmp_51+64(SP)
	0x0534 01332 (/bigdata/qiuhan/codet5/usage/goroot/test/codegen/mapaccess.go:336)	MOVL	$100, -4(AX)(BX*4)
	0x053c 01340 (/bigdata/qiuhan/codet5/usage/goroot/test/codegen/mapaccess.go:336)	LEAQ	type:map[int32][]int32(SB), AX
	0x0543 01347 (/bigdata/qiuhan/codet5/usage/goroot/test/codegen/mapaccess.go:336)	LEAQ	command-line-arguments..autotmp_4+136(SP), BX
	0x054b 01355 (/bigdata/qiuhan/codet5/usage/goroot/test/codegen/mapaccess.go:336)	XORL	CX, CX
	0x054d 01357 (/bigdata/qiuhan/codet5/usage/goroot/test/codegen/mapaccess.go:336)	PCDATA	$1, $9
	0x054d 01357 (/bigdata/qiuhan/codet5/usage/goroot/test/codegen/mapaccess.go:336)	CALL	runtime.mapassign_fast32(SB)
	0x0552 01362 (/bigdata/qiuhan/codet5/usage/goroot/test/codegen/mapaccess.go:336)	MOVQ	command-line-arguments..autotmp_47+72(SP), DX
	0x0557 01367 (/bigdata/qiuhan/codet5/usage/goroot/test/codegen/mapaccess.go:336)	MOVQ	DX, 8(AX)
	0x055b 01371 (/bigdata/qiuhan/codet5/usage/goroot/test/codegen/mapaccess.go:336)	MOVQ	command-line-arguments..autotmp_51+64(SP), DX
	0x0560 01376 (/bigdata/qiuhan/codet5/usage/goroot/test/codegen/mapaccess.go:336)	MOVQ	DX, 16(AX)
	0x0564 01380 (/bigdata/qiuhan/codet5/usage/goroot/test/codegen/mapaccess.go:336)	PCDATA	$0, $-2
	0x0564 01380 (/bigdata/qiuhan/codet5/usage/goroot/test/codegen/mapaccess.go:336)	CMPL	runtime.writeBarrier(SB), $0
	0x056b 01387 (/bigdata/qiuhan/codet5/usage/goroot/test/codegen/mapaccess.go:336)	JNE	1399
	0x056d 01389 (/bigdata/qiuhan/codet5/usage/goroot/test/codegen/mapaccess.go:336)	MOVQ	command-line-arguments..autotmp_50+80(SP), CX
	0x0572 01394 (/bigdata/qiuhan/codet5/usage/goroot/test/codegen/mapaccess.go:336)	MOVQ	CX, (AX)
	0x0575 01397 (/bigdata/qiuhan/codet5/usage/goroot/test/codegen/mapaccess.go:336)	JMP	1413
	0x0577 01399 (/bigdata/qiuhan/codet5/usage/goroot/test/codegen/mapaccess.go:336)	MOVQ	AX, DI
	0x057a 01402 (/bigdata/qiuhan/codet5/usage/goroot/test/codegen/mapaccess.go:336)	MOVQ	command-line-arguments..autotmp_50+80(SP), AX
	0x057f 01407 (/bigdata/qiuhan/codet5/usage/goroot/test/codegen/mapaccess.go:336)	NOP
	0x0580 01408 (/bigdata/qiuhan/codet5/usage/goroot/test/codegen/mapaccess.go:336)	CALL	runtime.gcWriteBarrier(SB)
	0x0585 01413 (/bigdata/qiuhan/codet5/usage/goroot/test/codegen/mapaccess.go:337)	PCDATA	$0, $-1
	0x0585 01413 (/bigdata/qiuhan/codet5/usage/goroot/test/codegen/mapaccess.go:337)	PCDATA	$1, $-1
	0x0585 01413 (/bigdata/qiuhan/codet5/usage/goroot/test/codegen/mapaccess.go:337)	MOVQ	424(SP), BP
	0x058d 01421 (/bigdata/qiuhan/codet5/usage/goroot/test/codegen/mapaccess.go:337)	ADDQ	$432, SP
	0x0594 01428 (/bigdata/qiuhan/codet5/usage/goroot/test/codegen/mapaccess.go:337)	RET
	0x0595 01429 (/bigdata/qiuhan/codet5/usage/goroot/test/codegen/mapaccess.go:337)	NOP
	0x0595 01429 (/bigdata/qiuhan/codet5/usage/goroot/test/codegen/mapaccess.go:282)	PCDATA	$1, $-1
	0x0595 01429 (/bigdata/qiuhan/codet5/usage/goroot/test/codegen/mapaccess.go:282)	PCDATA	$0, $-2
	0x0595 01429 (/bigdata/qiuhan/codet5/usage/goroot/test/codegen/mapaccess.go:282)	CALL	runtime.morestack_noctxt(SB)
	0x059a 01434 (/bigdata/qiuhan/codet5/usage/goroot/test/codegen/mapaccess.go:282)	PCDATA	$0, $-1
	0x059a 01434 (/bigdata/qiuhan/codet5/usage/goroot/test/codegen/mapaccess.go:282)	JMP	0
	0x0000 4c 8d a4 24 d0 fe ff ff 4d 3b 66 10 0f 86 83 05  L..$....M;f.....
	0x0010 00 00 48 81 ec b0 01 00 00 48 89 ac 24 a8 01 00  ..H......H..$...
	0x0020 00 48 8d ac 24 a8 01 00 00 44 0f 11 bc 24 88 00  .H..$....D...$..
	0x0030 00 00 44 0f 11 bc 24 98 00 00 00 44 0f 11 bc 24  ..D...$....D...$
	0x0040 a8 00 00 00 48 8d bc 24 b8 00 00 00 48 8d 7f f0  ....H..$....H...
	0x0050 66 0f 1f 84 00 00 00 00 00 0f 1f 80 00 00 00 00  f...............
	0x0060 48 89 6c 24 f0 48 8d 6c 24 f0 e8 00 00 00 00 48  H.l$.H.l$......H
	0x0070 8b 6d 00 48 8d 84 24 b8 00 00 00 48 89 84 24 98  .m.H..$....H..$.
	0x0080 00 00 00 e8 00 00 00 00 89 84 24 94 00 00 00 48  ..........$....H
	0x0090 8d 05 00 00 00 00 48 8d 9c 24 88 00 00 00 31 c9  ......H..$....1.
	0x00a0 e8 00 00 00 00 48 8b 08 48 8b 50 10 48 8b 58 08  .....H..H.P.H.X.
	0x00b0 48 ff c3 48 39 da 73 44 48 89 84 24 80 00 00 00  H..H9.sDH..$....
	0x00c0 48 89 c8 48 89 d1 bf 01 00 00 00 48 8d 35 00 00  H..H.......H.5..
	0x00d0 00 00 e8 00 00 00 00 48 8b bc 24 80 00 00 00 48  .......H..$....H
	0x00e0 89 4f 10 83 3d 00 00 00 00 00 75 05 48 89 07 eb  .O..=.....u.H...
	0x00f0 05 e8 00 00 00 00 48 89 c1 48 89 f8 48 89 58 08  ......H..H..H.X.
	0x0100 c7 44 99 fc 01 00 00 00 48 8d 05 00 00 00 00 48  .D......H......H
	0x0110 8d 9c 24 88 00 00 00 31 c9 e8 00 00 00 00 48 8b  ..$....1......H.
	0x0120 10 48 8b 48 10 48 8b 58 08 48 83 c3 03 48 39 d9  .H.H.H.X.H...H9.
	0x0130 73 3b 48 89 44 24 78 48 89 d0 bf 03 00 00 00 48  s;H.D$xH.......H
	0x0140 8d 35 00 00 00 00 e8 00 00 00 00 48 8b 7c 24 78  .5.........H.|$x
	0x0150 48 89 4f 10 83 3d 00 00 00 00 00 75 05 48 89 07  H.O..=.....u.H..
	0x0160 eb 05 e8 00 00 00 00 48 89 c2 48 89 f8 48 89 58  .......H..H..H.X
	0x0170 08 48 8d 0c 9a 48 8d 49 f4 48 be 01 00 00 00 02  .H...H.I.H......
	0x0180 00 00 00 48 89 31 c7 44 9a fc 03 00 00 00 48 8d  ...H.1.D......H.
	0x0190 05 00 00 00 00 e8 00 00 00 00 48 89 44 24 70 48  ..........H.D$pH
	0x01a0 b9 07 00 00 00 08 00 00 00 48 89 08 48 c7 40 08  .........H..H.@.
	0x01b0 09 00 00 00 48 8d 9c 24 88 00 00 00 31 c9 48 8d  ....H..$....1.H.
	0x01c0 05 00 00 00 00 e8 00 00 00 00 48 8b 48 10 48 8b  ..........H.H.H.
	0x01d0 10 48 8b 58 08 48 8d 73 04 48 39 f1 73 31 48 89  .H.X.H.s.H9.s1H.
	0x01e0 44 24 68 48 89 5c 24 48 48 89 d0 48 89 f3 bf 04  D$hH.\$HH..H....
	0x01f0 00 00 00 48 8d 35 00 00 00 00 e8 00 00 00 00 48  ...H.5.........H
	0x0200 89 c2 48 89 de 48 8b 44 24 68 48 8b 5c 24 48 4c  ..H..H.D$hH.\$HL
	0x0210 8d 04 9a 4c 8b 4c 24 70 41 0f 10 01 41 0f 11 00  ...L.L$pA...A...
	0x0220 48 89 70 08 48 89 48 10 83 3d 00 00 00 00 00 75  H.p.H.H..=.....u
	0x0230 05 48 89 10 eb 08 48 89 c7 e8 00 00 00 00 48 8d  .H....H.......H.
	0x0240 05 00 00 00 00 48 8d 9c 24 88 00 00 00 b9 01 00  .....H..$.......
	0x0250 00 00 e8 00 00 00 00 48 8b 48 10 48 8b 10 48 8b  .......H.H.H..H.
	0x0260 58 08 48 8d 73 04 48 39 f1 73 31 48 89 44 24 60  X.H.s.H9.s1H.D$`
	0x0270 48 89 5c 24 48 48 89 d0 48 89 f3 bf 04 00 00 00  H.\$HH..H.......
	0x0280 48 8d 35 00 00 00 00 e8 00 00 00 00 48 89 c2 48  H.5.........H..H
	0x0290 89 de 48 8b 44 24 60 48 8b 5c 24 48 4c 8d 04 9a  ..H.D$`H.\$HL...
	0x02a0 4c 8b 4c 24 70 41 0f 10 01 41 0f 11 00 48 89 70  L.L$pA...A...H.p
	0x02b0 08 48 89 48 10 83 3d 00 00 00 00 00 75 05 48 89  .H.H..=.....u.H.
	0x02c0 10 eb 08 48 89 c7 e8 00 00 00 00 48 8d 05 00 00  ...H.......H....
	0x02d0 00 00 48 8d 9c 24 88 00 00 00 31 c9 0f 1f 40 00  ..H..$....1...@.
	0x02e0 e8 00 00 00 00 48 8b 48 10 48 8b 10 48 8b 58 08  .....H.H.H..H.X.
	0x02f0 48 8d 73 04 48 39 f1 73 31 48 89 5c 24 48 48 89  H.s.H9.s1H.\$HH.
	0x0300 44 24 58 48 89 d0 48 89 f3 bf 04 00 00 00 48 8d  D$XH..H.......H.
	0x0310 35 00 00 00 00 e8 00 00 00 00 48 89 c2 48 89 de  5.........H..H..
	0x0320 48 8b 44 24 58 48 8b 5c 24 48 4c 8d 04 9a 4c 8b  H.D$XH.\$HL...L.
	0x0330 4c 24 70 41 0f 10 01 41 0f 11 00 48 89 70 08 48  L$pA...A...H.p.H
	0x0340 89 48 10 83 3d 00 00 00 00 00 75 05 48 89 10 eb  .H..=.....u.H...
	0x0350 08 48 89 c7 e8 00 00 00 00 48 8d 05 00 00 00 00  .H.......H......
	0x0360 48 8d 9c 24 88 00 00 00 31 c9 e8 00 00 00 00 48  H..$....1......H
	0x0370 8b 58 08 48 8d 53 04 48 8b 30 66 0f 1f 44 00 00  .X.H.S.H.0f..D..
	0x0380 48 83 fa 04 77 0c 48 8b 44 24 70 b9 04 00 00 00  H...w.H.D$p.....
	0x0390 eb 33 48 89 74 24 50 48 89 5c 24 48 48 8b 44 24  .3H.t$PH.\$HH.D$
	0x03a0 70 b9 04 00 00 00 48 89 df 48 8d 35 00 00 00 00  p.....H..H.5....
	0x03b0 48 89 d3 e8 00 00 00 00 48 8b 74 24 50 48 89 da  H.......H.t$PH..
	0x03c0 48 8b 5c 24 48 48 89 4c 24 48 48 89 54 24 40 48  H.\$HH.L$HH.T$@H
	0x03d0 89 44 24 50 48 c1 e3 02 48 8d 78 10 48 89 f8 49  .D$PH...H.x.H..I
	0x03e0 89 d9 48 89 f3 4c 89 c9 e8 00 00 00 00 48 8d 05  ..H..L.......H..
	0x03f0 00 00 00 00 48 8d 9c 24 88 00 00 00 31 c9 66 90  ....H..$....1.f.
	0x0400 e8 00 00 00 00 48 8b 54 24 40 48 89 50 08 48 8b  .....H.T$@H.P.H.
	0x0410 54 24 48 48 89 50 10 83 3d 00 00 00 00 00 66 90  T$HH.P..=.....f.
	0x0420 75 0a 48 8b 54 24 50 48 89 10 eb 0d 48 89 c7 48  u.H.T$PH....H..H
	0x0430 8b 54 24 50 e8 00 00 00 00 48 8d 05 00 00 00 00  .T$P.....H......
	0x0440 48 8d 9c 24 88 00 00 00 31 c9 e8 00 00 00 00 48  H..$....1......H
	0x0450 8b 58 08 48 ff c3 48 8b 48 10 48 8b 00 0f 1f 00  .X.H..H.H.H.....
	0x0460 48 39 d9 73 11 bf 01 00 00 00 48 8d 35 00 00 00  H9.s......H.5...
	0x0470 00 e8 00 00 00 00 48 89 44 24 50 48 89 5c 24 48  ......H.D$PH.\$H
	0x0480 48 89 4c 24 40 c7 44 98 fc 63 00 00 00 0f b6 15  H.L$@.D..c......
	0x0490 00 00 00 00 83 f2 01 88 15 00 00 00 00 48 8d 05  .............H..
	0x04a0 00 00 00 00 48 8d 9c 24 88 00 00 00 31 c9 e8 00  ....H..$....1...
	0x04b0 00 00 00 48 8b 54 24 48 48 89 50 08 48 8b 54 24  ...H.T$HH.P.H.T$
	0x04c0 40 48 89 50 10 83 3d 00 00 00 00 00 75 0a 48 8b  @H.P..=.....u.H.
	0x04d0 54 24 50 48 89 10 eb 0d 48 89 c7 48 8b 54 24 50  T$PH....H..H.T$P
	0x04e0 e8 00 00 00 00 48 8d 05 00 00 00 00 48 8d 9c 24  .....H......H..$
	0x04f0 88 00 00 00 b9 01 00 00 00 e8 00 00 00 00 48 8b  ..............H.
	0x0500 58 08 48 ff c3 48 8b 48 10 48 8b 00 48 39 d9 73  X.H..H.H.H..H9.s
	0x0510 14 bf 01 00 00 00 48 8d 35 00 00 00 00 0f 1f 00  ......H.5.......
	0x0520 e8 00 00 00 00 48 89 44 24 50 48 89 5c 24 48 48  .....H.D$PH.\$HH
	0x0530 89 4c 24 40 c7 44 98 fc 64 00 00 00 48 8d 05 00  .L$@.D..d...H...
	0x0540 00 00 00 48 8d 9c 24 88 00 00 00 31 c9 e8 00 00  ...H..$....1....
	0x0550 00 00 48 8b 54 24 48 48 89 50 08 48 8b 54 24 40  ..H.T$HH.P.H.T$@
	0x0560 48 89 50 10 83 3d 00 00 00 00 00 75 0a 48 8b 4c  H.P..=.....u.H.L
	0x0570 24 50 48 89 08 eb 0e 48 89 c7 48 8b 44 24 50 90  $PH....H..H.D$P.
	0x0580 e8 00 00 00 00 48 8b ac 24 a8 01 00 00 48 81 c4  .....H..$....H..
	0x0590 b0 01 00 00 c3 e8 00 00 00 00 e9 61 fa ff ff     ...........a...
	rel 107+4 t=7 runtime.duffzero<1>+280
	rel 132+4 t=7 runtime.fastrand<1>+0
	rel 146+4 t=14 type:map[int32][]int32<0>+0
	rel 161+4 t=7 runtime.mapassign_fast32<1>+0
	rel 206+4 t=14 type:int32<0>+0
	rel 211+4 t=7 runtime.growslice<1>+0
	rel 229+4 t=14 runtime.writeBarrier<0>+-1
	rel 242+4 t=7 runtime.gcWriteBarrier<1>+0
	rel 267+4 t=14 type:map[int32][]int32<0>+0
	rel 282+4 t=7 runtime.mapassign_fast32<1>+0
	rel 322+4 t=14 type:int32<0>+0
	rel 327+4 t=7 runtime.growslice<1>+0
	rel 342+4 t=14 runtime.writeBarrier<0>+-1
	rel 355+4 t=7 runtime.gcWriteBarrier<1>+0
	rel 401+4 t=14 type:[4]int32<0>+0
	rel 406+4 t=7 runtime.newobject<1>+0
	rel 449+4 t=14 type:map[int32][]int32<0>+0
	rel 454+4 t=7 runtime.mapassign_fast32<1>+0
	rel 502+4 t=14 type:int32<0>+0
	rel 507+4 t=7 runtime.growslice<1>+0
	rel 554+4 t=14 runtime.writeBarrier<0>+-1
	rel 570+4 t=7 runtime.gcWriteBarrierDX<1>+0
	rel 577+4 t=14 type:map[int32][]int32<0>+0
	rel 595+4 t=7 runtime.mapassign_fast32<1>+0
	rel 643+4 t=14 type:int32<0>+0
	rel 648+4 t=7 runtime.growslice<1>+0
	rel 695+4 t=14 runtime.writeBarrier<0>+-1
	rel 711+4 t=7 runtime.gcWriteBarrierDX<1>+0
	rel 718+4 t=14 type:map[int32][]int32<0>+0
	rel 737+4 t=7 runtime.mapassign_fast32<1>+0
	rel 785+4 t=14 type:int32<0>+0
	rel 790+4 t=7 runtime.growslice<1>+0
	rel 837+4 t=14 runtime.writeBarrier<0>+-1
	rel 853+4 t=7 runtime.gcWriteBarrierDX<1>+0
	rel 860+4 t=14 type:map[int32][]int32<0>+0
	rel 875+4 t=7 runtime.mapaccess1_fast32<1>+0
	rel 940+4 t=14 type:int32<0>+0
	rel 948+4 t=7 runtime.growslice<1>+0
	rel 1001+4 t=7 runtime.memmove<1>+0
	rel 1008+4 t=14 type:map[int32][]int32<0>+0
	rel 1025+4 t=7 runtime.mapassign_fast32<1>+0
	rel 1049+4 t=14 runtime.writeBarrier<0>+-1
	rel 1077+4 t=7 runtime.gcWriteBarrierDX<1>+0
	rel 1084+4 t=14 type:map[int32][]int32<0>+0
	rel 1099+4 t=7 runtime.mapaccess1_fast32<1>+0
	rel 1133+4 t=14 type:int32<0>+0
	rel 1138+4 t=7 runtime.growslice<1>+0
	rel 1168+4 t=14 command-line-arguments.sinkAppend<0>+0
	rel 1177+4 t=14 command-line-arguments.sinkAppend<0>+0
	rel 1184+4 t=14 type:map[int32][]int32<0>+0
	rel 1199+4 t=7 runtime.mapassign_fast32<1>+0
	rel 1223+4 t=14 runtime.writeBarrier<0>+-1
	rel 1249+4 t=7 runtime.gcWriteBarrierDX<1>+0
	rel 1256+4 t=14 type:map[int32][]int32<0>+0
	rel 1274+4 t=7 runtime.mapaccess1_fast32<1>+0
	rel 1305+4 t=14 type:int32<0>+0
	rel 1313+4 t=7 runtime.growslice<1>+0
	rel 1343+4 t=14 type:map[int32][]int32<0>+0
	rel 1358+4 t=7 runtime.mapassign_fast32<1>+0
	rel 1382+4 t=14 runtime.writeBarrier<0>+-1
	rel 1409+4 t=7 runtime.gcWriteBarrier<1>+0
	rel 1430+4 t=7 runtime.morestack_noctxt<0>+0
command-line-arguments.mapAppendAssignmentInt64<1> STEXT size=1546 args=0x0 locals=0x1d0 funcid=0x0 align=0x0
	0x0000 00000 (/bigdata/qiuhan/codet5/usage/goroot/test/codegen/mapaccess.go:339)	TEXT	command-line-arguments.mapAppendAssignmentInt64(SB), ABIInternal, $464-0
	0x0000 00000 (/bigdata/qiuhan/codet5/usage/goroot/test/codegen/mapaccess.go:339)	LEAQ	-336(SP), R12
	0x0008 00008 (/bigdata/qiuhan/codet5/usage/goroot/test/codegen/mapaccess.go:339)	CMPQ	R12, 16(R14)
	0x000c 00012 (/bigdata/qiuhan/codet5/usage/goroot/test/codegen/mapaccess.go:339)	PCDATA	$0, $-2
	0x000c 00012 (/bigdata/qiuhan/codet5/usage/goroot/test/codegen/mapaccess.go:339)	JLS	1532
	0x0012 00018 (/bigdata/qiuhan/codet5/usage/goroot/test/codegen/mapaccess.go:339)	PCDATA	$0, $-1
	0x0012 00018 (/bigdata/qiuhan/codet5/usage/goroot/test/codegen/mapaccess.go:339)	SUBQ	$464, SP
	0x0019 00025 (/bigdata/qiuhan/codet5/usage/goroot/test/codegen/mapaccess.go:339)	MOVQ	BP, 456(SP)
	0x0021 00033 (/bigdata/qiuhan/codet5/usage/goroot/test/codegen/mapaccess.go:339)	LEAQ	456(SP), BP
	0x0029 00041 (/bigdata/qiuhan/codet5/usage/goroot/test/codegen/mapaccess.go:339)	FUNCDATA	$0, gclocals·T0KMGW3T8ttpJDRmFT9xSg==(SB)
	0x0029 00041 (/bigdata/qiuhan/codet5/usage/goroot/test/codegen/mapaccess.go:339)	FUNCDATA	$1, gclocals·aVESEGXaL+PBVfQLRDBcFg==(SB)
	0x0029 00041 (/bigdata/qiuhan/codet5/usage/goroot/test/codegen/mapaccess.go:339)	FUNCDATA	$2, command-line-arguments.mapAppendAssignmentInt64.stkobj(SB)
	0x0029 00041 (/bigdata/qiuhan/codet5/usage/goroot/test/codegen/mapaccess.go:340)	MOVUPS	X15, command-line-arguments..autotmp_4+136(SP)
	0x0032 00050 (/bigdata/qiuhan/codet5/usage/goroot/test/codegen/mapaccess.go:340)	MOVUPS	X15, command-line-arguments..autotmp_4+152(SP)
	0x003b 00059 (/bigdata/qiuhan/codet5/usage/goroot/test/codegen/mapaccess.go:340)	MOVUPS	X15, command-line-arguments..autotmp_4+168(SP)
	0x0044 00068 (/bigdata/qiuhan/codet5/usage/goroot/test/codegen/mapaccess.go:340)	LEAQ	command-line-arguments..autotmp_5+184(SP), DI
	0x004c 00076 (/bigdata/qiuhan/codet5/usage/goroot/test/codegen/mapaccess.go:340)	PCDATA	$0, $-2
	0x004c 00076 (/bigdata/qiuhan/codet5/usage/goroot/test/codegen/mapaccess.go:340)	LEAQ	-48(DI), DI
	0x0050 00080 (/bigdata/qiuhan/codet5/usage/goroot/test/codegen/mapaccess.go:340)	NOP
	0x0060 00096 (/bigdata/qiuhan/codet5/usage/goroot/test/codegen/mapaccess.go:340)	DUFFZERO	$267
	0x0073 00115 (/bigdata/qiuhan/codet5/usage/goroot/test/codegen/mapaccess.go:340)	PCDATA	$0, $-1
	0x0073 00115 (/bigdata/qiuhan/codet5/usage/goroot/test/codegen/mapaccess.go:340)	LEAQ	command-line-arguments..autotmp_5+184(SP), AX
	0x007b 00123 (/bigdata/qiuhan/codet5/usage/goroot/test/codegen/mapaccess.go:340)	MOVQ	AX, command-line-arguments..autotmp_4+152(SP)
	0x0083 00131 (/bigdata/qiuhan/codet5/usage/goroot/test/codegen/mapaccess.go:340)	PCDATA	$1, $1
	0x0083 00131 (/bigdata/qiuhan/codet5/usage/goroot/test/codegen/mapaccess.go:340)	CALL	runtime.fastrand(SB)
	0x0088 00136 (/bigdata/qiuhan/codet5/usage/goroot/test/codegen/mapaccess.go:340)	MOVL	AX, command-line-arguments..autotmp_4+148(SP)
	0x008f 00143 (/bigdata/qiuhan/codet5/usage/goroot/test/codegen/mapaccess.go:347)	LEAQ	type:map[int64][]int64(SB), AX
	0x0096 00150 (/bigdata/qiuhan/codet5/usage/goroot/test/codegen/mapaccess.go:347)	LEAQ	command-line-arguments..autotmp_4+136(SP), BX
	0x009e 00158 (/bigdata/qiuhan/codet5/usage/goroot/test/codegen/mapaccess.go:347)	XORL	CX, CX
	0x00a0 00160 (/bigdata/qiuhan/codet5/usage/goroot/test/codegen/mapaccess.go:347)	CALL	runtime.mapassign_fast64(SB)
	0x00a5 00165 (/bigdata/qiuhan/codet5/usage/goroot/test/codegen/mapaccess.go:347)	MOVQ	(AX), CX
	0x00a8 00168 (/bigdata/qiuhan/codet5/usage/goroot/test/codegen/mapaccess.go:347)	MOVQ	16(AX), DX
	0x00ac 00172 (/bigdata/qiuhan/codet5/usage/goroot/test/codegen/mapaccess.go:347)	MOVQ	8(AX), BX
	0x00b0 00176 (/bigdata/qiuhan/codet5/usage/goroot/test/codegen/mapaccess.go:347)	INCQ	BX
	0x00b3 00179 (/bigdata/qiuhan/codet5/usage/goroot/test/codegen/mapaccess.go:347)	CMPQ	DX, BX
	0x00b6 00182 (/bigdata/qiuhan/codet5/usage/goroot/test/codegen/mapaccess.go:347)	JCC	252
	0x00b8 00184 (/bigdata/qiuhan/codet5/usage/goroot/test/codegen/mapaccess.go:347)	MOVQ	AX, command-line-arguments..autotmp_43+128(SP)
	0x00c0 00192 (/bigdata/qiuhan/codet5/usage/goroot/test/codegen/mapaccess.go:347)	MOVQ	CX, AX
	0x00c3 00195 (/bigdata/qiuhan/codet5/usage/goroot/test/codegen/mapaccess.go:347)	MOVQ	DX, CX
	0x00c6 00198 (/bigdata/qiuhan/codet5/usage/goroot/test/codegen/mapaccess.go:347)	MOVL	$1, DI
	0x00cb 00203 (/bigdata/qiuhan/codet5/usage/goroot/test/codegen/mapaccess.go:347)	LEAQ	type:int64(SB), SI
	0x00d2 00210 (/bigdata/qiuhan/codet5/usage/goroot/test/codegen/mapaccess.go:347)	PCDATA	$1, $2
	0x00d2 00210 (/bigdata/qiuhan/codet5/usage/goroot/test/codegen/mapaccess.go:347)	CALL	runtime.growslice(SB)
	0x00d7 00215 (/bigdata/qiuhan/codet5/usage/goroot/test/codegen/mapaccess.go:347)	MOVQ	command-line-arguments..autotmp_43+128(SP), DI
	0x00df 00223 (/bigdata/qiuhan/codet5/usage/goroot/test/codegen/mapaccess.go:347)	MOVQ	CX, 16(DI)
	0x00e3 00227 (/bigdata/qiuhan/codet5/usage/goroot/test/codegen/mapaccess.go:347)	PCDATA	$0, $-2
	0x00e3 00227 (/bigdata/qiuhan/codet5/usage/goroot/test/codegen/mapaccess.go:347)	CMPL	runtime.writeBarrier(SB), $0
	0x00ea 00234 (/bigdata/qiuhan/codet5/usage/goroot/test/codegen/mapaccess.go:347)	JNE	241
	0x00ec 00236 (/bigdata/qiuhan/codet5/usage/goroot/test/codegen/mapaccess.go:347)	MOVQ	AX, (DI)
	0x00ef 00239 (/bigdata/qiuhan/codet5/usage/goroot/test/codegen/mapaccess.go:347)	JMP	246
	0x00f1 00241 (/bigdata/qiuhan/codet5/usage/goroot/test/codegen/mapaccess.go:347)	CALL	runtime.gcWriteBarrier(SB)
	0x00f6 00246 (/bigdata/qiuhan/codet5/usage/goroot/test/codegen/mapaccess.go:347)	PCDATA	$0, $-1
	0x00f6 00246 (/bigdata/qiuhan/codet5/usage/goroot/test/codegen/mapaccess.go:347)	MOVQ	AX, CX
	0x00f9 00249 (/bigdata/qiuhan/codet5/usage/goroot/test/codegen/mapaccess.go:347)	MOVQ	DI, AX
	0x00fc 00252 (/bigdata/qiuhan/codet5/usage/goroot/test/codegen/mapaccess.go:347)	MOVQ	BX, 8(AX)
	0x0100 00256 (/bigdata/qiuhan/codet5/usage/goroot/test/codegen/mapaccess.go:347)	MOVQ	$1, -8(CX)(BX*8)
	0x0109 00265 (/bigdata/qiuhan/codet5/usage/goroot/test/codegen/mapaccess.go:353)	LEAQ	type:map[int64][]int64(SB), AX
	0x0110 00272 (/bigdata/qiuhan/codet5/usage/goroot/test/codegen/mapaccess.go:353)	LEAQ	command-line-arguments..autotmp_4+136(SP), BX
	0x0118 00280 (/bigdata/qiuhan/codet5/usage/goroot/test/codegen/mapaccess.go:353)	XORL	CX, CX
	0x011a 00282 (/bigdata/qiuhan/codet5/usage/goroot/test/codegen/mapaccess.go:353)	PCDATA	$1, $1
	0x011a 00282 (/bigdata/qiuhan/codet5/usage/goroot/test/codegen/mapaccess.go:353)	CALL	runtime.mapassign_fast64(SB)
	0x011f 00287 (/bigdata/qiuhan/codet5/usage/goroot/test/codegen/mapaccess.go:353)	MOVQ	(AX), DX
	0x0122 00290 (/bigdata/qiuhan/codet5/usage/goroot/test/codegen/mapaccess.go:353)	MOVQ	16(AX), CX
	0x0126 00294 (/bigdata/qiuhan/codet5/usage/goroot/test/codegen/mapaccess.go:353)	MOVQ	8(AX), BX
	0x012a 00298 (/bigdata/qiuhan/codet5/usage/goroot/test/codegen/mapaccess.go:353)	ADDQ	$3, BX
	0x012e 00302 (/bigdata/qiuhan/codet5/usage/goroot/test/codegen/mapaccess.go:353)	CMPQ	CX, BX
	0x0131 00305 (/bigdata/qiuhan/codet5/usage/goroot/test/codegen/mapaccess.go:353)	JCC	366
	0x0133 00307 (/bigdata/qiuhan/codet5/usage/goroot/test/codegen/mapaccess.go:353)	MOVQ	AX, command-line-arguments..autotmp_44+120(SP)
	0x0138 00312 (/bigdata/qiuhan/codet5/usage/goroot/test/codegen/mapaccess.go:353)	MOVQ	DX, AX
	0x013b 00315 (/bigdata/qiuhan/codet5/usage/goroot/test/codegen/mapaccess.go:353)	MOVL	$3, DI
	0x0140 00320 (/bigdata/qiuhan/codet5/usage/goroot/test/codegen/mapaccess.go:353)	LEAQ	type:int64(SB), SI
	0x0147 00327 (/bigdata/qiuhan/codet5/usage/goroot/test/codegen/mapaccess.go:353)	PCDATA	$1, $3
	0x0147 00327 (/bigdata/qiuhan/codet5/usage/goroot/test/codegen/mapaccess.go:353)	CALL	runtime.growslice(SB)
	0x014c 00332 (/bigdata/qiuhan/codet5/usage/goroot/test/codegen/mapaccess.go:353)	MOVQ	command-line-arguments..autotmp_44+120(SP), DI
	0x0151 00337 (/bigdata/qiuhan/codet5/usage/goroot/test/codegen/mapaccess.go:353)	MOVQ	CX, 16(DI)
	0x0155 00341 (/bigdata/qiuhan/codet5/usage/goroot/test/codegen/mapaccess.go:353)	PCDATA	$0, $-2
	0x0155 00341 (/bigdata/qiuhan/codet5/usage/goroot/test/codegen/mapaccess.go:353)	CMPL	runtime.writeBarrier(SB), $0
	0x015c 00348 (/bigdata/qiuhan/codet5/usage/goroot/test/codegen/mapaccess.go:353)	JNE	355
	0x015e 00350 (/bigdata/qiuhan/codet5/usage/goroot/test/codegen/mapaccess.go:353)	MOVQ	AX, (DI)
	0x0161 00353 (/bigdata/qiuhan/codet5/usage/goroot/test/codegen/mapaccess.go:353)	JMP	360
	0x0163 00355 (/bigdata/qiuhan/codet5/usage/goroot/test/codegen/mapaccess.go:353)	CALL	runtime.gcWriteBarrier(SB)
	0x0168 00360 (/bigdata/qiuhan/codet5/usage/goroot/test/codegen/mapaccess.go:353)	PCDATA	$0, $-1
	0x0168 00360 (/bigdata/qiuhan/codet5/usage/goroot/test/codegen/mapaccess.go:353)	MOVQ	AX, DX
	0x016b 00363 (/bigdata/qiuhan/codet5/usage/goroot/test/codegen/mapaccess.go:353)	MOVQ	DI, AX
	0x016e 00366 (/bigdata/qiuhan/codet5/usage/goroot/test/codegen/mapaccess.go:353)	MOVQ	BX, 8(AX)
	0x0172 00370 (/bigdata/qiuhan/codet5/usage/goroot/test/codegen/mapaccess.go:353)	MOVQ	$1, -24(DX)(BX*8)
	0x017b 00379 (/bigdata/qiuhan/codet5/usage/goroot/test/codegen/mapaccess.go:353)	MOVQ	$2, -16(DX)(BX*8)
	0x0184 00388 (/bigdata/qiuhan/codet5/usage/goroot/test/codegen/mapaccess.go:353)	MOVQ	$3, -8(DX)(BX*8)
	0x018d 00397 (/bigdata/qiuhan/codet5/usage/goroot/test/codegen/mapaccess.go:355)	LEAQ	type:[4]int64(SB), AX
	0x0194 00404 (/bigdata/qiuhan/codet5/usage/goroot/test/codegen/mapaccess.go:355)	PCDATA	$1, $1
	0x0194 00404 (/bigdata/qiuhan/codet5/usage/goroot/test/codegen/mapaccess.go:355)	CALL	runtime.newobject(SB)
	0x0199 00409 (/bigdata/qiuhan/codet5/usage/goroot/test/codegen/mapaccess.go:355)	MOVQ	AX, command-line-arguments..autotmp_45+112(SP)
	0x019e 00414 (/bigdata/qiuhan/codet5/usage/goroot/test/codegen/mapaccess.go:355)	MOVQ	$7, (AX)
	0x01a5 00421 (/bigdata/qiuhan/codet5/usage/goroot/test/codegen/mapaccess.go:355)	MOVQ	$8, 8(AX)
	0x01ad 00429 (/bigdata/qiuhan/codet5/usage/goroot/test/codegen/mapaccess.go:355)	MOVQ	$9, 16(AX)
	0x01b5 00437 (/bigdata/qiuhan/codet5/usage/goroot/test/codegen/mapaccess.go:355)	MOVQ	$0, 24(AX)
	0x01bd 00445 (/bigdata/qiuhan/codet5/usage/goroot/test/codegen/mapaccess.go:361)	LEAQ	command-line-arguments..autotmp_4+136(SP), BX
	0x01c5 00453 (/bigdata/qiuhan/codet5/usage/goroot/test/codegen/mapaccess.go:361)	XORL	CX, CX
	0x01c7 00455 (/bigdata/qiuhan/codet5/usage/goroot/test/codegen/mapaccess.go:361)	LEAQ	type:map[int64][]int64(SB), AX
	0x01ce 00462 (/bigdata/qiuhan/codet5/usage/goroot/test/codegen/mapaccess.go:361)	PCDATA	$1, $4
	0x01ce 00462 (/bigdata/qiuhan/codet5/usage/goroot/test/codegen/mapaccess.go:361)	CALL	runtime.mapassign_fast64(SB)
	0x01d3 00467 (/bigdata/qiuhan/codet5/usage/goroot/test/codegen/mapaccess.go:361)	MOVQ	AX, command-line-arguments..autotmp_46+104(SP)
	0x01d8 00472 (/bigdata/qiuhan/codet5/usage/goroot/test/codegen/mapaccess.go:361)	MOVQ	16(AX), CX
	0x01dc 00476 (/bigdata/qiuhan/codet5/usage/goroot/test/codegen/mapaccess.go:361)	MOVQ	(AX), DX
	0x01df 00479 (/bigdata/qiuhan/codet5/usage/goroot/test/codegen/mapaccess.go:361)	MOVQ	8(AX), BX
	0x01e3 00483 (/bigdata/qiuhan/codet5/usage/goroot/test/codegen/mapaccess.go:361)	LEAQ	4(BX), SI
	0x01e7 00487 (/bigdata/qiuhan/codet5/usage/goroot/test/codegen/mapaccess.go:361)	CMPQ	CX, SI
	0x01ea 00490 (/bigdata/qiuhan/codet5/usage/goroot/test/codegen/mapaccess.go:361)	JCC	531
	0x01ec 00492 (/bigdata/qiuhan/codet5/usage/goroot/test/codegen/mapaccess.go:361)	MOVQ	BX, command-line-arguments..autotmp_47+72(SP)
	0x01f1 00497 (/bigdata/qiuhan/codet5/usage/goroot/test/codegen/mapaccess.go:361)	MOVQ	DX, AX
	0x01f4 00500 (/bigdata/qiuhan/codet5/usage/goroot/test/codegen/mapaccess.go:361)	MOVQ	SI, BX
	0x01f7 00503 (/bigdata/qiuhan/codet5/usage/goroot/test/codegen/mapaccess.go:361)	MOVL	$4, DI
	0x01fc 00508 (/bigdata/qiuhan/codet5/usage/goroot/test/codegen/mapaccess.go:361)	LEAQ	type:int64(SB), SI
	0x0203 00515 (/bigdata/qiuhan/codet5/usage/goroot/test/codegen/mapaccess.go:361)	PCDATA	$1, $5
	0x0203 00515 (/bigdata/qiuhan/codet5/usage/goroot/test/codegen/mapaccess.go:361)	CALL	runtime.growslice(SB)
	0x0208 00520 (/bigdata/qiuhan/codet5/usage/goroot/test/codegen/mapaccess.go:361)	MOVQ	AX, DX
	0x020b 00523 (/bigdata/qiuhan/codet5/usage/goroot/test/codegen/mapaccess.go:361)	MOVQ	BX, SI
	0x020e 00526 (/bigdata/qiuhan/codet5/usage/goroot/test/codegen/mapaccess.go:361)	MOVQ	command-line-arguments..autotmp_47+72(SP), BX
	0x0213 00531 (/bigdata/qiuhan/codet5/usage/goroot/test/codegen/mapaccess.go:361)	MOVQ	CX, command-line-arguments..autotmp_47+72(SP)
	0x0218 00536 (/bigdata/qiuhan/codet5/usage/goroot/test/codegen/mapaccess.go:361)	MOVQ	SI, command-line-arguments..autotmp_48+64(SP)
	0x021d 00541 (/bigdata/qiuhan/codet5/usage/goroot/test/codegen/mapaccess.go:361)	MOVQ	DX, command-line-arguments..autotmp_49+96(SP)
	0x0222 00546 (/bigdata/qiuhan/codet5/usage/goroot/test/codegen/mapaccess.go:361)	LEAQ	(DX)(BX*8), AX
	0x0226 00550 (/bigdata/qiuhan/codet5/usage/goroot/test/codegen/mapaccess.go:361)	MOVQ	command-line-arguments..autotmp_45+112(SP), BX
	0x022b 00555 (/bigdata/qiuhan/codet5/usage/goroot/test/codegen/mapaccess.go:361)	MOVL	$32, CX
	0x0230 00560 (/bigdata/qiuhan/codet5/usage/goroot/test/codegen/mapaccess.go:361)	PCDATA	$1, $6
	0x0230 00560 (/bigdata/qiuhan/codet5/usage/goroot/test/codegen/mapaccess.go:361)	CALL	runtime.memmove(SB)
	0x0235 00565 (/bigdata/qiuhan/codet5/usage/goroot/test/codegen/mapaccess.go:361)	MOVQ	command-line-arguments..autotmp_48+64(SP), DX
	0x023a 00570 (/bigdata/qiuhan/codet5/usage/goroot/test/codegen/mapaccess.go:361)	MOVQ	command-line-arguments..autotmp_46+104(SP), DI
	0x023f 00575 (/bigdata/qiuhan/codet5/usage/goroot/test/codegen/mapaccess.go:361)	MOVQ	DX, 8(DI)
	0x0243 00579 (/bigdata/qiuhan/codet5/usage/goroot/test/codegen/mapaccess.go:361)	MOVQ	command-line-arguments..autotmp_47+72(SP), DX
	0x0248 00584 (/bigdata/qiuhan/codet5/usage/goroot/test/codegen/mapaccess.go:361)	MOVQ	DX, 16(DI)
	0x024c 00588 (/bigdata/qiuhan/codet5/usage/goroot/test/codegen/mapaccess.go:361)	PCDATA	$0, $-2
	0x024c 00588 (/bigdata/qiuhan/codet5/usage/goroot/test/codegen/mapaccess.go:361)	CMPL	runtime.writeBarrier(SB), $0
	0x0253 00595 (/bigdata/qiuhan/codet5/usage/goroot/test/codegen/mapaccess.go:361)	JNE	607
	0x0255 00597 (/bigdata/qiuhan/codet5/usage/goroot/test/codegen/mapaccess.go:361)	MOVQ	command-line-arguments..autotmp_49+96(SP), DX
	0x025a 00602 (/bigdata/qiuhan/codet5/usage/goroot/test/codegen/mapaccess.go:361)	MOVQ	DX, (DI)
	0x025d 00605 (/bigdata/qiuhan/codet5/usage/goroot/test/codegen/mapaccess.go:361)	JMP	617
	0x025f 00607 (/bigdata/qiuhan/codet5/usage/goroot/test/codegen/mapaccess.go:361)	MOVQ	command-line-arguments..autotmp_49+96(SP), DX
	0x0264 00612 (/bigdata/qiuhan/codet5/usage/goroot/test/codegen/mapaccess.go:361)	CALL	runtime.gcWriteBarrierDX(SB)
	0x0269 00617 (/bigdata/qiuhan/codet5/usage/goroot/test/codegen/mapaccess.go:367)	PCDATA	$0, $-1
	0x0269 00617 (/bigdata/qiuhan/codet5/usage/goroot/test/codegen/mapaccess.go:367)	LEAQ	type:map[int64][]int64(SB), AX
	0x0270 00624 (/bigdata/qiuhan/codet5/usage/goroot/test/codegen/mapaccess.go:367)	LEAQ	command-line-arguments..autotmp_4+136(SP), BX
	0x0278 00632 (/bigdata/qiuhan/codet5/usage/goroot/test/codegen/mapaccess.go:367)	MOVL	$1, CX
	0x027d 00637 (/bigdata/qiuhan/codet5/usage/goroot/test/codegen/mapaccess.go:367)	PCDATA	$1, $4
	0x027d 00637 (/bigdata/qiuhan/codet5/usage/goroot/test/codegen/mapaccess.go:367)	NOP
	0x0280 00640 (/bigdata/qiuhan/codet5/usage/goroot/test/codegen/mapaccess.go:367)	CALL	runtime.mapassign_fast64(SB)
	0x0285 00645 (/bigdata/qiuhan/codet5/usage/goroot/test/codegen/mapaccess.go:367)	MOVQ	AX, command-line-arguments..autotmp_50+88(SP)
	0x028a 00650 (/bigdata/qiuhan/codet5/usage/goroot/test/codegen/mapaccess.go:367)	MOVQ	16(AX), CX
	0x028e 00654 (/bigdata/qiuhan/codet5/usage/goroot/test/codegen/mapaccess.go:367)	MOVQ	(AX), DX
	0x0291 00657 (/bigdata/qiuhan/codet5/usage/goroot/test/codegen/mapaccess.go:367)	MOVQ	8(AX), BX
	0x0295 00661 (/bigdata/qiuhan/codet5/usage/goroot/test/codegen/mapaccess.go:367)	LEAQ	4(BX), SI
	0x0299 00665 (/bigdata/qiuhan/codet5/usage/goroot/test/codegen/mapaccess.go:367)	CMPQ	CX, SI
	0x029c 00668 (/bigdata/qiuhan/codet5/usage/goroot/test/codegen/mapaccess.go:367)	JCC	709
	0x029e 00670 (/bigdata/qiuhan/codet5/usage/goroot/test/codegen/mapaccess.go:367)	MOVQ	BX, command-line-arguments..autotmp_47+72(SP)
	0x02a3 00675 (/bigdata/qiuhan/codet5/usage/goroot/test/codegen/mapaccess.go:367)	MOVQ	DX, AX
	0x02a6 00678 (/bigdata/qiuhan/codet5/usage/goroot/test/codegen/mapaccess.go:367)	MOVQ	SI, BX
	0x02a9 00681 (/bigdata/qiuhan/codet5/usage/goroot/test/codegen/mapaccess.go:367)	MOVL	$4, DI
	0x02ae 00686 (/bigdata/qiuhan/codet5/usage/goroot/test/codegen/mapaccess.go:367)	LEAQ	type:int64(SB), SI
	0x02b5 00693 (/bigdata/qiuhan/codet5/usage/goroot/test/codegen/mapaccess.go:367)	PCDATA	$1, $7
	0x02b5 00693 (/bigdata/qiuhan/codet5/usage/goroot/test/codegen/mapaccess.go:367)	CALL	runtime.growslice(SB)
	0x02ba 00698 (/bigdata/qiuhan/codet5/usage/goroot/test/codegen/mapaccess.go:367)	MOVQ	AX, DX
	0x02bd 00701 (/bigdata/qiuhan/codet5/usage/goroot/test/codegen/mapaccess.go:367)	MOVQ	BX, SI
	0x02c0 00704 (/bigdata/qiuhan/codet5/usage/goroot/test/codegen/mapaccess.go:367)	MOVQ	command-line-arguments..autotmp_47+72(SP), BX
	0x02c5 00709 (/bigdata/qiuhan/codet5/usage/goroot/test/codegen/mapaccess.go:367)	MOVQ	CX, command-line-arguments..autotmp_47+72(SP)
	0x02ca 00714 (/bigdata/qiuhan/codet5/usage/goroot/test/codegen/mapaccess.go:367)	MOVQ	SI, command-line-arguments..autotmp_48+64(SP)
	0x02cf 00719 (/bigdata/qiuhan/codet5/usage/goroot/test/codegen/mapaccess.go:367)	MOVQ	DX, command-line-arguments..autotmp_49+96(SP)
	0x02d4 00724 (/bigdata/qiuhan/codet5/usage/goroot/test/codegen/mapaccess.go:367)	LEAQ	(DX)(BX*8), AX
	0x02d8 00728 (/bigdata/qiuhan/codet5/usage/goroot/test/codegen/mapaccess.go:367)	MOVQ	command-line-arguments..autotmp_45+112(SP), BX
	0x02dd 00733 (/bigdata/qiuhan/codet5/usage/goroot/test/codegen/mapaccess.go:367)	MOVL	$32, CX
	0x02e2 00738 (/bigdata/qiuhan/codet5/usage/goroot/test/codegen/mapaccess.go:367)	PCDATA	$1, $8
	0x02e2 00738 (/bigdata/qiuhan/codet5/usage/goroot/test/codegen/mapaccess.go:367)	CALL	runtime.memmove(SB)
	0x02e7 00743 (/bigdata/qiuhan/codet5/usage/goroot/test/codegen/mapaccess.go:367)	MOVQ	command-line-arguments..autotmp_48+64(SP), DX
	0x02ec 00748 (/bigdata/qiuhan/codet5/usage/goroot/test/codegen/mapaccess.go:367)	MOVQ	command-line-arguments..autotmp_50+88(SP), DI
	0x02f1 00753 (/bigdata/qiuhan/codet5/usage/goroot/test/codegen/mapaccess.go:367)	MOVQ	DX, 8(DI)
	0x02f5 00757 (/bigdata/qiuhan/codet5/usage/goroot/test/codegen/mapaccess.go:367)	MOVQ	command-line-arguments..autotmp_47+72(SP), DX
	0x02fa 00762 (/bigdata/qiuhan/codet5/usage/goroot/test/codegen/mapaccess.go:367)	MOVQ	DX, 16(DI)
	0x02fe 00766 (/bigdata/qiuhan/codet5/usage/goroot/test/codegen/mapaccess.go:367)	PCDATA	$0, $-2
	0x02fe 00766 (/bigdata/qiuhan/codet5/usage/goroot/test/codegen/mapaccess.go:367)	CMPL	runtime.writeBarrier(SB), $0
	0x0305 00773 (/bigdata/qiuhan/codet5/usage/goroot/test/codegen/mapaccess.go:367)	JNE	785
	0x0307 00775 (/bigdata/qiuhan/codet5/usage/goroot/test/codegen/mapaccess.go:367)	MOVQ	command-line-arguments..autotmp_49+96(SP), DX
	0x030c 00780 (/bigdata/qiuhan/codet5/usage/goroot/test/codegen/mapaccess.go:367)	MOVQ	DX, (DI)
	0x030f 00783 (/bigdata/qiuhan/codet5/usage/goroot/test/codegen/mapaccess.go:367)	JMP	795
	0x0311 00785 (/bigdata/qiuhan/codet5/usage/goroot/test/codegen/mapaccess.go:367)	MOVQ	command-line-arguments..autotmp_49+96(SP), DX
	0x0316 00790 (/bigdata/qiuhan/codet5/usage/goroot/test/codegen/mapaccess.go:367)	CALL	runtime.gcWriteBarrierDX(SB)
	0x031b 00795 (/bigdata/qiuhan/codet5/usage/goroot/test/codegen/mapaccess.go:373)	PCDATA	$0, $-1
	0x031b 00795 (/bigdata/qiuhan/codet5/usage/goroot/test/codegen/mapaccess.go:373)	LEAQ	type:map[int64][]int64(SB), AX
	0x0322 00802 (/bigdata/qiuhan/codet5/usage/goroot/test/codegen/mapaccess.go:373)	LEAQ	command-line-arguments..autotmp_4+136(SP), BX
	0x032a 00810 (/bigdata/qiuhan/codet5/usage/goroot/test/codegen/mapaccess.go:373)	XORL	CX, CX
	0x032c 00812 (/bigdata/qiuhan/codet5/usage/goroot/test/codegen/mapaccess.go:373)	PCDATA	$1, $4
	0x032c 00812 (/bigdata/qiuhan/codet5/usage/goroot/test/codegen/mapaccess.go:373)	CALL	runtime.mapassign_fast64(SB)
	0x0331 00817 (/bigdata/qiuhan/codet5/usage/goroot/test/codegen/mapaccess.go:373)	MOVQ	AX, command-line-arguments..autotmp_51+80(SP)
	0x0336 00822 (/bigdata/qiuhan/codet5/usage/goroot/test/codegen/mapaccess.go:373)	MOVQ	16(AX), CX
	0x033a 00826 (/bigdata/qiuhan/codet5/usage/goroot/test/codegen/mapaccess.go:373)	MOVQ	(AX), DX
	0x033d 00829 (/bigdata/qiuhan/codet5/usage/goroot/test/codegen/mapaccess.go:373)	MOVQ	8(AX), BX
	0x0341 00833 (/bigdata/qiuhan/codet5/usage/goroot/test/codegen/mapaccess.go:373)	LEAQ	4(BX), SI
	0x0345 00837 (/bigdata/qiuhan/codet5/usage/goroot/test/codegen/mapaccess.go:373)	CMPQ	CX, SI
	0x0348 00840 (/bigdata/qiuhan/codet5/usage/goroot/test/codegen/mapaccess.go:373)	JCC	881
	0x034a 00842 (/bigdata/qiuhan/codet5/usage/goroot/test/codegen/mapaccess.go:373)	MOVQ	BX, command-line-arguments..autotmp_47+72(SP)
	0x034f 00847 (/bigdata/qiuhan/codet5/usage/goroot/test/codegen/mapaccess.go:373)	MOVQ	DX, AX
	0x0352 00850 (/bigdata/qiuhan/codet5/usage/goroot/test/codegen/mapaccess.go:373)	MOVQ	SI, BX
	0x0355 00853 (/bigdata/qiuhan/codet5/usage/goroot/test/codegen/mapaccess.go:373)	MOVL	$4, DI
	0x035a 00858 (/bigdata/qiuhan/codet5/usage/goroot/test/codegen/mapaccess.go:373)	LEAQ	type:int64(SB), SI
	0x0361 00865 (/bigdata/qiuhan/codet5/usage/goroot/test/codegen/mapaccess.go:373)	PCDATA	$1, $9
	0x0361 00865 (/bigdata/qiuhan/codet5/usage/goroot/test/codegen/mapaccess.go:373)	CALL	runtime.growslice(SB)
	0x0366 00870 (/bigdata/qiuhan/codet5/usage/goroot/test/codegen/mapaccess.go:373)	MOVQ	AX, DX
	0x0369 00873 (/bigdata/qiuhan/codet5/usage/goroot/test/codegen/mapaccess.go:373)	MOVQ	BX, SI
	0x036c 00876 (/bigdata/qiuhan/codet5/usage/goroot/test/codegen/mapaccess.go:373)	MOVQ	command-line-arguments..autotmp_47+72(SP), BX
	0x0371 00881 (/bigdata/qiuhan/codet5/usage/goroot/test/codegen/mapaccess.go:373)	MOVQ	SI, command-line-arguments..autotmp_47+72(SP)
	0x0376 00886 (/bigdata/qiuhan/codet5/usage/goroot/test/codegen/mapaccess.go:373)	MOVQ	DX, command-line-arguments..autotmp_49+96(SP)
	0x037b 00891 (/bigdata/qiuhan/codet5/usage/goroot/test/codegen/mapaccess.go:373)	MOVQ	CX, command-line-arguments..autotmp_48+64(SP)
	0x0380 00896 (/bigdata/qiuhan/codet5/usage/goroot/test/codegen/mapaccess.go:373)	LEAQ	(DX)(BX*8), AX
	0x0384 00900 (/bigdata/qiuhan/codet5/usage/goroot/test/codegen/mapaccess.go:373)	MOVQ	command-line-arguments..autotmp_45+112(SP), BX
	0x0389 00905 (/bigdata/qiuhan/codet5/usage/goroot/test/codegen/mapaccess.go:373)	MOVL	$32, CX
	0x038e 00910 (/bigdata/qiuhan/codet5/usage/goroot/test/codegen/mapaccess.go:373)	PCDATA	$1, $10
	0x038e 00910 (/bigdata/qiuhan/codet5/usage/goroot/test/codegen/mapaccess.go:373)	CALL	runtime.memmove(SB)
	0x0393 00915 (/bigdata/qiuhan/codet5/usage/goroot/test/codegen/mapaccess.go:373)	MOVQ	command-line-arguments..autotmp_47+72(SP), DX
	0x0398 00920 (/bigdata/qiuhan/codet5/usage/goroot/test/codegen/mapaccess.go:373)	MOVQ	command-line-arguments..autotmp_51+80(SP), DI
	0x039d 00925 (/bigdata/qiuhan/codet5/usage/goroot/test/codegen/mapaccess.go:373)	MOVQ	DX, 8(DI)
	0x03a1 00929 (/bigdata/qiuhan/codet5/usage/goroot/test/codegen/mapaccess.go:373)	MOVQ	command-line-arguments..autotmp_48+64(SP), DX
	0x03a6 00934 (/bigdata/qiuhan/codet5/usage/goroot/test/codegen/mapaccess.go:373)	MOVQ	DX, 16(DI)
	0x03aa 00938 (/bigdata/qiuhan/codet5/usage/goroot/test/codegen/mapaccess.go:373)	PCDATA	$0, $-2
	0x03aa 00938 (/bigdata/qiuhan/codet5/usage/goroot/test/codegen/mapaccess.go:373)	CMPL	runtime.writeBarrier(SB), $0
	0x03b1 00945 (/bigdata/qiuhan/codet5/usage/goroot/test/codegen/mapaccess.go:373)	JNE	957
	0x03b3 00947 (/bigdata/qiuhan/codet5/usage/goroot/test/codegen/mapaccess.go:373)	MOVQ	command-line-arguments..autotmp_49+96(SP), DX
	0x03b8 00952 (/bigdata/qiuhan/codet5/usage/goroot/test/codegen/mapaccess.go:373)	MOVQ	DX, (DI)
	0x03bb 00955 (/bigdata/qiuhan/codet5/usage/goroot/test/codegen/mapaccess.go:373)	JMP	967
	0x03bd 00957 (/bigdata/qiuhan/codet5/usage/goroot/test/codegen/mapaccess.go:373)	MOVQ	command-line-arguments..autotmp_49+96(SP), DX
	0x03c2 00962 (/bigdata/qiuhan/codet5/usage/goroot/test/codegen/mapaccess.go:373)	CALL	runtime.gcWriteBarrierDX(SB)
	0x03c7 00967 (/bigdata/qiuhan/codet5/usage/goroot/test/codegen/mapaccess.go:381)	PCDATA	$0, $-1
	0x03c7 00967 (/bigdata/qiuhan/codet5/usage/goroot/test/codegen/mapaccess.go:381)	LEAQ	type:map[int64][]int64(SB), AX
	0x03ce 00974 (/bigdata/qiuhan/codet5/usage/goroot/test/codegen/mapaccess.go:381)	LEAQ	command-line-arguments..autotmp_4+136(SP), BX
	0x03d6 00982 (/bigdata/qiuhan/codet5/usage/goroot/test/codegen/mapaccess.go:381)	XORL	CX, CX
	0x03d8 00984 (/bigdata/qiuhan/codet5/usage/goroot/test/codegen/mapaccess.go:381)	PCDATA	$1, $4
	0x03d8 00984 (/bigdata/qiuhan/codet5/usage/goroot/test/codegen/mapaccess.go:381)	CALL	runtime.mapaccess1_fast64(SB)
	0x03dd 00989 (/bigdata/qiuhan/codet5/usage/goroot/test/codegen/mapaccess.go:381)	MOVQ	8(AX), BX
	0x03e1 00993 (/bigdata/qiuhan/codet5/usage/goroot/test/codegen/mapaccess.go:381)	LEAQ	4(BX), DX
	0x03e5 00997 (/bigdata/qiuhan/codet5/usage/goroot/test/codegen/mapaccess.go:381)	MOVQ	(AX), SI
	0x03e8 01000 (/bigdata/qiuhan/codet5/usage/goroot/test/codegen/mapaccess.go:381)	CMPQ	DX, $4
	0x03ec 01004 (/bigdata/qiuhan/codet5/usage/goroot/test/codegen/mapaccess.go:381)	JHI	1018
	0x03ee 01006 (/bigdata/qiuhan/codet5/usage/goroot/test/codegen/mapaccess.go:381)	MOVQ	command-line-arguments..autotmp_45+112(SP), AX
	0x03f3 01011 (/bigdata/qiuhan/codet5/usage/goroot/test/codegen/mapaccess.go:381)	MOVL	$4, CX
	0x03f8 01016 (/bigdata/qiuhan/codet5/usage/goroot/test/codegen/mapaccess.go:381)	JMP	1074
	0x03fa 01018 (/bigdata/qiuhan/codet5/usage/goroot/test/codegen/mapaccess.go:381)	MOVQ	BX, command-line-arguments..autotmp_47+72(SP)
	0x03ff 01023 (/bigdata/qiuhan/codet5/usage/goroot/test/codegen/mapaccess.go:381)	MOVQ	SI, command-line-arguments..autotmp_49+96(SP)
	0x0404 01028 (/bigdata/qiuhan/codet5/usage/goroot/test/codegen/mapaccess.go:381)	MOVQ	command-line-arguments..autotmp_45+112(SP), AX
	0x0409 01033 (/bigdata/qiuhan/codet5/usage/goroot/test/codegen/mapaccess.go:381)	MOVL	$4, CX
	0x040e 01038 (/bigdata/qiuhan/codet5/usage/goroot/test/codegen/mapaccess.go:381)	MOVQ	BX, DI
	0x0411 01041 (/bigdata/qiuhan/codet5/usage/goroot/test/codegen/mapaccess.go:381)	LEAQ	type:int64(SB), SI
	0x0418 01048 (/bigdata/qiuhan/codet5/usage/goroot/test/codegen/mapaccess.go:381)	MOVQ	DX, BX
	0x041b 01051 (/bigdata/qiuhan/codet5/usage/goroot/test/codegen/mapaccess.go:381)	PCDATA	$1, $11
	0x041b 01051 (/bigdata/qiuhan/codet5/usage/goroot/test/codegen/mapaccess.go:381)	NOP
	0x0420 01056 (/bigdata/qiuhan/codet5/usage/goroot/test/codegen/mapaccess.go:381)	CALL	runtime.growslice(SB)
	0x0425 01061 (/bigdata/qiuhan/codet5/usage/goroot/test/codegen/mapaccess.go:381)	MOVQ	command-line-arguments..autotmp_49+96(SP), SI
	0x042a 01066 (/bigdata/qiuhan/codet5/usage/goroot/test/codegen/mapaccess.go:381)	MOVQ	BX, DX
	0x042d 01069 (/bigdata/qiuhan/codet5/usage/goroot/test/codegen/mapaccess.go:381)	MOVQ	command-line-arguments..autotmp_47+72(SP), BX
	0x0432 01074 (/bigdata/qiuhan/codet5/usage/goroot/test/codegen/mapaccess.go:381)	MOVQ	CX, command-line-arguments..autotmp_47+72(SP)
	0x0437 01079 (/bigdata/qiuhan/codet5/usage/goroot/test/codegen/mapaccess.go:381)	MOVQ	DX, command-line-arguments..autotmp_48+64(SP)
	0x043c 01084 (/bigdata/qiuhan/codet5/usage/goroot/test/codegen/mapaccess.go:381)	MOVQ	AX, command-line-arguments..autotmp_49+96(SP)
	0x0441 01089 (/bigdata/qiuhan/codet5/usage/goroot/test/codegen/mapaccess.go:381)	SHLQ	$3, BX
	0x0445 01093 (/bigdata/qiuhan/codet5/usage/goroot/test/codegen/mapaccess.go:381)	LEAQ	32(AX), DI
	0x0449 01097 (/bigdata/qiuhan/codet5/usage/goroot/test/codegen/mapaccess.go:381)	MOVQ	DI, AX
	0x044c 01100 (/bigdata/qiuhan/codet5/usage/goroot/test/codegen/mapaccess.go:381)	MOVQ	BX, R9
	0x044f 01103 (/bigdata/qiuhan/codet5/usage/goroot/test/codegen/mapaccess.go:381)	MOVQ	SI, BX
	0x0452 01106 (/bigdata/qiuhan/codet5/usage/goroot/test/codegen/mapaccess.go:381)	MOVQ	R9, CX
	0x0455 01109 (/bigdata/qiuhan/codet5/usage/goroot/test/codegen/mapaccess.go:381)	CALL	runtime.memmove(SB)
	0x045a 01114 (/bigdata/qiuhan/codet5/usage/goroot/test/codegen/mapaccess.go:381)	LEAQ	type:map[int64][]int64(SB), AX
	0x0461 01121 (/bigdata/qiuhan/codet5/usage/goroot/test/codegen/mapaccess.go:381)	LEAQ	command-line-arguments..autotmp_4+136(SP), BX
	0x0469 01129 (/bigdata/qiuhan/codet5/usage/goroot/test/codegen/mapaccess.go:381)	XORL	CX, CX
	0x046b 01131 (/bigdata/qiuhan/codet5/usage/goroot/test/codegen/mapaccess.go:381)	CALL	runtime.mapassign_fast64(SB)
	0x0470 01136 (/bigdata/qiuhan/codet5/usage/goroot/test/codegen/mapaccess.go:381)	MOVQ	command-line-arguments..autotmp_48+64(SP), DX
	0x0475 01141 (/bigdata/qiuhan/codet5/usage/goroot/test/codegen/mapaccess.go:381)	MOVQ	DX, 8(AX)
	0x0479 01145 (/bigdata/qiuhan/codet5/usage/goroot/test/codegen/mapaccess.go:381)	MOVQ	command-line-arguments..autotmp_47+72(SP), DX
	0x047e 01150 (/bigdata/qiuhan/codet5/usage/goroot/test/codegen/mapaccess.go:381)	MOVQ	DX, 16(AX)
	0x0482 01154 (/bigdata/qiuhan/codet5/usage/goroot/test/codegen/mapaccess.go:381)	PCDATA	$0, $-2
	0x0482 01154 (/bigdata/qiuhan/codet5/usage/goroot/test/codegen/mapaccess.go:381)	CMPL	runtime.writeBarrier(SB), $0
	0x0489 01161 (/bigdata/qiuhan/codet5/usage/goroot/test/codegen/mapaccess.go:381)	JNE	1173
	0x048b 01163 (/bigdata/qiuhan/codet5/usage/goroot/test/codegen/mapaccess.go:381)	MOVQ	command-line-arguments..autotmp_49+96(SP), DX
	0x0490 01168 (/bigdata/qiuhan/codet5/usage/goroot/test/codegen/mapaccess.go:381)	MOVQ	DX, (AX)
	0x0493 01171 (/bigdata/qiuhan/codet5/usage/goroot/test/codegen/mapaccess.go:381)	JMP	1189
	0x0495 01173 (/bigdata/qiuhan/codet5/usage/goroot/test/codegen/mapaccess.go:381)	MOVQ	AX, DI
	0x0498 01176 (/bigdata/qiuhan/codet5/usage/goroot/test/codegen/mapaccess.go:381)	MOVQ	command-line-arguments..autotmp_49+96(SP), DX
	0x049d 01181 (/bigdata/qiuhan/codet5/usage/goroot/test/codegen/mapaccess.go:381)	NOP
	0x04a0 01184 (/bigdata/qiuhan/codet5/usage/goroot/test/codegen/mapaccess.go:381)	CALL	runtime.gcWriteBarrierDX(SB)
	0x04a5 01189 (/bigdata/qiuhan/codet5/usage/goroot/test/codegen/mapaccess.go:387)	PCDATA	$0, $-1
	0x04a5 01189 (/bigdata/qiuhan/codet5/usage/goroot/test/codegen/mapaccess.go:387)	LEAQ	type:map[int64][]int64(SB), AX
	0x04ac 01196 (/bigdata/qiuhan/codet5/usage/goroot/test/codegen/mapaccess.go:387)	LEAQ	command-line-arguments..autotmp_4+136(SP), BX
	0x04b4 01204 (/bigdata/qiuhan/codet5/usage/goroot/test/codegen/mapaccess.go:387)	XORL	CX, CX
	0x04b6 01206 (/bigdata/qiuhan/codet5/usage/goroot/test/codegen/mapaccess.go:387)	PCDATA	$1, $1
	0x04b6 01206 (/bigdata/qiuhan/codet5/usage/goroot/test/codegen/mapaccess.go:387)	CALL	runtime.mapaccess1_fast64(SB)
	0x04bb 01211 (/bigdata/qiuhan/codet5/usage/goroot/test/codegen/mapaccess.go:387)	MOVQ	8(AX), BX
	0x04bf 01215 (/bigdata/qiuhan/codet5/usage/goroot/test/codegen/mapaccess.go:387)	INCQ	BX
	0x04c2 01218 (/bigdata/qiuhan/codet5/usage/goroot/test/codegen/mapaccess.go:387)	MOVQ	16(AX), CX
	0x04c6 01222 (/bigdata/qiuhan/codet5/usage/goroot/test/codegen/mapaccess.go:387)	MOVQ	(AX), AX
	0x04c9 01225 (/bigdata/qiuhan/codet5/usage/goroot/test/codegen/mapaccess.go:387)	CMPQ	CX, BX
	0x04cc 01228 (/bigdata/qiuhan/codet5/usage/goroot/test/codegen/mapaccess.go:387)	JCC	1247
	0x04ce 01230 (/bigdata/qiuhan/codet5/usage/goroot/test/codegen/mapaccess.go:387)	MOVL	$1, DI
	0x04d3 01235 (/bigdata/qiuhan/codet5/usage/goroot/test/codegen/mapaccess.go:387)	LEAQ	type:int64(SB), SI
	0x04da 01242 (/bigdata/qiuhan/codet5/usage/goroot/test/codegen/mapaccess.go:387)	CALL	runtime.growslice(SB)
	0x04df 01247 (/bigdata/qiuhan/codet5/usage/goroot/test/codegen/mapaccess.go:387)	MOVQ	AX, command-line-arguments..autotmp_49+96(SP)
	0x04e4 01252 (/bigdata/qiuhan/codet5/usage/goroot/test/codegen/mapaccess.go:387)	MOVQ	BX, command-line-arguments..autotmp_47+72(SP)
	0x04e9 01257 (/bigdata/qiuhan/codet5/usage/goroot/test/codegen/mapaccess.go:387)	MOVQ	CX, command-line-arguments..autotmp_48+64(SP)
	0x04ee 01262 (/bigdata/qiuhan/codet5/usage/goroot/test/codegen/mapaccess.go:387)	MOVQ	$99, -8(AX)(BX*8)
	0x04f7 01271 (/bigdata/qiuhan/codet5/usage/goroot/test/codegen/mapaccess.go:387)	MOVBLZX	command-line-arguments.sinkAppend(SB), DX
	0x04fe 01278 (/bigdata/qiuhan/codet5/usage/goroot/test/codegen/mapaccess.go:387)	XORL	$1, DX
	0x0501 01281 (/bigdata/qiuhan/codet5/usage/goroot/test/codegen/mapaccess.go:387)	MOVB	DL, command-line-arguments.sinkAppend(SB)
	0x0507 01287 (/bigdata/qiuhan/codet5/usage/goroot/test/codegen/mapaccess.go:387)	LEAQ	type:map[int64][]int64(SB), AX
	0x050e 01294 (/bigdata/qiuhan/codet5/usage/goroot/test/codegen/mapaccess.go:387)	LEAQ	command-line-arguments..autotmp_4+136(SP), BX
	0x0516 01302 (/bigdata/qiuhan/codet5/usage/goroot/test/codegen/mapaccess.go:387)	XORL	CX, CX
	0x0518 01304 (/bigdata/qiuhan/codet5/usage/goroot/test/codegen/mapaccess.go:387)	PCDATA	$1, $11
	0x0518 01304 (/bigdata/qiuhan/codet5/usage/goroot/test/codegen/mapaccess.go:387)	CALL	runtime.mapassign_fast64(SB)
	0x051d 01309 (/bigdata/qiuhan/codet5/usage/goroot/test/codegen/mapaccess.go:387)	MOVQ	command-line-arguments..autotmp_47+72(SP), DX
	0x0522 01314 (/bigdata/qiuhan/codet5/usage/goroot/test/codegen/mapaccess.go:387)	MOVQ	DX, 8(AX)
	0x0526 01318 (/bigdata/qiuhan/codet5/usage/goroot/test/codegen/mapaccess.go:387)	MOVQ	command-line-arguments..autotmp_48+64(SP), DX
	0x052b 01323 (/bigdata/qiuhan/codet5/usage/goroot/test/codegen/mapaccess.go:387)	MOVQ	DX, 16(AX)
	0x052f 01327 (/bigdata/qiuhan/codet5/usage/goroot/test/codegen/mapaccess.go:387)	PCDATA	$0, $-2
	0x052f 01327 (/bigdata/qiuhan/codet5/usage/goroot/test/codegen/mapaccess.go:387)	CMPL	runtime.writeBarrier(SB), $0
	0x0536 01334 (/bigdata/qiuhan/codet5/usage/goroot/test/codegen/mapaccess.go:387)	JNE	1346
	0x0538 01336 (/bigdata/qiuhan/codet5/usage/goroot/test/codegen/mapaccess.go:387)	MOVQ	command-line-arguments..autotmp_49+96(SP), DX
	0x053d 01341 (/bigdata/qiuhan/codet5/usage/goroot/test/codegen/mapaccess.go:387)	MOVQ	DX, (AX)
	0x0540 01344 (/bigdata/qiuhan/codet5/usage/goroot/test/codegen/mapaccess.go:387)	JMP	1359
	0x0542 01346 (/bigdata/qiuhan/codet5/usage/goroot/test/codegen/mapaccess.go:387)	MOVQ	AX, DI
	0x0545 01349 (/bigdata/qiuhan/codet5/usage/goroot/test/codegen/mapaccess.go:387)	MOVQ	command-line-arguments..autotmp_49+96(SP), DX
	0x054a 01354 (/bigdata/qiuhan/codet5/usage/goroot/test/codegen/mapaccess.go:387)	CALL	runtime.gcWriteBarrierDX(SB)
	0x054f 01359 (/bigdata/qiuhan/codet5/usage/goroot/test/codegen/mapaccess.go:393)	PCDATA	$0, $-1
	0x054f 01359 (/bigdata/qiuhan/codet5/usage/goroot/test/codegen/mapaccess.go:393)	LEAQ	type:map[int64][]int64(SB), AX
	0x0556 01366 (/bigdata/qiuhan/codet5/usage/goroot/test/codegen/mapaccess.go:393)	LEAQ	command-line-arguments..autotmp_4+136(SP), BX
	0x055e 01374 (/bigdata/qiuhan/codet5/usage/goroot/test/codegen/mapaccess.go:393)	MOVL	$1, CX
	0x0563 01379 (/bigdata/qiuhan/codet5/usage/goroot/test/codegen/mapaccess.go:393)	PCDATA	$1, $1
	0x0563 01379 (/bigdata/qiuhan/codet5/usage/goroot/test/codegen/mapaccess.go:393)	CALL	runtime.mapaccess1_fast64(SB)
	0x0568 01384 (/bigdata/qiuhan/codet5/usage/goroot/test/codegen/mapaccess.go:393)	MOVQ	8(AX), BX
	0x056c 01388 (/bigdata/qiuhan/codet5/usage/goroot/test/codegen/mapaccess.go:393)	INCQ	BX
	0x056f 01391 (/bigdata/qiuhan/codet5/usage/goroot/test/codegen/mapaccess.go:393)	MOVQ	16(AX), CX
	0x0573 01395 (/bigdata/qiuhan/codet5/usage/goroot/test/codegen/mapaccess.go:393)	MOVQ	(AX), AX
	0x0576 01398 (/bigdata/qiuhan/codet5/usage/goroot/test/codegen/mapaccess.go:393)	CMPQ	CX, BX
	0x0579 01401 (/bigdata/qiuhan/codet5/usage/goroot/test/codegen/mapaccess.go:393)	JCC	1420
	0x057b 01403 (/bigdata/qiuhan/codet5/usage/goroot/test/codegen/mapaccess.go:393)	MOVL	$1, DI
	0x0580 01408 (/bigdata/qiuhan/codet5/usage/goroot/test/codegen/mapaccess.go:393)	LEAQ	type:int64(SB), SI
	0x0587 01415 (/bigdata/qiuhan/codet5/usage/goroot/test/codegen/mapaccess.go:393)	CALL	runtime.growslice(SB)
	0x058c 01420 (/bigdata/qiuhan/codet5/usage/goroot/test/codegen/mapaccess.go:393)	MOVQ	AX, command-line-arguments..autotmp_49+96(SP)
	0x0591 01425 (/bigdata/qiuhan/codet5/usage/goroot/test/codegen/mapaccess.go:393)	MOVQ	BX, command-line-arguments..autotmp_47+72(SP)
	0x0596 01430 (/bigdata/qiuhan/codet5/usage/goroot/test/codegen/mapaccess.go:393)	MOVQ	CX, command-line-arguments..autotmp_48+64(SP)
	0x059b 01435 (/bigdata/qiuhan/codet5/usage/goroot/test/codegen/mapaccess.go:393)	MOVQ	$100, -8(AX)(BX*8)
	0x05a4 01444 (/bigdata/qiuhan/codet5/usage/goroot/test/codegen/mapaccess.go:393)	LEAQ	type:map[int64][]int64(SB), AX
	0x05ab 01451 (/bigdata/qiuhan/codet5/usage/goroot/test/codegen/mapaccess.go:393)	LEAQ	command-line-arguments..autotmp_4+136(SP), BX
	0x05b3 01459 (/bigdata/qiuhan/codet5/usage/goroot/test/codegen/mapaccess.go:393)	XORL	CX, CX
	0x05b5 01461 (/bigdata/qiuhan/codet5/usage/goroot/test/codegen/mapaccess.go:393)	PCDATA	$1, $12
	0x05b5 01461 (/bigdata/qiuhan/codet5/usage/goroot/test/codegen/mapaccess.go:393)	CALL	runtime.mapassign_fast64(SB)
	0x05ba 01466 (/bigdata/qiuhan/codet5/usage/goroot/test/codegen/mapaccess.go:393)	MOVQ	command-line-arguments..autotmp_47+72(SP), DX
	0x05bf 01471 (/bigdata/qiuhan/codet5/usage/goroot/test/codegen/mapaccess.go:393)	MOVQ	DX, 8(AX)
	0x05c3 01475 (/bigdata/qiuhan/codet5/usage/goroot/test/codegen/mapaccess.go:393)	MOVQ	command-line-arguments..autotmp_48+64(SP), DX
	0x05c8 01480 (/bigdata/qiuhan/codet5/usage/goroot/test/codegen/mapaccess.go:393)	MOVQ	DX, 16(AX)
	0x05cc 01484 (/bigdata/qiuhan/codet5/usage/goroot/test/codegen/mapaccess.go:393)	PCDATA	$0, $-2
	0x05cc 01484 (/bigdata/qiuhan/codet5/usage/goroot/test/codegen/mapaccess.go:393)	CMPL	runtime.writeBarrier(SB), $0
	0x05d3 01491 (/bigdata/qiuhan/codet5/usage/goroot/test/codegen/mapaccess.go:393)	JNE	1503
	0x05d5 01493 (/bigdata/qiuhan/codet5/usage/goroot/test/codegen/mapaccess.go:393)	MOVQ	command-line-arguments..autotmp_49+96(SP), CX
	0x05da 01498 (/bigdata/qiuhan/codet5/usage/goroot/test/codegen/mapaccess.go:393)	MOVQ	CX, (AX)
	0x05dd 01501 (/bigdata/qiuhan/codet5/usage/goroot/test/codegen/mapaccess.go:393)	JMP	1516
	0x05df 01503 (/bigdata/qiuhan/codet5/usage/goroot/test/codegen/mapaccess.go:393)	MOVQ	AX, DI
	0x05e2 01506 (/bigdata/qiuhan/codet5/usage/goroot/test/codegen/mapaccess.go:393)	MOVQ	command-line-arguments..autotmp_49+96(SP), AX
	0x05e7 01511 (/bigdata/qiuhan/codet5/usage/goroot/test/codegen/mapaccess.go:393)	CALL	runtime.gcWriteBarrier(SB)
	0x05ec 01516 (/bigdata/qiuhan/codet5/usage/goroot/test/codegen/mapaccess.go:394)	PCDATA	$0, $-1
	0x05ec 01516 (/bigdata/qiuhan/codet5/usage/goroot/test/codegen/mapaccess.go:394)	PCDATA	$1, $-1
	0x05ec 01516 (/bigdata/qiuhan/codet5/usage/goroot/test/codegen/mapaccess.go:394)	MOVQ	456(SP), BP
	0x05f4 01524 (/bigdata/qiuhan/codet5/usage/goroot/test/codegen/mapaccess.go:394)	ADDQ	$464, SP
	0x05fb 01531 (/bigdata/qiuhan/codet5/usage/goroot/test/codegen/mapaccess.go:394)	RET
	0x05fc 01532 (/bigdata/qiuhan/codet5/usage/goroot/test/codegen/mapaccess.go:394)	NOP
	0x05fc 01532 (/bigdata/qiuhan/codet5/usage/goroot/test/codegen/mapaccess.go:339)	PCDATA	$1, $-1
	0x05fc 01532 (/bigdata/qiuhan/codet5/usage/goroot/test/codegen/mapaccess.go:339)	PCDATA	$0, $-2
	0x05fc 01532 (/bigdata/qiuhan/codet5/usage/goroot/test/codegen/mapaccess.go:339)	NOP
	0x0600 01536 (/bigdata/qiuhan/codet5/usage/goroot/test/codegen/mapaccess.go:339)	CALL	runtime.morestack_noctxt(SB)
	0x0605 01541 (/bigdata/qiuhan/codet5/usage/goroot/test/codegen/mapaccess.go:339)	PCDATA	$0, $-1
	0x0605 01541 (/bigdata/qiuhan/codet5/usage/goroot/test/codegen/mapaccess.go:339)	JMP	0
	0x0000 4c 8d a4 24 b0 fe ff ff 4d 3b 66 10 0f 86 ea 05  L..$....M;f.....
	0x0010 00 00 48 81 ec d0 01 00 00 48 89 ac 24 c8 01 00  ..H......H..$...
	0x0020 00 48 8d ac 24 c8 01 00 00 44 0f 11 bc 24 88 00  .H..$....D...$..
	0x0030 00 00 44 0f 11 bc 24 98 00 00 00 44 0f 11 bc 24  ..D...$....D...$
	0x0040 a8 00 00 00 48 8d bc 24 b8 00 00 00 48 8d 7f d0  ....H..$....H...
	0x0050 66 0f 1f 84 00 00 00 00 00 0f 1f 80 00 00 00 00  f...............
	0x0060 48 89 6c 24 f0 48 8d 6c 24 f0 e8 00 00 00 00 48  H.l$.H.l$......H
	0x0070 8b 6d 00 48 8d 84 24 b8 00 00 00 48 89 84 24 98  .m.H..$....H..$.
	0x0080 00 00 00 e8 00 00 00 00 89 84 24 94 00 00 00 48  ..........$....H
	0x0090 8d 05 00 00 00 00 48 8d 9c 24 88 00 00 00 31 c9  ......H..$....1.
	0x00a0 e8 00 00 00 00 48 8b 08 48 8b 50 10 48 8b 58 08  .....H..H.P.H.X.
	0x00b0 48 ff c3 48 39 da 73 44 48 89 84 24 80 00 00 00  H..H9.sDH..$....
	0x00c0 48 89 c8 48 89 d1 bf 01 00 00 00 48 8d 35 00 00  H..H.......H.5..
	0x00d0 00 00 e8 00 00 00 00 48 8b bc 24 80 00 00 00 48  .......H..$....H
	0x00e0 89 4f 10 83 3d 00 00 00 00 00 75 05 48 89 07 eb  .O..=.....u.H...
	0x00f0 05 e8 00 00 00 00 48 89 c1 48 89 f8 48 89 58 08  ......H..H..H.X.
	0x0100 48 c7 44 d9 f8 01 00 00 00 48 8d 05 00 00 00 00  H.D......H......
	0x0110 48 8d 9c 24 88 00 00 00 31 c9 e8 00 00 00 00 48  H..$....1......H
	0x0120 8b 10 48 8b 48 10 48 8b 58 08 48 83 c3 03 48 39  ..H.H.H.X.H...H9
	0x0130 d9 73 3b 48 89 44 24 78 48 89 d0 bf 03 00 00 00  .s;H.D$xH.......
	0x0140 48 8d 35 00 00 00 00 e8 00 00 00 00 48 8b 7c 24  H.5.........H.|$
	0x0150 78 48 89 4f 10 83 3d 00 00 00 00 00 75 05 48 89  xH.O..=.....u.H.
	0x0160 07 eb 05 e8 00 00 00 00 48 89 c2 48 89 f8 48 89  ........H..H..H.
	0x0170 58 08 48 c7 44 da e8 01 00 00 00 48 c7 44 da f0  X.H.D......H.D..
	0x0180 02 00 00 00 48 c7 44 da f8 03 00 00 00 48 8d 05  ....H.D......H..
	0x0190 00 00 00 00 e8 00 00 00 00 48 89 44 24 70 48 c7  .........H.D$pH.
	0x01a0 00 07 00 00 00 48 c7 40 08 08 00 00 00 48 c7 40  .....H.@.....H.@
	0x01b0 10 09 00 00 00 48 c7 40 18 00 00 00 00 48 8d 9c  .....H.@.....H..
	0x01c0 24 88 00 00 00 31 c9 48 8d 05 00 00 00 00 e8 00  $....1.H........
	0x01d0 00 00 00 48 89 44 24 68 48 8b 48 10 48 8b 10 48  ...H.D$hH.H.H..H
	0x01e0 8b 58 08 48 8d 73 04 48 39 f1 73 27 48 89 5c 24  .X.H.s.H9.s'H.\$
	0x01f0 48 48 89 d0 48 89 f3 bf 04 00 00 00 48 8d 35 00  HH..H.......H.5.
	0x0200 00 00 00 e8 00 00 00 00 48 89 c2 48 89 de 48 8b  ........H..H..H.
	0x0210 5c 24 48 48 89 4c 24 48 48 89 74 24 40 48 89 54  \$HH.L$HH.t$@H.T
	0x0220 24 60 48 8d 04 da 48 8b 5c 24 70 b9 20 00 00 00  $`H...H.\$p. ...
	0x0230 e8 00 00 00 00 48 8b 54 24 40 48 8b 7c 24 68 48  .....H.T$@H.|$hH
	0x0240 89 57 08 48 8b 54 24 48 48 89 57 10 83 3d 00 00  .W.H.T$HH.W..=..
	0x0250 00 00 00 75 0a 48 8b 54 24 60 48 89 17 eb 0a 48  ...u.H.T$`H....H
	0x0260 8b 54 24 60 e8 00 00 00 00 48 8d 05 00 00 00 00  .T$`.....H......
	0x0270 48 8d 9c 24 88 00 00 00 b9 01 00 00 00 0f 1f 00  H..$............
	0x0280 e8 00 00 00 00 48 89 44 24 58 48 8b 48 10 48 8b  .....H.D$XH.H.H.
	0x0290 10 48 8b 58 08 48 8d 73 04 48 39 f1 73 27 48 89  .H.X.H.s.H9.s'H.
	0x02a0 5c 24 48 48 89 d0 48 89 f3 bf 04 00 00 00 48 8d  \$HH..H.......H.
	0x02b0 35 00 00 00 00 e8 00 00 00 00 48 89 c2 48 89 de  5.........H..H..
	0x02c0 48 8b 5c 24 48 48 89 4c 24 48 48 89 74 24 40 48  H.\$HH.L$HH.t$@H
	0x02d0 89 54 24 60 48 8d 04 da 48 8b 5c 24 70 b9 20 00  .T$`H...H.\$p. .
	0x02e0 00 00 e8 00 00 00 00 48 8b 54 24 40 48 8b 7c 24  .......H.T$@H.|$
	0x02f0 58 48 89 57 08 48 8b 54 24 48 48 89 57 10 83 3d  XH.W.H.T$HH.W..=
	0x0300 00 00 00 00 00 75 0a 48 8b 54 24 60 48 89 17 eb  .....u.H.T$`H...
	0x0310 0a 48 8b 54 24 60 e8 00 00 00 00 48 8d 05 00 00  .H.T$`.....H....
	0x0320 00 00 48 8d 9c 24 88 00 00 00 31 c9 e8 00 00 00  ..H..$....1.....
	0x0330 00 48 89 44 24 50 48 8b 48 10 48 8b 10 48 8b 58  .H.D$PH.H.H..H.X
	0x0340 08 48 8d 73 04 48 39 f1 73 27 48 89 5c 24 48 48  .H.s.H9.s'H.\$HH
	0x0350 89 d0 48 89 f3 bf 04 00 00 00 48 8d 35 00 00 00  ..H.......H.5...
	0x0360 00 e8 00 00 00 00 48 89 c2 48 89 de 48 8b 5c 24  ......H..H..H.\$
	0x0370 48 48 89 74 24 48 48 89 54 24 60 48 89 4c 24 40  HH.t$HH.T$`H.L$@
	0x0380 48 8d 04 da 48 8b 5c 24 70 b9 20 00 00 00 e8 00  H...H.\$p. .....
	0x0390 00 00 00 48 8b 54 24 48 48 8b 7c 24 50 48 89 57  ...H.T$HH.|$PH.W
	0x03a0 08 48 8b 54 24 40 48 89 57 10 83 3d 00 00 00 00  .H.T$@H.W..=....
	0x03b0 00 75 0a 48 8b 54 24 60 48 89 17 eb 0a 48 8b 54  .u.H.T$`H....H.T
	0x03c0 24 60 e8 00 00 00 00 48 8d 05 00 00 00 00 48 8d  $`.....H......H.
	0x03d0 9c 24 88 00 00 00 31 c9 e8 00 00 00 00 48 8b 58  .$....1......H.X
	0x03e0 08 48 8d 53 04 48 8b 30 48 83 fa 04 77 0c 48 8b  .H.S.H.0H...w.H.
	0x03f0 44 24 70 b9 04 00 00 00 eb 38 48 89 5c 24 48 48  D$p......8H.\$HH
	0x0400 89 74 24 60 48 8b 44 24 70 b9 04 00 00 00 48 89  .t$`H.D$p.....H.
	0x0410 df 48 8d 35 00 00 00 00 48 89 d3 0f 1f 44 00 00  .H.5....H....D..
	0x0420 e8 00 00 00 00 48 8b 74 24 60 48 89 da 48 8b 5c  .....H.t$`H..H.\
	0x0430 24 48 48 89 4c 24 48 48 89 54 24 40 48 89 44 24  $HH.L$HH.T$@H.D$
	0x0440 60 48 c1 e3 03 48 8d 78 20 48 89 f8 49 89 d9 48  `H...H.x H..I..H
	0x0450 89 f3 4c 89 c9 e8 00 00 00 00 48 8d 05 00 00 00  ..L.......H.....
	0x0460 00 48 8d 9c 24 88 00 00 00 31 c9 e8 00 00 00 00  .H..$....1......
	0x0470 48 8b 54 24 40 48 89 50 08 48 8b 54 24 48 48 89  H.T$@H.P.H.T$HH.
	0x0480 50 10 83 3d 00 00 00 00 00 75 0a 48 8b 54 24 60  P..=.....u.H.T$`
	0x0490 48 89 10 eb 10 48 89 c7 48 8b 54 24 60 0f 1f 00  H....H..H.T$`...
	0x04a0 e8 00 00 00 00 48 8d 05 00 00 00 00 48 8d 9c 24  .....H......H..$
	0x04b0 88 00 00 00 31 c9 e8 00 00 00 00 48 8b 58 08 48  ....1......H.X.H
	0x04c0 ff c3 48 8b 48 10 48 8b 00 48 39 d9 73 11 bf 01  ..H.H.H..H9.s...
	0x04d0 00 00 00 48 8d 35 00 00 00 00 e8 00 00 00 00 48  ...H.5.........H
	0x04e0 89 44 24 60 48 89 5c 24 48 48 89 4c 24 40 48 c7  .D$`H.\$HH.L$@H.
	0x04f0 44 d8 f8 63 00 00 00 0f b6 15 00 00 00 00 83 f2  D..c............
	0x0500 01 88 15 00 00 00 00 48 8d 05 00 00 00 00 48 8d  .......H......H.
	0x0510 9c 24 88 00 00 00 31 c9 e8 00 00 00 00 48 8b 54  .$....1......H.T
	0x0520 24 48 48 89 50 08 48 8b 54 24 40 48 89 50 10 83  $HH.P.H.T$@H.P..
	0x0530 3d 00 00 00 00 00 75 0a 48 8b 54 24 60 48 89 10  =.....u.H.T$`H..
	0x0540 eb 0d 48 89 c7 48 8b 54 24 60 e8 00 00 00 00 48  ..H..H.T$`.....H
	0x0550 8d 05 00 00 00 00 48 8d 9c 24 88 00 00 00 b9 01  ......H..$......
	0x0560 00 00 00 e8 00 00 00 00 48 8b 58 08 48 ff c3 48  ........H.X.H..H
	0x0570 8b 48 10 48 8b 00 48 39 d9 73 11 bf 01 00 00 00  .H.H..H9.s......
	0x0580 48 8d 35 00 00 00 00 e8 00 00 00 00 48 89 44 24  H.5.........H.D$
	0x0590 60 48 89 5c 24 48 48 89 4c 24 40 48 c7 44 d8 f8  `H.\$HH.L$@H.D..
	0x05a0 64 00 00 00 48 8d 05 00 00 00 00 48 8d 9c 24 88  d...H......H..$.
	0x05b0 00 00 00 31 c9 e8 00 00 00 00 48 8b 54 24 48 48  ...1......H.T$HH
	0x05c0 89 50 08 48 8b 54 24 40 48 89 50 10 83 3d 00 00  .P.H.T$@H.P..=..
	0x05d0 00 00 00 75 0a 48 8b 4c 24 60 48 89 08 eb 0d 48  ...u.H.L$`H....H
	0x05e0 89 c7 48 8b 44 24 60 e8 00 00 00 00 48 8b ac 24  ..H.D$`.....H..$
	0x05f0 c8 01 00 00 48 81 c4 d0 01 00 00 c3 0f 1f 40 00  ....H.........@.
	0x0600 e8 00 00 00 00 e9 f6 f9 ff ff                    ..........
	rel 107+4 t=7 runtime.duffzero<1>+267
	rel 132+4 t=7 runtime.fastrand<1>+0
	rel 146+4 t=14 type:map[int64][]int64<0>+0
	rel 161+4 t=7 runtime.mapassign_fast64<1>+0
	rel 206+4 t=14 type:int64<0>+0
	rel 211+4 t=7 runtime.growslice<1>+0
	rel 229+4 t=14 runtime.writeBarrier<0>+-1
	rel 242+4 t=7 runtime.gcWriteBarrier<1>+0
	rel 268+4 t=14 type:map[int64][]int64<0>+0
	rel 283+4 t=7 runtime.mapassign_fast64<1>+0
	rel 323+4 t=14 type:int64<0>+0
	rel 328+4 t=7 runtime.growslice<1>+0
	rel 343+4 t=14 runtime.writeBarrier<0>+-1
	rel 356+4 t=7 runtime.gcWriteBarrier<1>+0
	rel 400+4 t=14 type:[4]int64<0>+0
	rel 405+4 t=7 runtime.newobject<1>+0
	rel 458+4 t=14 type:map[int64][]int64<0>+0
	rel 463+4 t=7 runtime.mapassign_fast64<1>+0
	rel 511+4 t=14 type:int64<0>+0
	rel 516+4 t=7 runtime.growslice<1>+0
	rel 561+4 t=7 runtime.memmove<1>+0
	rel 590+4 t=14 runtime.writeBarrier<0>+-1
	rel 613+4 t=7 runtime.gcWriteBarrierDX<1>+0
	rel 620+4 t=14 type:map[int64][]int64<0>+0
	rel 641+4 t=7 runtime.mapassign_fast64<1>+0
	rel 689+4 t=14 type:int64<0>+0
	rel 694+4 t=7 runtime.growslice<1>+0
	rel 739+4 t=7 runtime.memmove<1>+0
	rel 768+4 t=14 runtime.writeBarrier<0>+-1
	rel 791+4 t=7 runtime.gcWriteBarrierDX<1>+0
	rel 798+4 t=14 type:map[int64][]int64<0>+0
	rel 813+4 t=7 runtime.mapassign_fast64<1>+0
	rel 861+4 t=14 type:int64<0>+0
	rel 866+4 t=7 runtime.growslice<1>+0
	rel 911+4 t=7 runtime.memmove<1>+0
	rel 940+4 t=14 runtime.writeBarrier<0>+-1
	rel 963+4 t=7 runtime.gcWriteBarrierDX<1>+0
	rel 970+4 t=14 type:map[int64][]int64<0>+0
	rel 985+4 t=7 runtime.mapaccess1_fast64<1>+0
	rel 1044+4 t=14 type:int64<0>+0
	rel 1057+4 t=7 runtime.growslice<1>+0
	rel 1110+4 t=7 runtime.memmove<1>+0
	rel 1117+4 t=14 type:map[int64][]int64<0>+0
	rel 1132+4 t=7 runtime.mapassign_fast64<1>+0
	rel 1156+4 t=14 runtime.writeBarrier<0>+-1
	rel 1185+4 t=7 runtime.gcWriteBarrierDX<1>+0
	rel 1192+4 t=14 type:map[int64][]int64<0>+0
	rel 1207+4 t=7 runtime.mapaccess1_fast64<1>+0
	rel 1238+4 t=14 type:int64<0>+0
	rel 1243+4 t=7 runtime.growslice<1>+0
	rel 1274+4 t=14 command-line-arguments.sinkAppend<0>+0
	rel 1283+4 t=14 command-line-arguments.sinkAppend<0>+0
	rel 1290+4 t=14 type:map[int64][]int64<0>+0
	rel 1305+4 t=7 runtime.mapassign_fast64<1>+0
	rel 1329+4 t=14 runtime.writeBarrier<0>+-1
	rel 1355+4 t=7 runtime.gcWriteBarrierDX<1>+0
	rel 1362+4 t=14 type:map[int64][]int64<0>+0
	rel 1380+4 t=7 runtime.mapaccess1_fast64<1>+0
	rel 1411+4 t=14 type:int64<0>+0
	rel 1416+4 t=7 runtime.growslice<1>+0
	rel 1447+4 t=14 type:map[int64][]int64<0>+0
	rel 1462+4 t=7 runtime.mapassign_fast64<1>+0
	rel 1486+4 t=14 runtime.writeBarrier<0>+-1
	rel 1512+4 t=7 runtime.gcWriteBarrier<1>+0
	rel 1537+4 t=7 runtime.morestack_noctxt<0>+0
command-line-arguments.mapAppendAssignmentComplex128<1> STEXT size=1509 args=0x0 locals=0x250 funcid=0x0 align=0x0
	0x0000 00000 (/bigdata/qiuhan/codet5/usage/goroot/test/codegen/mapaccess.go:396)	TEXT	command-line-arguments.mapAppendAssignmentComplex128(SB), ABIInternal, $592-0
	0x0000 00000 (/bigdata/qiuhan/codet5/usage/goroot/test/codegen/mapaccess.go:396)	LEAQ	-464(SP), R12
	0x0008 00008 (/bigdata/qiuhan/codet5/usage/goroot/test/codegen/mapaccess.go:396)	CMPQ	R12, 16(R14)
	0x000c 00012 (/bigdata/qiuhan/codet5/usage/goroot/test/codegen/mapaccess.go:396)	PCDATA	$0, $-2
	0x000c 00012 (/bigdata/qiuhan/codet5/usage/goroot/test/codegen/mapaccess.go:396)	JLS	1498
	0x0012 00018 (/bigdata/qiuhan/codet5/usage/goroot/test/codegen/mapaccess.go:396)	PCDATA	$0, $-1
	0x0012 00018 (/bigdata/qiuhan/codet5/usage/goroot/test/codegen/mapaccess.go:396)	SUBQ	$592, SP
	0x0019 00025 (/bigdata/qiuhan/codet5/usage/goroot/test/codegen/mapaccess.go:396)	MOVQ	BP, 584(SP)
	0x0021 00033 (/bigdata/qiuhan/codet5/usage/goroot/test/codegen/mapaccess.go:396)	LEAQ	584(SP), BP
	0x0029 00041 (/bigdata/qiuhan/codet5/usage/goroot/test/codegen/mapaccess.go:396)	FUNCDATA	$0, gclocals·oC5IYUIQaeZahulcQD2bSg==(SB)
	0x0029 00041 (/bigdata/qiuhan/codet5/usage/goroot/test/codegen/mapaccess.go:396)	FUNCDATA	$1, gclocals·xCdhfnAS8kTJgq+1YxLJQw==(SB)
	0x0029 00041 (/bigdata/qiuhan/codet5/usage/goroot/test/codegen/mapaccess.go:396)	FUNCDATA	$2, command-line-arguments.mapAppendAssignmentComplex128.stkobj(SB)
	0x0029 00041 (/bigdata/qiuhan/codet5/usage/goroot/test/codegen/mapaccess.go:397)	MOVUPS	X15, command-line-arguments..autotmp_5+200(SP)
	0x0032 00050 (/bigdata/qiuhan/codet5/usage/goroot/test/codegen/mapaccess.go:397)	MOVUPS	X15, command-line-arguments..autotmp_5+216(SP)
	0x003b 00059 (/bigdata/qiuhan/codet5/usage/goroot/test/codegen/mapaccess.go:397)	MOVUPS	X15, command-line-arguments..autotmp_5+232(SP)
	0x0044 00068 (/bigdata/qiuhan/codet5/usage/goroot/test/codegen/mapaccess.go:397)	LEAQ	command-line-arguments..autotmp_6+248(SP), DI
	0x004c 00076 (/bigdata/qiuhan/codet5/usage/goroot/test/codegen/mapaccess.go:397)	PCDATA	$0, $-2
	0x004c 00076 (/bigdata/qiuhan/codet5/usage/goroot/test/codegen/mapaccess.go:397)	LEAQ	-48(DI), DI
	0x0050 00080 (/bigdata/qiuhan/codet5/usage/goroot/test/codegen/mapaccess.go:397)	NOP
	0x0060 00096 (/bigdata/qiuhan/codet5/usage/goroot/test/codegen/mapaccess.go:397)	DUFFZERO	$244
	0x0073 00115 (/bigdata/qiuhan/codet5/usage/goroot/test/codegen/mapaccess.go:397)	PCDATA	$0, $-1
	0x0073 00115 (/bigdata/qiuhan/codet5/usage/goroot/test/codegen/mapaccess.go:397)	LEAQ	command-line-arguments..autotmp_6+248(SP), AX
	0x007b 00123 (/bigdata/qiuhan/codet5/usage/goroot/test/codegen/mapaccess.go:397)	MOVQ	AX, command-line-arguments..autotmp_5+216(SP)
	0x0083 00131 (/bigdata/qiuhan/codet5/usage/goroot/test/codegen/mapaccess.go:397)	PCDATA	$1, $1
	0x0083 00131 (/bigdata/qiuhan/codet5/usage/goroot/test/codegen/mapaccess.go:397)	CALL	runtime.fastrand(SB)
	0x0088 00136 (/bigdata/qiuhan/codet5/usage/goroot/test/codegen/mapaccess.go:397)	MOVL	AX, command-line-arguments..autotmp_5+212(SP)
	0x008f 00143 (/bigdata/qiuhan/codet5/usage/goroot/test/codegen/mapaccess.go:398)	XORPS	X0, X0
	0x0092 00146 (/bigdata/qiuhan/codet5/usage/goroot/test/codegen/mapaccess.go:398)	MOVSD	X0, command-line-arguments.k+80(SP)
	0x0098 00152 (/bigdata/qiuhan/codet5/usage/goroot/test/codegen/mapaccess.go:398)	MOVSD	X0, command-line-arguments.k+88(SP)
	0x009e 00158 (/bigdata/qiuhan/codet5/usage/goroot/test/codegen/mapaccess.go:404)	LEAQ	type:map[complex128][]complex128(SB), AX
	0x00a5 00165 (/bigdata/qiuhan/codet5/usage/goroot/test/codegen/mapaccess.go:404)	LEAQ	command-line-arguments..autotmp_5+200(SP), BX
	0x00ad 00173 (/bigdata/qiuhan/codet5/usage/goroot/test/codegen/mapaccess.go:404)	LEAQ	command-line-arguments.k+80(SP), CX
	0x00b2 00178 (/bigdata/qiuhan/codet5/usage/goroot/test/codegen/mapaccess.go:404)	CALL	runtime.mapassign(SB)
	0x00b7 00183 (/bigdata/qiuhan/codet5/usage/goroot/test/codegen/mapaccess.go:404)	MOVQ	(AX), CX
	0x00ba 00186 (/bigdata/qiuhan/codet5/usage/goroot/test/codegen/mapaccess.go:404)	MOVQ	16(AX), DX
	0x00be 00190 (/bigdata/qiuhan/codet5/usage/goroot/test/codegen/mapaccess.go:404)	MOVQ	8(AX), BX
	0x00c2 00194 (/bigdata/qiuhan/codet5/usage/goroot/test/codegen/mapaccess.go:404)	INCQ	BX
	0x00c5 00197 (/bigdata/qiuhan/codet5/usage/goroot/test/codegen/mapaccess.go:404)	CMPQ	DX, BX
	0x00c8 00200 (/bigdata/qiuhan/codet5/usage/goroot/test/codegen/mapaccess.go:404)	JCC	270
	0x00ca 00202 (/bigdata/qiuhan/codet5/usage/goroot/test/codegen/mapaccess.go:404)	MOVQ	AX, command-line-arguments..autotmp_30+192(SP)
	0x00d2 00210 (/bigdata/qiuhan/codet5/usage/goroot/test/codegen/mapaccess.go:404)	MOVQ	CX, AX
	0x00d5 00213 (/bigdata/qiuhan/codet5/usage/goroot/test/codegen/mapaccess.go:404)	MOVQ	DX, CX
	0x00d8 00216 (/bigdata/qiuhan/codet5/usage/goroot/test/codegen/mapaccess.go:404)	MOVL	$1, DI
	0x00dd 00221 (/bigdata/qiuhan/codet5/usage/goroot/test/codegen/mapaccess.go:404)	LEAQ	type:complex128(SB), SI
	0x00e4 00228 (/bigdata/qiuhan/codet5/usage/goroot/test/codegen/mapaccess.go:404)	PCDATA	$1, $2
	0x00e4 00228 (/bigdata/qiuhan/codet5/usage/goroot/test/codegen/mapaccess.go:404)	CALL	runtime.growslice(SB)
	0x00e9 00233 (/bigdata/qiuhan/codet5/usage/goroot/test/codegen/mapaccess.go:404)	MOVQ	command-line-arguments..autotmp_30+192(SP), DI
	0x00f1 00241 (/bigdata/qiuhan/codet5/usage/goroot/test/codegen/mapaccess.go:404)	MOVQ	CX, 16(DI)
	0x00f5 00245 (/bigdata/qiuhan/codet5/usage/goroot/test/codegen/mapaccess.go:404)	PCDATA	$0, $-2
	0x00f5 00245 (/bigdata/qiuhan/codet5/usage/goroot/test/codegen/mapaccess.go:404)	CMPL	runtime.writeBarrier(SB), $0
	0x00fc 00252 (/bigdata/qiuhan/codet5/usage/goroot/test/codegen/mapaccess.go:404)	JNE	259
	0x00fe 00254 (/bigdata/qiuhan/codet5/usage/goroot/test/codegen/mapaccess.go:404)	MOVQ	AX, (DI)
	0x0101 00257 (/bigdata/qiuhan/codet5/usage/goroot/test/codegen/mapaccess.go:404)	JMP	264
	0x0103 00259 (/bigdata/qiuhan/codet5/usage/goroot/test/codegen/mapaccess.go:404)	CALL	runtime.gcWriteBarrier(SB)
	0x0108 00264 (/bigdata/qiuhan/codet5/usage/goroot/test/codegen/mapaccess.go:404)	PCDATA	$0, $-1
	0x0108 00264 (/bigdata/qiuhan/codet5/usage/goroot/test/codegen/mapaccess.go:404)	MOVQ	AX, CX
	0x010b 00267 (/bigdata/qiuhan/codet5/usage/goroot/test/codegen/mapaccess.go:404)	MOVQ	DI, AX
	0x010e 00270 (/bigdata/qiuhan/codet5/usage/goroot/test/codegen/mapaccess.go:404)	MOVQ	BX, 8(AX)
	0x0112 00274 (/bigdata/qiuhan/codet5/usage/goroot/test/codegen/mapaccess.go:404)	LEAQ	-1(BX), DX
	0x0116 00278 (/bigdata/qiuhan/codet5/usage/goroot/test/codegen/mapaccess.go:404)	SHLQ	$4, DX
	0x011a 00282 (/bigdata/qiuhan/codet5/usage/goroot/test/codegen/mapaccess.go:404)	MOVSD	$f64.3ff0000000000000(SB), X0
	0x0122 00290 (/bigdata/qiuhan/codet5/usage/goroot/test/codegen/mapaccess.go:404)	MOVSD	X0, (CX)(DX*1)
	0x0127 00295 (/bigdata/qiuhan/codet5/usage/goroot/test/codegen/mapaccess.go:404)	XORPS	X1, X1
	0x012a 00298 (/bigdata/qiuhan/codet5/usage/goroot/test/codegen/mapaccess.go:404)	MOVSD	X1, 8(CX)(DX*1)
	0x0130 00304 (/bigdata/qiuhan/codet5/usage/goroot/test/codegen/mapaccess.go:410)	LEAQ	type:map[complex128][]complex128(SB), AX
	0x0137 00311 (/bigdata/qiuhan/codet5/usage/goroot/test/codegen/mapaccess.go:410)	LEAQ	command-line-arguments..autotmp_5+200(SP), BX
	0x013f 00319 (/bigdata/qiuhan/codet5/usage/goroot/test/codegen/mapaccess.go:410)	LEAQ	command-line-arguments.k+80(SP), CX
	0x0144 00324 (/bigdata/qiuhan/codet5/usage/goroot/test/codegen/mapaccess.go:410)	PCDATA	$1, $1
	0x0144 00324 (/bigdata/qiuhan/codet5/usage/goroot/test/codegen/mapaccess.go:410)	CALL	runtime.mapassign(SB)
	0x0149 00329 (/bigdata/qiuhan/codet5/usage/goroot/test/codegen/mapaccess.go:410)	MOVQ	(AX), DX
	0x014c 00332 (/bigdata/qiuhan/codet5/usage/goroot/test/codegen/mapaccess.go:410)	MOVQ	16(AX), CX
	0x0150 00336 (/bigdata/qiuhan/codet5/usage/goroot/test/codegen/mapaccess.go:410)	MOVQ	8(AX), BX
	0x0154 00340 (/bigdata/qiuhan/codet5/usage/goroot/test/codegen/mapaccess.go:410)	ADDQ	$3, BX
	0x0158 00344 (/bigdata/qiuhan/codet5/usage/goroot/test/codegen/mapaccess.go:410)	CMPQ	CX, BX
	0x015b 00347 (/bigdata/qiuhan/codet5/usage/goroot/test/codegen/mapaccess.go:410)	JCC	414
	0x015d 00349 (/bigdata/qiuhan/codet5/usage/goroot/test/codegen/mapaccess.go:410)	MOVQ	AX, command-line-arguments..autotmp_31+184(SP)
	0x0165 00357 (/bigdata/qiuhan/codet5/usage/goroot/test/codegen/mapaccess.go:410)	MOVQ	DX, AX
	0x0168 00360 (/bigdata/qiuhan/codet5/usage/goroot/test/codegen/mapaccess.go:410)	MOVL	$3, DI
	0x016d 00365 (/bigdata/qiuhan/codet5/usage/goroot/test/codegen/mapaccess.go:410)	LEAQ	type:complex128(SB), SI
	0x0174 00372 (/bigdata/qiuhan/codet5/usage/goroot/test/codegen/mapaccess.go:410)	PCDATA	$1, $3
	0x0174 00372 (/bigdata/qiuhan/codet5/usage/goroot/test/codegen/mapaccess.go:410)	CALL	runtime.growslice(SB)
	0x0179 00377 (/bigdata/qiuhan/codet5/usage/goroot/test/codegen/mapaccess.go:410)	MOVQ	command-line-arguments..autotmp_31+184(SP), DI
	0x0181 00385 (/bigdata/qiuhan/codet5/usage/goroot/test/codegen/mapaccess.go:410)	MOVQ	CX, 16(DI)
	0x0185 00389 (/bigdata/qiuhan/codet5/usage/goroot/test/codegen/mapaccess.go:410)	PCDATA	$0, $-2
	0x0185 00389 (/bigdata/qiuhan/codet5/usage/goroot/test/codegen/mapaccess.go:410)	CMPL	runtime.writeBarrier(SB), $0
	0x018c 00396 (/bigdata/qiuhan/codet5/usage/goroot/test/codegen/mapaccess.go:410)	JNE	403
	0x018e 00398 (/bigdata/qiuhan/codet5/usage/goroot/test/codegen/mapaccess.go:410)	MOVQ	AX, (DI)
	0x0191 00401 (/bigdata/qiuhan/codet5/usage/goroot/test/codegen/mapaccess.go:410)	JMP	408
	0x0193 00403 (/bigdata/qiuhan/codet5/usage/goroot/test/codegen/mapaccess.go:410)	CALL	runtime.gcWriteBarrier(SB)
	0x0198 00408 (/bigdata/qiuhan/codet5/usage/goroot/test/codegen/mapaccess.go:410)	PCDATA	$0, $-1
	0x0198 00408 (/bigdata/qiuhan/codet5/usage/goroot/test/codegen/mapaccess.go:410)	MOVQ	AX, DX
	0x019b 00411 (/bigdata/qiuhan/codet5/usage/goroot/test/codegen/mapaccess.go:410)	MOVQ	DI, AX
	0x019e 00414 (/bigdata/qiuhan/codet5/usage/goroot/test/codegen/mapaccess.go:410)	MOVQ	BX, 8(AX)
	0x01a2 00418 (/bigdata/qiuhan/codet5/usage/goroot/test/codegen/mapaccess.go:410)	LEAQ	-3(BX), CX
	0x01a6 00422 (/bigdata/qiuhan/codet5/usage/goroot/test/codegen/mapaccess.go:410)	SHLQ	$4, CX
	0x01aa 00426 (/bigdata/qiuhan/codet5/usage/goroot/test/codegen/mapaccess.go:410)	MOVSD	$f64.3ff0000000000000(SB), X0
	0x01b2 00434 (/bigdata/qiuhan/codet5/usage/goroot/test/codegen/mapaccess.go:410)	MOVSD	X0, (DX)(CX*1)
	0x01b7 00439 (/bigdata/qiuhan/codet5/usage/goroot/test/codegen/mapaccess.go:410)	XORPS	X1, X1
	0x01ba 00442 (/bigdata/qiuhan/codet5/usage/goroot/test/codegen/mapaccess.go:410)	MOVSD	X1, 8(DX)(CX*1)
	0x01c0 00448 (/bigdata/qiuhan/codet5/usage/goroot/test/codegen/mapaccess.go:410)	MOVSD	$f64.4000000000000000(SB), X2
	0x01c8 00456 (/bigdata/qiuhan/codet5/usage/goroot/test/codegen/mapaccess.go:410)	MOVSD	X2, 16(DX)(CX*1)
	0x01ce 00462 (/bigdata/qiuhan/codet5/usage/goroot/test/codegen/mapaccess.go:410)	MOVSD	X1, 24(DX)(CX*1)
	0x01d4 00468 (/bigdata/qiuhan/codet5/usage/goroot/test/codegen/mapaccess.go:410)	MOVSD	$f64.4008000000000000(SB), X2
	0x01dc 00476 (/bigdata/qiuhan/codet5/usage/goroot/test/codegen/mapaccess.go:410)	MOVSD	X2, 32(DX)(CX*1)
	0x01e2 00482 (/bigdata/qiuhan/codet5/usage/goroot/test/codegen/mapaccess.go:410)	MOVSD	X1, 40(DX)(CX*1)
	0x01e8 00488 (/bigdata/qiuhan/codet5/usage/goroot/test/codegen/mapaccess.go:412)	LEAQ	type:[4]complex128(SB), AX
	0x01ef 00495 (/bigdata/qiuhan/codet5/usage/goroot/test/codegen/mapaccess.go:412)	PCDATA	$1, $1
	0x01ef 00495 (/bigdata/qiuhan/codet5/usage/goroot/test/codegen/mapaccess.go:412)	CALL	runtime.newobject(SB)
	0x01f4 00500 (/bigdata/qiuhan/codet5/usage/goroot/test/codegen/mapaccess.go:412)	MOVQ	AX, command-line-arguments..autotmp_32+176(SP)
	0x01fc 00508 (/bigdata/qiuhan/codet5/usage/goroot/test/codegen/mapaccess.go:412)	MOVSD	$f64.401c000000000000(SB), X0
	0x0204 00516 (/bigdata/qiuhan/codet5/usage/goroot/test/codegen/mapaccess.go:412)	MOVSD	X0, (AX)
	0x0208 00520 (/bigdata/qiuhan/codet5/usage/goroot/test/codegen/mapaccess.go:412)	XORPS	X0, X0
	0x020b 00523 (/bigdata/qiuhan/codet5/usage/goroot/test/codegen/mapaccess.go:412)	MOVSD	X0, 8(AX)
	0x0210 00528 (/bigdata/qiuhan/codet5/usage/goroot/test/codegen/mapaccess.go:412)	MOVSD	$f64.4020000000000000(SB), X1
	0x0218 00536 (/bigdata/qiuhan/codet5/usage/goroot/test/codegen/mapaccess.go:412)	MOVSD	X1, 16(AX)
	0x021d 00541 (/bigdata/qiuhan/codet5/usage/goroot/test/codegen/mapaccess.go:412)	MOVSD	X0, 24(AX)
	0x0222 00546 (/bigdata/qiuhan/codet5/usage/goroot/test/codegen/mapaccess.go:412)	MOVSD	$f64.4022000000000000(SB), X1
	0x022a 00554 (/bigdata/qiuhan/codet5/usage/goroot/test/codegen/mapaccess.go:412)	MOVSD	X1, 32(AX)
	0x022f 00559 (/bigdata/qiuhan/codet5/usage/goroot/test/codegen/mapaccess.go:412)	MOVSD	X0, 40(AX)
	0x0234 00564 (/bigdata/qiuhan/codet5/usage/goroot/test/codegen/mapaccess.go:412)	MOVSD	X0, 48(AX)
	0x0239 00569 (/bigdata/qiuhan/codet5/usage/goroot/test/codegen/mapaccess.go:412)	MOVSD	X0, 56(AX)
	0x023e 00574 (/bigdata/qiuhan/codet5/usage/goroot/test/codegen/mapaccess.go:418)	LEAQ	command-line-arguments..autotmp_5+200(SP), BX
	0x0246 00582 (/bigdata/qiuhan/codet5/usage/goroot/test/codegen/mapaccess.go:418)	LEAQ	command-line-arguments.k+80(SP), CX
	0x024b 00587 (/bigdata/qiuhan/codet5/usage/goroot/test/codegen/mapaccess.go:418)	LEAQ	type:map[complex128][]complex128(SB), AX
	0x0252 00594 (/bigdata/qiuhan/codet5/usage/goroot/test/codegen/mapaccess.go:418)	PCDATA	$1, $4
	0x0252 00594 (/bigdata/qiuhan/codet5/usage/goroot/test/codegen/mapaccess.go:418)	CALL	runtime.mapassign(SB)
	0x0257 00599 (/bigdata/qiuhan/codet5/usage/goroot/test/codegen/mapaccess.go:418)	MOVQ	AX, command-line-arguments..autotmp_33+168(SP)
	0x025f 00607 (/bigdata/qiuhan/codet5/usage/goroot/test/codegen/mapaccess.go:418)	MOVQ	16(AX), CX
	0x0263 00611 (/bigdata/qiuhan/codet5/usage/goroot/test/codegen/mapaccess.go:418)	MOVQ	(AX), DX
	0x0266 00614 (/bigdata/qiuhan/codet5/usage/goroot/test/codegen/mapaccess.go:418)	MOVQ	8(AX), BX
	0x026a 00618 (/bigdata/qiuhan/codet5/usage/goroot/test/codegen/mapaccess.go:418)	LEAQ	4(BX), SI
	0x026e 00622 (/bigdata/qiuhan/codet5/usage/goroot/test/codegen/mapaccess.go:418)	CMPQ	CX, SI
	0x0271 00625 (/bigdata/qiuhan/codet5/usage/goroot/test/codegen/mapaccess.go:418)	JCC	666
	0x0273 00627 (/bigdata/qiuhan/codet5/usage/goroot/test/codegen/mapaccess.go:418)	MOVQ	BX, command-line-arguments..autotmp_34+72(SP)
	0x0278 00632 (/bigdata/qiuhan/codet5/usage/goroot/test/codegen/mapaccess.go:418)	MOVQ	DX, AX
	0x027b 00635 (/bigdata/qiuhan/codet5/usage/goroot/test/codegen/mapaccess.go:418)	MOVQ	SI, BX
	0x027e 00638 (/bigdata/qiuhan/codet5/usage/goroot/test/codegen/mapaccess.go:418)	MOVL	$4, DI
	0x0283 00643 (/bigdata/qiuhan/codet5/usage/goroot/test/codegen/mapaccess.go:418)	LEAQ	type:complex128(SB), SI
	0x028a 00650 (/bigdata/qiuhan/codet5/usage/goroot/test/codegen/mapaccess.go:418)	PCDATA	$1, $5
	0x028a 00650 (/bigdata/qiuhan/codet5/usage/goroot/test/codegen/mapaccess.go:418)	CALL	runtime.growslice(SB)
	0x028f 00655 (/bigdata/qiuhan/codet5/usage/goroot/test/codegen/mapaccess.go:418)	MOVQ	AX, DX
	0x0292 00658 (/bigdata/qiuhan/codet5/usage/goroot/test/codegen/mapaccess.go:418)	MOVQ	BX, SI
	0x0295 00661 (/bigdata/qiuhan/codet5/usage/goroot/test/codegen/mapaccess.go:418)	MOVQ	command-line-arguments..autotmp_34+72(SP), BX
	0x029a 00666 (/bigdata/qiuhan/codet5/usage/goroot/test/codegen/mapaccess.go:418)	MOVQ	SI, command-line-arguments..autotmp_34+72(SP)
	0x029f 00671 (/bigdata/qiuhan/codet5/usage/goroot/test/codegen/mapaccess.go:418)	MOVQ	DX, command-line-arguments..autotmp_35+160(SP)
	0x02a7 00679 (/bigdata/qiuhan/codet5/usage/goroot/test/codegen/mapaccess.go:418)	MOVQ	CX, command-line-arguments..autotmp_36+64(SP)
	0x02ac 00684 (/bigdata/qiuhan/codet5/usage/goroot/test/codegen/mapaccess.go:418)	SHLQ	$4, BX
	0x02b0 00688 (/bigdata/qiuhan/codet5/usage/goroot/test/codegen/mapaccess.go:418)	LEAQ	(DX)(BX*1), AX
	0x02b4 00692 (/bigdata/qiuhan/codet5/usage/goroot/test/codegen/mapaccess.go:418)	MOVQ	command-line-arguments..autotmp_32+176(SP), BX
	0x02bc 00700 (/bigdata/qiuhan/codet5/usage/goroot/test/codegen/mapaccess.go:418)	MOVL	$64, CX
	0x02c1 00705 (/bigdata/qiuhan/codet5/usage/goroot/test/codegen/mapaccess.go:418)	PCDATA	$1, $6
	0x02c1 00705 (/bigdata/qiuhan/codet5/usage/goroot/test/codegen/mapaccess.go:418)	CALL	runtime.memmove(SB)
	0x02c6 00710 (/bigdata/qiuhan/codet5/usage/goroot/test/codegen/mapaccess.go:418)	MOVQ	command-line-arguments..autotmp_34+72(SP), DX
	0x02cb 00715 (/bigdata/qiuhan/codet5/usage/goroot/test/codegen/mapaccess.go:418)	MOVQ	command-line-arguments..autotmp_33+168(SP), DI
	0x02d3 00723 (/bigdata/qiuhan/codet5/usage/goroot/test/codegen/mapaccess.go:418)	MOVQ	DX, 8(DI)
	0x02d7 00727 (/bigdata/qiuhan/codet5/usage/goroot/test/codegen/mapaccess.go:418)	MOVQ	command-line-arguments..autotmp_36+64(SP), DX
	0x02dc 00732 (/bigdata/qiuhan/codet5/usage/goroot/test/codegen/mapaccess.go:418)	MOVQ	DX, 16(DI)
	0x02e0 00736 (/bigdata/qiuhan/codet5/usage/goroot/test/codegen/mapaccess.go:418)	PCDATA	$0, $-2
	0x02e0 00736 (/bigdata/qiuhan/codet5/usage/goroot/test/codegen/mapaccess.go:418)	CMPL	runtime.writeBarrier(SB), $0
	0x02e7 00743 (/bigdata/qiuhan/codet5/usage/goroot/test/codegen/mapaccess.go:418)	JNE	758
	0x02e9 00745 (/bigdata/qiuhan/codet5/usage/goroot/test/codegen/mapaccess.go:418)	MOVQ	command-line-arguments..autotmp_35+160(SP), DX
	0x02f1 00753 (/bigdata/qiuhan/codet5/usage/goroot/test/codegen/mapaccess.go:418)	MOVQ	DX, (DI)
	0x02f4 00756 (/bigdata/qiuhan/codet5/usage/goroot/test/codegen/mapaccess.go:418)	JMP	773
	0x02f6 00758 (/bigdata/qiuhan/codet5/usage/goroot/test/codegen/mapaccess.go:418)	MOVQ	command-line-arguments..autotmp_35+160(SP), DX
	0x02fe 00766 (/bigdata/qiuhan/codet5/usage/goroot/test/codegen/mapaccess.go:418)	NOP
	0x0300 00768 (/bigdata/qiuhan/codet5/usage/goroot/test/codegen/mapaccess.go:418)	CALL	runtime.gcWriteBarrierDX(SB)
	0x0305 00773 (/bigdata/qiuhan/codet5/usage/goroot/test/codegen/mapaccess.go:426)	PCDATA	$0, $-1
	0x0305 00773 (/bigdata/qiuhan/codet5/usage/goroot/test/codegen/mapaccess.go:426)	LEAQ	type:map[complex128][]complex128(SB), AX
	0x030c 00780 (/bigdata/qiuhan/codet5/usage/goroot/test/codegen/mapaccess.go:426)	LEAQ	command-line-arguments..autotmp_5+200(SP), BX
	0x0314 00788 (/bigdata/qiuhan/codet5/usage/goroot/test/codegen/mapaccess.go:426)	LEAQ	command-line-arguments.k+80(SP), CX
	0x0319 00793 (/bigdata/qiuhan/codet5/usage/goroot/test/codegen/mapaccess.go:426)	PCDATA	$1, $4
	0x0319 00793 (/bigdata/qiuhan/codet5/usage/goroot/test/codegen/mapaccess.go:426)	CALL	runtime.mapaccess1(SB)
	0x031e 00798 (/bigdata/qiuhan/codet5/usage/goroot/test/codegen/mapaccess.go:426)	MOVQ	8(AX), BX
	0x0322 00802 (/bigdata/qiuhan/codet5/usage/goroot/test/codegen/mapaccess.go:426)	LEAQ	4(BX), DX
	0x0326 00806 (/bigdata/qiuhan/codet5/usage/goroot/test/codegen/mapaccess.go:426)	MOVQ	(AX), SI
	0x0329 00809 (/bigdata/qiuhan/codet5/usage/goroot/test/codegen/mapaccess.go:426)	CMPQ	DX, $4
	0x032d 00813 (/bigdata/qiuhan/codet5/usage/goroot/test/codegen/mapaccess.go:426)	JHI	830
	0x032f 00815 (/bigdata/qiuhan/codet5/usage/goroot/test/codegen/mapaccess.go:426)	MOVQ	command-line-arguments..autotmp_32+176(SP), AX
	0x0337 00823 (/bigdata/qiuhan/codet5/usage/goroot/test/codegen/mapaccess.go:426)	MOVL	$4, CX
	0x033c 00828 (/bigdata/qiuhan/codet5/usage/goroot/test/codegen/mapaccess.go:426)	JMP	890
	0x033e 00830 (/bigdata/qiuhan/codet5/usage/goroot/test/codegen/mapaccess.go:426)	MOVQ	BX, command-line-arguments..autotmp_34+72(SP)
	0x0343 00835 (/bigdata/qiuhan/codet5/usage/goroot/test/codegen/mapaccess.go:426)	MOVQ	SI, command-line-arguments..autotmp_37+152(SP)
	0x034b 00843 (/bigdata/qiuhan/codet5/usage/goroot/test/codegen/mapaccess.go:426)	MOVQ	command-line-arguments..autotmp_32+176(SP), AX
	0x0353 00851 (/bigdata/qiuhan/codet5/usage/goroot/test/codegen/mapaccess.go:426)	MOVL	$4, CX
	0x0358 00856 (/bigdata/qiuhan/codet5/usage/goroot/test/codegen/mapaccess.go:426)	MOVQ	BX, DI
	0x035b 00859 (/bigdata/qiuhan/codet5/usage/goroot/test/codegen/mapaccess.go:426)	LEAQ	type:complex128(SB), SI
	0x0362 00866 (/bigdata/qiuhan/codet5/usage/goroot/test/codegen/mapaccess.go:426)	MOVQ	DX, BX
	0x0365 00869 (/bigdata/qiuhan/codet5/usage/goroot/test/codegen/mapaccess.go:426)	PCDATA	$1, $7
	0x0365 00869 (/bigdata/qiuhan/codet5/usage/goroot/test/codegen/mapaccess.go:426)	CALL	runtime.growslice(SB)
	0x036a 00874 (/bigdata/qiuhan/codet5/usage/goroot/test/codegen/mapaccess.go:426)	MOVQ	command-line-arguments..autotmp_37+152(SP), SI
	0x0372 00882 (/bigdata/qiuhan/codet5/usage/goroot/test/codegen/mapaccess.go:426)	MOVQ	BX, DX
	0x0375 00885 (/bigdata/qiuhan/codet5/usage/goroot/test/codegen/mapaccess.go:426)	MOVQ	command-line-arguments..autotmp_34+72(SP), BX
	0x037a 00890 (/bigdata/qiuhan/codet5/usage/goroot/test/codegen/mapaccess.go:426)	MOVQ	CX, command-line-arguments..autotmp_34+72(SP)
	0x037f 00895 (/bigdata/qiuhan/codet5/usage/goroot/test/codegen/mapaccess.go:426)	MOVQ	AX, command-line-arguments..autotmp_38+144(SP)
	0x0387 00903 (/bigdata/qiuhan/codet5/usage/goroot/test/codegen/mapaccess.go:426)	MOVQ	DX, command-line-arguments..autotmp_36+64(SP)
	0x038c 00908 (/bigdata/qiuhan/codet5/usage/goroot/test/codegen/mapaccess.go:426)	SHLQ	$4, BX
	0x0390 00912 (/bigdata/qiuhan/codet5/usage/goroot/test/codegen/mapaccess.go:426)	LEAQ	64(AX), DI
	0x0394 00916 (/bigdata/qiuhan/codet5/usage/goroot/test/codegen/mapaccess.go:426)	MOVQ	DI, AX
	0x0397 00919 (/bigdata/qiuhan/codet5/usage/goroot/test/codegen/mapaccess.go:426)	MOVQ	BX, R9
	0x039a 00922 (/bigdata/qiuhan/codet5/usage/goroot/test/codegen/mapaccess.go:426)	MOVQ	SI, BX
	0x039d 00925 (/bigdata/qiuhan/codet5/usage/goroot/test/codegen/mapaccess.go:426)	MOVQ	R9, CX
	0x03a0 00928 (/bigdata/qiuhan/codet5/usage/goroot/test/codegen/mapaccess.go:426)	PCDATA	$1, $8
	0x03a0 00928 (/bigdata/qiuhan/codet5/usage/goroot/test/codegen/mapaccess.go:426)	CALL	runtime.memmove(SB)
	0x03a5 00933 (/bigdata/qiuhan/codet5/usage/goroot/test/codegen/mapaccess.go:426)	LEAQ	type:map[complex128][]complex128(SB), AX
	0x03ac 00940 (/bigdata/qiuhan/codet5/usage/goroot/test/codegen/mapaccess.go:426)	LEAQ	command-line-arguments..autotmp_5+200(SP), BX
	0x03b4 00948 (/bigdata/qiuhan/codet5/usage/goroot/test/codegen/mapaccess.go:426)	LEAQ	command-line-arguments.k+80(SP), CX
	0x03b9 00953 (/bigdata/qiuhan/codet5/usage/goroot/test/codegen/mapaccess.go:426)	CALL	runtime.mapassign(SB)
	0x03be 00958 (/bigdata/qiuhan/codet5/usage/goroot/test/codegen/mapaccess.go:426)	MOVQ	command-line-arguments..autotmp_36+64(SP), DX
	0x03c3 00963 (/bigdata/qiuhan/codet5/usage/goroot/test/codegen/mapaccess.go:426)	MOVQ	DX, 8(AX)
	0x03c7 00967 (/bigdata/qiuhan/codet5/usage/goroot/test/codegen/mapaccess.go:426)	MOVQ	command-line-arguments..autotmp_34+72(SP), DX
	0x03cc 00972 (/bigdata/qiuhan/codet5/usage/goroot/test/codegen/mapaccess.go:426)	MOVQ	DX, 16(AX)
	0x03d0 00976 (/bigdata/qiuhan/codet5/usage/goroot/test/codegen/mapaccess.go:426)	PCDATA	$0, $-2
	0x03d0 00976 (/bigdata/qiuhan/codet5/usage/goroot/test/codegen/mapaccess.go:426)	CMPL	runtime.writeBarrier(SB), $0
	0x03d7 00983 (/bigdata/qiuhan/codet5/usage/goroot/test/codegen/mapaccess.go:426)	JNE	998
	0x03d9 00985 (/bigdata/qiuhan/codet5/usage/goroot/test/codegen/mapaccess.go:426)	MOVQ	command-line-arguments..autotmp_38+144(SP), DX
	0x03e1 00993 (/bigdata/qiuhan/codet5/usage/goroot/test/codegen/mapaccess.go:426)	MOVQ	DX, (AX)
	0x03e4 00996 (/bigdata/qiuhan/codet5/usage/goroot/test/codegen/mapaccess.go:426)	JMP	1014
	0x03e6 00998 (/bigdata/qiuhan/codet5/usage/goroot/test/codegen/mapaccess.go:426)	MOVQ	AX, DI
	0x03e9 01001 (/bigdata/qiuhan/codet5/usage/goroot/test/codegen/mapaccess.go:426)	MOVQ	command-line-arguments..autotmp_38+144(SP), DX
	0x03f1 01009 (/bigdata/qiuhan/codet5/usage/goroot/test/codegen/mapaccess.go:426)	CALL	runtime.gcWriteBarrierDX(SB)
	0x03f6 01014 (/bigdata/qiuhan/codet5/usage/goroot/test/codegen/mapaccess.go:432)	PCDATA	$0, $-1
	0x03f6 01014 (/bigdata/qiuhan/codet5/usage/goroot/test/codegen/mapaccess.go:432)	LEAQ	type:map[complex128][]complex128(SB), AX
	0x03fd 01021 (/bigdata/qiuhan/codet5/usage/goroot/test/codegen/mapaccess.go:432)	LEAQ	command-line-arguments..autotmp_5+200(SP), BX
	0x0405 01029 (/bigdata/qiuhan/codet5/usage/goroot/test/codegen/mapaccess.go:432)	LEAQ	command-line-arguments.k+80(SP), CX
	0x040a 01034 (/bigdata/qiuhan/codet5/usage/goroot/test/codegen/mapaccess.go:432)	PCDATA	$1, $1
	0x040a 01034 (/bigdata/qiuhan/codet5/usage/goroot/test/codegen/mapaccess.go:432)	CALL	runtime.mapaccess1(SB)
	0x040f 01039 (/bigdata/qiuhan/codet5/usage/goroot/test/codegen/mapaccess.go:432)	MOVQ	8(AX), BX
	0x0413 01043 (/bigdata/qiuhan/codet5/usage/goroot/test/codegen/mapaccess.go:432)	INCQ	BX
	0x0416 01046 (/bigdata/qiuhan/codet5/usage/goroot/test/codegen/mapaccess.go:432)	MOVQ	16(AX), CX
	0x041a 01050 (/bigdata/qiuhan/codet5/usage/goroot/test/codegen/mapaccess.go:432)	MOVQ	(AX), AX
	0x041d 01053 (/bigdata/qiuhan/codet5/usage/goroot/test/codegen/mapaccess.go:432)	NOP
	0x0420 01056 (/bigdata/qiuhan/codet5/usage/goroot/test/codegen/mapaccess.go:432)	CMPQ	CX, BX
	0x0423 01059 (/bigdata/qiuhan/codet5/usage/goroot/test/codegen/mapaccess.go:432)	JCC	1078
	0x0425 01061 (/bigdata/qiuhan/codet5/usage/goroot/test/codegen/mapaccess.go:432)	MOVL	$1, DI
	0x042a 01066 (/bigdata/qiuhan/codet5/usage/goroot/test/codegen/mapaccess.go:432)	LEAQ	type:complex128(SB), SI
	0x0431 01073 (/bigdata/qiuhan/codet5/usage/goroot/test/codegen/mapaccess.go:432)	CALL	runtime.growslice(SB)
	0x0436 01078 (/bigdata/qiuhan/codet5/usage/goroot/test/codegen/mapaccess.go:432)	MOVQ	AX, command-line-arguments..autotmp_39+136(SP)
	0x043e 01086 (/bigdata/qiuhan/codet5/usage/goroot/test/codegen/mapaccess.go:432)	MOVQ	BX, command-line-arguments..autotmp_34+72(SP)
	0x0443 01091 (/bigdata/qiuhan/codet5/usage/goroot/test/codegen/mapaccess.go:432)	MOVQ	CX, command-line-arguments..autotmp_36+64(SP)
	0x0448 01096 (/bigdata/qiuhan/codet5/usage/goroot/test/codegen/mapaccess.go:432)	LEAQ	-1(BX), DX
	0x044c 01100 (/bigdata/qiuhan/codet5/usage/goroot/test/codegen/mapaccess.go:432)	SHLQ	$4, DX
	0x0450 01104 (/bigdata/qiuhan/codet5/usage/goroot/test/codegen/mapaccess.go:432)	MOVSD	$f64.4058c00000000000(SB), X0
	0x0458 01112 (/bigdata/qiuhan/codet5/usage/goroot/test/codegen/mapaccess.go:432)	MOVSD	X0, (AX)(DX*1)
	0x045d 01117 (/bigdata/qiuhan/codet5/usage/goroot/test/codegen/mapaccess.go:432)	XORPS	X0, X0
	0x0460 01120 (/bigdata/qiuhan/codet5/usage/goroot/test/codegen/mapaccess.go:432)	MOVSD	X0, 8(AX)(DX*1)
	0x0466 01126 (/bigdata/qiuhan/codet5/usage/goroot/test/codegen/mapaccess.go:432)	MOVSD	command-line-arguments.k+80(SP), X1
	0x046c 01132 (/bigdata/qiuhan/codet5/usage/goroot/test/codegen/mapaccess.go:432)	MOVSD	command-line-arguments.k+88(SP), X2
	0x0472 01138 (/bigdata/qiuhan/codet5/usage/goroot/test/codegen/mapaccess.go:432)	MOVSD	X1, command-line-arguments..autotmp_24+112(SP)
	0x0478 01144 (/bigdata/qiuhan/codet5/usage/goroot/test/codegen/mapaccess.go:432)	MOVSD	X2, command-line-arguments..autotmp_24+120(SP)
	0x047e 01150 (/bigdata/qiuhan/codet5/usage/goroot/test/codegen/mapaccess.go:432)	MOVBLZX	command-line-arguments.sinkAppend(SB), DX
	0x0485 01157 (/bigdata/qiuhan/codet5/usage/goroot/test/codegen/mapaccess.go:432)	XORL	$1, DX
	0x0488 01160 (/bigdata/qiuhan/codet5/usage/goroot/test/codegen/mapaccess.go:432)	MOVB	DL, command-line-arguments.sinkAppend(SB)
	0x048e 01166 (/bigdata/qiuhan/codet5/usage/goroot/test/codegen/mapaccess.go:432)	LEAQ	type:map[complex128][]complex128(SB), AX
	0x0495 01173 (/bigdata/qiuhan/codet5/usage/goroot/test/codegen/mapaccess.go:432)	LEAQ	command-line-arguments..autotmp_5+200(SP), BX
	0x049d 01181 (/bigdata/qiuhan/codet5/usage/goroot/test/codegen/mapaccess.go:432)	LEAQ	command-line-arguments..autotmp_24+112(SP), CX
	0x04a2 01186 (/bigdata/qiuhan/codet5/usage/goroot/test/codegen/mapaccess.go:432)	PCDATA	$1, $9
	0x04a2 01186 (/bigdata/qiuhan/codet5/usage/goroot/test/codegen/mapaccess.go:432)	CALL	runtime.mapassign(SB)
	0x04a7 01191 (/bigdata/qiuhan/codet5/usage/goroot/test/codegen/mapaccess.go:432)	MOVQ	command-line-arguments..autotmp_34+72(SP), DX
	0x04ac 01196 (/bigdata/qiuhan/codet5/usage/goroot/test/codegen/mapaccess.go:432)	MOVQ	DX, 8(AX)
	0x04b0 01200 (/bigdata/qiuhan/codet5/usage/goroot/test/codegen/mapaccess.go:432)	MOVQ	command-line-arguments..autotmp_36+64(SP), DX
	0x04b5 01205 (/bigdata/qiuhan/codet5/usage/goroot/test/codegen/mapaccess.go:432)	MOVQ	DX, 16(AX)
	0x04b9 01209 (/bigdata/qiuhan/codet5/usage/goroot/test/codegen/mapaccess.go:432)	PCDATA	$0, $-2
	0x04b9 01209 (/bigdata/qiuhan/codet5/usage/goroot/test/codegen/mapaccess.go:432)	CMPL	runtime.writeBarrier(SB), $0
	0x04c0 01216 (/bigdata/qiuhan/codet5/usage/goroot/test/codegen/mapaccess.go:432)	JNE	1231
	0x04c2 01218 (/bigdata/qiuhan/codet5/usage/goroot/test/codegen/mapaccess.go:432)	MOVQ	command-line-arguments..autotmp_39+136(SP), DX
	0x04ca 01226 (/bigdata/qiuhan/codet5/usage/goroot/test/codegen/mapaccess.go:432)	MOVQ	DX, (AX)
	0x04cd 01229 (/bigdata/qiuhan/codet5/usage/goroot/test/codegen/mapaccess.go:432)	JMP	1247
	0x04cf 01231 (/bigdata/qiuhan/codet5/usage/goroot/test/codegen/mapaccess.go:432)	MOVQ	AX, DI
	0x04d2 01234 (/bigdata/qiuhan/codet5/usage/goroot/test/codegen/mapaccess.go:432)	MOVQ	command-line-arguments..autotmp_39+136(SP), DX
	0x04da 01242 (/bigdata/qiuhan/codet5/usage/goroot/test/codegen/mapaccess.go:432)	CALL	runtime.gcWriteBarrierDX(SB)
	0x04df 01247 (/bigdata/qiuhan/codet5/usage/goroot/test/codegen/mapaccess.go:438)	PCDATA	$0, $-1
	0x04df 01247 (/bigdata/qiuhan/codet5/usage/goroot/test/codegen/mapaccess.go:438)	MOVSD	command-line-arguments.k+80(SP), X0
	0x04e5 01253 (/bigdata/qiuhan/codet5/usage/goroot/test/codegen/mapaccess.go:438)	MOVSD	$f64.3ff0000000000000(SB), X1
	0x04ed 01261 (/bigdata/qiuhan/codet5/usage/goroot/test/codegen/mapaccess.go:438)	ADDSD	X0, X1
	0x04f1 01265 (/bigdata/qiuhan/codet5/usage/goroot/test/codegen/mapaccess.go:438)	MOVSD	command-line-arguments.k+88(SP), X0
	0x04f7 01271 (/bigdata/qiuhan/codet5/usage/goroot/test/codegen/mapaccess.go:438)	MOVSD	X1, command-line-arguments..autotmp_4+96(SP)
	0x04fd 01277 (/bigdata/qiuhan/codet5/usage/goroot/test/codegen/mapaccess.go:438)	XORPS	X1, X1
	0x0500 01280 (/bigdata/qiuhan/codet5/usage/goroot/test/codegen/mapaccess.go:438)	ADDSD	X1, X0
	0x0504 01284 (/bigdata/qiuhan/codet5/usage/goroot/test/codegen/mapaccess.go:438)	MOVSD	X0, command-line-arguments..autotmp_4+104(SP)
	0x050a 01290 (/bigdata/qiuhan/codet5/usage/goroot/test/codegen/mapaccess.go:438)	LEAQ	type:map[complex128][]complex128(SB), AX
	0x0511 01297 (/bigdata/qiuhan/codet5/usage/goroot/test/codegen/mapaccess.go:438)	LEAQ	command-line-arguments..autotmp_5+200(SP), BX
	0x0519 01305 (/bigdata/qiuhan/codet5/usage/goroot/test/codegen/mapaccess.go:438)	LEAQ	command-line-arguments..autotmp_4+96(SP), CX
	0x051e 01310 (/bigdata/qiuhan/codet5/usage/goroot/test/codegen/mapaccess.go:438)	PCDATA	$1, $1
	0x051e 01310 (/bigdata/qiuhan/codet5/usage/goroot/test/codegen/mapaccess.go:438)	NOP
	0x0520 01312 (/bigdata/qiuhan/codet5/usage/goroot/test/codegen/mapaccess.go:438)	CALL	runtime.mapaccess1(SB)
	0x0525 01317 (/bigdata/qiuhan/codet5/usage/goroot/test/codegen/mapaccess.go:438)	MOVQ	8(AX), BX
	0x0529 01321 (/bigdata/qiuhan/codet5/usage/goroot/test/codegen/mapaccess.go:438)	INCQ	BX
	0x052c 01324 (/bigdata/qiuhan/codet5/usage/goroot/test/codegen/mapaccess.go:438)	MOVQ	16(AX), CX
	0x0530 01328 (/bigdata/qiuhan/codet5/usage/goroot/test/codegen/mapaccess.go:438)	MOVQ	(AX), AX
	0x0533 01331 (/bigdata/qiuhan/codet5/usage/goroot/test/codegen/mapaccess.go:438)	CMPQ	CX, BX
	0x0536 01334 (/bigdata/qiuhan/codet5/usage/goroot/test/codegen/mapaccess.go:438)	JCC	1353
	0x0538 01336 (/bigdata/qiuhan/codet5/usage/goroot/test/codegen/mapaccess.go:438)	MOVL	$1, DI
	0x053d 01341 (/bigdata/qiuhan/codet5/usage/goroot/test/codegen/mapaccess.go:438)	LEAQ	type:complex128(SB), SI
	0x0544 01348 (/bigdata/qiuhan/codet5/usage/goroot/test/codegen/mapaccess.go:438)	CALL	runtime.growslice(SB)
	0x0549 01353 (/bigdata/qiuhan/codet5/usage/goroot/test/codegen/mapaccess.go:438)	MOVQ	AX, command-line-arguments..autotmp_40+128(SP)
	0x0551 01361 (/bigdata/qiuhan/codet5/usage/goroot/test/codegen/mapaccess.go:438)	MOVQ	BX, command-line-arguments..autotmp_34+72(SP)
	0x0556 01366 (/bigdata/qiuhan/codet5/usage/goroot/test/codegen/mapaccess.go:438)	MOVQ	CX, command-line-arguments..autotmp_36+64(SP)
	0x055b 01371 (/bigdata/qiuhan/codet5/usage/goroot/test/codegen/mapaccess.go:438)	LEAQ	-1(BX), DX
	0x055f 01375 (/bigdata/qiuhan/codet5/usage/goroot/test/codegen/mapaccess.go:438)	SHLQ	$4, DX
	0x0563 01379 (/bigdata/qiuhan/codet5/usage/goroot/test/codegen/mapaccess.go:438)	MOVSD	$f64.4059000000000000(SB), X0
	0x056b 01387 (/bigdata/qiuhan/codet5/usage/goroot/test/codegen/mapaccess.go:438)	MOVSD	X0, (AX)(DX*1)
	0x0570 01392 (/bigdata/qiuhan/codet5/usage/goroot/test/codegen/mapaccess.go:438)	XORPS	X0, X0
	0x0573 01395 (/bigdata/qiuhan/codet5/usage/goroot/test/codegen/mapaccess.go:438)	MOVSD	X0, 8(AX)(DX*1)
	0x0579 01401 (/bigdata/qiuhan/codet5/usage/goroot/test/codegen/mapaccess.go:438)	LEAQ	type:map[complex128][]complex128(SB), AX
	0x0580 01408 (/bigdata/qiuhan/codet5/usage/goroot/test/codegen/mapaccess.go:438)	LEAQ	command-line-arguments..autotmp_5+200(SP), BX
	0x0588 01416 (/bigdata/qiuhan/codet5/usage/goroot/test/codegen/mapaccess.go:438)	LEAQ	command-line-arguments.k+80(SP), CX
	0x058d 01421 (/bigdata/qiuhan/codet5/usage/goroot/test/codegen/mapaccess.go:438)	PCDATA	$1, $10
	0x058d 01421 (/bigdata/qiuhan/codet5/usage/goroot/test/codegen/mapaccess.go:438)	CALL	runtime.mapassign(SB)
	0x0592 01426 (/bigdata/qiuhan/codet5/usage/goroot/test/codegen/mapaccess.go:438)	MOVQ	command-line-arguments..autotmp_34+72(SP), DX
	0x0597 01431 (/bigdata/qiuhan/codet5/usage/goroot/test/codegen/mapaccess.go:438)	MOVQ	DX, 8(AX)
	0x059b 01435 (/bigdata/qiuhan/codet5/usage/goroot/test/codegen/mapaccess.go:438)	MOVQ	command-line-arguments..autotmp_36+64(SP), DX
	0x05a0 01440 (/bigdata/qiuhan/codet5/usage/goroot/test/codegen/mapaccess.go:438)	MOVQ	DX, 16(AX)
	0x05a4 01444 (/bigdata/qiuhan/codet5/usage/goroot/test/codegen/mapaccess.go:438)	PCDATA	$0, $-2
	0x05a4 01444 (/bigdata/qiuhan/codet5/usage/goroot/test/codegen/mapaccess.go:438)	CMPL	runtime.writeBarrier(SB), $0
	0x05ab 01451 (/bigdata/qiuhan/codet5/usage/goroot/test/codegen/mapaccess.go:438)	JNE	1466
	0x05ad 01453 (/bigdata/qiuhan/codet5/usage/goroot/test/codegen/mapaccess.go:438)	MOVQ	command-line-arguments..autotmp_40+128(SP), CX
	0x05b5 01461 (/bigdata/qiuhan/codet5/usage/goroot/test/codegen/mapaccess.go:438)	MOVQ	CX, (AX)
	0x05b8 01464 (/bigdata/qiuhan/codet5/usage/goroot/test/codegen/mapaccess.go:438)	JMP	1482
	0x05ba 01466 (/bigdata/qiuhan/codet5/usage/goroot/test/codegen/mapaccess.go:438)	MOVQ	AX, DI
	0x05bd 01469 (/bigdata/qiuhan/codet5/usage/goroot/test/codegen/mapaccess.go:438)	MOVQ	command-line-arguments..autotmp_40+128(SP), AX
	0x05c5 01477 (/bigdata/qiuhan/codet5/usage/goroot/test/codegen/mapaccess.go:438)	CALL	runtime.gcWriteBarrier(SB)
	0x05ca 01482 (/bigdata/qiuhan/codet5/usage/goroot/test/codegen/mapaccess.go:439)	PCDATA	$0, $-1
	0x05ca 01482 (/bigdata/qiuhan/codet5/usage/goroot/test/codegen/mapaccess.go:439)	PCDATA	$1, $-1
	0x05ca 01482 (/bigdata/qiuhan/codet5/usage/goroot/test/codegen/mapaccess.go:439)	MOVQ	584(SP), BP
	0x05d2 01490 (/bigdata/qiuhan/codet5/usage/goroot/test/codegen/mapaccess.go:439)	ADDQ	$592, SP
	0x05d9 01497 (/bigdata/qiuhan/codet5/usage/goroot/test/codegen/mapaccess.go:439)	RET
	0x05da 01498 (/bigdata/qiuhan/codet5/usage/goroot/test/codegen/mapaccess.go:439)	NOP
	0x05da 01498 (/bigdata/qiuhan/codet5/usage/goroot/test/codegen/mapaccess.go:396)	PCDATA	$1, $-1
	0x05da 01498 (/bigdata/qiuhan/codet5/usage/goroot/test/codegen/mapaccess.go:396)	PCDATA	$0, $-2
	0x05da 01498 (/bigdata/qiuhan/codet5/usage/goroot/test/codegen/mapaccess.go:396)	CALL	runtime.morestack_noctxt(SB)
	0x05df 01503 (/bigdata/qiuhan/codet5/usage/goroot/test/codegen/mapaccess.go:396)	PCDATA	$0, $-1
	0x05df 01503 (/bigdata/qiuhan/codet5/usage/goroot/test/codegen/mapaccess.go:396)	NOP
	0x05e0 01504 (/bigdata/qiuhan/codet5/usage/goroot/test/codegen/mapaccess.go:396)	JMP	0
	0x0000 4c 8d a4 24 30 fe ff ff 4d 3b 66 10 0f 86 c8 05  L..$0...M;f.....
	0x0010 00 00 48 81 ec 50 02 00 00 48 89 ac 24 48 02 00  ..H..P...H..$H..
	0x0020 00 48 8d ac 24 48 02 00 00 44 0f 11 bc 24 c8 00  .H..$H...D...$..
	0x0030 00 00 44 0f 11 bc 24 d8 00 00 00 44 0f 11 bc 24  ..D...$....D...$
	0x0040 e8 00 00 00 48 8d bc 24 f8 00 00 00 48 8d 7f d0  ....H..$....H...
	0x0050 66 0f 1f 84 00 00 00 00 00 0f 1f 80 00 00 00 00  f...............
	0x0060 48 89 6c 24 f0 48 8d 6c 24 f0 e8 00 00 00 00 48  H.l$.H.l$......H
	0x0070 8b 6d 00 48 8d 84 24 f8 00 00 00 48 89 84 24 d8  .m.H..$....H..$.
	0x0080 00 00 00 e8 00 00 00 00 89 84 24 d4 00 00 00 0f  ..........$.....
	0x0090 57 c0 f2 0f 11 44 24 50 f2 0f 11 44 24 58 48 8d  W....D$P...D$XH.
	0x00a0 05 00 00 00 00 48 8d 9c 24 c8 00 00 00 48 8d 4c  .....H..$....H.L
	0x00b0 24 50 e8 00 00 00 00 48 8b 08 48 8b 50 10 48 8b  $P.....H..H.P.H.
	0x00c0 58 08 48 ff c3 48 39 da 73 44 48 89 84 24 c0 00  X.H..H9.sDH..$..
	0x00d0 00 00 48 89 c8 48 89 d1 bf 01 00 00 00 48 8d 35  ..H..H.......H.5
	0x00e0 00 00 00 00 e8 00 00 00 00 48 8b bc 24 c0 00 00  .........H..$...
	0x00f0 00 48 89 4f 10 83 3d 00 00 00 00 00 75 05 48 89  .H.O..=.....u.H.
	0x0100 07 eb 05 e8 00 00 00 00 48 89 c1 48 89 f8 48 89  ........H..H..H.
	0x0110 58 08 48 8d 53 ff 48 c1 e2 04 f2 0f 10 05 00 00  X.H.S.H.........
	0x0120 00 00 f2 0f 11 04 11 0f 57 c9 f2 0f 11 4c 11 08  ........W....L..
	0x0130 48 8d 05 00 00 00 00 48 8d 9c 24 c8 00 00 00 48  H......H..$....H
	0x0140 8d 4c 24 50 e8 00 00 00 00 48 8b 10 48 8b 48 10  .L$P.....H..H.H.
	0x0150 48 8b 58 08 48 83 c3 03 48 39 d9 73 41 48 89 84  H.X.H...H9.sAH..
	0x0160 24 b8 00 00 00 48 89 d0 bf 03 00 00 00 48 8d 35  $....H.......H.5
	0x0170 00 00 00 00 e8 00 00 00 00 48 8b bc 24 b8 00 00  .........H..$...
	0x0180 00 48 89 4f 10 83 3d 00 00 00 00 00 75 05 48 89  .H.O..=.....u.H.
	0x0190 07 eb 05 e8 00 00 00 00 48 89 c2 48 89 f8 48 89  ........H..H..H.
	0x01a0 58 08 48 8d 4b fd 48 c1 e1 04 f2 0f 10 05 00 00  X.H.K.H.........
	0x01b0 00 00 f2 0f 11 04 0a 0f 57 c9 f2 0f 11 4c 0a 08  ........W....L..
	0x01c0 f2 0f 10 15 00 00 00 00 f2 0f 11 54 0a 10 f2 0f  ...........T....
	0x01d0 11 4c 0a 18 f2 0f 10 15 00 00 00 00 f2 0f 11 54  .L.............T
	0x01e0 0a 20 f2 0f 11 4c 0a 28 48 8d 05 00 00 00 00 e8  . ...L.(H.......
	0x01f0 00 00 00 00 48 89 84 24 b0 00 00 00 f2 0f 10 05  ....H..$........
	0x0200 00 00 00 00 f2 0f 11 00 0f 57 c0 f2 0f 11 40 08  .........W....@.
	0x0210 f2 0f 10 0d 00 00 00 00 f2 0f 11 48 10 f2 0f 11  ...........H....
	0x0220 40 18 f2 0f 10 0d 00 00 00 00 f2 0f 11 48 20 f2  @............H .
	0x0230 0f 11 40 28 f2 0f 11 40 30 f2 0f 11 40 38 48 8d  ..@(...@0...@8H.
	0x0240 9c 24 c8 00 00 00 48 8d 4c 24 50 48 8d 05 00 00  .$....H.L$PH....
	0x0250 00 00 e8 00 00 00 00 48 89 84 24 a8 00 00 00 48  .......H..$....H
	0x0260 8b 48 10 48 8b 10 48 8b 58 08 48 8d 73 04 48 39  .H.H..H.X.H.s.H9
	0x0270 f1 73 27 48 89 5c 24 48 48 89 d0 48 89 f3 bf 04  .s'H.\$HH..H....
	0x0280 00 00 00 48 8d 35 00 00 00 00 e8 00 00 00 00 48  ...H.5.........H
	0x0290 89 c2 48 89 de 48 8b 5c 24 48 48 89 74 24 48 48  ..H..H.\$HH.t$HH
	0x02a0 89 94 24 a0 00 00 00 48 89 4c 24 40 48 c1 e3 04  ..$....H.L$@H...
	0x02b0 48 8d 04 1a 48 8b 9c 24 b0 00 00 00 b9 40 00 00  H...H..$.....@..
	0x02c0 00 e8 00 00 00 00 48 8b 54 24 48 48 8b bc 24 a8  ......H.T$HH..$.
	0x02d0 00 00 00 48 89 57 08 48 8b 54 24 40 48 89 57 10  ...H.W.H.T$@H.W.
	0x02e0 83 3d 00 00 00 00 00 75 0d 48 8b 94 24 a0 00 00  .=.....u.H..$...
	0x02f0 00 48 89 17 eb 0f 48 8b 94 24 a0 00 00 00 66 90  .H....H..$....f.
	0x0300 e8 00 00 00 00 48 8d 05 00 00 00 00 48 8d 9c 24  .....H......H..$
	0x0310 c8 00 00 00 48 8d 4c 24 50 e8 00 00 00 00 48 8b  ....H.L$P.....H.
	0x0320 58 08 48 8d 53 04 48 8b 30 48 83 fa 04 77 0f 48  X.H.S.H.0H...w.H
	0x0330 8b 84 24 b0 00 00 00 b9 04 00 00 00 eb 3c 48 89  ..$..........<H.
	0x0340 5c 24 48 48 89 b4 24 98 00 00 00 48 8b 84 24 b0  \$HH..$....H..$.
	0x0350 00 00 00 b9 04 00 00 00 48 89 df 48 8d 35 00 00  ........H..H.5..
	0x0360 00 00 48 89 d3 e8 00 00 00 00 48 8b b4 24 98 00  ..H.......H..$..
	0x0370 00 00 48 89 da 48 8b 5c 24 48 48 89 4c 24 48 48  ..H..H.\$HH.L$HH
	0x0380 89 84 24 90 00 00 00 48 89 54 24 40 48 c1 e3 04  ..$....H.T$@H...
	0x0390 48 8d 78 40 48 89 f8 49 89 d9 48 89 f3 4c 89 c9  H.x@H..I..H..L..
	0x03a0 e8 00 00 00 00 48 8d 05 00 00 00 00 48 8d 9c 24  .....H......H..$
	0x03b0 c8 00 00 00 48 8d 4c 24 50 e8 00 00 00 00 48 8b  ....H.L$P.....H.
	0x03c0 54 24 40 48 89 50 08 48 8b 54 24 48 48 89 50 10  T$@H.P.H.T$HH.P.
	0x03d0 83 3d 00 00 00 00 00 75 0d 48 8b 94 24 90 00 00  .=.....u.H..$...
	0x03e0 00 48 89 10 eb 10 48 89 c7 48 8b 94 24 90 00 00  .H....H..H..$...
	0x03f0 00 e8 00 00 00 00 48 8d 05 00 00 00 00 48 8d 9c  ......H......H..
	0x0400 24 c8 00 00 00 48 8d 4c 24 50 e8 00 00 00 00 48  $....H.L$P.....H
	0x0410 8b 58 08 48 ff c3 48 8b 48 10 48 8b 00 0f 1f 00  .X.H..H.H.H.....
	0x0420 48 39 d9 73 11 bf 01 00 00 00 48 8d 35 00 00 00  H9.s......H.5...
	0x0430 00 e8 00 00 00 00 48 89 84 24 88 00 00 00 48 89  ......H..$....H.
	0x0440 5c 24 48 48 89 4c 24 40 48 8d 53 ff 48 c1 e2 04  \$HH.L$@H.S.H...
	0x0450 f2 0f 10 05 00 00 00 00 f2 0f 11 04 10 0f 57 c0  ..............W.
	0x0460 f2 0f 11 44 10 08 f2 0f 10 4c 24 50 f2 0f 10 54  ...D.....L$P...T
	0x0470 24 58 f2 0f 11 4c 24 70 f2 0f 11 54 24 78 0f b6  $X...L$p...T$x..
	0x0480 15 00 00 00 00 83 f2 01 88 15 00 00 00 00 48 8d  ..............H.
	0x0490 05 00 00 00 00 48 8d 9c 24 c8 00 00 00 48 8d 4c  .....H..$....H.L
	0x04a0 24 70 e8 00 00 00 00 48 8b 54 24 48 48 89 50 08  $p.....H.T$HH.P.
	0x04b0 48 8b 54 24 40 48 89 50 10 83 3d 00 00 00 00 00  H.T$@H.P..=.....
	0x04c0 75 0d 48 8b 94 24 88 00 00 00 48 89 10 eb 10 48  u.H..$....H....H
	0x04d0 89 c7 48 8b 94 24 88 00 00 00 e8 00 00 00 00 f2  ..H..$..........
	0x04e0 0f 10 44 24 50 f2 0f 10 0d 00 00 00 00 f2 0f 58  ..D$P..........X
	0x04f0 c8 f2 0f 10 44 24 58 f2 0f 11 4c 24 60 0f 57 c9  ....D$X...L$`.W.
	0x0500 f2 0f 58 c1 f2 0f 11 44 24 68 48 8d 05 00 00 00  ..X....D$hH.....
	0x0510 00 48 8d 9c 24 c8 00 00 00 48 8d 4c 24 60 66 90  .H..$....H.L$`f.
	0x0520 e8 00 00 00 00 48 8b 58 08 48 ff c3 48 8b 48 10  .....H.X.H..H.H.
	0x0530 48 8b 00 48 39 d9 73 11 bf 01 00 00 00 48 8d 35  H..H9.s......H.5
	0x0540 00 00 00 00 e8 00 00 00 00 48 89 84 24 80 00 00  .........H..$...
	0x0550 00 48 89 5c 24 48 48 89 4c 24 40 48 8d 53 ff 48  .H.\$HH.L$@H.S.H
	0x0560 c1 e2 04 f2 0f 10 05 00 00 00 00 f2 0f 11 04 10  ................
	0x0570 0f 57 c0 f2 0f 11 44 10 08 48 8d 05 00 00 00 00  .W....D..H......
	0x0580 48 8d 9c 24 c8 00 00 00 48 8d 4c 24 50 e8 00 00  H..$....H.L$P...
	0x0590 00 00 48 8b 54 24 48 48 89 50 08 48 8b 54 24 40  ..H.T$HH.P.H.T$@
	0x05a0 48 89 50 10 83 3d 00 00 00 00 00 75 0d 48 8b 8c  H.P..=.....u.H..
	0x05b0 24 80 00 00 00 48 89 08 eb 10 48 89 c7 48 8b 84  $....H....H..H..
	0x05c0 24 80 00 00 00 e8 00 00 00 00 48 8b ac 24 48 02  $.........H..$H.
	0x05d0 00 00 48 81 c4 50 02 00 00 c3 e8 00 00 00 00 90  ..H..P..........
	0x05e0 e9 1b fa ff ff                                   .....
	rel 107+4 t=7 runtime.duffzero<1>+244
	rel 132+4 t=7 runtime.fastrand<1>+0
	rel 161+4 t=14 type:map[complex128][]complex128<0>+0
	rel 179+4 t=7 runtime.mapassign<1>+0
	rel 224+4 t=14 type:complex128<0>+0
	rel 229+4 t=7 runtime.growslice<1>+0
	rel 247+4 t=14 runtime.writeBarrier<0>+-1
	rel 260+4 t=7 runtime.gcWriteBarrier<1>+0
	rel 286+4 t=14 $f64.3ff0000000000000<0>+0
	rel 307+4 t=14 type:map[complex128][]complex128<0>+0
	rel 325+4 t=7 runtime.mapassign<1>+0
	rel 368+4 t=14 type:complex128<0>+0
	rel 373+4 t=7 runtime.growslice<1>+0
	rel 391+4 t=14 runtime.writeBarrier<0>+-1
	rel 404+4 t=7 runtime.gcWriteBarrier<1>+0
	rel 430+4 t=14 $f64.3ff0000000000000<0>+0
	rel 452+4 t=14 $f64.4000000000000000<0>+0
	rel 472+4 t=14 $f64.4008000000000000<0>+0
	rel 491+4 t=14 type:[4]complex128<0>+0
	rel 496+4 t=7 runtime.newobject<1>+0
	rel 512+4 t=14 $f64.401c000000000000<0>+0
	rel 532+4 t=14 $f64.4020000000000000<0>+0
	rel 550+4 t=14 $f64.4022000000000000<0>+0
	rel 590+4 t=14 type:map[complex128][]complex128<0>+0
	rel 595+4 t=7 runtime.mapassign<1>+0
	rel 646+4 t=14 type:complex128<0>+0
	rel 651+4 t=7 runtime.growslice<1>+0
	rel 706+4 t=7 runtime.memmove<1>+0
	rel 738+4 t=14 runtime.writeBarrier<0>+-1
	rel 769+4 t=7 runtime.gcWriteBarrierDX<1>+0
	rel 776+4 t=14 type:map[complex128][]complex128<0>+0
	rel 794+4 t=7 runtime.mapaccess1<1>+0
	rel 862+4 t=14 type:complex128<0>+0
	rel 870+4 t=7 runtime.growslice<1>+0
	rel 929+4 t=7 runtime.memmove<1>+0
	rel 936+4 t=14 type:map[complex128][]complex128<0>+0
	rel 954+4 t=7 runtime.mapassign<1>+0
	rel 978+4 t=14 runtime.writeBarrier<0>+-1
	rel 1010+4 t=7 runtime.gcWriteBarrierDX<1>+0
	rel 1017+4 t=14 type:map[complex128][]complex128<0>+0
	rel 1035+4 t=7 runtime.mapaccess1<1>+0
	rel 1069+4 t=14 type:complex128<0>+0
	rel 1074+4 t=7 runtime.growslice<1>+0
	rel 1108+4 t=14 $f64.4058c00000000000<0>+0
	rel 1153+4 t=14 command-line-arguments.sinkAppend<0>+0
	rel 1162+4 t=14 command-line-arguments.sinkAppend<0>+0
	rel 1169+4 t=14 type:map[complex128][]complex128<0>+0
	rel 1187+4 t=7 runtime.mapassign<1>+0
	rel 1211+4 t=14 runtime.writeBarrier<0>+-1
	rel 1243+4 t=7 runtime.gcWriteBarrierDX<1>+0
	rel 1257+4 t=14 $f64.3ff0000000000000<0>+0
	rel 1293+4 t=14 type:map[complex128][]complex128<0>+0
	rel 1313+4 t=7 runtime.mapaccess1<1>+0
	rel 1344+4 t=14 type:complex128<0>+0
	rel 1349+4 t=7 runtime.growslice<1>+0
	rel 1383+4 t=14 $f64.4059000000000000<0>+0
	rel 1404+4 t=14 type:map[complex128][]complex128<0>+0
	rel 1422+4 t=7 runtime.mapassign<1>+0
	rel 1446+4 t=14 runtime.writeBarrier<0>+-1
	rel 1478+4 t=7 runtime.gcWriteBarrier<1>+0
	rel 1499+4 t=7 runtime.morestack_noctxt<0>+0
command-line-arguments.mapAppendAssignmentString<1> STEXT size=1706 args=0x0 locals=0x220 funcid=0x0 align=0x0
	0x0000 00000 (/bigdata/qiuhan/codet5/usage/goroot/test/codegen/mapaccess.go:441)	TEXT	command-line-arguments.mapAppendAssignmentString(SB), ABIInternal, $544-0
	0x0000 00000 (/bigdata/qiuhan/codet5/usage/goroot/test/codegen/mapaccess.go:441)	LEAQ	-416(SP), R12
	0x0008 00008 (/bigdata/qiuhan/codet5/usage/goroot/test/codegen/mapaccess.go:441)	CMPQ	R12, 16(R14)
	0x000c 00012 (/bigdata/qiuhan/codet5/usage/goroot/test/codegen/mapaccess.go:441)	PCDATA	$0, $-2
	0x000c 00012 (/bigdata/qiuhan/codet5/usage/goroot/test/codegen/mapaccess.go:441)	JLS	1695
	0x0012 00018 (/bigdata/qiuhan/codet5/usage/goroot/test/codegen/mapaccess.go:441)	PCDATA	$0, $-1
	0x0012 00018 (/bigdata/qiuhan/codet5/usage/goroot/test/codegen/mapaccess.go:441)	SUBQ	$544, SP
	0x0019 00025 (/bigdata/qiuhan/codet5/usage/goroot/test/codegen/mapaccess.go:441)	MOVQ	BP, 536(SP)
	0x0021 00033 (/bigdata/qiuhan/codet5/usage/goroot/test/codegen/mapaccess.go:441)	LEAQ	536(SP), BP
	0x0029 00041 (/bigdata/qiuhan/codet5/usage/goroot/test/codegen/mapaccess.go:441)	FUNCDATA	$0, gclocals·NEKgZvOsl7KFGa9L8DSpqQ==(SB)
	0x0029 00041 (/bigdata/qiuhan/codet5/usage/goroot/test/codegen/mapaccess.go:441)	FUNCDATA	$1, gclocals·9ngolYvJQEccK9YN2s+ZtA==(SB)
	0x0029 00041 (/bigdata/qiuhan/codet5/usage/goroot/test/codegen/mapaccess.go:441)	FUNCDATA	$2, command-line-arguments.mapAppendAssignmentString.stkobj(SB)
	0x0029 00041 (/bigdata/qiuhan/codet5/usage/goroot/test/codegen/mapaccess.go:442)	MOVUPS	X15, command-line-arguments..autotmp_4+152(SP)
	0x0032 00050 (/bigdata/qiuhan/codet5/usage/goroot/test/codegen/mapaccess.go:442)	MOVUPS	X15, command-line-arguments..autotmp_4+168(SP)
	0x003b 00059 (/bigdata/qiuhan/codet5/usage/goroot/test/codegen/mapaccess.go:442)	MOVUPS	X15, command-line-arguments..autotmp_4+184(SP)
	0x0044 00068 (/bigdata/qiuhan/codet5/usage/goroot/test/codegen/mapaccess.go:442)	LEAQ	command-line-arguments..autotmp_5+200(SP), DI
	0x004c 00076 (/bigdata/qiuhan/codet5/usage/goroot/test/codegen/mapaccess.go:442)	PCDATA	$0, $-2
	0x004c 00076 (/bigdata/qiuhan/codet5/usage/goroot/test/codegen/mapaccess.go:442)	LEAQ	-48(DI), DI
	0x0050 00080 (/bigdata/qiuhan/codet5/usage/goroot/test/codegen/mapaccess.go:442)	NOP
	0x0060 00096 (/bigdata/qiuhan/codet5/usage/goroot/test/codegen/mapaccess.go:442)	DUFFZERO	$244
	0x0073 00115 (/bigdata/qiuhan/codet5/usage/goroot/test/codegen/mapaccess.go:442)	PCDATA	$0, $-1
	0x0073 00115 (/bigdata/qiuhan/codet5/usage/goroot/test/codegen/mapaccess.go:442)	LEAQ	command-line-arguments..autotmp_5+200(SP), AX
	0x007b 00123 (/bigdata/qiuhan/codet5/usage/goroot/test/codegen/mapaccess.go:442)	MOVQ	AX, command-line-arguments..autotmp_4+168(SP)
	0x0083 00131 (/bigdata/qiuhan/codet5/usage/goroot/test/codegen/mapaccess.go:442)	PCDATA	$1, $1
	0x0083 00131 (/bigdata/qiuhan/codet5/usage/goroot/test/codegen/mapaccess.go:442)	CALL	runtime.fastrand(SB)
	0x0088 00136 (/bigdata/qiuhan/codet5/usage/goroot/test/codegen/mapaccess.go:442)	MOVL	AX, command-line-arguments..autotmp_4+164(SP)
	0x008f 00143 (/bigdata/qiuhan/codet5/usage/goroot/test/codegen/mapaccess.go:449)	LEAQ	type:map[string][]string(SB), AX
	0x0096 00150 (/bigdata/qiuhan/codet5/usage/goroot/test/codegen/mapaccess.go:449)	LEAQ	command-line-arguments..autotmp_4+152(SP), BX
	0x009e 00158 (/bigdata/qiuhan/codet5/usage/goroot/test/codegen/mapaccess.go:449)	LEAQ	go:string."key"(SB), CX
	0x00a5 00165 (/bigdata/qiuhan/codet5/usage/goroot/test/codegen/mapaccess.go:449)	MOVL	$3, DI
	0x00aa 00170 (/bigdata/qiuhan/codet5/usage/goroot/test/codegen/mapaccess.go:449)	CALL	runtime.mapassign_faststr(SB)
	0x00af 00175 (/bigdata/qiuhan/codet5/usage/goroot/test/codegen/mapaccess.go:449)	MOVQ	(AX), CX
	0x00b2 00178 (/bigdata/qiuhan/codet5/usage/goroot/test/codegen/mapaccess.go:449)	MOVQ	16(AX), DX
	0x00b6 00182 (/bigdata/qiuhan/codet5/usage/goroot/test/codegen/mapaccess.go:449)	MOVQ	8(AX), BX
	0x00ba 00186 (/bigdata/qiuhan/codet5/usage/goroot/test/codegen/mapaccess.go:449)	INCQ	BX
	0x00bd 00189 (/bigdata/qiuhan/codet5/usage/goroot/test/codegen/mapaccess.go:449)	NOP
	0x00c0 00192 (/bigdata/qiuhan/codet5/usage/goroot/test/codegen/mapaccess.go:449)	CMPQ	DX, BX
	0x00c3 00195 (/bigdata/qiuhan/codet5/usage/goroot/test/codegen/mapaccess.go:449)	JCC	267
	0x00c5 00197 (/bigdata/qiuhan/codet5/usage/goroot/test/codegen/mapaccess.go:449)	MOVQ	AX, command-line-arguments..autotmp_30+144(SP)
	0x00cd 00205 (/bigdata/qiuhan/codet5/usage/goroot/test/codegen/mapaccess.go:449)	MOVQ	CX, AX
	0x00d0 00208 (/bigdata/qiuhan/codet5/usage/goroot/test/codegen/mapaccess.go:449)	MOVQ	DX, CX
	0x00d3 00211 (/bigdata/qiuhan/codet5/usage/goroot/test/codegen/mapaccess.go:449)	MOVL	$1, DI
	0x00d8 00216 (/bigdata/qiuhan/codet5/usage/goroot/test/codegen/mapaccess.go:449)	LEAQ	type:string(SB), SI
	0x00df 00223 (/bigdata/qiuhan/codet5/usage/goroot/test/codegen/mapaccess.go:449)	PCDATA	$1, $2
	0x00df 00223 (/bigdata/qiuhan/codet5/usage/goroot/test/codegen/mapaccess.go:449)	NOP
	0x00e0 00224 (/bigdata/qiuhan/codet5/usage/goroot/test/codegen/mapaccess.go:449)	CALL	runtime.growslice(SB)
	0x00e5 00229 (/bigdata/qiuhan/codet5/usage/goroot/test/codegen/mapaccess.go:449)	MOVQ	command-line-arguments..autotmp_30+144(SP), DI
	0x00ed 00237 (/bigdata/qiuhan/codet5/usage/goroot/test/codegen/mapaccess.go:449)	MOVQ	CX, 16(DI)
	0x00f1 00241 (/bigdata/qiuhan/codet5/usage/goroot/test/codegen/mapaccess.go:449)	PCDATA	$0, $-2
	0x00f1 00241 (/bigdata/qiuhan/codet5/usage/goroot/test/codegen/mapaccess.go:449)	CMPL	runtime.writeBarrier(SB), $0
	0x00f8 00248 (/bigdata/qiuhan/codet5/usage/goroot/test/codegen/mapaccess.go:449)	JNE	256
	0x00fa 00250 (/bigdata/qiuhan/codet5/usage/goroot/test/codegen/mapaccess.go:449)	MOVQ	AX, (DI)
	0x00fd 00253 (/bigdata/qiuhan/codet5/usage/goroot/test/codegen/mapaccess.go:449)	JMP	261
	0x00ff 00255 (/bigdata/qiuhan/codet5/usage/goroot/test/codegen/mapaccess.go:449)	NOP
	0x0100 00256 (/bigdata/qiuhan/codet5/usage/goroot/test/codegen/mapaccess.go:449)	CALL	runtime.gcWriteBarrier(SB)
	0x0105 00261 (/bigdata/qiuhan/codet5/usage/goroot/test/codegen/mapaccess.go:449)	PCDATA	$0, $-1
	0x0105 00261 (/bigdata/qiuhan/codet5/usage/goroot/test/codegen/mapaccess.go:449)	MOVQ	AX, CX
	0x0108 00264 (/bigdata/qiuhan/codet5/usage/goroot/test/codegen/mapaccess.go:449)	MOVQ	DI, AX
	0x010b 00267 (/bigdata/qiuhan/codet5/usage/goroot/test/codegen/mapaccess.go:449)	MOVQ	BX, 8(AX)
	0x010f 00271 (/bigdata/qiuhan/codet5/usage/goroot/test/codegen/mapaccess.go:449)	LEAQ	-1(BX), DX
	0x0113 00275 (/bigdata/qiuhan/codet5/usage/goroot/test/codegen/mapaccess.go:449)	SHLQ	$4, DX
	0x0117 00279 (/bigdata/qiuhan/codet5/usage/goroot/test/codegen/mapaccess.go:449)	MOVQ	$1, 8(CX)(DX*1)
	0x0120 00288 (/bigdata/qiuhan/codet5/usage/goroot/test/codegen/mapaccess.go:449)	LEAQ	(CX)(DX*1), DI
	0x0124 00292 (/bigdata/qiuhan/codet5/usage/goroot/test/codegen/mapaccess.go:449)	PCDATA	$0, $-2
	0x0124 00292 (/bigdata/qiuhan/codet5/usage/goroot/test/codegen/mapaccess.go:449)	CMPL	runtime.writeBarrier(SB), $0
	0x012b 00299 (/bigdata/qiuhan/codet5/usage/goroot/test/codegen/mapaccess.go:449)	JNE	314
	0x012d 00301 (/bigdata/qiuhan/codet5/usage/goroot/test/codegen/mapaccess.go:449)	LEAQ	go:string."1"(SB), SI
	0x0134 00308 (/bigdata/qiuhan/codet5/usage/goroot/test/codegen/mapaccess.go:449)	MOVQ	SI, (CX)(DX*1)
	0x0138 00312 (/bigdata/qiuhan/codet5/usage/goroot/test/codegen/mapaccess.go:449)	JMP	326
	0x013a 00314 (/bigdata/qiuhan/codet5/usage/goroot/test/codegen/mapaccess.go:449)	LEAQ	go:string."1"(SB), DX
	0x0141 00321 (/bigdata/qiuhan/codet5/usage/goroot/test/codegen/mapaccess.go:449)	CALL	runtime.gcWriteBarrierDX(SB)
	0x0146 00326 (/bigdata/qiuhan/codet5/usage/goroot/test/codegen/mapaccess.go:455)	PCDATA	$0, $-1
	0x0146 00326 (/bigdata/qiuhan/codet5/usage/goroot/test/codegen/mapaccess.go:455)	LEAQ	type:map[string][]string(SB), AX
	0x014d 00333 (/bigdata/qiuhan/codet5/usage/goroot/test/codegen/mapaccess.go:455)	LEAQ	command-line-arguments..autotmp_4+152(SP), BX
	0x0155 00341 (/bigdata/qiuhan/codet5/usage/goroot/test/codegen/mapaccess.go:455)	LEAQ	go:string."key"(SB), CX
	0x015c 00348 (/bigdata/qiuhan/codet5/usage/goroot/test/codegen/mapaccess.go:455)	MOVL	$3, DI
	0x0161 00353 (/bigdata/qiuhan/codet5/usage/goroot/test/codegen/mapaccess.go:455)	PCDATA	$1, $1
	0x0161 00353 (/bigdata/qiuhan/codet5/usage/goroot/test/codegen/mapaccess.go:455)	CALL	runtime.mapassign_faststr(SB)
	0x0166 00358 (/bigdata/qiuhan/codet5/usage/goroot/test/codegen/mapaccess.go:455)	MOVQ	(AX), DX
	0x0169 00361 (/bigdata/qiuhan/codet5/usage/goroot/test/codegen/mapaccess.go:455)	MOVQ	16(AX), CX
	0x016d 00365 (/bigdata/qiuhan/codet5/usage/goroot/test/codegen/mapaccess.go:455)	MOVQ	8(AX), BX
	0x0171 00369 (/bigdata/qiuhan/codet5/usage/goroot/test/codegen/mapaccess.go:455)	ADDQ	$3, BX
	0x0175 00373 (/bigdata/qiuhan/codet5/usage/goroot/test/codegen/mapaccess.go:455)	CMPQ	CX, BX
	0x0178 00376 (/bigdata/qiuhan/codet5/usage/goroot/test/codegen/mapaccess.go:455)	JCC	443
	0x017a 00378 (/bigdata/qiuhan/codet5/usage/goroot/test/codegen/mapaccess.go:455)	MOVQ	AX, command-line-arguments..autotmp_31+136(SP)
	0x0182 00386 (/bigdata/qiuhan/codet5/usage/goroot/test/codegen/mapaccess.go:455)	MOVQ	DX, AX
	0x0185 00389 (/bigdata/qiuhan/codet5/usage/goroot/test/codegen/mapaccess.go:455)	MOVL	$3, DI
	0x018a 00394 (/bigdata/qiuhan/codet5/usage/goroot/test/codegen/mapaccess.go:455)	LEAQ	type:string(SB), SI
	0x0191 00401 (/bigdata/qiuhan/codet5/usage/goroot/test/codegen/mapaccess.go:455)	PCDATA	$1, $3
	0x0191 00401 (/bigdata/qiuhan/codet5/usage/goroot/test/codegen/mapaccess.go:455)	CALL	runtime.growslice(SB)
	0x0196 00406 (/bigdata/qiuhan/codet5/usage/goroot/test/codegen/mapaccess.go:455)	MOVQ	command-line-arguments..autotmp_31+136(SP), DI
	0x019e 00414 (/bigdata/qiuhan/codet5/usage/goroot/test/codegen/mapaccess.go:455)	MOVQ	CX, 16(DI)
	0x01a2 00418 (/bigdata/qiuhan/codet5/usage/goroot/test/codegen/mapaccess.go:455)	PCDATA	$0, $-2
	0x01a2 00418 (/bigdata/qiuhan/codet5/usage/goroot/test/codegen/mapaccess.go:455)	CMPL	runtime.writeBarrier(SB), $0
	0x01a9 00425 (/bigdata/qiuhan/codet5/usage/goroot/test/codegen/mapaccess.go:455)	JNE	432
	0x01ab 00427 (/bigdata/qiuhan/codet5/usage/goroot/test/codegen/mapaccess.go:455)	MOVQ	AX, (DI)
	0x01ae 00430 (/bigdata/qiuhan/codet5/usage/goroot/test/codegen/mapaccess.go:455)	JMP	437
	0x01b0 00432 (/bigdata/qiuhan/codet5/usage/goroot/test/codegen/mapaccess.go:455)	CALL	runtime.gcWriteBarrier(SB)
	0x01b5 00437 (/bigdata/qiuhan/codet5/usage/goroot/test/codegen/mapaccess.go:455)	PCDATA	$0, $-1
	0x01b5 00437 (/bigdata/qiuhan/codet5/usage/goroot/test/codegen/mapaccess.go:455)	MOVQ	AX, DX
	0x01b8 00440 (/bigdata/qiuhan/codet5/usage/goroot/test/codegen/mapaccess.go:455)	MOVQ	DI, AX
	0x01bb 00443 (/bigdata/qiuhan/codet5/usage/goroot/test/codegen/mapaccess.go:455)	MOVQ	BX, 8(AX)
	0x01bf 00447 (/bigdata/qiuhan/codet5/usage/goroot/test/codegen/mapaccess.go:455)	LEAQ	-3(BX), CX
	0x01c3 00451 (/bigdata/qiuhan/codet5/usage/goroot/test/codegen/mapaccess.go:455)	SHLQ	$4, CX
	0x01c7 00455 (/bigdata/qiuhan/codet5/usage/goroot/test/codegen/mapaccess.go:455)	MOVQ	$1, 8(DX)(CX*1)
	0x01d0 00464 (/bigdata/qiuhan/codet5/usage/goroot/test/codegen/mapaccess.go:455)	LEAQ	(DX)(CX*1), DI
	0x01d4 00468 (/bigdata/qiuhan/codet5/usage/goroot/test/codegen/mapaccess.go:455)	LEAQ	(DX)(CX*1), BX
	0x01d8 00472 (/bigdata/qiuhan/codet5/usage/goroot/test/codegen/mapaccess.go:455)	LEAQ	16(BX), BX
	0x01dc 00476 (/bigdata/qiuhan/codet5/usage/goroot/test/codegen/mapaccess.go:455)	LEAQ	(DX)(CX*1), SI
	0x01e0 00480 (/bigdata/qiuhan/codet5/usage/goroot/test/codegen/mapaccess.go:455)	LEAQ	32(SI), SI
	0x01e4 00484 (/bigdata/qiuhan/codet5/usage/goroot/test/codegen/mapaccess.go:455)	PCDATA	$0, $-2
	0x01e4 00484 (/bigdata/qiuhan/codet5/usage/goroot/test/codegen/mapaccess.go:455)	CMPL	runtime.writeBarrier(SB), $0
	0x01eb 00491 (/bigdata/qiuhan/codet5/usage/goroot/test/codegen/mapaccess.go:455)	JNE	506
	0x01ed 00493 (/bigdata/qiuhan/codet5/usage/goroot/test/codegen/mapaccess.go:455)	LEAQ	go:string."1"(SB), R8
	0x01f4 00500 (/bigdata/qiuhan/codet5/usage/goroot/test/codegen/mapaccess.go:455)	MOVQ	R8, (DX)(CX*1)
	0x01f8 00504 (/bigdata/qiuhan/codet5/usage/goroot/test/codegen/mapaccess.go:455)	JMP	518
	0x01fa 00506 (/bigdata/qiuhan/codet5/usage/goroot/test/codegen/mapaccess.go:455)	LEAQ	go:string."1"(SB), R8
	0x0201 00513 (/bigdata/qiuhan/codet5/usage/goroot/test/codegen/mapaccess.go:455)	CALL	runtime.gcWriteBarrierR8(SB)
	0x0206 00518 (/bigdata/qiuhan/codet5/usage/goroot/test/codegen/mapaccess.go:455)	PCDATA	$0, $-1
	0x0206 00518 (/bigdata/qiuhan/codet5/usage/goroot/test/codegen/mapaccess.go:455)	MOVQ	$1, 24(DX)(CX*1)
	0x020f 00527 (/bigdata/qiuhan/codet5/usage/goroot/test/codegen/mapaccess.go:455)	PCDATA	$0, $-2
	0x020f 00527 (/bigdata/qiuhan/codet5/usage/goroot/test/codegen/mapaccess.go:455)	CMPL	runtime.writeBarrier(SB), $0
	0x0216 00534 (/bigdata/qiuhan/codet5/usage/goroot/test/codegen/mapaccess.go:455)	JNE	550
	0x0218 00536 (/bigdata/qiuhan/codet5/usage/goroot/test/codegen/mapaccess.go:455)	LEAQ	go:string."2"(SB), BX
	0x021f 00543 (/bigdata/qiuhan/codet5/usage/goroot/test/codegen/mapaccess.go:455)	MOVQ	BX, 16(DX)(CX*1)
	0x0224 00548 (/bigdata/qiuhan/codet5/usage/goroot/test/codegen/mapaccess.go:455)	JMP	565
	0x0226 00550 (/bigdata/qiuhan/codet5/usage/goroot/test/codegen/mapaccess.go:455)	MOVQ	BX, DI
	0x0229 00553 (/bigdata/qiuhan/codet5/usage/goroot/test/codegen/mapaccess.go:455)	LEAQ	go:string."2"(SB), BX
	0x0230 00560 (/bigdata/qiuhan/codet5/usage/goroot/test/codegen/mapaccess.go:455)	CALL	runtime.gcWriteBarrierBX(SB)
	0x0235 00565 (/bigdata/qiuhan/codet5/usage/goroot/test/codegen/mapaccess.go:455)	PCDATA	$0, $-1
	0x0235 00565 (/bigdata/qiuhan/codet5/usage/goroot/test/codegen/mapaccess.go:455)	MOVQ	$1, 40(DX)(CX*1)
	0x023e 00574 (/bigdata/qiuhan/codet5/usage/goroot/test/codegen/mapaccess.go:455)	PCDATA	$0, $-2
	0x023e 00574 (/bigdata/qiuhan/codet5/usage/goroot/test/codegen/mapaccess.go:455)	CMPL	runtime.writeBarrier(SB), $0
	0x0245 00581 (/bigdata/qiuhan/codet5/usage/goroot/test/codegen/mapaccess.go:455)	JNE	597
	0x0247 00583 (/bigdata/qiuhan/codet5/usage/goroot/test/codegen/mapaccess.go:455)	LEAQ	go:string."3"(SB), BX
	0x024e 00590 (/bigdata/qiuhan/codet5/usage/goroot/test/codegen/mapaccess.go:455)	MOVQ	BX, 32(DX)(CX*1)
	0x0253 00595 (/bigdata/qiuhan/codet5/usage/goroot/test/codegen/mapaccess.go:455)	JMP	613
	0x0255 00597 (/bigdata/qiuhan/codet5/usage/goroot/test/codegen/mapaccess.go:455)	MOVQ	SI, DI
	0x0258 00600 (/bigdata/qiuhan/codet5/usage/goroot/test/codegen/mapaccess.go:455)	LEAQ	go:string."3"(SB), CX
	0x025f 00607 (/bigdata/qiuhan/codet5/usage/goroot/test/codegen/mapaccess.go:455)	NOP
	0x0260 00608 (/bigdata/qiuhan/codet5/usage/goroot/test/codegen/mapaccess.go:455)	CALL	runtime.gcWriteBarrierCX(SB)
	0x0265 00613 (/bigdata/qiuhan/codet5/usage/goroot/test/codegen/mapaccess.go:457)	PCDATA	$0, $-1
	0x0265 00613 (/bigdata/qiuhan/codet5/usage/goroot/test/codegen/mapaccess.go:457)	LEAQ	type:[4]string(SB), AX
	0x026c 00620 (/bigdata/qiuhan/codet5/usage/goroot/test/codegen/mapaccess.go:457)	PCDATA	$1, $1
	0x026c 00620 (/bigdata/qiuhan/codet5/usage/goroot/test/codegen/mapaccess.go:457)	CALL	runtime.newobject(SB)
	0x0271 00625 (/bigdata/qiuhan/codet5/usage/goroot/test/codegen/mapaccess.go:457)	MOVQ	AX, command-line-arguments..autotmp_32+128(SP)
	0x0279 00633 (/bigdata/qiuhan/codet5/usage/goroot/test/codegen/mapaccess.go:457)	MOVQ	$1, 8(AX)
	0x0281 00641 (/bigdata/qiuhan/codet5/usage/goroot/test/codegen/mapaccess.go:457)	LEAQ	go:string."7"(SB), CX
	0x0288 00648 (/bigdata/qiuhan/codet5/usage/goroot/test/codegen/mapaccess.go:457)	MOVQ	CX, (AX)
	0x028b 00651 (/bigdata/qiuhan/codet5/usage/goroot/test/codegen/mapaccess.go:457)	MOVQ	$1, 24(AX)
	0x0293 00659 (/bigdata/qiuhan/codet5/usage/goroot/test/codegen/mapaccess.go:457)	LEAQ	go:string."8"(SB), CX
	0x029a 00666 (/bigdata/qiuhan/codet5/usage/goroot/test/codegen/mapaccess.go:457)	MOVQ	CX, 16(AX)
	0x029e 00670 (/bigdata/qiuhan/codet5/usage/goroot/test/codegen/mapaccess.go:457)	MOVQ	$1, 40(AX)
	0x02a6 00678 (/bigdata/qiuhan/codet5/usage/goroot/test/codegen/mapaccess.go:457)	LEAQ	go:string."9"(SB), CX
	0x02ad 00685 (/bigdata/qiuhan/codet5/usage/goroot/test/codegen/mapaccess.go:457)	MOVQ	CX, 32(AX)
	0x02b1 00689 (/bigdata/qiuhan/codet5/usage/goroot/test/codegen/mapaccess.go:457)	MOVQ	$1, 56(AX)
	0x02b9 00697 (/bigdata/qiuhan/codet5/usage/goroot/test/codegen/mapaccess.go:457)	LEAQ	go:string."0"(SB), CX
	0x02c0 00704 (/bigdata/qiuhan/codet5/usage/goroot/test/codegen/mapaccess.go:457)	MOVQ	CX, 48(AX)
	0x02c4 00708 (/bigdata/qiuhan/codet5/usage/goroot/test/codegen/mapaccess.go:463)	LEAQ	command-line-arguments..autotmp_4+152(SP), BX
	0x02cc 00716 (/bigdata/qiuhan/codet5/usage/goroot/test/codegen/mapaccess.go:463)	LEAQ	go:string."key"(SB), CX
	0x02d3 00723 (/bigdata/qiuhan/codet5/usage/goroot/test/codegen/mapaccess.go:463)	MOVL	$3, DI
	0x02d8 00728 (/bigdata/qiuhan/codet5/usage/goroot/test/codegen/mapaccess.go:463)	LEAQ	type:map[string][]string(SB), AX
	0x02df 00735 (/bigdata/qiuhan/codet5/usage/goroot/test/codegen/mapaccess.go:463)	PCDATA	$1, $4
	0x02df 00735 (/bigdata/qiuhan/codet5/usage/goroot/test/codegen/mapaccess.go:463)	NOP
	0x02e0 00736 (/bigdata/qiuhan/codet5/usage/goroot/test/codegen/mapaccess.go:463)	CALL	runtime.mapassign_faststr(SB)
	0x02e5 00741 (/bigdata/qiuhan/codet5/usage/goroot/test/codegen/mapaccess.go:463)	MOVQ	AX, command-line-arguments..autotmp_33+120(SP)
	0x02ea 00746 (/bigdata/qiuhan/codet5/usage/goroot/test/codegen/mapaccess.go:463)	MOVQ	8(AX), BX
	0x02ee 00750 (/bigdata/qiuhan/codet5/usage/goroot/test/codegen/mapaccess.go:463)	MOVQ	16(AX), CX
	0x02f2 00754 (/bigdata/qiuhan/codet5/usage/goroot/test/codegen/mapaccess.go:463)	MOVQ	(AX), DX
	0x02f5 00757 (/bigdata/qiuhan/codet5/usage/goroot/test/codegen/mapaccess.go:463)	LEAQ	4(BX), SI
	0x02f9 00761 (/bigdata/qiuhan/codet5/usage/goroot/test/codegen/mapaccess.go:463)	CMPQ	CX, SI
	0x02fc 00764 (/bigdata/qiuhan/codet5/usage/goroot/test/codegen/mapaccess.go:463)	JCC	805
	0x02fe 00766 (/bigdata/qiuhan/codet5/usage/goroot/test/codegen/mapaccess.go:463)	MOVQ	BX, command-line-arguments..autotmp_34+72(SP)
	0x0303 00771 (/bigdata/qiuhan/codet5/usage/goroot/test/codegen/mapaccess.go:463)	MOVQ	DX, AX
	0x0306 00774 (/bigdata/qiuhan/codet5/usage/goroot/test/codegen/mapaccess.go:463)	MOVQ	SI, BX
	0x0309 00777 (/bigdata/qiuhan/codet5/usage/goroot/test/codegen/mapaccess.go:463)	MOVL	$4, DI
	0x030e 00782 (/bigdata/qiuhan/codet5/usage/goroot/test/codegen/mapaccess.go:463)	LEAQ	type:string(SB), SI
	0x0315 00789 (/bigdata/qiuhan/codet5/usage/goroot/test/codegen/mapaccess.go:463)	PCDATA	$1, $5
	0x0315 00789 (/bigdata/qiuhan/codet5/usage/goroot/test/codegen/mapaccess.go:463)	CALL	runtime.growslice(SB)
	0x031a 00794 (/bigdata/qiuhan/codet5/usage/goroot/test/codegen/mapaccess.go:463)	MOVQ	AX, DX
	0x031d 00797 (/bigdata/qiuhan/codet5/usage/goroot/test/codegen/mapaccess.go:463)	MOVQ	BX, SI
	0x0320 00800 (/bigdata/qiuhan/codet5/usage/goroot/test/codegen/mapaccess.go:463)	MOVQ	command-line-arguments..autotmp_34+72(SP), BX
	0x0325 00805 (/bigdata/qiuhan/codet5/usage/goroot/test/codegen/mapaccess.go:463)	MOVQ	SI, command-line-arguments..autotmp_34+72(SP)
	0x032a 00810 (/bigdata/qiuhan/codet5/usage/goroot/test/codegen/mapaccess.go:463)	MOVQ	DX, command-line-arguments..autotmp_35+112(SP)
	0x032f 00815 (/bigdata/qiuhan/codet5/usage/goroot/test/codegen/mapaccess.go:463)	MOVQ	CX, command-line-arguments..autotmp_36+64(SP)
	0x0334 00820 (/bigdata/qiuhan/codet5/usage/goroot/test/codegen/mapaccess.go:463)	MOVQ	BX, R8
	0x0337 00823 (/bigdata/qiuhan/codet5/usage/goroot/test/codegen/mapaccess.go:463)	SUBQ	CX, BX
	0x033a 00826 (/bigdata/qiuhan/codet5/usage/goroot/test/codegen/mapaccess.go:463)	MOVQ	R8, R9
	0x033d 00829 (/bigdata/qiuhan/codet5/usage/goroot/test/codegen/mapaccess.go:463)	SHLQ	$4, R8
	0x0341 00833 (/bigdata/qiuhan/codet5/usage/goroot/test/codegen/mapaccess.go:463)	SARQ	$63, BX
	0x0345 00837 (/bigdata/qiuhan/codet5/usage/goroot/test/codegen/mapaccess.go:463)	ANDQ	R8, BX
	0x0348 00840 (/bigdata/qiuhan/codet5/usage/goroot/test/codegen/mapaccess.go:463)	SUBQ	R9, SI
	0x034b 00843 (/bigdata/qiuhan/codet5/usage/goroot/test/codegen/mapaccess.go:463)	ADDQ	DX, BX
	0x034e 00846 (/bigdata/qiuhan/codet5/usage/goroot/test/codegen/mapaccess.go:463)	LEAQ	type:string(SB), AX
	0x0355 00853 (/bigdata/qiuhan/codet5/usage/goroot/test/codegen/mapaccess.go:463)	MOVQ	command-line-arguments..autotmp_32+128(SP), DI
	0x035d 00861 (/bigdata/qiuhan/codet5/usage/goroot/test/codegen/mapaccess.go:463)	MOVQ	SI, CX
	0x0360 00864 (/bigdata/qiuhan/codet5/usage/goroot/test/codegen/mapaccess.go:463)	MOVL	$4, SI
	0x0365 00869 (/bigdata/qiuhan/codet5/usage/goroot/test/codegen/mapaccess.go:463)	PCDATA	$1, $6
	0x0365 00869 (/bigdata/qiuhan/codet5/usage/goroot/test/codegen/mapaccess.go:463)	CALL	runtime.typedslicecopy(SB)
	0x036a 00874 (/bigdata/qiuhan/codet5/usage/goroot/test/codegen/mapaccess.go:463)	MOVQ	command-line-arguments..autotmp_34+72(SP), DX
	0x036f 00879 (/bigdata/qiuhan/codet5/usage/goroot/test/codegen/mapaccess.go:463)	MOVQ	command-line-arguments..autotmp_33+120(SP), DI
	0x0374 00884 (/bigdata/qiuhan/codet5/usage/goroot/test/codegen/mapaccess.go:463)	MOVQ	DX, 8(DI)
	0x0378 00888 (/bigdata/qiuhan/codet5/usage/goroot/test/codegen/mapaccess.go:463)	MOVQ	command-line-arguments..autotmp_36+64(SP), DX
	0x037d 00893 (/bigdata/qiuhan/codet5/usage/goroot/test/codegen/mapaccess.go:463)	MOVQ	DX, 16(DI)
	0x0381 00897 (/bigdata/qiuhan/codet5/usage/goroot/test/codegen/mapaccess.go:463)	PCDATA	$0, $-2
	0x0381 00897 (/bigdata/qiuhan/codet5/usage/goroot/test/codegen/mapaccess.go:463)	CMPL	runtime.writeBarrier(SB), $0
	0x0388 00904 (/bigdata/qiuhan/codet5/usage/goroot/test/codegen/mapaccess.go:463)	JNE	916
	0x038a 00906 (/bigdata/qiuhan/codet5/usage/goroot/test/codegen/mapaccess.go:463)	MOVQ	command-line-arguments..autotmp_35+112(SP), DX
	0x038f 00911 (/bigdata/qiuhan/codet5/usage/goroot/test/codegen/mapaccess.go:463)	MOVQ	DX, (DI)
	0x0392 00914 (/bigdata/qiuhan/codet5/usage/goroot/test/codegen/mapaccess.go:463)	JMP	926
	0x0394 00916 (/bigdata/qiuhan/codet5/usage/goroot/test/codegen/mapaccess.go:463)	MOVQ	command-line-arguments..autotmp_35+112(SP), DX
	0x0399 00921 (/bigdata/qiuhan/codet5/usage/goroot/test/codegen/mapaccess.go:463)	CALL	runtime.gcWriteBarrierDX(SB)
	0x039e 00926 (/bigdata/qiuhan/codet5/usage/goroot/test/codegen/mapaccess.go:471)	PCDATA	$0, $-1
	0x039e 00926 (/bigdata/qiuhan/codet5/usage/goroot/test/codegen/mapaccess.go:471)	LEAQ	type:map[string][]string(SB), AX
	0x03a5 00933 (/bigdata/qiuhan/codet5/usage/goroot/test/codegen/mapaccess.go:471)	LEAQ	command-line-arguments..autotmp_4+152(SP), BX
	0x03ad 00941 (/bigdata/qiuhan/codet5/usage/goroot/test/codegen/mapaccess.go:471)	LEAQ	go:string."key"(SB), CX
	0x03b4 00948 (/bigdata/qiuhan/codet5/usage/goroot/test/codegen/mapaccess.go:471)	MOVL	$3, DI
	0x03b9 00953 (/bigdata/qiuhan/codet5/usage/goroot/test/codegen/mapaccess.go:471)	PCDATA	$1, $4
	0x03b9 00953 (/bigdata/qiuhan/codet5/usage/goroot/test/codegen/mapaccess.go:471)	CALL	runtime.mapaccess1_faststr(SB)
	0x03be 00958 (/bigdata/qiuhan/codet5/usage/goroot/test/codegen/mapaccess.go:471)	MOVQ	8(AX), BX
	0x03c2 00962 (/bigdata/qiuhan/codet5/usage/goroot/test/codegen/mapaccess.go:471)	LEAQ	4(BX), DX
	0x03c6 00966 (/bigdata/qiuhan/codet5/usage/goroot/test/codegen/mapaccess.go:471)	MOVQ	(AX), DI
	0x03c9 00969 (/bigdata/qiuhan/codet5/usage/goroot/test/codegen/mapaccess.go:471)	CMPQ	DX, $4
	0x03cd 00973 (/bigdata/qiuhan/codet5/usage/goroot/test/codegen/mapaccess.go:471)	JHI	990
	0x03cf 00975 (/bigdata/qiuhan/codet5/usage/goroot/test/codegen/mapaccess.go:471)	MOVQ	command-line-arguments..autotmp_32+128(SP), AX
	0x03d7 00983 (/bigdata/qiuhan/codet5/usage/goroot/test/codegen/mapaccess.go:471)	MOVL	$4, CX
	0x03dc 00988 (/bigdata/qiuhan/codet5/usage/goroot/test/codegen/mapaccess.go:471)	JMP	1044
	0x03de 00990 (/bigdata/qiuhan/codet5/usage/goroot/test/codegen/mapaccess.go:471)	MOVQ	BX, command-line-arguments..autotmp_34+72(SP)
	0x03e3 00995 (/bigdata/qiuhan/codet5/usage/goroot/test/codegen/mapaccess.go:471)	MOVQ	DI, command-line-arguments..autotmp_35+112(SP)
	0x03e8 01000 (/bigdata/qiuhan/codet5/usage/goroot/test/codegen/mapaccess.go:471)	MOVQ	command-line-arguments..autotmp_32+128(SP), AX
	0x03f0 01008 (/bigdata/qiuhan/codet5/usage/goroot/test/codegen/mapaccess.go:471)	MOVL	$4, CX
	0x03f5 01013 (/bigdata/qiuhan/codet5/usage/goroot/test/codegen/mapaccess.go:471)	MOVQ	BX, DI
	0x03f8 01016 (/bigdata/qiuhan/codet5/usage/goroot/test/codegen/mapaccess.go:471)	LEAQ	type:string(SB), SI
	0x03ff 01023 (/bigdata/qiuhan/codet5/usage/goroot/test/codegen/mapaccess.go:471)	MOVQ	DX, BX
	0x0402 01026 (/bigdata/qiuhan/codet5/usage/goroot/test/codegen/mapaccess.go:471)	PCDATA	$1, $7
	0x0402 01026 (/bigdata/qiuhan/codet5/usage/goroot/test/codegen/mapaccess.go:471)	CALL	runtime.growslice(SB)
	0x0407 01031 (/bigdata/qiuhan/codet5/usage/goroot/test/codegen/mapaccess.go:471)	MOVQ	command-line-arguments..autotmp_35+112(SP), DI
	0x040c 01036 (/bigdata/qiuhan/codet5/usage/goroot/test/codegen/mapaccess.go:471)	MOVQ	BX, DX
	0x040f 01039 (/bigdata/qiuhan/codet5/usage/goroot/test/codegen/mapaccess.go:471)	MOVQ	command-line-arguments..autotmp_34+72(SP), BX
	0x0414 01044 (/bigdata/qiuhan/codet5/usage/goroot/test/codegen/mapaccess.go:471)	MOVQ	DX, command-line-arguments..autotmp_34+72(SP)
	0x0419 01049 (/bigdata/qiuhan/codet5/usage/goroot/test/codegen/mapaccess.go:471)	MOVQ	AX, command-line-arguments..autotmp_35+112(SP)
	0x041e 01054 (/bigdata/qiuhan/codet5/usage/goroot/test/codegen/mapaccess.go:471)	MOVQ	CX, command-line-arguments..autotmp_36+64(SP)
	0x0423 01059 (/bigdata/qiuhan/codet5/usage/goroot/test/codegen/mapaccess.go:471)	LEAQ	-4(CX), R8
	0x0427 01063 (/bigdata/qiuhan/codet5/usage/goroot/test/codegen/mapaccess.go:471)	NEGQ	R8
	0x042a 01066 (/bigdata/qiuhan/codet5/usage/goroot/test/codegen/mapaccess.go:471)	SARQ	$63, R8
	0x042e 01070 (/bigdata/qiuhan/codet5/usage/goroot/test/codegen/mapaccess.go:471)	ANDL	$64, R8
	0x0432 01074 (/bigdata/qiuhan/codet5/usage/goroot/test/codegen/mapaccess.go:471)	ADDQ	AX, R8
	0x0435 01077 (/bigdata/qiuhan/codet5/usage/goroot/test/codegen/mapaccess.go:471)	LEAQ	-4(DX), R9
	0x0439 01081 (/bigdata/qiuhan/codet5/usage/goroot/test/codegen/mapaccess.go:471)	MOVQ	BX, SI
	0x043c 01084 (/bigdata/qiuhan/codet5/usage/goroot/test/codegen/mapaccess.go:471)	MOVQ	R8, BX
	0x043f 01087 (/bigdata/qiuhan/codet5/usage/goroot/test/codegen/mapaccess.go:471)	LEAQ	type:string(SB), AX
	0x0446 01094 (/bigdata/qiuhan/codet5/usage/goroot/test/codegen/mapaccess.go:471)	MOVQ	R9, CX
	0x0449 01097 (/bigdata/qiuhan/codet5/usage/goroot/test/codegen/mapaccess.go:471)	CALL	runtime.typedslicecopy(SB)
	0x044e 01102 (/bigdata/qiuhan/codet5/usage/goroot/test/codegen/mapaccess.go:471)	LEAQ	type:map[string][]string(SB), AX
	0x0455 01109 (/bigdata/qiuhan/codet5/usage/goroot/test/codegen/mapaccess.go:471)	LEAQ	command-line-arguments..autotmp_4+152(SP), BX
	0x045d 01117 (/bigdata/qiuhan/codet5/usage/goroot/test/codegen/mapaccess.go:471)	LEAQ	go:string."key"(SB), CX
	0x0464 01124 (/bigdata/qiuhan/codet5/usage/goroot/test/codegen/mapaccess.go:471)	MOVL	$3, DI
	0x0469 01129 (/bigdata/qiuhan/codet5/usage/goroot/test/codegen/mapaccess.go:471)	CALL	runtime.mapassign_faststr(SB)
	0x046e 01134 (/bigdata/qiuhan/codet5/usage/goroot/test/codegen/mapaccess.go:471)	MOVQ	command-line-arguments..autotmp_34+72(SP), DX
	0x0473 01139 (/bigdata/qiuhan/codet5/usage/goroot/test/codegen/mapaccess.go:471)	MOVQ	DX, 8(AX)
	0x0477 01143 (/bigdata/qiuhan/codet5/usage/goroot/test/codegen/mapaccess.go:471)	MOVQ	command-line-arguments..autotmp_36+64(SP), DX
	0x047c 01148 (/bigdata/qiuhan/codet5/usage/goroot/test/codegen/mapaccess.go:471)	MOVQ	DX, 16(AX)
	0x0480 01152 (/bigdata/qiuhan/codet5/usage/goroot/test/codegen/mapaccess.go:471)	PCDATA	$0, $-2
	0x0480 01152 (/bigdata/qiuhan/codet5/usage/goroot/test/codegen/mapaccess.go:471)	CMPL	runtime.writeBarrier(SB), $0
	0x0487 01159 (/bigdata/qiuhan/codet5/usage/goroot/test/codegen/mapaccess.go:471)	JNE	1171
	0x0489 01161 (/bigdata/qiuhan/codet5/usage/goroot/test/codegen/mapaccess.go:471)	MOVQ	command-line-arguments..autotmp_35+112(SP), DX
	0x048e 01166 (/bigdata/qiuhan/codet5/usage/goroot/test/codegen/mapaccess.go:471)	MOVQ	DX, (AX)
	0x0491 01169 (/bigdata/qiuhan/codet5/usage/goroot/test/codegen/mapaccess.go:471)	JMP	1189
	0x0493 01171 (/bigdata/qiuhan/codet5/usage/goroot/test/codegen/mapaccess.go:471)	MOVQ	AX, DI
	0x0496 01174 (/bigdata/qiuhan/codet5/usage/goroot/test/codegen/mapaccess.go:471)	MOVQ	command-line-arguments..autotmp_35+112(SP), DX
	0x049b 01179 (/bigdata/qiuhan/codet5/usage/goroot/test/codegen/mapaccess.go:471)	NOP
	0x04a0 01184 (/bigdata/qiuhan/codet5/usage/goroot/test/codegen/mapaccess.go:471)	CALL	runtime.gcWriteBarrierDX(SB)
	0x04a5 01189 (/bigdata/qiuhan/codet5/usage/goroot/test/codegen/mapaccess.go:477)	PCDATA	$0, $-1
	0x04a5 01189 (/bigdata/qiuhan/codet5/usage/goroot/test/codegen/mapaccess.go:477)	LEAQ	type:map[string][]string(SB), AX
	0x04ac 01196 (/bigdata/qiuhan/codet5/usage/goroot/test/codegen/mapaccess.go:477)	LEAQ	command-line-arguments..autotmp_4+152(SP), BX
	0x04b4 01204 (/bigdata/qiuhan/codet5/usage/goroot/test/codegen/mapaccess.go:477)	LEAQ	go:string."key"(SB), CX
	0x04bb 01211 (/bigdata/qiuhan/codet5/usage/goroot/test/codegen/mapaccess.go:477)	MOVL	$3, DI
	0x04c0 01216 (/bigdata/qiuhan/codet5/usage/goroot/test/codegen/mapaccess.go:477)	PCDATA	$1, $1
	0x04c0 01216 (/bigdata/qiuhan/codet5/usage/goroot/test/codegen/mapaccess.go:477)	CALL	runtime.mapaccess1_faststr(SB)
	0x04c5 01221 (/bigdata/qiuhan/codet5/usage/goroot/test/codegen/mapaccess.go:477)	MOVQ	8(AX), BX
	0x04c9 01225 (/bigdata/qiuhan/codet5/usage/goroot/test/codegen/mapaccess.go:477)	INCQ	BX
	0x04cc 01228 (/bigdata/qiuhan/codet5/usage/goroot/test/codegen/mapaccess.go:477)	MOVQ	16(AX), CX
	0x04d0 01232 (/bigdata/qiuhan/codet5/usage/goroot/test/codegen/mapaccess.go:477)	MOVQ	(AX), AX
	0x04d3 01235 (/bigdata/qiuhan/codet5/usage/goroot/test/codegen/mapaccess.go:477)	CMPQ	CX, BX
	0x04d6 01238 (/bigdata/qiuhan/codet5/usage/goroot/test/codegen/mapaccess.go:477)	JCC	1257
	0x04d8 01240 (/bigdata/qiuhan/codet5/usage/goroot/test/codegen/mapaccess.go:477)	MOVL	$1, DI
	0x04dd 01245 (/bigdata/qiuhan/codet5/usage/goroot/test/codegen/mapaccess.go:477)	LEAQ	type:string(SB), SI
	0x04e4 01252 (/bigdata/qiuhan/codet5/usage/goroot/test/codegen/mapaccess.go:477)	CALL	runtime.growslice(SB)
	0x04e9 01257 (/bigdata/qiuhan/codet5/usage/goroot/test/codegen/mapaccess.go:477)	MOVQ	AX, command-line-arguments..autotmp_35+112(SP)
	0x04ee 01262 (/bigdata/qiuhan/codet5/usage/goroot/test/codegen/mapaccess.go:477)	MOVQ	BX, command-line-arguments..autotmp_34+72(SP)
	0x04f3 01267 (/bigdata/qiuhan/codet5/usage/goroot/test/codegen/mapaccess.go:477)	MOVQ	CX, command-line-arguments..autotmp_36+64(SP)
	0x04f8 01272 (/bigdata/qiuhan/codet5/usage/goroot/test/codegen/mapaccess.go:477)	LEAQ	-1(BX), DX
	0x04fc 01276 (/bigdata/qiuhan/codet5/usage/goroot/test/codegen/mapaccess.go:477)	SHLQ	$4, DX
	0x0500 01280 (/bigdata/qiuhan/codet5/usage/goroot/test/codegen/mapaccess.go:477)	MOVQ	$2, 8(AX)(DX*1)
	0x0509 01289 (/bigdata/qiuhan/codet5/usage/goroot/test/codegen/mapaccess.go:477)	LEAQ	(AX)(DX*1), DI
	0x050d 01293 (/bigdata/qiuhan/codet5/usage/goroot/test/codegen/mapaccess.go:477)	PCDATA	$0, $-2
	0x050d 01293 (/bigdata/qiuhan/codet5/usage/goroot/test/codegen/mapaccess.go:477)	CMPL	runtime.writeBarrier(SB), $0
	0x0514 01300 (/bigdata/qiuhan/codet5/usage/goroot/test/codegen/mapaccess.go:477)	JNE	1315
	0x0516 01302 (/bigdata/qiuhan/codet5/usage/goroot/test/codegen/mapaccess.go:477)	LEAQ	go:string."99"(SB), SI
	0x051d 01309 (/bigdata/qiuhan/codet5/usage/goroot/test/codegen/mapaccess.go:477)	MOVQ	SI, (AX)(DX*1)
	0x0521 01313 (/bigdata/qiuhan/codet5/usage/goroot/test/codegen/mapaccess.go:477)	JMP	1327
	0x0523 01315 (/bigdata/qiuhan/codet5/usage/goroot/test/codegen/mapaccess.go:477)	LEAQ	go:string."99"(SB), DX
	0x052a 01322 (/bigdata/qiuhan/codet5/usage/goroot/test/codegen/mapaccess.go:477)	CALL	runtime.gcWriteBarrierDX(SB)
	0x052f 01327 (/bigdata/qiuhan/codet5/usage/goroot/test/codegen/mapaccess.go:477)	PCDATA	$0, $-1
	0x052f 01327 (/bigdata/qiuhan/codet5/usage/goroot/test/codegen/mapaccess.go:477)	MOVBLZX	command-line-arguments.sinkAppend(SB), DX
	0x0536 01334 (/bigdata/qiuhan/codet5/usage/goroot/test/codegen/mapaccess.go:477)	XORL	$1, DX
	0x0539 01337 (/bigdata/qiuhan/codet5/usage/goroot/test/codegen/mapaccess.go:477)	MOVB	DL, command-line-arguments.sinkAppend(SB)
	0x053f 01343 (/bigdata/qiuhan/codet5/usage/goroot/test/codegen/mapaccess.go:477)	LEAQ	type:map[string][]string(SB), AX
	0x0546 01350 (/bigdata/qiuhan/codet5/usage/goroot/test/codegen/mapaccess.go:477)	LEAQ	command-line-arguments..autotmp_4+152(SP), BX
	0x054e 01358 (/bigdata/qiuhan/codet5/usage/goroot/test/codegen/mapaccess.go:477)	LEAQ	go:string."key"(SB), CX
	0x0555 01365 (/bigdata/qiuhan/codet5/usage/goroot/test/codegen/mapaccess.go:477)	MOVL	$3, DI
	0x055a 01370 (/bigdata/qiuhan/codet5/usage/goroot/test/codegen/mapaccess.go:477)	PCDATA	$1, $7
	0x055a 01370 (/bigdata/qiuhan/codet5/usage/goroot/test/codegen/mapaccess.go:477)	CALL	runtime.mapassign_faststr(SB)
	0x055f 01375 (/bigdata/qiuhan/codet5/usage/goroot/test/codegen/mapaccess.go:477)	MOVQ	command-line-arguments..autotmp_34+72(SP), DX
	0x0564 01380 (/bigdata/qiuhan/codet5/usage/goroot/test/codegen/mapaccess.go:477)	MOVQ	DX, 8(AX)
	0x0568 01384 (/bigdata/qiuhan/codet5/usage/goroot/test/codegen/mapaccess.go:477)	MOVQ	command-line-arguments..autotmp_36+64(SP), DX
	0x056d 01389 (/bigdata/qiuhan/codet5/usage/goroot/test/codegen/mapaccess.go:477)	MOVQ	DX, 16(AX)
	0x0571 01393 (/bigdata/qiuhan/codet5/usage/goroot/test/codegen/mapaccess.go:477)	PCDATA	$0, $-2
	0x0571 01393 (/bigdata/qiuhan/codet5/usage/goroot/test/codegen/mapaccess.go:477)	CMPL	runtime.writeBarrier(SB), $0
	0x0578 01400 (/bigdata/qiuhan/codet5/usage/goroot/test/codegen/mapaccess.go:477)	JNE	1412
	0x057a 01402 (/bigdata/qiuhan/codet5/usage/goroot/test/codegen/mapaccess.go:477)	MOVQ	command-line-arguments..autotmp_35+112(SP), DX
	0x057f 01407 (/bigdata/qiuhan/codet5/usage/goroot/test/codegen/mapaccess.go:477)	MOVQ	DX, (AX)
	0x0582 01410 (/bigdata/qiuhan/codet5/usage/goroot/test/codegen/mapaccess.go:477)	JMP	1425
	0x0584 01412 (/bigdata/qiuhan/codet5/usage/goroot/test/codegen/mapaccess.go:477)	MOVQ	AX, DI
	0x0587 01415 (/bigdata/qiuhan/codet5/usage/goroot/test/codegen/mapaccess.go:477)	MOVQ	command-line-arguments..autotmp_35+112(SP), DX
	0x058c 01420 (/bigdata/qiuhan/codet5/usage/goroot/test/codegen/mapaccess.go:477)	CALL	runtime.gcWriteBarrierDX(SB)
	0x0591 01425 (/bigdata/qiuhan/codet5/usage/goroot/test/codegen/mapaccess.go:483)	PCDATA	$0, $-1
	0x0591 01425 (/bigdata/qiuhan/codet5/usage/goroot/test/codegen/mapaccess.go:483)	LEAQ	command-line-arguments..autotmp_23+80(SP), AX
	0x0596 01430 (/bigdata/qiuhan/codet5/usage/goroot/test/codegen/mapaccess.go:483)	LEAQ	go:string."key"(SB), BX
	0x059d 01437 (/bigdata/qiuhan/codet5/usage/goroot/test/codegen/mapaccess.go:483)	MOVL	$3, CX
	0x05a2 01442 (/bigdata/qiuhan/codet5/usage/goroot/test/codegen/mapaccess.go:483)	LEAQ	go:string."1"(SB), DI
	0x05a9 01449 (/bigdata/qiuhan/codet5/usage/goroot/test/codegen/mapaccess.go:483)	MOVL	$1, SI
	0x05ae 01454 (/bigdata/qiuhan/codet5/usage/goroot/test/codegen/mapaccess.go:483)	PCDATA	$1, $1
	0x05ae 01454 (/bigdata/qiuhan/codet5/usage/goroot/test/codegen/mapaccess.go:483)	CALL	runtime.concatstring2(SB)
	0x05b3 01459 (/bigdata/qiuhan/codet5/usage/goroot/test/codegen/mapaccess.go:483)	MOVQ	AX, CX
	0x05b6 01462 (/bigdata/qiuhan/codet5/usage/goroot/test/codegen/mapaccess.go:483)	MOVQ	BX, DI
	0x05b9 01465 (/bigdata/qiuhan/codet5/usage/goroot/test/codegen/mapaccess.go:483)	LEAQ	type:map[string][]string(SB), AX
	0x05c0 01472 (/bigdata/qiuhan/codet5/usage/goroot/test/codegen/mapaccess.go:483)	LEAQ	command-line-arguments..autotmp_4+152(SP), BX
	0x05c8 01480 (/bigdata/qiuhan/codet5/usage/goroot/test/codegen/mapaccess.go:483)	CALL	runtime.mapaccess1_faststr(SB)
	0x05cd 01485 (/bigdata/qiuhan/codet5/usage/goroot/test/codegen/mapaccess.go:483)	MOVQ	8(AX), BX
	0x05d1 01489 (/bigdata/qiuhan/codet5/usage/goroot/test/codegen/mapaccess.go:483)	INCQ	BX
	0x05d4 01492 (/bigdata/qiuhan/codet5/usage/goroot/test/codegen/mapaccess.go:483)	MOVQ	16(AX), CX
	0x05d8 01496 (/bigdata/qiuhan/codet5/usage/goroot/test/codegen/mapaccess.go:483)	MOVQ	(AX), AX
	0x05db 01499 (/bigdata/qiuhan/codet5/usage/goroot/test/codegen/mapaccess.go:483)	NOP
	0x05e0 01504 (/bigdata/qiuhan/codet5/usage/goroot/test/codegen/mapaccess.go:483)	CMPQ	CX, BX
	0x05e3 01507 (/bigdata/qiuhan/codet5/usage/goroot/test/codegen/mapaccess.go:483)	JCC	1526
	0x05e5 01509 (/bigdata/qiuhan/codet5/usage/goroot/test/codegen/mapaccess.go:483)	MOVL	$1, DI
	0x05ea 01514 (/bigdata/qiuhan/codet5/usage/goroot/test/codegen/mapaccess.go:483)	LEAQ	type:string(SB), SI
	0x05f1 01521 (/bigdata/qiuhan/codet5/usage/goroot/test/codegen/mapaccess.go:483)	CALL	runtime.growslice(SB)
	0x05f6 01526 (/bigdata/qiuhan/codet5/usage/goroot/test/codegen/mapaccess.go:483)	MOVQ	AX, command-line-arguments..autotmp_35+112(SP)
	0x05fb 01531 (/bigdata/qiuhan/codet5/usage/goroot/test/codegen/mapaccess.go:483)	MOVQ	BX, command-line-arguments..autotmp_34+72(SP)
	0x0600 01536 (/bigdata/qiuhan/codet5/usage/goroot/test/codegen/mapaccess.go:483)	MOVQ	CX, command-line-arguments..autotmp_36+64(SP)
	0x0605 01541 (/bigdata/qiuhan/codet5/usage/goroot/test/codegen/mapaccess.go:483)	LEAQ	-1(BX), DX
	0x0609 01545 (/bigdata/qiuhan/codet5/usage/goroot/test/codegen/mapaccess.go:483)	SHLQ	$4, DX
	0x060d 01549 (/bigdata/qiuhan/codet5/usage/goroot/test/codegen/mapaccess.go:483)	MOVQ	$3, 8(AX)(DX*1)
	0x0616 01558 (/bigdata/qiuhan/codet5/usage/goroot/test/codegen/mapaccess.go:483)	LEAQ	(AX)(DX*1), DI
	0x061a 01562 (/bigdata/qiuhan/codet5/usage/goroot/test/codegen/mapaccess.go:483)	PCDATA	$0, $-2
	0x061a 01562 (/bigdata/qiuhan/codet5/usage/goroot/test/codegen/mapaccess.go:483)	CMPL	runtime.writeBarrier(SB), $0
	0x0621 01569 (/bigdata/qiuhan/codet5/usage/goroot/test/codegen/mapaccess.go:483)	JNE	1584
	0x0623 01571 (/bigdata/qiuhan/codet5/usage/goroot/test/codegen/mapaccess.go:483)	LEAQ	go:string."100"(SB), SI
	0x062a 01578 (/bigdata/qiuhan/codet5/usage/goroot/test/codegen/mapaccess.go:483)	MOVQ	SI, (AX)(DX*1)
	0x062e 01582 (/bigdata/qiuhan/codet5/usage/goroot/test/codegen/mapaccess.go:483)	JMP	1596
	0x0630 01584 (/bigdata/qiuhan/codet5/usage/goroot/test/codegen/mapaccess.go:483)	LEAQ	go:string."100"(SB), DX
	0x0637 01591 (/bigdata/qiuhan/codet5/usage/goroot/test/codegen/mapaccess.go:483)	CALL	runtime.gcWriteBarrierDX(SB)
	0x063c 01596 (/bigdata/qiuhan/codet5/usage/goroot/test/codegen/mapaccess.go:483)	PCDATA	$0, $-1
	0x063c 01596 (/bigdata/qiuhan/codet5/usage/goroot/test/codegen/mapaccess.go:483)	LEAQ	type:map[string][]string(SB), AX
	0x0643 01603 (/bigdata/qiuhan/codet5/usage/goroot/test/codegen/mapaccess.go:483)	LEAQ	command-line-arguments..autotmp_4+152(SP), BX
	0x064b 01611 (/bigdata/qiuhan/codet5/usage/goroot/test/codegen/mapaccess.go:483)	LEAQ	go:string."key"(SB), CX
	0x0652 01618 (/bigdata/qiuhan/codet5/usage/goroot/test/codegen/mapaccess.go:483)	MOVL	$3, DI
	0x0657 01623 (/bigdata/qiuhan/codet5/usage/goroot/test/codegen/mapaccess.go:483)	PCDATA	$1, $8
	0x0657 01623 (/bigdata/qiuhan/codet5/usage/goroot/test/codegen/mapaccess.go:483)	CALL	runtime.mapassign_faststr(SB)
	0x065c 01628 (/bigdata/qiuhan/codet5/usage/goroot/test/codegen/mapaccess.go:483)	MOVQ	command-line-arguments..autotmp_34+72(SP), DX
	0x0661 01633 (/bigdata/qiuhan/codet5/usage/goroot/test/codegen/mapaccess.go:483)	MOVQ	DX, 8(AX)
	0x0665 01637 (/bigdata/qiuhan/codet5/usage/goroot/test/codegen/mapaccess.go:483)	MOVQ	command-line-arguments..autotmp_36+64(SP), DX
	0x066a 01642 (/bigdata/qiuhan/codet5/usage/goroot/test/codegen/mapaccess.go:483)	MOVQ	DX, 16(AX)
	0x066e 01646 (/bigdata/qiuhan/codet5/usage/goroot/test/codegen/mapaccess.go:483)	PCDATA	$0, $-2
	0x066e 01646 (/bigdata/qiuhan/codet5/usage/goroot/test/codegen/mapaccess.go:483)	CMPL	runtime.writeBarrier(SB), $0
	0x0675 01653 (/bigdata/qiuhan/codet5/usage/goroot/test/codegen/mapaccess.go:483)	JNE	1666
	0x0677 01655 (/bigdata/qiuhan/codet5/usage/goroot/test/codegen/mapaccess.go:483)	MOVQ	command-line-arguments..autotmp_35+112(SP), CX
	0x067c 01660 (/bigdata/qiuhan/codet5/usage/goroot/test/codegen/mapaccess.go:483)	MOVQ	CX, (AX)
	0x067f 01663 (/bigdata/qiuhan/codet5/usage/goroot/test/codegen/mapaccess.go:483)	NOP
	0x0680 01664 (/bigdata/qiuhan/codet5/usage/goroot/test/codegen/mapaccess.go:483)	JMP	1679
	0x0682 01666 (/bigdata/qiuhan/codet5/usage/goroot/test/codegen/mapaccess.go:483)	MOVQ	AX, DI
	0x0685 01669 (/bigdata/qiuhan/codet5/usage/goroot/test/codegen/mapaccess.go:483)	MOVQ	command-line-arguments..autotmp_35+112(SP), AX
	0x068a 01674 (/bigdata/qiuhan/codet5/usage/goroot/test/codegen/mapaccess.go:483)	CALL	runtime.gcWriteBarrier(SB)
	0x068f 01679 (/bigdata/qiuhan/codet5/usage/goroot/test/codegen/mapaccess.go:484)	PCDATA	$0, $-1
	0x068f 01679 (/bigdata/qiuhan/codet5/usage/goroot/test/codegen/mapaccess.go:484)	PCDATA	$1, $-1
	0x068f 01679 (/bigdata/qiuhan/codet5/usage/goroot/test/codegen/mapaccess.go:484)	MOVQ	536(SP), BP
	0x0697 01687 (/bigdata/qiuhan/codet5/usage/goroot/test/codegen/mapaccess.go:484)	ADDQ	$544, SP
	0x069e 01694 (/bigdata/qiuhan/codet5/usage/goroot/test/codegen/mapaccess.go:484)	RET
	0x069f 01695 (/bigdata/qiuhan/codet5/usage/goroot/test/codegen/mapaccess.go:484)	NOP
	0x069f 01695 (/bigdata/qiuhan/codet5/usage/goroot/test/codegen/mapaccess.go:441)	PCDATA	$1, $-1
	0x069f 01695 (/bigdata/qiuhan/codet5/usage/goroot/test/codegen/mapaccess.go:441)	PCDATA	$0, $-2
	0x069f 01695 (/bigdata/qiuhan/codet5/usage/goroot/test/codegen/mapaccess.go:441)	NOP
	0x06a0 01696 (/bigdata/qiuhan/codet5/usage/goroot/test/codegen/mapaccess.go:441)	CALL	runtime.morestack_noctxt(SB)
	0x06a5 01701 (/bigdata/qiuhan/codet5/usage/goroot/test/codegen/mapaccess.go:441)	PCDATA	$0, $-1
	0x06a5 01701 (/bigdata/qiuhan/codet5/usage/goroot/test/codegen/mapaccess.go:441)	JMP	0
	0x0000 4c 8d a4 24 60 fe ff ff 4d 3b 66 10 0f 86 8d 06  L..$`...M;f.....
	0x0010 00 00 48 81 ec 20 02 00 00 48 89 ac 24 18 02 00  ..H.. ...H..$...
	0x0020 00 48 8d ac 24 18 02 00 00 44 0f 11 bc 24 98 00  .H..$....D...$..
	0x0030 00 00 44 0f 11 bc 24 a8 00 00 00 44 0f 11 bc 24  ..D...$....D...$
	0x0040 b8 00 00 00 48 8d bc 24 c8 00 00 00 48 8d 7f d0  ....H..$....H...
	0x0050 66 0f 1f 84 00 00 00 00 00 0f 1f 80 00 00 00 00  f...............
	0x0060 48 89 6c 24 f0 48 8d 6c 24 f0 e8 00 00 00 00 48  H.l$.H.l$......H
	0x0070 8b 6d 00 48 8d 84 24 c8 00 00 00 48 89 84 24 a8  .m.H..$....H..$.
	0x0080 00 00 00 e8 00 00 00 00 89 84 24 a4 00 00 00 48  ..........$....H
	0x0090 8d 05 00 00 00 00 48 8d 9c 24 98 00 00 00 48 8d  ......H..$....H.
	0x00a0 0d 00 00 00 00 bf 03 00 00 00 e8 00 00 00 00 48  ...............H
	0x00b0 8b 08 48 8b 50 10 48 8b 58 08 48 ff c3 0f 1f 00  ..H.P.H.X.H.....
	0x00c0 48 39 da 73 46 48 89 84 24 90 00 00 00 48 89 c8  H9.sFH..$....H..
	0x00d0 48 89 d1 bf 01 00 00 00 48 8d 35 00 00 00 00 90  H.......H.5.....
	0x00e0 e8 00 00 00 00 48 8b bc 24 90 00 00 00 48 89 4f  .....H..$....H.O
	0x00f0 10 83 3d 00 00 00 00 00 75 06 48 89 07 eb 06 90  ..=.....u.H.....
	0x0100 e8 00 00 00 00 48 89 c1 48 89 f8 48 89 58 08 48  .....H..H..H.X.H
	0x0110 8d 53 ff 48 c1 e2 04 48 c7 44 11 08 01 00 00 00  .S.H...H.D......
	0x0120 48 8d 3c 11 83 3d 00 00 00 00 00 75 0d 48 8d 35  H.<..=.....u.H.5
	0x0130 00 00 00 00 48 89 34 11 eb 0c 48 8d 15 00 00 00  ....H.4...H.....
	0x0140 00 e8 00 00 00 00 48 8d 05 00 00 00 00 48 8d 9c  ......H......H..
	0x0150 24 98 00 00 00 48 8d 0d 00 00 00 00 bf 03 00 00  $....H..........
	0x0160 00 e8 00 00 00 00 48 8b 10 48 8b 48 10 48 8b 58  ......H..H.H.H.X
	0x0170 08 48 83 c3 03 48 39 d9 73 41 48 89 84 24 88 00  .H...H9.sAH..$..
	0x0180 00 00 48 89 d0 bf 03 00 00 00 48 8d 35 00 00 00  ..H.......H.5...
	0x0190 00 e8 00 00 00 00 48 8b bc 24 88 00 00 00 48 89  ......H..$....H.
	0x01a0 4f 10 83 3d 00 00 00 00 00 75 05 48 89 07 eb 05  O..=.....u.H....
	0x01b0 e8 00 00 00 00 48 89 c2 48 89 f8 48 89 58 08 48  .....H..H..H.X.H
	0x01c0 8d 4b fd 48 c1 e1 04 48 c7 44 0a 08 01 00 00 00  .K.H...H.D......
	0x01d0 48 8d 3c 0a 48 8d 1c 0a 48 8d 5b 10 48 8d 34 0a  H.<.H...H.[.H.4.
	0x01e0 48 8d 76 20 83 3d 00 00 00 00 00 75 0d 4c 8d 05  H.v .=.....u.L..
	0x01f0 00 00 00 00 4c 89 04 0a eb 0c 4c 8d 05 00 00 00  ....L.....L.....
	0x0200 00 e8 00 00 00 00 48 c7 44 0a 18 01 00 00 00 83  ......H.D.......
	0x0210 3d 00 00 00 00 00 75 0e 48 8d 1d 00 00 00 00 48  =.....u.H......H
	0x0220 89 5c 0a 10 eb 0f 48 89 df 48 8d 1d 00 00 00 00  .\....H..H......
	0x0230 e8 00 00 00 00 48 c7 44 0a 28 01 00 00 00 83 3d  .....H.D.(.....=
	0x0240 00 00 00 00 00 75 0e 48 8d 1d 00 00 00 00 48 89  .....u.H......H.
	0x0250 5c 0a 20 eb 10 48 89 f7 48 8d 0d 00 00 00 00 90  \. ..H..H.......
	0x0260 e8 00 00 00 00 48 8d 05 00 00 00 00 e8 00 00 00  .....H..........
	0x0270 00 48 89 84 24 80 00 00 00 48 c7 40 08 01 00 00  .H..$....H.@....
	0x0280 00 48 8d 0d 00 00 00 00 48 89 08 48 c7 40 18 01  .H......H..H.@..
	0x0290 00 00 00 48 8d 0d 00 00 00 00 48 89 48 10 48 c7  ...H......H.H.H.
	0x02a0 40 28 01 00 00 00 48 8d 0d 00 00 00 00 48 89 48  @(....H......H.H
	0x02b0 20 48 c7 40 38 01 00 00 00 48 8d 0d 00 00 00 00   H.@8....H......
	0x02c0 48 89 48 30 48 8d 9c 24 98 00 00 00 48 8d 0d 00  H.H0H..$....H...
	0x02d0 00 00 00 bf 03 00 00 00 48 8d 05 00 00 00 00 90  ........H.......
	0x02e0 e8 00 00 00 00 48 89 44 24 78 48 8b 58 08 48 8b  .....H.D$xH.X.H.
	0x02f0 48 10 48 8b 10 48 8d 73 04 48 39 f1 73 27 48 89  H.H..H.s.H9.s'H.
	0x0300 5c 24 48 48 89 d0 48 89 f3 bf 04 00 00 00 48 8d  \$HH..H.......H.
	0x0310 35 00 00 00 00 e8 00 00 00 00 48 89 c2 48 89 de  5.........H..H..
	0x0320 48 8b 5c 24 48 48 89 74 24 48 48 89 54 24 70 48  H.\$HH.t$HH.T$pH
	0x0330 89 4c 24 40 49 89 d8 48 29 cb 4d 89 c1 49 c1 e0  .L$@I..H).M..I..
	0x0340 04 48 c1 fb 3f 4c 21 c3 4c 29 ce 48 01 d3 48 8d  .H..?L!.L).H..H.
	0x0350 05 00 00 00 00 48 8b bc 24 80 00 00 00 48 89 f1  .....H..$....H..
	0x0360 be 04 00 00 00 e8 00 00 00 00 48 8b 54 24 48 48  ..........H.T$HH
	0x0370 8b 7c 24 78 48 89 57 08 48 8b 54 24 40 48 89 57  .|$xH.W.H.T$@H.W
	0x0380 10 83 3d 00 00 00 00 00 75 0a 48 8b 54 24 70 48  ..=.....u.H.T$pH
	0x0390 89 17 eb 0a 48 8b 54 24 70 e8 00 00 00 00 48 8d  ....H.T$p.....H.
	0x03a0 05 00 00 00 00 48 8d 9c 24 98 00 00 00 48 8d 0d  .....H..$....H..
	0x03b0 00 00 00 00 bf 03 00 00 00 e8 00 00 00 00 48 8b  ..............H.
	0x03c0 58 08 48 8d 53 04 48 8b 38 48 83 fa 04 77 0f 48  X.H.S.H.8H...w.H
	0x03d0 8b 84 24 80 00 00 00 b9 04 00 00 00 eb 36 48 89  ..$..........6H.
	0x03e0 5c 24 48 48 89 7c 24 70 48 8b 84 24 80 00 00 00  \$HH.|$pH..$....
	0x03f0 b9 04 00 00 00 48 89 df 48 8d 35 00 00 00 00 48  .....H..H.5....H
	0x0400 89 d3 e8 00 00 00 00 48 8b 7c 24 70 48 89 da 48  .......H.|$pH..H
	0x0410 8b 5c 24 48 48 89 54 24 48 48 89 44 24 70 48 89  .\$HH.T$HH.D$pH.
	0x0420 4c 24 40 4c 8d 41 fc 49 f7 d8 49 c1 f8 3f 41 83  L$@L.A.I..I..?A.
	0x0430 e0 40 49 01 c0 4c 8d 4a fc 48 89 de 4c 89 c3 48  .@I..L.J.H..L..H
	0x0440 8d 05 00 00 00 00 4c 89 c9 e8 00 00 00 00 48 8d  ......L.......H.
	0x0450 05 00 00 00 00 48 8d 9c 24 98 00 00 00 48 8d 0d  .....H..$....H..
	0x0460 00 00 00 00 bf 03 00 00 00 e8 00 00 00 00 48 8b  ..............H.
	0x0470 54 24 48 48 89 50 08 48 8b 54 24 40 48 89 50 10  T$HH.P.H.T$@H.P.
	0x0480 83 3d 00 00 00 00 00 75 0a 48 8b 54 24 70 48 89  .=.....u.H.T$pH.
	0x0490 10 eb 12 48 89 c7 48 8b 54 24 70 0f 1f 44 00 00  ...H..H.T$p..D..
	0x04a0 e8 00 00 00 00 48 8d 05 00 00 00 00 48 8d 9c 24  .....H......H..$
	0x04b0 98 00 00 00 48 8d 0d 00 00 00 00 bf 03 00 00 00  ....H...........
	0x04c0 e8 00 00 00 00 48 8b 58 08 48 ff c3 48 8b 48 10  .....H.X.H..H.H.
	0x04d0 48 8b 00 48 39 d9 73 11 bf 01 00 00 00 48 8d 35  H..H9.s......H.5
	0x04e0 00 00 00 00 e8 00 00 00 00 48 89 44 24 70 48 89  .........H.D$pH.
	0x04f0 5c 24 48 48 89 4c 24 40 48 8d 53 ff 48 c1 e2 04  \$HH.L$@H.S.H...
	0x0500 48 c7 44 10 08 02 00 00 00 48 8d 3c 10 83 3d 00  H.D......H.<..=.
	0x0510 00 00 00 00 75 0d 48 8d 35 00 00 00 00 48 89 34  ....u.H.5....H.4
	0x0520 10 eb 0c 48 8d 15 00 00 00 00 e8 00 00 00 00 0f  ...H............
	0x0530 b6 15 00 00 00 00 83 f2 01 88 15 00 00 00 00 48  ...............H
	0x0540 8d 05 00 00 00 00 48 8d 9c 24 98 00 00 00 48 8d  ......H..$....H.
	0x0550 0d 00 00 00 00 bf 03 00 00 00 e8 00 00 00 00 48  ...............H
	0x0560 8b 54 24 48 48 89 50 08 48 8b 54 24 40 48 89 50  .T$HH.P.H.T$@H.P
	0x0570 10 83 3d 00 00 00 00 00 75 0a 48 8b 54 24 70 48  ..=.....u.H.T$pH
	0x0580 89 10 eb 0d 48 89 c7 48 8b 54 24 70 e8 00 00 00  ....H..H.T$p....
	0x0590 00 48 8d 44 24 50 48 8d 1d 00 00 00 00 b9 03 00  .H.D$PH.........
	0x05a0 00 00 48 8d 3d 00 00 00 00 be 01 00 00 00 e8 00  ..H.=...........
	0x05b0 00 00 00 48 89 c1 48 89 df 48 8d 05 00 00 00 00  ...H..H..H......
	0x05c0 48 8d 9c 24 98 00 00 00 e8 00 00 00 00 48 8b 58  H..$.........H.X
	0x05d0 08 48 ff c3 48 8b 48 10 48 8b 00 0f 1f 44 00 00  .H..H.H.H....D..
	0x05e0 48 39 d9 73 11 bf 01 00 00 00 48 8d 35 00 00 00  H9.s......H.5...
	0x05f0 00 e8 00 00 00 00 48 89 44 24 70 48 89 5c 24 48  ......H.D$pH.\$H
	0x0600 48 89 4c 24 40 48 8d 53 ff 48 c1 e2 04 48 c7 44  H.L$@H.S.H...H.D
	0x0610 10 08 03 00 00 00 48 8d 3c 10 83 3d 00 00 00 00  ......H.<..=....
	0x0620 00 75 0d 48 8d 35 00 00 00 00 48 89 34 10 eb 0c  .u.H.5....H.4...
	0x0630 48 8d 15 00 00 00 00 e8 00 00 00 00 48 8d 05 00  H...........H...
	0x0640 00 00 00 48 8d 9c 24 98 00 00 00 48 8d 0d 00 00  ...H..$....H....
	0x0650 00 00 bf 03 00 00 00 e8 00 00 00 00 48 8b 54 24  ............H.T$
	0x0660 48 48 89 50 08 48 8b 54 24 40 48 89 50 10 83 3d  HH.P.H.T$@H.P..=
	0x0670 00 00 00 00 00 75 0b 48 8b 4c 24 70 48 89 08 90  .....u.H.L$pH...
	0x0680 eb 0d 48 89 c7 48 8b 44 24 70 e8 00 00 00 00 48  ..H..H.D$p.....H
	0x0690 8b ac 24 18 02 00 00 48 81 c4 20 02 00 00 c3 90  ..$....H.. .....
	0x06a0 e8 00 00 00 00 e9 56 f9 ff ff                    ......V...
	rel 107+4 t=7 runtime.duffzero<1>+244
	rel 132+4 t=7 runtime.fastrand<1>+0
	rel 146+4 t=14 type:map[string][]string<0>+0
	rel 161+4 t=14 go:string."key"<0>+0
	rel 171+4 t=7 runtime.mapassign_faststr<1>+0
	rel 219+4 t=14 type:string<0>+0
	rel 225+4 t=7 runtime.growslice<1>+0
	rel 243+4 t=14 runtime.writeBarrier<0>+-1
	rel 257+4 t=7 runtime.gcWriteBarrier<1>+0
	rel 294+4 t=14 runtime.writeBarrier<0>+-1
	rel 304+4 t=14 go:string."1"<0>+0
	rel 317+4 t=14 go:string."1"<0>+0
	rel 322+4 t=7 runtime.gcWriteBarrierDX<1>+0
	rel 329+4 t=14 type:map[string][]string<0>+0
	rel 344+4 t=14 go:string."key"<0>+0
	rel 354+4 t=7 runtime.mapassign_faststr<1>+0
	rel 397+4 t=14 type:string<0>+0
	rel 402+4 t=7 runtime.growslice<1>+0
	rel 420+4 t=14 runtime.writeBarrier<0>+-1
	rel 433+4 t=7 runtime.gcWriteBarrier<1>+0
	rel 486+4 t=14 runtime.writeBarrier<0>+-1
	rel 496+4 t=14 go:string."1"<0>+0
	rel 509+4 t=14 go:string."1"<0>+0
	rel 514+4 t=7 runtime.gcWriteBarrierR8<1>+0
	rel 529+4 t=14 runtime.writeBarrier<0>+-1
	rel 539+4 t=14 go:string."2"<0>+0
	rel 556+4 t=14 go:string."2"<0>+0
	rel 561+4 t=7 runtime.gcWriteBarrierBX<1>+0
	rel 576+4 t=14 runtime.writeBarrier<0>+-1
	rel 586+4 t=14 go:string."3"<0>+0
	rel 603+4 t=14 go:string."3"<0>+0
	rel 609+4 t=7 runtime.gcWriteBarrierCX<1>+0
	rel 616+4 t=14 type:[4]string<0>+0
	rel 621+4 t=7 runtime.newobject<1>+0
	rel 644+4 t=14 go:string."7"<0>+0
	rel 662+4 t=14 go:string."8"<0>+0
	rel 681+4 t=14 go:string."9"<0>+0
	rel 700+4 t=14 go:string."0"<0>+0
	rel 719+4 t=14 go:string."key"<0>+0
	rel 731+4 t=14 type:map[string][]string<0>+0
	rel 737+4 t=7 runtime.mapassign_faststr<1>+0
	rel 785+4 t=14 type:string<0>+0
	rel 790+4 t=7 runtime.growslice<1>+0
	rel 849+4 t=14 type:string<0>+0
	rel 870+4 t=7 runtime.typedslicecopy<1>+0
	rel 899+4 t=14 runtime.writeBarrier<0>+-1
	rel 922+4 t=7 runtime.gcWriteBarrierDX<1>+0
	rel 929+4 t=14 type:map[string][]string<0>+0
	rel 944+4 t=14 go:string."key"<0>+0
	rel 954+4 t=7 runtime.mapaccess1_faststr<1>+0
	rel 1019+4 t=14 type:string<0>+0
	rel 1027+4 t=7 runtime.growslice<1>+0
	rel 1090+4 t=14 type:string<0>+0
	rel 1098+4 t=7 runtime.typedslicecopy<1>+0
	rel 1105+4 t=14 type:map[string][]string<0>+0
	rel 1120+4 t=14 go:string."key"<0>+0
	rel 1130+4 t=7 runtime.mapassign_faststr<1>+0
	rel 1154+4 t=14 runtime.writeBarrier<0>+-1
	rel 1185+4 t=7 runtime.gcWriteBarrierDX<1>+0
	rel 1192+4 t=14 type:map[string][]string<0>+0
	rel 1207+4 t=14 go:string."key"<0>+0
	rel 1217+4 t=7 runtime.mapaccess1_faststr<1>+0
	rel 1248+4 t=14 type:string<0>+0
	rel 1253+4 t=7 runtime.growslice<1>+0
	rel 1295+4 t=14 runtime.writeBarrier<0>+-1
	rel 1305+4 t=14 go:string."99"<0>+0
	rel 1318+4 t=14 go:string."99"<0>+0
	rel 1323+4 t=7 runtime.gcWriteBarrierDX<1>+0
	rel 1330+4 t=14 command-line-arguments.sinkAppend<0>+0
	rel 1339+4 t=14 command-line-arguments.sinkAppend<0>+0
	rel 1346+4 t=14 type:map[string][]string<0>+0
	rel 1361+4 t=14 go:string."key"<0>+0
	rel 1371+4 t=7 runtime.mapassign_faststr<1>+0
	rel 1395+4 t=14 runtime.writeBarrier<0>+-1
	rel 1421+4 t=7 runtime.gcWriteBarrierDX<1>+0
	rel 1433+4 t=14 go:string."key"<0>+0
	rel 1445+4 t=14 go:string."1"<0>+0
	rel 1455+4 t=7 runtime.concatstring2<1>+0
	rel 1468+4 t=14 type:map[string][]string<0>+0
	rel 1481+4 t=7 runtime.mapaccess1_faststr<1>+0
	rel 1517+4 t=14 type:string<0>+0
	rel 1522+4 t=7 runtime.growslice<1>+0
	rel 1564+4 t=14 runtime.writeBarrier<0>+-1
	rel 1574+4 t=14 go:string."100"<0>+0
	rel 1587+4 t=14 go:string."100"<0>+0
	rel 1592+4 t=7 runtime.gcWriteBarrierDX<1>+0
	rel 1599+4 t=14 type:map[string][]string<0>+0
	rel 1614+4 t=14 go:string."key"<0>+0
	rel 1624+4 t=7 runtime.mapassign_faststr<1>+0
	rel 1648+4 t=14 runtime.writeBarrier<0>+-1
	rel 1675+4 t=7 runtime.gcWriteBarrier<1>+0
	rel 1697+4 t=7 runtime.morestack_noctxt<0>+0
command-line-arguments.init<1> STEXT nosplit size=1 args=0x0 locals=0x0 funcid=0x0 align=0x0
	0x0000 00000 (/bigdata/qiuhan/codet5/usage/goroot/test/codegen/mapaccess.go:235)	TEXT	command-line-arguments.init(SB), NOSPLIT|ABIInternal, $0-0
	0x0000 00000 (/bigdata/qiuhan/codet5/usage/goroot/test/codegen/mapaccess.go:235)	FUNCDATA	$0, gclocals·g2BeySu+wFnoycgXfElmcg==(SB)
	0x0000 00000 (/bigdata/qiuhan/codet5/usage/goroot/test/codegen/mapaccess.go:235)	FUNCDATA	$1, gclocals·g2BeySu+wFnoycgXfElmcg==(SB)
	0x0000 00000 (/bigdata/qiuhan/codet5/usage/goroot/test/codegen/mapaccess.go:235)	RET
	0x0000 c3                                               .
type:.eq.[4]complex128<1> STEXT dupok nosplit size=86 args=0x10 locals=0x0 funcid=0x0 align=0x0
	0x0000 00000 (<autogenerated>:1)	TEXT	type:.eq.[4]complex128(SB), DUPOK|NOSPLIT|ABIInternal, $0-16
	0x0000 00000 (<autogenerated>:1)	FUNCDATA	$0, gclocals·TjPuuCwdlCpTaRQGRKTrYw==(SB)
	0x0000 00000 (<autogenerated>:1)	FUNCDATA	$1, gclocals·J5F+7Qw7O7ve2QcWC7DpeQ==(SB)
	0x0000 00000 (<autogenerated>:1)	FUNCDATA	$5, type:.eq.[4]complex128.arginfo1(SB)
	0x0000 00000 (<autogenerated>:1)	FUNCDATA	$6, type:.eq.[4]complex128.argliveinfo(SB)
	0x0000 00000 (<autogenerated>:1)	PCDATA	$3, $1
	0x0000 00000 (<autogenerated>:1)	XORL	CX, CX
	0x0002 00002 (<autogenerated>:1)	JMP	8
	0x0004 00004 (<autogenerated>:1)	LEAQ	1(DX), CX
	0x0008 00008 (<autogenerated>:1)	CMPQ	CX, $4
	0x000c 00012 (<autogenerated>:1)	JGE	80
	0x000e 00014 (<autogenerated>:1)	MOVQ	CX, DX
	0x0011 00017 (<autogenerated>:1)	SHLQ	$4, CX
	0x0015 00021 (<autogenerated>:1)	MOVSD	(BX)(CX*1), X0
	0x001a 00026 (<autogenerated>:1)	MOVSD	(AX)(CX*1), X1
	0x001f 00031 (<autogenerated>:1)	UCOMISD	X0, X1
	0x0023 00035 (<autogenerated>:1)	SETEQ	DIB
	0x0027 00039 (<autogenerated>:1)	SETPC	SIB
	0x002b 00043 (<autogenerated>:1)	ANDL	SI, DI
	0x002d 00045 (<autogenerated>:1)	MOVSD	8(BX)(CX*1), X0
	0x0033 00051 (<autogenerated>:1)	MOVSD	8(AX)(CX*1), X1
	0x0039 00057 (<autogenerated>:1)	UCOMISD	X0, X1
	0x003d 00061 (<autogenerated>:1)	SETEQ	SIB
	0x0041 00065 (<autogenerated>:1)	SETPC	CL
	0x0044 00068 (<autogenerated>:1)	ANDL	CX, SI
	0x0046 00070 (<autogenerated>:1)	ANDL	SI, DI
	0x0048 00072 (<autogenerated>:1)	TESTB	DIB, DIB
	0x004b 00075 (<autogenerated>:1)	JNE	4
	0x004d 00077 (<autogenerated>:1)	XORL	AX, AX
	0x004f 00079 (<autogenerated>:1)	RET
	0x0050 00080 (<autogenerated>:1)	MOVL	$1, AX
	0x0055 00085 (<autogenerated>:1)	RET
	0x0000 31 c9 eb 04 48 8d 4a 01 48 83 f9 04 7d 42 48 89  1...H.J.H...}BH.
	0x0010 ca 48 c1 e1 04 f2 0f 10 04 0b f2 0f 10 0c 08 66  .H.............f
	0x0020 0f 2e c8 40 0f 94 c7 40 0f 9b c6 21 f7 f2 0f 10  ...@...@...!....
	0x0030 44 0b 08 f2 0f 10 4c 08 08 66 0f 2e c8 40 0f 94  D.....L..f...@..
	0x0040 c6 0f 9b c1 21 ce 21 f7 40 84 ff 75 b7 31 c0 c3  ....!.!.@..u.1..
	0x0050 b8 01 00 00 00 c3                                ......
type:.eq.[4]string<1> STEXT dupok size=199 args=0x10 locals=0x28 funcid=0x0 align=0x0
	0x0000 00000 (<autogenerated>:1)	TEXT	type:.eq.[4]string(SB), DUPOK|ABIInternal, $40-16
	0x0000 00000 (<autogenerated>:1)	CMPQ	SP, 16(R14)
	0x0004 00004 (<autogenerated>:1)	PCDATA	$0, $-2
	0x0004 00004 (<autogenerated>:1)	JLS	169
	0x000a 00010 (<autogenerated>:1)	PCDATA	$0, $-1
	0x000a 00010 (<autogenerated>:1)	SUBQ	$40, SP
	0x000e 00014 (<autogenerated>:1)	MOVQ	BP, 32(SP)
	0x0013 00019 (<autogenerated>:1)	LEAQ	32(SP), BP
	0x0018 00024 (<autogenerated>:1)	FUNCDATA	$0, gclocals·TjPuuCwdlCpTaRQGRKTrYw==(SB)
	0x0018 00024 (<autogenerated>:1)	FUNCDATA	$1, gclocals·J5F+7Qw7O7ve2QcWC7DpeQ==(SB)
	0x0018 00024 (<autogenerated>:1)	FUNCDATA	$5, type:.eq.[4]string.arginfo1(SB)
	0x0018 00024 (<autogenerated>:1)	FUNCDATA	$6, type:.eq.[4]string.argliveinfo(SB)
	0x0018 00024 (<autogenerated>:1)	PCDATA	$3, $1
	0x0018 00024 (<autogenerated>:1)	MOVQ	8(BX), DX
	0x001c 00028 (<autogenerated>:1)	NOP
	0x0020 00032 (<autogenerated>:1)	CMPQ	8(AX), DX
	0x0024 00036 (<autogenerated>:1)	JNE	84
	0x0026 00038 (<autogenerated>:1)	MOVQ	24(AX), DX
	0x002a 00042 (<autogenerated>:1)	CMPQ	24(BX), DX
	0x002e 00046 (<autogenerated>:1)	JNE	84
	0x0030 00048 (<autogenerated>:1)	MOVQ	40(AX), DX
	0x0034 00052 (<autogenerated>:1)	CMPQ	40(BX), DX
	0x0038 00056 (<autogenerated>:1)	JNE	84
	0x003a 00058 (<autogenerated>:1)	MOVQ	56(AX), DX
	0x003e 00062 (<autogenerated>:1)	NOP
	0x0040 00064 (<autogenerated>:1)	CMPQ	56(BX), DX
	0x0044 00068 (<autogenerated>:1)	JNE	84
	0x0046 00070 (<autogenerated>:1)	MOVQ	AX, command-line-arguments.p+48(SP)
	0x004b 00075 (<autogenerated>:1)	MOVQ	BX, command-line-arguments.q+56(SP)
	0x0050 00080 (<autogenerated>:1)	PCDATA	$3, $-1
	0x0050 00080 (<autogenerated>:1)	XORL	CX, CX
	0x0052 00082 (<autogenerated>:1)	JMP	115
	0x0054 00084 (<autogenerated>:1)	PCDATA	$3, $1
	0x0054 00084 (<autogenerated>:1)	XORL	AX, AX
	0x0056 00086 (<autogenerated>:1)	MOVQ	32(SP), BP
	0x005b 00091 (<autogenerated>:1)	ADDQ	$40, SP
	0x005f 00095 (<autogenerated>:1)	NOP
	0x0060 00096 (<autogenerated>:1)	RET
	0x0061 00097 (<autogenerated>:1)	PCDATA	$3, $-1
	0x0061 00097 (<autogenerated>:1)	MOVQ	command-line-arguments..autotmp_9+24(SP), CX
	0x0066 00102 (<autogenerated>:1)	INCQ	CX
	0x0069 00105 (<autogenerated>:1)	MOVQ	command-line-arguments.p+48(SP), AX
	0x006e 00110 (<autogenerated>:1)	MOVQ	command-line-arguments.q+56(SP), BX
	0x0073 00115 (<autogenerated>:1)	CMPQ	CX, $4
	0x0077 00119 (<autogenerated>:1)	JGE	162
	0x0079 00121 (<autogenerated>:1)	MOVQ	CX, command-line-arguments..autotmp_9+24(SP)
	0x007e 00126 (<autogenerated>:1)	SHLQ	$4, CX
	0x0082 00130 (<autogenerated>:1)	MOVQ	(CX)(BX*1), SI
	0x0086 00134 (<autogenerated>:1)	MOVQ	(CX)(AX*1), DI
	0x008a 00138 (<autogenerated>:1)	MOVQ	8(AX)(CX*1), CX
	0x008f 00143 (<autogenerated>:1)	MOVQ	DI, AX
	0x0092 00146 (<autogenerated>:1)	MOVQ	SI, BX
	0x0095 00149 (<autogenerated>:1)	PCDATA	$1, $0
	0x0095 00149 (<autogenerated>:1)	CALL	runtime.memequal(SB)
	0x009a 00154 (<autogenerated>:1)	TESTB	AL, AL
	0x009c 00156 (<autogenerated>:1)	JNE	97
	0x009e 00158 (<autogenerated>:1)	NOP
	0x00a0 00160 (<autogenerated>:1)	JMP	84
	0x00a2 00162 (<autogenerated>:1)	MOVL	$1, AX
	0x00a7 00167 (<autogenerated>:1)	JMP	86
	0x00a9 00169 (<autogenerated>:1)	NOP
	0x00a9 00169 (<autogenerated>:1)	PCDATA	$1, $-1
	0x00a9 00169 (<autogenerated>:1)	PCDATA	$0, $-2
	0x00a9 00169 (<autogenerated>:1)	MOVQ	AX, 8(SP)
	0x00ae 00174 (<autogenerated>:1)	MOVQ	BX, 16(SP)
	0x00b3 00179 (<autogenerated>:1)	CALL	runtime.morestack_noctxt(SB)
	0x00b8 00184 (<autogenerated>:1)	MOVQ	8(SP), AX
	0x00bd 00189 (<autogenerated>:1)	MOVQ	16(SP), BX
	0x00c2 00194 (<autogenerated>:1)	PCDATA	$0, $-1
	0x00c2 00194 (<autogenerated>:1)	JMP	0
	0x0000 49 3b 66 10 0f 86 9f 00 00 00 48 83 ec 28 48 89  I;f.......H..(H.
	0x0010 6c 24 20 48 8d 6c 24 20 48 8b 53 08 0f 1f 40 00  l$ H.l$ H.S...@.
	0x0020 48 39 50 08 75 2e 48 8b 50 18 48 39 53 18 75 24  H9P.u.H.P.H9S.u$
	0x0030 48 8b 50 28 48 39 53 28 75 1a 48 8b 50 38 66 90  H.P(H9S(u.H.P8f.
	0x0040 48 39 53 38 75 0e 48 89 44 24 30 48 89 5c 24 38  H9S8u.H.D$0H.\$8
	0x0050 31 c9 eb 1f 31 c0 48 8b 6c 24 20 48 83 c4 28 90  1...1.H.l$ H..(.
	0x0060 c3 48 8b 4c 24 18 48 ff c1 48 8b 44 24 30 48 8b  .H.L$.H..H.D$0H.
	0x0070 5c 24 38 48 83 f9 04 7d 29 48 89 4c 24 18 48 c1  \$8H...})H.L$.H.
	0x0080 e1 04 48 8b 34 19 48 8b 3c 01 48 8b 4c 08 08 48  ..H.4.H.<.H.L..H
	0x0090 89 f8 48 89 f3 e8 00 00 00 00 84 c0 75 c3 66 90  ..H.........u.f.
	0x00a0 eb b2 b8 01 00 00 00 eb ad 48 89 44 24 08 48 89  .........H.D$.H.
	0x00b0 5c 24 10 e8 00 00 00 00 48 8b 44 24 08 48 8b 5c  \$......H.D$.H.\
	0x00c0 24 10 e9 39 ff ff ff                             $..9...
	rel 150+4 t=7 runtime.memequal<1>+0
	rel 180+4 t=7 runtime.morestack_noctxt<0>+0
go:cuinfo.producer.command-line-arguments<0> SDWARFCUINFO dupok size=0
	0x0000 72 65 67 61 62 69                                regabi
go:cuinfo.packagename.command-line-arguments<0> SDWARFCUINFO dupok size=0
	0x0000 63 6f 64 65 67 65 6e                             codegen
go:string."key"<0> SRODATA dupok size=3
	0x0000 6b 65 79                                         key
go:string."value"<0> SRODATA dupok size=5
	0x0000 76 61 6c 75 65                                   value
go:string."1"<0> SRODATA dupok size=1
	0x0000 31                                               1
go:string."2"<0> SRODATA dupok size=1
	0x0000 32                                               2
go:string."3"<0> SRODATA dupok size=1
	0x0000 33                                               3
go:string."7"<0> SRODATA dupok size=1
	0x0000 37                                               7
go:string."8"<0> SRODATA dupok size=1
	0x0000 38                                               8
go:string."9"<0> SRODATA dupok size=1
	0x0000 39                                               9
go:string."0"<0> SRODATA dupok size=1
	0x0000 30                                               0
go:string."99"<0> SRODATA dupok size=2
	0x0000 39 39                                            99
go:string."100"<0> SRODATA dupok size=3
	0x0000 31 30 30                                         100
command-line-arguments.sinkAppend<0> SNOPTRBSS size=1
go:info.command-line-arguments.sinkAppend<0> SDWARFVAR dupok size=50
	0x0000 0a 63 6f 6d 6d 61 6e 64 2d 6c 69 6e 65 2d 61 72  .command-line-ar
	0x0010 67 75 6d 65 6e 74 73 2e 73 69 6e 6b 41 70 70 65  guments.sinkAppe
	0x0020 6e 64 00 09 03 00 00 00 00 00 00 00 00 00 00 00  nd..............
	0x0030 00 01                                            ..
	rel 37+8 t=1 command-line-arguments.sinkAppend<0>+0
	rel 45+4 t=31 go:info.bool<0>+0
type:.eqfunc.[4]complex128<0> SRODATA dupok size=8
	0x0000 00 00 00 00 00 00 00 00                          ........
	rel 0+8 t=1 type:.eq.[4]complex128<1>+0
runtime.gcbits.<0> SRODATA dupok size=0
type:.namedata.*[4]complex128-<0> SRODATA dupok size=16
	0x0000 00 0e 2a 5b 34 5d 63 6f 6d 70 6c 65 78 31 32 38  ..*[4]complex128
type:[4]complex128<0> SRODATA dupok size=72
	0x0000 40 00 00 00 00 00 00 00 00 00 00 00 00 00 00 00  @...............
	0x0010 a0 d9 2d 7c 02 08 08 11 00 00 00 00 00 00 00 00  ..-|............
	0x0020 00 00 00 00 00 00 00 00 00 00 00 00 00 00 00 00  ................
	0x0030 00 00 00 00 00 00 00 00 00 00 00 00 00 00 00 00  ................
	0x0040 04 00 00 00 00 00 00 00                          ........
	rel 24+8 t=1 type:.eqfunc.[4]complex128<0>+0
	rel 32+8 t=1 runtime.gcbits.<0>+0
	rel 40+4 t=5 type:.namedata.*[4]complex128-<0>+0
	rel 44+4 t=-32763 type:*[4]complex128<0>+0
	rel 48+8 t=1 type:complex128<0>+0
	rel 56+8 t=1 type:[]complex128<0>+0
runtime.memequal64·f<0> SRODATA dupok size=8
	0x0000 00 00 00 00 00 00 00 00                          ........
	rel 0+8 t=1 runtime.memequal64<1>+0
runtime.gcbits.0100000000000000<0> SRODATA dupok size=8
	0x0000 01 00 00 00 00 00 00 00                          ........
type:*[4]complex128<0> SRODATA dupok size=56
	0x0000 08 00 00 00 00 00 00 00 08 00 00 00 00 00 00 00  ................
	0x0010 7e fe a1 44 08 08 08 36 00 00 00 00 00 00 00 00  ~..D...6........
	0x0020 00 00 00 00 00 00 00 00 00 00 00 00 00 00 00 00  ................
	0x0030 00 00 00 00 00 00 00 00                          ........
	rel 24+8 t=1 runtime.memequal64·f<0>+0
	rel 32+8 t=1 runtime.gcbits.0100000000000000<0>+0
	rel 40+4 t=5 type:.namedata.*[4]complex128-<0>+0
	rel 48+8 t=1 type:[4]complex128<0>+0
runtime.memequal128·f<0> SRODATA dupok size=8
	0x0000 00 00 00 00 00 00 00 00                          ........
	rel 0+8 t=1 runtime.memequal128<1>+0
type:.namedata.*[4]int32-<0> SRODATA dupok size=11
	0x0000 00 09 2a 5b 34 5d 69 6e 74 33 32                 ..*[4]int32
type:[4]int32<0> SRODATA dupok size=72
	0x0000 10 00 00 00 00 00 00 00 00 00 00 00 00 00 00 00  ................
	0x0010 c1 59 f0 9d 0a 04 04 11 00 00 00 00 00 00 00 00  .Y..............
	0x0020 00 00 00 00 00 00 00 00 00 00 00 00 00 00 00 00  ................
	0x0030 00 00 00 00 00 00 00 00 00 00 00 00 00 00 00 00  ................
	0x0040 04 00 00 00 00 00 00 00                          ........
	rel 24+8 t=1 runtime.memequal128·f<0>+0
	rel 32+8 t=1 runtime.gcbits.<0>+0
	rel 40+4 t=5 type:.namedata.*[4]int32-<0>+0
	rel 44+4 t=-32763 type:*[4]int32<0>+0
	rel 48+8 t=1 type:int32<0>+0
	rel 56+8 t=1 type:[]int32<0>+0
type:*[4]int32<0> SRODATA dupok size=56
	0x0000 08 00 00 00 00 00 00 00 08 00 00 00 00 00 00 00  ................
	0x0010 a0 f9 f0 06 08 08 08 36 00 00 00 00 00 00 00 00  .......6........
	0x0020 00 00 00 00 00 00 00 00 00 00 00 00 00 00 00 00  ................
	0x0030 00 00 00 00 00 00 00 00                          ........
	rel 24+8 t=1 runtime.memequal64·f<0>+0
	rel 32+8 t=1 runtime.gcbits.0100000000000000<0>+0
	rel 40+4 t=5 type:.namedata.*[4]int32-<0>+0
	rel 48+8 t=1 type:[4]int32<0>+0
type:.eqfunc32<0> SRODATA dupok size=16
	0x0000 00 00 00 00 00 00 00 00 20 00 00 00 00 00 00 00  ........ .......
	rel 0+8 t=1 runtime.memequal_varlen<1>+0
type:.namedata.*[4]int64-<0> SRODATA dupok size=11
	0x0000 00 09 2a 5b 34 5d 69 6e 74 36 34                 ..*[4]int64
type:[4]int64<0> SRODATA dupok size=72
	0x0000 20 00 00 00 00 00 00 00 00 00 00 00 00 00 00 00   ...............
	0x0010 df a4 d1 b2 0a 08 08 11 00 00 00 00 00 00 00 00  ................
	0x0020 00 00 00 00 00 00 00 00 00 00 00 00 00 00 00 00  ................
	0x0030 00 00 00 00 00 00 00 00 00 00 00 00 00 00 00 00  ................
	0x0040 04 00 00 00 00 00 00 00                          ........
	rel 24+8 t=1 type:.eqfunc32<0>+0
	rel 32+8 t=1 runtime.gcbits.<0>+0
	rel 40+4 t=5 type:.namedata.*[4]int64-<0>+0
	rel 44+4 t=-32763 type:*[4]int64<0>+0
	rel 48+8 t=1 type:int64<0>+0
	rel 56+8 t=1 type:[]int64<0>+0
type:*[4]int64<0> SRODATA dupok size=56
	0x0000 08 00 00 00 00 00 00 00 08 00 00 00 00 00 00 00  ................
	0x0010 1d 6a 12 93 08 08 08 36 00 00 00 00 00 00 00 00  .j.....6........
	0x0020 00 00 00 00 00 00 00 00 00 00 00 00 00 00 00 00  ................
	0x0030 00 00 00 00 00 00 00 00                          ........
	rel 24+8 t=1 runtime.memequal64·f<0>+0
	rel 32+8 t=1 runtime.gcbits.0100000000000000<0>+0
	rel 40+4 t=5 type:.namedata.*[4]int64-<0>+0
	rel 48+8 t=1 type:[4]int64<0>+0
runtime.memequal32·f<0> SRODATA dupok size=8
	0x0000 00 00 00 00 00 00 00 00                          ........
	rel 0+8 t=1 runtime.memequal32<1>+0
type:.namedata.*[4]int8-<0> SRODATA dupok size=10
	0x0000 00 08 2a 5b 34 5d 69 6e 74 38                    ..*[4]int8
type:[4]int8<0> SRODATA dupok size=72
	0x0000 04 00 00 00 00 00 00 00 00 00 00 00 00 00 00 00  ................
	0x0010 22 5d 66 7f 0a 01 01 11 00 00 00 00 00 00 00 00  "]f.............
	0x0020 00 00 00 00 00 00 00 00 00 00 00 00 00 00 00 00  ................
	0x0030 00 00 00 00 00 00 00 00 00 00 00 00 00 00 00 00  ................
	0x0040 04 00 00 00 00 00 00 00                          ........
	rel 24+8 t=1 runtime.memequal32·f<0>+0
	rel 32+8 t=1 runtime.gcbits.<0>+0
	rel 40+4 t=5 type:.namedata.*[4]int8-<0>+0
	rel 44+4 t=-32763 type:*[4]int8<0>+0
	rel 48+8 t=1 type:int8<0>+0
	rel 56+8 t=1 type:[]int8<0>+0
type:*[4]int8<0> SRODATA dupok size=56
	0x0000 08 00 00 00 00 00 00 00 08 00 00 00 00 00 00 00  ................
	0x0010 26 f5 bc e3 08 08 08 36 00 00 00 00 00 00 00 00  &......6........
	0x0020 00 00 00 00 00 00 00 00 00 00 00 00 00 00 00 00  ................
	0x0030 00 00 00 00 00 00 00 00                          ........
	rel 24+8 t=1 runtime.memequal64·f<0>+0
	rel 32+8 t=1 runtime.gcbits.0100000000000000<0>+0
	rel 40+4 t=5 type:.namedata.*[4]int8-<0>+0
	rel 48+8 t=1 type:[4]int8<0>+0
type:.eqfunc.[4]string<0> SRODATA dupok size=8
	0x0000 00 00 00 00 00 00 00 00                          ........
	rel 0+8 t=1 type:.eq.[4]string<1>+0
runtime.gcbits.5500000000000000<0> SRODATA dupok size=8
	0x0000 55 00 00 00 00 00 00 00                          U.......
type:.namedata.*[4]string-<0> SRODATA dupok size=12
	0x0000 00 0a 2a 5b 34 5d 73 74 72 69 6e 67              ..*[4]string
type:[4]string<0> SRODATA dupok size=72
	0x0000 40 00 00 00 00 00 00 00 38 00 00 00 00 00 00 00  @.......8.......
	0x0010 9e 41 ec 08 02 08 08 11 00 00 00 00 00 00 00 00  .A..............
	0x0020 00 00 00 00 00 00 00 00 00 00 00 00 00 00 00 00  ................
	0x0030 00 00 00 00 00 00 00 00 00 00 00 00 00 00 00 00  ................
	0x0040 04 00 00 00 00 00 00 00                          ........
	rel 24+8 t=1 type:.eqfunc.[4]string<0>+0
	rel 32+8 t=1 runtime.gcbits.5500000000000000<0>+0
	rel 40+4 t=5 type:.namedata.*[4]string-<0>+0
	rel 44+4 t=-32763 type:*[4]string<0>+0
	rel 48+8 t=1 type:string<0>+0
	rel 56+8 t=1 type:[]string<0>+0
type:*[4]string<0> SRODATA dupok size=56
	0x0000 08 00 00 00 00 00 00 00 08 00 00 00 00 00 00 00  ................
	0x0010 72 41 95 a7 08 08 08 36 00 00 00 00 00 00 00 00  rA.....6........
	0x0020 00 00 00 00 00 00 00 00 00 00 00 00 00 00 00 00  ................
	0x0030 00 00 00 00 00 00 00 00                          ........
	rel 24+8 t=1 runtime.memequal64·f<0>+0
	rel 32+8 t=1 runtime.gcbits.0100000000000000<0>+0
	rel 40+4 t=5 type:.namedata.*[4]string-<0>+0
	rel 48+8 t=1 type:[4]string<0>+0
type:.namedata.*[]complex128-<0> SRODATA dupok size=15
	0x0000 00 0d 2a 5b 5d 63 6f 6d 70 6c 65 78 31 32 38     ..*[]complex128
type:*[]complex128<0> SRODATA dupok size=56
	0x0000 08 00 00 00 00 00 00 00 08 00 00 00 00 00 00 00  ................
	0x0010 f6 49 a6 7f 08 08 08 36 00 00 00 00 00 00 00 00  .I.....6........
	0x0020 00 00 00 00 00 00 00 00 00 00 00 00 00 00 00 00  ................
	0x0030 00 00 00 00 00 00 00 00                          ........
	rel 24+8 t=1 runtime.memequal64·f<0>+0
	rel 32+8 t=1 runtime.gcbits.0100000000000000<0>+0
	rel 40+4 t=5 type:.namedata.*[]complex128-<0>+0
	rel 48+8 t=1 type:[]complex128<0>+0
type:.namedata.*[]int32-<0> SRODATA dupok size=10
	0x0000 00 08 2a 5b 5d 69 6e 74 33 32                    ..*[]int32
type:*[]int32<0> SRODATA dupok size=56
	0x0000 08 00 00 00 00 00 00 00 08 00 00 00 00 00 00 00  ................
	0x0010 6d 26 30 dc 08 08 08 36 00 00 00 00 00 00 00 00  m&0....6........
	0x0020 00 00 00 00 00 00 00 00 00 00 00 00 00 00 00 00  ................
	0x0030 00 00 00 00 00 00 00 00                          ........
	rel 24+8 t=1 runtime.memequal64·f<0>+0
	rel 32+8 t=1 runtime.gcbits.0100000000000000<0>+0
	rel 40+4 t=5 type:.namedata.*[]int32-<0>+0
	rel 48+8 t=1 type:[]int32<0>+0
type:.namedata.*[]int64-<0> SRODATA dupok size=10
	0x0000 00 08 2a 5b 5d 69 6e 74 36 34                    ..*[]int64
type:*[]int64<0> SRODATA dupok size=56
	0x0000 08 00 00 00 00 00 00 00 08 00 00 00 00 00 00 00  ................
	0x0010 fe a8 1c 06 08 08 08 36 00 00 00 00 00 00 00 00  .......6........
	0x0020 00 00 00 00 00 00 00 00 00 00 00 00 00 00 00 00  ................
	0x0030 00 00 00 00 00 00 00 00                          ........
	rel 24+8 t=1 runtime.memequal64·f<0>+0
	rel 32+8 t=1 runtime.gcbits.0100000000000000<0>+0
	rel 40+4 t=5 type:.namedata.*[]int64-<0>+0
	rel 48+8 t=1 type:[]int64<0>+0
type:.namedata.*[]int8-<0> SRODATA dupok size=9
	0x0000 00 07 2a 5b 5d 69 6e 74 38                       ..*[]int8
type:*[]int8<0> SRODATA dupok size=56
	0x0000 08 00 00 00 00 00 00 00 08 00 00 00 00 00 00 00  ................
	0x0010 fd 11 d2 66 08 08 08 36 00 00 00 00 00 00 00 00  ...f...6........
	0x0020 00 00 00 00 00 00 00 00 00 00 00 00 00 00 00 00  ................
	0x0030 00 00 00 00 00 00 00 00                          ........
	rel 24+8 t=1 runtime.memequal64·f<0>+0
	rel 32+8 t=1 runtime.gcbits.0100000000000000<0>+0
	rel 40+4 t=5 type:.namedata.*[]int8-<0>+0
	rel 48+8 t=1 type:[]int8<0>+0
type:.namedata.*[]string-<0> SRODATA dupok size=11
	0x0000 00 09 2a 5b 5d 73 74 72 69 6e 67                 ..*[]string
type:*[]string<0> SRODATA dupok size=56
	0x0000 08 00 00 00 00 00 00 00 08 00 00 00 00 00 00 00  ................
	0x0010 76 be 68 d5 08 08 08 36 00 00 00 00 00 00 00 00  v.h....6........
	0x0020 00 00 00 00 00 00 00 00 00 00 00 00 00 00 00 00  ................
	0x0030 00 00 00 00 00 00 00 00                          ........
	rel 24+8 t=1 runtime.memequal64·f<0>+0
	rel 32+8 t=1 runtime.gcbits.0100000000000000<0>+0
	rel 40+4 t=5 type:.namedata.*[]string-<0>+0
	rel 48+8 t=1 type:[]string<0>+0
type:.namedata.*[32]uint8-<0> SRODATA dupok size=12
	0x0000 00 0a 2a 5b 33 32 5d 75 69 6e 74 38              ..*[32]uint8
type:*[32]uint8<0> SRODATA dupok size=56
	0x0000 08 00 00 00 00 00 00 00 08 00 00 00 00 00 00 00  ................
	0x0010 26 0d b3 9e 08 08 08 36 00 00 00 00 00 00 00 00  &......6........
	0x0020 00 00 00 00 00 00 00 00 00 00 00 00 00 00 00 00  ................
	0x0030 00 00 00 00 00 00 00 00                          ........
	rel 24+8 t=1 runtime.memequal64·f<0>+0
	rel 32+8 t=1 runtime.gcbits.0100000000000000<0>+0
	rel 40+4 t=5 type:.namedata.*[32]uint8-<0>+0
	rel 48+8 t=1 type:[32]uint8<0>+0
type:[32]uint8<0> SRODATA dupok size=72
	0x0000 20 00 00 00 00 00 00 00 00 00 00 00 00 00 00 00   ...............
	0x0010 aa ab 93 92 0a 01 01 11 00 00 00 00 00 00 00 00  ................
	0x0020 00 00 00 00 00 00 00 00 00 00 00 00 00 00 00 00  ................
	0x0030 00 00 00 00 00 00 00 00 00 00 00 00 00 00 00 00  ................
	0x0040 20 00 00 00 00 00 00 00                           .......
	rel 24+8 t=1 type:.eqfunc32<0>+0
	rel 32+8 t=1 runtime.gcbits.<0>+0
	rel 40+4 t=5 type:.namedata.*[32]uint8-<0>+0
	rel 44+4 t=-32763 type:*[32]uint8<0>+0
	rel 48+8 t=1 type:uint8<0>+0
	rel 56+8 t=1 type:[]uint8<0>+0
type:.namedata.*[8]uint8-<0> SRODATA dupok size=11
	0x0000 00 09 2a 5b 38 5d 75 69 6e 74 38                 ..*[8]uint8
type:*[8]uint8<0> SRODATA dupok size=56
	0x0000 08 00 00 00 00 00 00 00 08 00 00 00 00 00 00 00  ................
	0x0010 f8 9a 95 1a 08 08 08 36 00 00 00 00 00 00 00 00  .......6........
	0x0020 00 00 00 00 00 00 00 00 00 00 00 00 00 00 00 00  ................
	0x0030 00 00 00 00 00 00 00 00                          ........
	rel 24+8 t=1 runtime.memequal64·f<0>+0
	rel 32+8 t=1 runtime.gcbits.0100000000000000<0>+0
	rel 40+4 t=5 type:.namedata.*[8]uint8-<0>+0
	rel 48+8 t=1 type:[8]uint8<0>+0
type:[8]uint8<0> SRODATA dupok size=72
	0x0000 08 00 00 00 00 00 00 00 00 00 00 00 00 00 00 00  ................
	0x0010 89 18 9c b4 0a 01 01 11 00 00 00 00 00 00 00 00  ................
	0x0020 00 00 00 00 00 00 00 00 00 00 00 00 00 00 00 00  ................
	0x0030 00 00 00 00 00 00 00 00 00 00 00 00 00 00 00 00  ................
	0x0040 08 00 00 00 00 00 00 00                          ........
	rel 24+8 t=1 runtime.memequal64·f<0>+0
	rel 32+8 t=1 runtime.gcbits.<0>+0
	rel 40+4 t=5 type:.namedata.*[8]uint8-<0>+0
	rel 44+4 t=-32763 type:*[8]uint8<0>+0
	rel 48+8 t=1 type:uint8<0>+0
	rel 56+8 t=1 type:[]uint8<0>+0
type:.namedata.*[8]complex128-<0> SRODATA dupok size=16
	0x0000 00 0e 2a 5b 38 5d 63 6f 6d 70 6c 65 78 31 32 38  ..*[8]complex128
type:*[8]complex128<0> SRODATA dupok size=56
	0x0000 08 00 00 00 00 00 00 00 08 00 00 00 00 00 00 00  ................
	0x0010 50 3a 5e aa 08 08 08 36 00 00 00 00 00 00 00 00  P:^....6........
	0x0020 00 00 00 00 00 00 00 00 00 00 00 00 00 00 00 00  ................
	0x0030 00 00 00 00 00 00 00 00                          ........
	rel 24+8 t=1 runtime.memequal64·f<0>+0
	rel 32+8 t=1 runtime.gcbits.0100000000000000<0>+0
	rel 40+4 t=5 type:.namedata.*[8]complex128-<0>+0
	rel 48+8 t=1 type:noalg.[8]complex128<0>+0
type:noalg.[8]complex128<0> SRODATA dupok size=72
	0x0000 80 00 00 00 00 00 00 00 00 00 00 00 00 00 00 00  ................
	0x0010 56 04 ea 22 02 08 08 11 00 00 00 00 00 00 00 00  V.."............
	0x0020 00 00 00 00 00 00 00 00 00 00 00 00 00 00 00 00  ................
	0x0030 00 00 00 00 00 00 00 00 00 00 00 00 00 00 00 00  ................
	0x0040 08 00 00 00 00 00 00 00                          ........
	rel 32+8 t=1 runtime.gcbits.<0>+0
	rel 40+4 t=5 type:.namedata.*[8]complex128-<0>+0
	rel 44+4 t=-32763 type:*[8]complex128<0>+0
	rel 48+8 t=1 type:complex128<0>+0
	rel 56+8 t=1 type:[]complex128<0>+0
type:.namedata.*[][]complex128-<0> SRODATA dupok size=17
	0x0000 00 0f 2a 5b 5d 5b 5d 63 6f 6d 70 6c 65 78 31 32  ..*[][]complex12
	0x0010 38                                               8
type:*[][]complex128<0> SRODATA dupok size=56
	0x0000 08 00 00 00 00 00 00 00 08 00 00 00 00 00 00 00  ................
	0x0010 47 d8 e2 0e 08 08 08 36 00 00 00 00 00 00 00 00  G......6........
	0x0020 00 00 00 00 00 00 00 00 00 00 00 00 00 00 00 00  ................
	0x0030 00 00 00 00 00 00 00 00                          ........
	rel 24+8 t=1 runtime.memequal64·f<0>+0
	rel 32+8 t=1 runtime.gcbits.0100000000000000<0>+0
	rel 40+4 t=5 type:.namedata.*[][]complex128-<0>+0
	rel 48+8 t=1 type:[][]complex128<0>+0
type:[][]complex128<0> SRODATA dupok size=56
	0x0000 18 00 00 00 00 00 00 00 08 00 00 00 00 00 00 00  ................
	0x0010 4e 19 fa 17 02 08 08 17 00 00 00 00 00 00 00 00  N...............
	0x0020 00 00 00 00 00 00 00 00 00 00 00 00 00 00 00 00  ................
	0x0030 00 00 00 00 00 00 00 00                          ........
	rel 32+8 t=1 runtime.gcbits.0100000000000000<0>+0
	rel 40+4 t=5 type:.namedata.*[][]complex128-<0>+0
	rel 44+4 t=-32763 type:*[][]complex128<0>+0
	rel 48+8 t=1 type:[]complex128<0>+0
type:.namedata.*[8][]complex128-<0> SRODATA dupok size=18
	0x0000 00 10 2a 5b 38 5d 5b 5d 63 6f 6d 70 6c 65 78 31  ..*[8][]complex1
	0x0010 32 38                                            28
type:*[8][]complex128<0> SRODATA dupok size=56
	0x0000 08 00 00 00 00 00 00 00 08 00 00 00 00 00 00 00  ................
	0x0010 2f de ac 38 08 08 08 36 00 00 00 00 00 00 00 00  /..8...6........
	0x0020 00 00 00 00 00 00 00 00 00 00 00 00 00 00 00 00  ................
	0x0030 00 00 00 00 00 00 00 00                          ........
	rel 24+8 t=1 runtime.memequal64·f<0>+0
	rel 32+8 t=1 runtime.gcbits.0100000000000000<0>+0
	rel 40+4 t=5 type:.namedata.*[8][]complex128-<0>+0
	rel 48+8 t=1 type:noalg.[8][]complex128<0>+0
runtime.gcbits.4992240000000000<0> SRODATA dupok size=8
	0x0000 49 92 24 00 00 00 00 00                          I.$.....
type:noalg.[8][]complex128<0> SRODATA dupok size=72
	0x0000 c0 00 00 00 00 00 00 00 b0 00 00 00 00 00 00 00  ................
	0x0010 3a 49 74 96 02 08 08 11 00 00 00 00 00 00 00 00  :It.............
	0x0020 00 00 00 00 00 00 00 00 00 00 00 00 00 00 00 00  ................
	0x0030 00 00 00 00 00 00 00 00 00 00 00 00 00 00 00 00  ................
	0x0040 08 00 00 00 00 00 00 00                          ........
	rel 32+8 t=1 runtime.gcbits.4992240000000000<0>+0
	rel 40+4 t=5 type:.namedata.*[8][]complex128-<0>+0
	rel 44+4 t=-32763 type:*[8][]complex128<0>+0
	rel 48+8 t=1 type:[]complex128<0>+0
	rel 56+8 t=1 type:[][]complex128<0>+0
type:.namedata.*map.bucket[complex128][]complex128-<0> SRODATA dupok size=37
	0x0000 00 23 2a 6d 61 70 2e 62 75 63 6b 65 74 5b 63 6f  .#*map.bucket[co
	0x0010 6d 70 6c 65 78 31 32 38 5d 5b 5d 63 6f 6d 70 6c  mplex128][]compl
	0x0020 65 78 31 32 38                                   ex128
type:*map.bucket[complex128][]complex128<0> SRODATA dupok size=56
	0x0000 08 00 00 00 00 00 00 00 08 00 00 00 00 00 00 00  ................
	0x0010 cb 98 3a c5 08 08 08 36 00 00 00 00 00 00 00 00  ..:....6........
	0x0020 00 00 00 00 00 00 00 00 00 00 00 00 00 00 00 00  ................
	0x0030 00 00 00 00 00 00 00 00                          ........
	rel 24+8 t=1 runtime.memequal64·f<0>+0
	rel 32+8 t=1 runtime.gcbits.0100000000000000<0>+0
	rel 40+4 t=5 type:.namedata.*map.bucket[complex128][]complex128-<0>+0
	rel 48+8 t=1 type:noalg.map.bucket[complex128][]complex128<0>+0
runtime.gcbits.0000922449020000<0> SRODATA dupok size=8
	0x0000 00 00 92 24 49 02 00 00                          ...$I...
type:.importpath..<0> SRODATA dupok size=2
	0x0000 00 00                                            ..
type:.namedata.topbits-<0> SRODATA dupok size=9
	0x0000 00 07 74 6f 70 62 69 74 73                       ..topbits
type:.namedata.keys-<0> SRODATA dupok size=6
	0x0000 00 04 6b 65 79 73                                ..keys
type:.namedata.elems-<0> SRODATA dupok size=7
	0x0000 00 05 65 6c 65 6d 73                             ..elems
type:.namedata.overflow-<0> SRODATA dupok size=10
	0x0000 00 08 6f 76 65 72 66 6c 6f 77                    ..overflow
type:noalg.map.bucket[complex128][]complex128<0> SRODATA dupok size=176
	0x0000 50 01 00 00 00 00 00 00 50 01 00 00 00 00 00 00  P.......P.......
	0x0010 7c 63 5a 78 02 08 08 19 00 00 00 00 00 00 00 00  |cZx............
	0x0020 00 00 00 00 00 00 00 00 00 00 00 00 00 00 00 00  ................
	0x0030 00 00 00 00 00 00 00 00 00 00 00 00 00 00 00 00  ................
	0x0040 04 00 00 00 00 00 00 00 04 00 00 00 00 00 00 00  ................
	0x0050 00 00 00 00 00 00 00 00 00 00 00 00 00 00 00 00  ................
	0x0060 00 00 00 00 00 00 00 00 00 00 00 00 00 00 00 00  ................
	0x0070 00 00 00 00 00 00 00 00 08 00 00 00 00 00 00 00  ................
	0x0080 00 00 00 00 00 00 00 00 00 00 00 00 00 00 00 00  ................
	0x0090 88 00 00 00 00 00 00 00 00 00 00 00 00 00 00 00  ................
	0x00a0 00 00 00 00 00 00 00 00 48 01 00 00 00 00 00 00  ........H.......
	rel 32+8 t=1 runtime.gcbits.0000922449020000<0>+0
	rel 40+4 t=5 type:.namedata.*map.bucket[complex128][]complex128-<0>+0
	rel 44+4 t=-32763 type:*map.bucket[complex128][]complex128<0>+0
	rel 48+8 t=1 type:.importpath..<0>+0
	rel 56+8 t=1 type:noalg.map.bucket[complex128][]complex128<0>+80
	rel 80+8 t=1 type:.namedata.topbits-<0>+0
	rel 88+8 t=1 type:[8]uint8<0>+0
	rel 104+8 t=1 type:.namedata.keys-<0>+0
	rel 112+8 t=1 type:noalg.[8]complex128<0>+0
	rel 128+8 t=1 type:.namedata.elems-<0>+0
	rel 136+8 t=1 type:noalg.[8][]complex128<0>+0
	rel 152+8 t=1 type:.namedata.overflow-<0>+0
	rel 160+8 t=1 type:unsafe.Pointer<0>+0
runtime.c128hash·f<0> SRODATA dupok size=8
	0x0000 00 00 00 00 00 00 00 00                          ........
	rel 0+8 t=1 runtime.c128hash<1>+0
type:.namedata.*map[complex128][]complex128-<0> SRODATA dupok size=30
	0x0000 00 1c 2a 6d 61 70 5b 63 6f 6d 70 6c 65 78 31 32  ..*map[complex12
	0x0010 38 5d 5b 5d 63 6f 6d 70 6c 65 78 31 32 38        8][]complex128
type:*map[complex128][]complex128<0> SRODATA dupok size=56
	0x0000 08 00 00 00 00 00 00 00 08 00 00 00 00 00 00 00  ................
	0x0010 63 ec b4 a1 08 08 08 36 00 00 00 00 00 00 00 00  c......6........
	0x0020 00 00 00 00 00 00 00 00 00 00 00 00 00 00 00 00  ................
	0x0030 00 00 00 00 00 00 00 00                          ........
	rel 24+8 t=1 runtime.memequal64·f<0>+0
	rel 32+8 t=1 runtime.gcbits.0100000000000000<0>+0
	rel 40+4 t=5 type:.namedata.*map[complex128][]complex128-<0>+0
	rel 48+8 t=1 type:map[complex128][]complex128<0>+0
type:map[complex128][]complex128<0> SRODATA dupok size=88
	0x0000 08 00 00 00 00 00 00 00 08 00 00 00 00 00 00 00  ................
	0x0010 e9 2c 42 b8 02 08 08 35 00 00 00 00 00 00 00 00  .,B....5........
	0x0020 00 00 00 00 00 00 00 00 00 00 00 00 00 00 00 00  ................
	0x0030 00 00 00 00 00 00 00 00 00 00 00 00 00 00 00 00  ................
	0x0040 00 00 00 00 00 00 00 00 00 00 00 00 00 00 00 00  ................
	0x0050 10 18 50 01 08 00 00 00                          ..P.....
	rel 32+8 t=1 runtime.gcbits.0100000000000000<0>+0
	rel 40+4 t=5 type:.namedata.*map[complex128][]complex128-<0>+0
	rel 44+4 t=-32763 type:*map[complex128][]complex128<0>+0
	rel 48+8 t=1 type:complex128<0>+0
	rel 56+8 t=1 type:[]complex128<0>+0
	rel 64+8 t=1 type:noalg.map.bucket[complex128][]complex128<0>+0
	rel 72+8 t=1 runtime.c128hash·f<0>+0
type:.namedata.*map.bucket[complex128]complex128-<0> SRODATA dupok size=35
	0x0000 00 21 2a 6d 61 70 2e 62 75 63 6b 65 74 5b 63 6f  .!*map.bucket[co
	0x0010 6d 70 6c 65 78 31 32 38 5d 63 6f 6d 70 6c 65 78  mplex128]complex
	0x0020 31 32 38                                         128
type:*map.bucket[complex128]complex128<0> SRODATA dupok size=56
	0x0000 08 00 00 00 00 00 00 00 08 00 00 00 00 00 00 00  ................
	0x0010 2a c0 26 ec 08 08 08 36 00 00 00 00 00 00 00 00  *.&....6........
	0x0020 00 00 00 00 00 00 00 00 00 00 00 00 00 00 00 00  ................
	0x0030 00 00 00 00 00 00 00 00                          ........
	rel 24+8 t=1 runtime.memequal64·f<0>+0
	rel 32+8 t=1 runtime.gcbits.0100000000000000<0>+0
	rel 40+4 t=5 type:.namedata.*map.bucket[complex128]complex128-<0>+0
	rel 48+8 t=1 type:noalg.map.bucket[complex128]complex128<0>+0
type:noalg.map.bucket[complex128]complex128<0> SRODATA dupok size=176
	0x0000 10 01 00 00 00 00 00 00 00 00 00 00 00 00 00 00  ................
	0x0010 7d 22 37 a2 02 08 08 19 00 00 00 00 00 00 00 00  }"7.............
	0x0020 00 00 00 00 00 00 00 00 00 00 00 00 00 00 00 00  ................
	0x0030 00 00 00 00 00 00 00 00 00 00 00 00 00 00 00 00  ................
	0x0040 04 00 00 00 00 00 00 00 04 00 00 00 00 00 00 00  ................
	0x0050 00 00 00 00 00 00 00 00 00 00 00 00 00 00 00 00  ................
	0x0060 00 00 00 00 00 00 00 00 00 00 00 00 00 00 00 00  ................
	0x0070 00 00 00 00 00 00 00 00 08 00 00 00 00 00 00 00  ................
	0x0080 00 00 00 00 00 00 00 00 00 00 00 00 00 00 00 00  ................
	0x0090 88 00 00 00 00 00 00 00 00 00 00 00 00 00 00 00  ................
	0x00a0 00 00 00 00 00 00 00 00 08 01 00 00 00 00 00 00  ................
	rel 32+8 t=1 runtime.gcbits.<0>+0
	rel 40+4 t=5 type:.namedata.*map.bucket[complex128]complex128-<0>+0
	rel 44+4 t=-32763 type:*map.bucket[complex128]complex128<0>+0
	rel 48+8 t=1 type:.importpath..<0>+0
	rel 56+8 t=1 type:noalg.map.bucket[complex128]complex128<0>+80
	rel 80+8 t=1 type:.namedata.topbits-<0>+0
	rel 88+8 t=1 type:[8]uint8<0>+0
	rel 104+8 t=1 type:.namedata.keys-<0>+0
	rel 112+8 t=1 type:noalg.[8]complex128<0>+0
	rel 128+8 t=1 type:.namedata.elems-<0>+0
	rel 136+8 t=1 type:noalg.[8]complex128<0>+0
	rel 152+8 t=1 type:.namedata.overflow-<0>+0
	rel 160+8 t=1 type:uintptr<0>+0
type:.namedata.*map[complex128]complex128-<0> SRODATA dupok size=28
	0x0000 00 1a 2a 6d 61 70 5b 63 6f 6d 70 6c 65 78 31 32  ..*map[complex12
	0x0010 38 5d 63 6f 6d 70 6c 65 78 31 32 38              8]complex128
type:*map[complex128]complex128<0> SRODATA dupok size=56
	0x0000 08 00 00 00 00 00 00 00 08 00 00 00 00 00 00 00  ................
	0x0010 f7 8e af 8f 08 08 08 36 00 00 00 00 00 00 00 00  .......6........
	0x0020 00 00 00 00 00 00 00 00 00 00 00 00 00 00 00 00  ................
	0x0030 00 00 00 00 00 00 00 00                          ........
	rel 24+8 t=1 runtime.memequal64·f<0>+0
	rel 32+8 t=1 runtime.gcbits.0100000000000000<0>+0
	rel 40+4 t=5 type:.namedata.*map[complex128]complex128-<0>+0
	rel 48+8 t=1 type:map[complex128]complex128<0>+0
type:map[complex128]complex128<0> SRODATA dupok size=88
	0x0000 08 00 00 00 00 00 00 00 08 00 00 00 00 00 00 00  ................
	0x0010 bc 1e 1d 05 02 08 08 35 00 00 00 00 00 00 00 00  .......5........
	0x0020 00 00 00 00 00 00 00 00 00 00 00 00 00 00 00 00  ................
	0x0030 00 00 00 00 00 00 00 00 00 00 00 00 00 00 00 00  ................
	0x0040 00 00 00 00 00 00 00 00 00 00 00 00 00 00 00 00  ................
	0x0050 10 10 10 01 08 00 00 00                          ........
	rel 32+8 t=1 runtime.gcbits.0100000000000000<0>+0
	rel 40+4 t=5 type:.namedata.*map[complex128]complex128-<0>+0
	rel 44+4 t=-32763 type:*map[complex128]complex128<0>+0
	rel 48+8 t=1 type:complex128<0>+0
	rel 56+8 t=1 type:complex128<0>+0
	rel 64+8 t=1 type:noalg.map.bucket[complex128]complex128<0>+0
	rel 72+8 t=1 runtime.c128hash·f<0>+0
type:.namedata.*[8]int32-<0> SRODATA dupok size=11
	0x0000 00 09 2a 5b 38 5d 69 6e 74 33 32                 ..*[8]int32
type:*[8]int32<0> SRODATA dupok size=56
	0x0000 08 00 00 00 00 00 00 00 08 00 00 00 00 00 00 00  ................
	0x0010 97 f6 74 9d 08 08 08 36 00 00 00 00 00 00 00 00  ..t....6........
	0x0020 00 00 00 00 00 00 00 00 00 00 00 00 00 00 00 00  ................
	0x0030 00 00 00 00 00 00 00 00                          ........
	rel 24+8 t=1 runtime.memequal64·f<0>+0
	rel 32+8 t=1 runtime.gcbits.0100000000000000<0>+0
	rel 40+4 t=5 type:.namedata.*[8]int32-<0>+0
	rel 48+8 t=1 type:noalg.[8]int32<0>+0
type:noalg.[8]int32<0> SRODATA dupok size=72
	0x0000 20 00 00 00 00 00 00 00 00 00 00 00 00 00 00 00   ...............
	0x0010 50 8d 4e 89 02 04 04 11 00 00 00 00 00 00 00 00  P.N.............
	0x0020 00 00 00 00 00 00 00 00 00 00 00 00 00 00 00 00  ................
	0x0030 00 00 00 00 00 00 00 00 00 00 00 00 00 00 00 00  ................
	0x0040 08 00 00 00 00 00 00 00                          ........
	rel 32+8 t=1 runtime.gcbits.<0>+0
	rel 40+4 t=5 type:.namedata.*[8]int32-<0>+0
	rel 44+4 t=-32763 type:*[8]int32<0>+0
	rel 48+8 t=1 type:int32<0>+0
	rel 56+8 t=1 type:[]int32<0>+0
type:.namedata.*[][]int32-<0> SRODATA dupok size=12
	0x0000 00 0a 2a 5b 5d 5b 5d 69 6e 74 33 32              ..*[][]int32
type:*[][]int32<0> SRODATA dupok size=56
	0x0000 08 00 00 00 00 00 00 00 08 00 00 00 00 00 00 00  ................
	0x0010 5e 7d ad d0 08 08 08 36 00 00 00 00 00 00 00 00  ^}.....6........
	0x0020 00 00 00 00 00 00 00 00 00 00 00 00 00 00 00 00  ................
	0x0030 00 00 00 00 00 00 00 00                          ........
	rel 24+8 t=1 runtime.memequal64·f<0>+0
	rel 32+8 t=1 runtime.gcbits.0100000000000000<0>+0
	rel 40+4 t=5 type:.namedata.*[][]int32-<0>+0
	rel 48+8 t=1 type:[][]int32<0>+0
type:[][]int32<0> SRODATA dupok size=56
	0x0000 18 00 00 00 00 00 00 00 08 00 00 00 00 00 00 00  ................
	0x0010 ae 4d 7f ec 02 08 08 17 00 00 00 00 00 00 00 00  .M..............
	0x0020 00 00 00 00 00 00 00 00 00 00 00 00 00 00 00 00  ................
	0x0030 00 00 00 00 00 00 00 00                          ........
	rel 32+8 t=1 runtime.gcbits.0100000000000000<0>+0
	rel 40+4 t=5 type:.namedata.*[][]int32-<0>+0
	rel 44+4 t=-32763 type:*[][]int32<0>+0
	rel 48+8 t=1 type:[]int32<0>+0
type:.namedata.*[8][]int32-<0> SRODATA dupok size=13
	0x0000 00 0b 2a 5b 38 5d 5b 5d 69 6e 74 33 32           ..*[8][]int32
type:*[8][]int32<0> SRODATA dupok size=56
	0x0000 08 00 00 00 00 00 00 00 08 00 00 00 00 00 00 00  ................
	0x0010 fb 77 d5 8c 08 08 08 36 00 00 00 00 00 00 00 00  .w.....6........
	0x0020 00 00 00 00 00 00 00 00 00 00 00 00 00 00 00 00  ................
	0x0030 00 00 00 00 00 00 00 00                          ........
	rel 24+8 t=1 runtime.memequal64·f<0>+0
	rel 32+8 t=1 runtime.gcbits.0100000000000000<0>+0
	rel 40+4 t=5 type:.namedata.*[8][]int32-<0>+0
	rel 48+8 t=1 type:noalg.[8][]int32<0>+0
type:noalg.[8][]int32<0> SRODATA dupok size=72
	0x0000 c0 00 00 00 00 00 00 00 b0 00 00 00 00 00 00 00  ................
	0x0010 d1 13 a2 b5 02 08 08 11 00 00 00 00 00 00 00 00  ................
	0x0020 00 00 00 00 00 00 00 00 00 00 00 00 00 00 00 00  ................
	0x0030 00 00 00 00 00 00 00 00 00 00 00 00 00 00 00 00  ................
	0x0040 08 00 00 00 00 00 00 00                          ........
	rel 32+8 t=1 runtime.gcbits.4992240000000000<0>+0
	rel 40+4 t=5 type:.namedata.*[8][]int32-<0>+0
	rel 44+4 t=-32763 type:*[8][]int32<0>+0
	rel 48+8 t=1 type:[]int32<0>+0
	rel 56+8 t=1 type:[][]int32<0>+0
type:.namedata.*map.bucket[int32][]int32-<0> SRODATA dupok size=27
	0x0000 00 19 2a 6d 61 70 2e 62 75 63 6b 65 74 5b 69 6e  ..*map.bucket[in
	0x0010 74 33 32 5d 5b 5d 69 6e 74 33 32                 t32][]int32
type:*map.bucket[int32][]int32<0> SRODATA dupok size=56
	0x0000 08 00 00 00 00 00 00 00 08 00 00 00 00 00 00 00  ................
	0x0010 47 74 00 96 08 08 08 36 00 00 00 00 00 00 00 00  Gt.....6........
	0x0020 00 00 00 00 00 00 00 00 00 00 00 00 00 00 00 00  ................
	0x0030 00 00 00 00 00 00 00 00                          ........
	rel 24+8 t=1 runtime.memequal64·f<0>+0
	rel 32+8 t=1 runtime.gcbits.0100000000000000<0>+0
	rel 40+4 t=5 type:.namedata.*map.bucket[int32][]int32-<0>+0
	rel 48+8 t=1 type:noalg.map.bucket[int32][]int32<0>+0
runtime.gcbits.2049922400000000<0> SRODATA dupok size=8
	0x0000 20 49 92 24 00 00 00 00                           I.$....
type:noalg.map.bucket[int32][]int32<0> SRODATA dupok size=176
	0x0000 f0 00 00 00 00 00 00 00 f0 00 00 00 00 00 00 00  ................
	0x0010 fc 06 5a b9 02 08 08 19 00 00 00 00 00 00 00 00  ..Z.............
	0x0020 00 00 00 00 00 00 00 00 00 00 00 00 00 00 00 00  ................
	0x0030 00 00 00 00 00 00 00 00 00 00 00 00 00 00 00 00  ................
	0x0040 04 00 00 00 00 00 00 00 04 00 00 00 00 00 00 00  ................
	0x0050 00 00 00 00 00 00 00 00 00 00 00 00 00 00 00 00  ................
	0x0060 00 00 00 00 00 00 00 00 00 00 00 00 00 00 00 00  ................
	0x0070 00 00 00 00 00 00 00 00 08 00 00 00 00 00 00 00  ................
	0x0080 00 00 00 00 00 00 00 00 00 00 00 00 00 00 00 00  ................
	0x0090 28 00 00 00 00 00 00 00 00 00 00 00 00 00 00 00  (...............
	0x00a0 00 00 00 00 00 00 00 00 e8 00 00 00 00 00 00 00  ................
	rel 32+8 t=1 runtime.gcbits.2049922400000000<0>+0
	rel 40+4 t=5 type:.namedata.*map.bucket[int32][]int32-<0>+0
	rel 44+4 t=-32763 type:*map.bucket[int32][]int32<0>+0
	rel 48+8 t=1 type:.importpath..<0>+0
	rel 56+8 t=1 type:noalg.map.bucket[int32][]int32<0>+80
	rel 80+8 t=1 type:.namedata.topbits-<0>+0
	rel 88+8 t=1 type:[8]uint8<0>+0
	rel 104+8 t=1 type:.namedata.keys-<0>+0
	rel 112+8 t=1 type:noalg.[8]int32<0>+0
	rel 128+8 t=1 type:.namedata.elems-<0>+0
	rel 136+8 t=1 type:noalg.[8][]int32<0>+0
	rel 152+8 t=1 type:.namedata.overflow-<0>+0
	rel 160+8 t=1 type:unsafe.Pointer<0>+0
runtime.memhash32·f<0> SRODATA dupok size=8
	0x0000 00 00 00 00 00 00 00 00                          ........
	rel 0+8 t=1 runtime.memhash32<1>+0
type:.namedata.*map[int32][]int32-<0> SRODATA dupok size=20
	0x0000 00 12 2a 6d 61 70 5b 69 6e 74 33 32 5d 5b 5d 69  ..*map[int32][]i
	0x0010 6e 74 33 32                                      nt32
type:*map[int32][]int32<0> SRODATA dupok size=56
	0x0000 08 00 00 00 00 00 00 00 08 00 00 00 00 00 00 00  ................
	0x0010 8d 1e a9 e4 08 08 08 36 00 00 00 00 00 00 00 00  .......6........
	0x0020 00 00 00 00 00 00 00 00 00 00 00 00 00 00 00 00  ................
	0x0030 00 00 00 00 00 00 00 00                          ........
	rel 24+8 t=1 runtime.memequal64·f<0>+0
	rel 32+8 t=1 runtime.gcbits.0100000000000000<0>+0
	rel 40+4 t=5 type:.namedata.*map[int32][]int32-<0>+0
	rel 48+8 t=1 type:map[int32][]int32<0>+0
type:map[int32][]int32<0> SRODATA dupok size=88
	0x0000 08 00 00 00 00 00 00 00 08 00 00 00 00 00 00 00  ................
	0x0010 ae 84 86 98 02 08 08 35 00 00 00 00 00 00 00 00  .......5........
	0x0020 00 00 00 00 00 00 00 00 00 00 00 00 00 00 00 00  ................
	0x0030 00 00 00 00 00 00 00 00 00 00 00 00 00 00 00 00  ................
	0x0040 00 00 00 00 00 00 00 00 00 00 00 00 00 00 00 00  ................
	0x0050 04 18 f0 00 04 00 00 00                          ........
	rel 32+8 t=1 runtime.gcbits.0100000000000000<0>+0
	rel 40+4 t=5 type:.namedata.*map[int32][]int32-<0>+0
	rel 44+4 t=-32763 type:*map[int32][]int32<0>+0
	rel 48+8 t=1 type:int32<0>+0
	rel 56+8 t=1 type:[]int32<0>+0
	rel 64+8 t=1 type:noalg.map.bucket[int32][]int32<0>+0
	rel 72+8 t=1 runtime.memhash32·f<0>+0
type:.namedata.*map.bucket[int32]int32-<0> SRODATA dupok size=25
	0x0000 00 17 2a 6d 61 70 2e 62 75 63 6b 65 74 5b 69 6e  ..*map.bucket[in
	0x0010 74 33 32 5d 69 6e 74 33 32                       t32]int32
type:*map.bucket[int32]int32<0> SRODATA dupok size=56
	0x0000 08 00 00 00 00 00 00 00 08 00 00 00 00 00 00 00  ................
	0x0010 34 c0 9f 1c 08 08 08 36 00 00 00 00 00 00 00 00  4......6........
	0x0020 00 00 00 00 00 00 00 00 00 00 00 00 00 00 00 00  ................
	0x0030 00 00 00 00 00 00 00 00                          ........
	rel 24+8 t=1 runtime.memequal64·f<0>+0
	rel 32+8 t=1 runtime.gcbits.0100000000000000<0>+0
	rel 40+4 t=5 type:.namedata.*map.bucket[int32]int32-<0>+0
	rel 48+8 t=1 type:noalg.map.bucket[int32]int32<0>+0
type:noalg.map.bucket[int32]int32<0> SRODATA dupok size=176
	0x0000 50 00 00 00 00 00 00 00 00 00 00 00 00 00 00 00  P...............
	0x0010 82 c6 eb 79 02 08 08 19 00 00 00 00 00 00 00 00  ...y............
	0x0020 00 00 00 00 00 00 00 00 00 00 00 00 00 00 00 00  ................
	0x0030 00 00 00 00 00 00 00 00 00 00 00 00 00 00 00 00  ................
	0x0040 04 00 00 00 00 00 00 00 04 00 00 00 00 00 00 00  ................
	0x0050 00 00 00 00 00 00 00 00 00 00 00 00 00 00 00 00  ................
	0x0060 00 00 00 00 00 00 00 00 00 00 00 00 00 00 00 00  ................
	0x0070 00 00 00 00 00 00 00 00 08 00 00 00 00 00 00 00  ................
	0x0080 00 00 00 00 00 00 00 00 00 00 00 00 00 00 00 00  ................
	0x0090 28 00 00 00 00 00 00 00 00 00 00 00 00 00 00 00  (...............
	0x00a0 00 00 00 00 00 00 00 00 48 00 00 00 00 00 00 00  ........H.......
	rel 32+8 t=1 runtime.gcbits.<0>+0
	rel 40+4 t=5 type:.namedata.*map.bucket[int32]int32-<0>+0
	rel 44+4 t=-32763 type:*map.bucket[int32]int32<0>+0
	rel 48+8 t=1 type:.importpath..<0>+0
	rel 56+8 t=1 type:noalg.map.bucket[int32]int32<0>+80
	rel 80+8 t=1 type:.namedata.topbits-<0>+0
	rel 88+8 t=1 type:[8]uint8<0>+0
	rel 104+8 t=1 type:.namedata.keys-<0>+0
	rel 112+8 t=1 type:noalg.[8]int32<0>+0
	rel 128+8 t=1 type:.namedata.elems-<0>+0
	rel 136+8 t=1 type:noalg.[8]int32<0>+0
	rel 152+8 t=1 type:.namedata.overflow-<0>+0
	rel 160+8 t=1 type:uintptr<0>+0
type:.namedata.*map[int32]int32-<0> SRODATA dupok size=18
	0x0000 00 10 2a 6d 61 70 5b 69 6e 74 33 32 5d 69 6e 74  ..*map[int32]int
	0x0010 33 32                                            32
type:*map[int32]int32<0> SRODATA dupok size=56
	0x0000 08 00 00 00 00 00 00 00 08 00 00 00 00 00 00 00  ................
	0x0010 70 f7 60 7a 08 08 08 36 00 00 00 00 00 00 00 00  p.`z...6........
	0x0020 00 00 00 00 00 00 00 00 00 00 00 00 00 00 00 00  ................
	0x0030 00 00 00 00 00 00 00 00                          ........
	rel 24+8 t=1 runtime.memequal64·f<0>+0
	rel 32+8 t=1 runtime.gcbits.0100000000000000<0>+0
	rel 40+4 t=5 type:.namedata.*map[int32]int32-<0>+0
	rel 48+8 t=1 type:map[int32]int32<0>+0
type:map[int32]int32<0> SRODATA dupok size=88
	0x0000 08 00 00 00 00 00 00 00 08 00 00 00 00 00 00 00  ................
	0x0010 72 84 04 73 02 08 08 35 00 00 00 00 00 00 00 00  r..s...5........
	0x0020 00 00 00 00 00 00 00 00 00 00 00 00 00 00 00 00  ................
	0x0030 00 00 00 00 00 00 00 00 00 00 00 00 00 00 00 00  ................
	0x0040 00 00 00 00 00 00 00 00 00 00 00 00 00 00 00 00  ................
	0x0050 04 04 50 00 04 00 00 00                          ..P.....
	rel 32+8 t=1 runtime.gcbits.0100000000000000<0>+0
	rel 40+4 t=5 type:.namedata.*map[int32]int32-<0>+0
	rel 44+4 t=-32763 type:*map[int32]int32<0>+0
	rel 48+8 t=1 type:int32<0>+0
	rel 56+8 t=1 type:int32<0>+0
	rel 64+8 t=1 type:noalg.map.bucket[int32]int32<0>+0
	rel 72+8 t=1 runtime.memhash32·f<0>+0
type:.namedata.*[8]int64-<0> SRODATA dupok size=11
	0x0000 00 09 2a 5b 38 5d 69 6e 74 36 34                 ..*[8]int64
type:*[8]int64<0> SRODATA dupok size=56
	0x0000 08 00 00 00 00 00 00 00 08 00 00 00 00 00 00 00  ................
	0x0010 b4 33 64 b1 08 08 08 36 00 00 00 00 00 00 00 00  .3d....6........
	0x0020 00 00 00 00 00 00 00 00 00 00 00 00 00 00 00 00  ................
	0x0030 00 00 00 00 00 00 00 00                          ........
	rel 24+8 t=1 runtime.memequal64·f<0>+0
	rel 32+8 t=1 runtime.gcbits.0100000000000000<0>+0
	rel 40+4 t=5 type:.namedata.*[8]int64-<0>+0
	rel 48+8 t=1 type:noalg.[8]int64<0>+0
type:noalg.[8]int64<0> SRODATA dupok size=72
	0x0000 40 00 00 00 00 00 00 00 00 00 00 00 00 00 00 00  @...............
	0x0010 df 74 c3 e5 02 08 08 11 00 00 00 00 00 00 00 00  .t..............
	0x0020 00 00 00 00 00 00 00 00 00 00 00 00 00 00 00 00  ................
	0x0030 00 00 00 00 00 00 00 00 00 00 00 00 00 00 00 00  ................
	0x0040 08 00 00 00 00 00 00 00                          ........
	rel 32+8 t=1 runtime.gcbits.<0>+0
	rel 40+4 t=5 type:.namedata.*[8]int64-<0>+0
	rel 44+4 t=-32763 type:*[8]int64<0>+0
	rel 48+8 t=1 type:int64<0>+0
	rel 56+8 t=1 type:[]int64<0>+0
type:.namedata.*[][]int64-<0> SRODATA dupok size=12
	0x0000 00 0a 2a 5b 5d 5b 5d 69 6e 74 36 34              ..*[][]int64
type:*[][]int64<0> SRODATA dupok size=56
	0x0000 08 00 00 00 00 00 00 00 08 00 00 00 00 00 00 00  ................
	0x0010 c1 40 b0 85 08 08 08 36 00 00 00 00 00 00 00 00  .@.....6........
	0x0020 00 00 00 00 00 00 00 00 00 00 00 00 00 00 00 00  ................
	0x0030 00 00 00 00 00 00 00 00                          ........
	rel 24+8 t=1 runtime.memequal64·f<0>+0
	rel 32+8 t=1 runtime.gcbits.0100000000000000<0>+0
	rel 40+4 t=5 type:.namedata.*[][]int64-<0>+0
	rel 48+8 t=1 type:[][]int64<0>+0
type:[][]int64<0> SRODATA dupok size=56
	0x0000 18 00 00 00 00 00 00 00 08 00 00 00 00 00 00 00  ................
	0x0010 3e c2 0b 30 02 08 08 17 00 00 00 00 00 00 00 00  >..0............
	0x0020 00 00 00 00 00 00 00 00 00 00 00 00 00 00 00 00  ................
	0x0030 00 00 00 00 00 00 00 00                          ........
	rel 32+8 t=1 runtime.gcbits.0100000000000000<0>+0
	rel 40+4 t=5 type:.namedata.*[][]int64-<0>+0
	rel 44+4 t=-32763 type:*[][]int64<0>+0
	rel 48+8 t=1 type:[]int64<0>+0
type:.namedata.*[8][]int64-<0> SRODATA dupok size=13
	0x0000 00 0b 2a 5b 38 5d 5b 5d 69 6e 74 36 34           ..*[8][]int64
type:*[8][]int64<0> SRODATA dupok size=56
	0x0000 08 00 00 00 00 00 00 00 08 00 00 00 00 00 00 00  ................
	0x0010 42 9b 66 11 08 08 08 36 00 00 00 00 00 00 00 00  B.f....6........
	0x0020 00 00 00 00 00 00 00 00 00 00 00 00 00 00 00 00  ................
	0x0030 00 00 00 00 00 00 00 00                          ........
	rel 24+8 t=1 runtime.memequal64·f<0>+0
	rel 32+8 t=1 runtime.gcbits.0100000000000000<0>+0
	rel 40+4 t=5 type:.namedata.*[8][]int64-<0>+0
	rel 48+8 t=1 type:noalg.[8][]int64<0>+0
type:noalg.[8][]int64<0> SRODATA dupok size=72
	0x0000 c0 00 00 00 00 00 00 00 b0 00 00 00 00 00 00 00  ................
	0x0010 03 cc 77 87 02 08 08 11 00 00 00 00 00 00 00 00  ..w.............
	0x0020 00 00 00 00 00 00 00 00 00 00 00 00 00 00 00 00  ................
	0x0030 00 00 00 00 00 00 00 00 00 00 00 00 00 00 00 00  ................
	0x0040 08 00 00 00 00 00 00 00                          ........
	rel 32+8 t=1 runtime.gcbits.4992240000000000<0>+0
	rel 40+4 t=5 type:.namedata.*[8][]int64-<0>+0
	rel 44+4 t=-32763 type:*[8][]int64<0>+0
	rel 48+8 t=1 type:[]int64<0>+0
	rel 56+8 t=1 type:[][]int64<0>+0
type:.namedata.*map.bucket[int64][]int64-<0> SRODATA dupok size=27
	0x0000 00 19 2a 6d 61 70 2e 62 75 63 6b 65 74 5b 69 6e  ..*map.bucket[in
	0x0010 74 36 34 5d 5b 5d 69 6e 74 36 34                 t64][]int64
type:*map.bucket[int64][]int64<0> SRODATA dupok size=56
	0x0000 08 00 00 00 00 00 00 00 08 00 00 00 00 00 00 00  ................
	0x0010 f8 19 7e c2 08 08 08 36 00 00 00 00 00 00 00 00  ..~....6........
	0x0020 00 00 00 00 00 00 00 00 00 00 00 00 00 00 00 00  ................
	0x0030 00 00 00 00 00 00 00 00                          ........
	rel 24+8 t=1 runtime.memequal64·f<0>+0
	rel 32+8 t=1 runtime.gcbits.0100000000000000<0>+0
	rel 40+4 t=5 type:.namedata.*map.bucket[int64][]int64-<0>+0
	rel 48+8 t=1 type:noalg.map.bucket[int64][]int64<0>+0
runtime.gcbits.0092244902000000<0> SRODATA dupok size=8
	0x0000 00 92 24 49 02 00 00 00                          ..$I....
type:noalg.map.bucket[int64][]int64<0> SRODATA dupok size=176
	0x0000 10 01 00 00 00 00 00 00 10 01 00 00 00 00 00 00  ................
	0x0010 96 3d 86 17 02 08 08 19 00 00 00 00 00 00 00 00  .=..............
	0x0020 00 00 00 00 00 00 00 00 00 00 00 00 00 00 00 00  ................
	0x0030 00 00 00 00 00 00 00 00 00 00 00 00 00 00 00 00  ................
	0x0040 04 00 00 00 00 00 00 00 04 00 00 00 00 00 00 00  ................
	0x0050 00 00 00 00 00 00 00 00 00 00 00 00 00 00 00 00  ................
	0x0060 00 00 00 00 00 00 00 00 00 00 00 00 00 00 00 00  ................
	0x0070 00 00 00 00 00 00 00 00 08 00 00 00 00 00 00 00  ................
	0x0080 00 00 00 00 00 00 00 00 00 00 00 00 00 00 00 00  ................
	0x0090 48 00 00 00 00 00 00 00 00 00 00 00 00 00 00 00  H...............
	0x00a0 00 00 00 00 00 00 00 00 08 01 00 00 00 00 00 00  ................
	rel 32+8 t=1 runtime.gcbits.0092244902000000<0>+0
	rel 40+4 t=5 type:.namedata.*map.bucket[int64][]int64-<0>+0
	rel 44+4 t=-32763 type:*map.bucket[int64][]int64<0>+0
	rel 48+8 t=1 type:.importpath..<0>+0
	rel 56+8 t=1 type:noalg.map.bucket[int64][]int64<0>+80
	rel 80+8 t=1 type:.namedata.topbits-<0>+0
	rel 88+8 t=1 type:[8]uint8<0>+0
	rel 104+8 t=1 type:.namedata.keys-<0>+0
	rel 112+8 t=1 type:noalg.[8]int64<0>+0
	rel 128+8 t=1 type:.namedata.elems-<0>+0
	rel 136+8 t=1 type:noalg.[8][]int64<0>+0
	rel 152+8 t=1 type:.namedata.overflow-<0>+0
	rel 160+8 t=1 type:unsafe.Pointer<0>+0
runtime.memhash64·f<0> SRODATA dupok size=8
	0x0000 00 00 00 00 00 00 00 00                          ........
	rel 0+8 t=1 runtime.memhash64<1>+0
type:.namedata.*map[int64][]int64-<0> SRODATA dupok size=20
	0x0000 00 12 2a 6d 61 70 5b 69 6e 74 36 34 5d 5b 5d 69  ..*map[int64][]i
	0x0010 6e 74 36 34                                      nt64
type:*map[int64][]int64<0> SRODATA dupok size=56
	0x0000 08 00 00 00 00 00 00 00 08 00 00 00 00 00 00 00  ................
	0x0010 d2 93 17 7b 08 08 08 36 00 00 00 00 00 00 00 00  ...{...6........
	0x0020 00 00 00 00 00 00 00 00 00 00 00 00 00 00 00 00  ................
	0x0030 00 00 00 00 00 00 00 00                          ........
	rel 24+8 t=1 runtime.memequal64·f<0>+0
	rel 32+8 t=1 runtime.gcbits.0100000000000000<0>+0
	rel 40+4 t=5 type:.namedata.*map[int64][]int64-<0>+0
	rel 48+8 t=1 type:map[int64][]int64<0>+0
type:map[int64][]int64<0> SRODATA dupok size=88
	0x0000 08 00 00 00 00 00 00 00 08 00 00 00 00 00 00 00  ................
	0x0010 38 23 f2 a2 02 08 08 35 00 00 00 00 00 00 00 00  8#.....5........
	0x0020 00 00 00 00 00 00 00 00 00 00 00 00 00 00 00 00  ................
	0x0030 00 00 00 00 00 00 00 00 00 00 00 00 00 00 00 00  ................
	0x0040 00 00 00 00 00 00 00 00 00 00 00 00 00 00 00 00  ................
	0x0050 08 18 10 01 04 00 00 00                          ........
	rel 32+8 t=1 runtime.gcbits.0100000000000000<0>+0
	rel 40+4 t=5 type:.namedata.*map[int64][]int64-<0>+0
	rel 44+4 t=-32763 type:*map[int64][]int64<0>+0
	rel 48+8 t=1 type:int64<0>+0
	rel 56+8 t=1 type:[]int64<0>+0
	rel 64+8 t=1 type:noalg.map.bucket[int64][]int64<0>+0
	rel 72+8 t=1 runtime.memhash64·f<0>+0
type:.namedata.*map.bucket[int64]int64-<0> SRODATA dupok size=25
	0x0000 00 17 2a 6d 61 70 2e 62 75 63 6b 65 74 5b 69 6e  ..*map.bucket[in
	0x0010 74 36 34 5d 69 6e 74 36 34                       t64]int64
type:*map.bucket[int64]int64<0> SRODATA dupok size=56
	0x0000 08 00 00 00 00 00 00 00 08 00 00 00 00 00 00 00  ................
	0x0010 02 86 cf 5c 08 08 08 36 00 00 00 00 00 00 00 00  ...\...6........
	0x0020 00 00 00 00 00 00 00 00 00 00 00 00 00 00 00 00  ................
	0x0030 00 00 00 00 00 00 00 00                          ........
	rel 24+8 t=1 runtime.memequal64·f<0>+0
	rel 32+8 t=1 runtime.gcbits.0100000000000000<0>+0
	rel 40+4 t=5 type:.namedata.*map.bucket[int64]int64-<0>+0
	rel 48+8 t=1 type:noalg.map.bucket[int64]int64<0>+0
type:noalg.map.bucket[int64]int64<0> SRODATA dupok size=176
	0x0000 90 00 00 00 00 00 00 00 00 00 00 00 00 00 00 00  ................
	0x0010 b9 1b 74 68 02 08 08 19 00 00 00 00 00 00 00 00  ..th............
	0x0020 00 00 00 00 00 00 00 00 00 00 00 00 00 00 00 00  ................
	0x0030 00 00 00 00 00 00 00 00 00 00 00 00 00 00 00 00  ................
	0x0040 04 00 00 00 00 00 00 00 04 00 00 00 00 00 00 00  ................
	0x0050 00 00 00 00 00 00 00 00 00 00 00 00 00 00 00 00  ................
	0x0060 00 00 00 00 00 00 00 00 00 00 00 00 00 00 00 00  ................
	0x0070 00 00 00 00 00 00 00 00 08 00 00 00 00 00 00 00  ................
	0x0080 00 00 00 00 00 00 00 00 00 00 00 00 00 00 00 00  ................
	0x0090 48 00 00 00 00 00 00 00 00 00 00 00 00 00 00 00  H...............
	0x00a0 00 00 00 00 00 00 00 00 88 00 00 00 00 00 00 00  ................
	rel 32+8 t=1 runtime.gcbits.<0>+0
	rel 40+4 t=5 type:.namedata.*map.bucket[int64]int64-<0>+0
	rel 44+4 t=-32763 type:*map.bucket[int64]int64<0>+0
	rel 48+8 t=1 type:.importpath..<0>+0
	rel 56+8 t=1 type:noalg.map.bucket[int64]int64<0>+80
	rel 80+8 t=1 type:.namedata.topbits-<0>+0
	rel 88+8 t=1 type:[8]uint8<0>+0
	rel 104+8 t=1 type:.namedata.keys-<0>+0
	rel 112+8 t=1 type:noalg.[8]int64<0>+0
	rel 128+8 t=1 type:.namedata.elems-<0>+0
	rel 136+8 t=1 type:noalg.[8]int64<0>+0
	rel 152+8 t=1 type:.namedata.overflow-<0>+0
	rel 160+8 t=1 type:uintptr<0>+0
type:.namedata.*map[int64]int64-<0> SRODATA dupok size=18
	0x0000 00 10 2a 6d 61 70 5b 69 6e 74 36 34 5d 69 6e 74  ..*map[int64]int
	0x0010 36 34                                            64
type:*map[int64]int64<0> SRODATA dupok size=56
	0x0000 08 00 00 00 00 00 00 00 08 00 00 00 00 00 00 00  ................
	0x0010 0e bf 71 99 08 08 08 36 00 00 00 00 00 00 00 00  ..q....6........
	0x0020 00 00 00 00 00 00 00 00 00 00 00 00 00 00 00 00  ................
	0x0030 00 00 00 00 00 00 00 00                          ........
	rel 24+8 t=1 runtime.memequal64·f<0>+0
	rel 32+8 t=1 runtime.gcbits.0100000000000000<0>+0
	rel 40+4 t=5 type:.namedata.*map[int64]int64-<0>+0
	rel 48+8 t=1 type:map[int64]int64<0>+0
type:map[int64]int64<0> SRODATA dupok size=88
	0x0000 08 00 00 00 00 00 00 00 08 00 00 00 00 00 00 00  ................
	0x0010 3d ad 24 d6 02 08 08 35 00 00 00 00 00 00 00 00  =.$....5........
	0x0020 00 00 00 00 00 00 00 00 00 00 00 00 00 00 00 00  ................
	0x0030 00 00 00 00 00 00 00 00 00 00 00 00 00 00 00 00  ................
	0x0040 00 00 00 00 00 00 00 00 00 00 00 00 00 00 00 00  ................
	0x0050 08 08 90 00 04 00 00 00                          ........
	rel 32+8 t=1 runtime.gcbits.0100000000000000<0>+0
	rel 40+4 t=5 type:.namedata.*map[int64]int64-<0>+0
	rel 44+4 t=-32763 type:*map[int64]int64<0>+0
	rel 48+8 t=1 type:int64<0>+0
	rel 56+8 t=1 type:int64<0>+0
	rel 64+8 t=1 type:noalg.map.bucket[int64]int64<0>+0
	rel 72+8 t=1 runtime.memhash64·f<0>+0
type:.namedata.*[8]int8-<0> SRODATA dupok size=10
	0x0000 00 08 2a 5b 38 5d 69 6e 74 38                    ..*[8]int8
type:*[8]int8<0> SRODATA dupok size=56
	0x0000 08 00 00 00 00 00 00 00 08 00 00 00 00 00 00 00  ................
	0x0010 29 a4 12 3f 08 08 08 36 00 00 00 00 00 00 00 00  )..?...6........
	0x0020 00 00 00 00 00 00 00 00 00 00 00 00 00 00 00 00  ................
	0x0030 00 00 00 00 00 00 00 00                          ........
	rel 24+8 t=1 runtime.memequal64·f<0>+0
	rel 32+8 t=1 runtime.gcbits.0100000000000000<0>+0
	rel 40+4 t=5 type:.namedata.*[8]int8-<0>+0
	rel 48+8 t=1 type:noalg.[8]int8<0>+0
type:noalg.[8]int8<0> SRODATA dupok size=72
	0x0000 08 00 00 00 00 00 00 00 00 00 00 00 00 00 00 00  ................
	0x0010 b2 e3 cc 22 02 01 01 11 00 00 00 00 00 00 00 00  ..."............
	0x0020 00 00 00 00 00 00 00 00 00 00 00 00 00 00 00 00  ................
	0x0030 00 00 00 00 00 00 00 00 00 00 00 00 00 00 00 00  ................
	0x0040 08 00 00 00 00 00 00 00                          ........
	rel 32+8 t=1 runtime.gcbits.<0>+0
	rel 40+4 t=5 type:.namedata.*[8]int8-<0>+0
	rel 44+4 t=-32763 type:*[8]int8<0>+0
	rel 48+8 t=1 type:int8<0>+0
	rel 56+8 t=1 type:[]int8<0>+0
type:.namedata.*[][]int8-<0> SRODATA dupok size=11
	0x0000 00 09 2a 5b 5d 5b 5d 69 6e 74 38                 ..*[][]int8
type:*[][]int8<0> SRODATA dupok size=56
	0x0000 08 00 00 00 00 00 00 00 08 00 00 00 00 00 00 00  ................
	0x0010 d0 8a e6 59 08 08 08 36 00 00 00 00 00 00 00 00  ...Y...6........
	0x0020 00 00 00 00 00 00 00 00 00 00 00 00 00 00 00 00  ................
	0x0030 00 00 00 00 00 00 00 00                          ........
	rel 24+8 t=1 runtime.memequal64·f<0>+0
	rel 32+8 t=1 runtime.gcbits.0100000000000000<0>+0
	rel 40+4 t=5 type:.namedata.*[][]int8-<0>+0
	rel 48+8 t=1 type:[][]int8<0>+0
type:[][]int8<0> SRODATA dupok size=56
	0x0000 18 00 00 00 00 00 00 00 08 00 00 00 00 00 00 00  ................
	0x0010 af 0c c5 44 02 08 08 17 00 00 00 00 00 00 00 00  ...D............
	0x0020 00 00 00 00 00 00 00 00 00 00 00 00 00 00 00 00  ................
	0x0030 00 00 00 00 00 00 00 00                          ........
	rel 32+8 t=1 runtime.gcbits.0100000000000000<0>+0
	rel 40+4 t=5 type:.namedata.*[][]int8-<0>+0
	rel 44+4 t=-32763 type:*[][]int8<0>+0
	rel 48+8 t=1 type:[]int8<0>+0
type:.namedata.*[8][]int8-<0> SRODATA dupok size=12
	0x0000 00 0a 2a 5b 38 5d 5b 5d 69 6e 74 38              ..*[8][]int8
type:*[8][]int8<0> SRODATA dupok size=56
	0x0000 08 00 00 00 00 00 00 00 08 00 00 00 00 00 00 00  ................
	0x0010 0e 8d 87 4e 08 08 08 36 00 00 00 00 00 00 00 00  ...N...6........
	0x0020 00 00 00 00 00 00 00 00 00 00 00 00 00 00 00 00  ................
	0x0030 00 00 00 00 00 00 00 00                          ........
	rel 24+8 t=1 runtime.memequal64·f<0>+0
	rel 32+8 t=1 runtime.gcbits.0100000000000000<0>+0
	rel 40+4 t=5 type:.namedata.*[8][]int8-<0>+0
	rel 48+8 t=1 type:noalg.[8][]int8<0>+0
type:noalg.[8][]int8<0> SRODATA dupok size=72
	0x0000 c0 00 00 00 00 00 00 00 b0 00 00 00 00 00 00 00  ................
	0x0010 7c 30 e0 99 02 08 08 11 00 00 00 00 00 00 00 00  |0..............
	0x0020 00 00 00 00 00 00 00 00 00 00 00 00 00 00 00 00  ................
	0x0030 00 00 00 00 00 00 00 00 00 00 00 00 00 00 00 00  ................
	0x0040 08 00 00 00 00 00 00 00                          ........
	rel 32+8 t=1 runtime.gcbits.4992240000000000<0>+0
	rel 40+4 t=5 type:.namedata.*[8][]int8-<0>+0
	rel 44+4 t=-32763 type:*[8][]int8<0>+0
	rel 48+8 t=1 type:[]int8<0>+0
	rel 56+8 t=1 type:[][]int8<0>+0
type:.namedata.*map.bucket[int8][]int8-<0> SRODATA dupok size=25
	0x0000 00 17 2a 6d 61 70 2e 62 75 63 6b 65 74 5b 69 6e  ..*map.bucket[in
	0x0010 74 38 5d 5b 5d 69 6e 74 38                       t8][]int8
type:*map.bucket[int8][]int8<0> SRODATA dupok size=56
	0x0000 08 00 00 00 00 00 00 00 08 00 00 00 00 00 00 00  ................
	0x0010 52 3d ba ac 08 08 08 36 00 00 00 00 00 00 00 00  R=.....6........
	0x0020 00 00 00 00 00 00 00 00 00 00 00 00 00 00 00 00  ................
	0x0030 00 00 00 00 00 00 00 00                          ........
	rel 24+8 t=1 runtime.memequal64·f<0>+0
	rel 32+8 t=1 runtime.gcbits.0100000000000000<0>+0
	rel 40+4 t=5 type:.namedata.*map.bucket[int8][]int8-<0>+0
	rel 48+8 t=1 type:noalg.map.bucket[int8][]int8<0>+0
runtime.gcbits.2449920400000000<0> SRODATA dupok size=8
	0x0000 24 49 92 04 00 00 00 00                          $I......
type:noalg.map.bucket[int8][]int8<0> SRODATA dupok size=176
	0x0000 d8 00 00 00 00 00 00 00 d8 00 00 00 00 00 00 00  ................
	0x0010 59 ee 0b db 02 08 08 19 00 00 00 00 00 00 00 00  Y...............
	0x0020 00 00 00 00 00 00 00 00 00 00 00 00 00 00 00 00  ................
	0x0030 00 00 00 00 00 00 00 00 00 00 00 00 00 00 00 00  ................
	0x0040 04 00 00 00 00 00 00 00 04 00 00 00 00 00 00 00  ................
	0x0050 00 00 00 00 00 00 00 00 00 00 00 00 00 00 00 00  ................
	0x0060 00 00 00 00 00 00 00 00 00 00 00 00 00 00 00 00  ................
	0x0070 00 00 00 00 00 00 00 00 08 00 00 00 00 00 00 00  ................
	0x0080 00 00 00 00 00 00 00 00 00 00 00 00 00 00 00 00  ................
	0x0090 10 00 00 00 00 00 00 00 00 00 00 00 00 00 00 00  ................
	0x00a0 00 00 00 00 00 00 00 00 d0 00 00 00 00 00 00 00  ................
	rel 32+8 t=1 runtime.gcbits.2449920400000000<0>+0
	rel 40+4 t=5 type:.namedata.*map.bucket[int8][]int8-<0>+0
	rel 44+4 t=-32763 type:*map.bucket[int8][]int8<0>+0
	rel 48+8 t=1 type:.importpath..<0>+0
	rel 56+8 t=1 type:noalg.map.bucket[int8][]int8<0>+80
	rel 80+8 t=1 type:.namedata.topbits-<0>+0
	rel 88+8 t=1 type:[8]uint8<0>+0
	rel 104+8 t=1 type:.namedata.keys-<0>+0
	rel 112+8 t=1 type:noalg.[8]int8<0>+0
	rel 128+8 t=1 type:.namedata.elems-<0>+0
	rel 136+8 t=1 type:noalg.[8][]int8<0>+0
	rel 152+8 t=1 type:.namedata.overflow-<0>+0
	rel 160+8 t=1 type:unsafe.Pointer<0>+0
runtime.memhash8·f<0> SRODATA dupok size=8
	0x0000 00 00 00 00 00 00 00 00                          ........
	rel 0+8 t=1 runtime.memhash8<1>+0
type:.namedata.*map[int8][]int8-<0> SRODATA dupok size=18
	0x0000 00 10 2a 6d 61 70 5b 69 6e 74 38 5d 5b 5d 69 6e  ..*map[int8][]in
	0x0010 74 38                                            t8
type:*map[int8][]int8<0> SRODATA dupok size=56
	0x0000 08 00 00 00 00 00 00 00 08 00 00 00 00 00 00 00  ................
	0x0010 f5 97 db a4 08 08 08 36 00 00 00 00 00 00 00 00  .......6........
	0x0020 00 00 00 00 00 00 00 00 00 00 00 00 00 00 00 00  ................
	0x0030 00 00 00 00 00 00 00 00                          ........
	rel 24+8 t=1 runtime.memequal64·f<0>+0
	rel 32+8 t=1 runtime.gcbits.0100000000000000<0>+0
	rel 40+4 t=5 type:.namedata.*map[int8][]int8-<0>+0
	rel 48+8 t=1 type:map[int8][]int8<0>+0
type:map[int8][]int8<0> SRODATA dupok size=88
	0x0000 08 00 00 00 00 00 00 00 08 00 00 00 00 00 00 00  ................
	0x0010 ac a5 3c 63 02 08 08 35 00 00 00 00 00 00 00 00  ..<c...5........
	0x0020 00 00 00 00 00 00 00 00 00 00 00 00 00 00 00 00  ................
	0x0030 00 00 00 00 00 00 00 00 00 00 00 00 00 00 00 00  ................
	0x0040 00 00 00 00 00 00 00 00 00 00 00 00 00 00 00 00  ................
	0x0050 01 18 d8 00 04 00 00 00                          ........
	rel 32+8 t=1 runtime.gcbits.0100000000000000<0>+0
	rel 40+4 t=5 type:.namedata.*map[int8][]int8-<0>+0
	rel 44+4 t=-32763 type:*map[int8][]int8<0>+0
	rel 48+8 t=1 type:int8<0>+0
	rel 56+8 t=1 type:[]int8<0>+0
	rel 64+8 t=1 type:noalg.map.bucket[int8][]int8<0>+0
	rel 72+8 t=1 runtime.memhash8·f<0>+0
type:.namedata.*map.bucket[int8]int8-<0> SRODATA dupok size=23
	0x0000 00 15 2a 6d 61 70 2e 62 75 63 6b 65 74 5b 69 6e  ..*map.bucket[in
	0x0010 74 38 5d 69 6e 74 38                             t8]int8
type:*map.bucket[int8]int8<0> SRODATA dupok size=56
	0x0000 08 00 00 00 00 00 00 00 08 00 00 00 00 00 00 00  ................
	0x0010 8a e5 3c 88 08 08 08 36 00 00 00 00 00 00 00 00  ..<....6........
	0x0020 00 00 00 00 00 00 00 00 00 00 00 00 00 00 00 00  ................
	0x0030 00 00 00 00 00 00 00 00                          ........
	rel 24+8 t=1 runtime.memequal64·f<0>+0
	rel 32+8 t=1 runtime.gcbits.0100000000000000<0>+0
	rel 40+4 t=5 type:.namedata.*map.bucket[int8]int8-<0>+0
	rel 48+8 t=1 type:noalg.map.bucket[int8]int8<0>+0
type:noalg.map.bucket[int8]int8<0> SRODATA dupok size=176
	0x0000 20 00 00 00 00 00 00 00 00 00 00 00 00 00 00 00   ...............
	0x0010 d8 c3 eb 64 02 08 08 19 00 00 00 00 00 00 00 00  ...d............
	0x0020 00 00 00 00 00 00 00 00 00 00 00 00 00 00 00 00  ................
	0x0030 00 00 00 00 00 00 00 00 00 00 00 00 00 00 00 00  ................
	0x0040 04 00 00 00 00 00 00 00 04 00 00 00 00 00 00 00  ................
	0x0050 00 00 00 00 00 00 00 00 00 00 00 00 00 00 00 00  ................
	0x0060 00 00 00 00 00 00 00 00 00 00 00 00 00 00 00 00  ................
	0x0070 00 00 00 00 00 00 00 00 08 00 00 00 00 00 00 00  ................
	0x0080 00 00 00 00 00 00 00 00 00 00 00 00 00 00 00 00  ................
	0x0090 10 00 00 00 00 00 00 00 00 00 00 00 00 00 00 00  ................
	0x00a0 00 00 00 00 00 00 00 00 18 00 00 00 00 00 00 00  ................
	rel 32+8 t=1 runtime.gcbits.<0>+0
	rel 40+4 t=5 type:.namedata.*map.bucket[int8]int8-<0>+0
	rel 44+4 t=-32763 type:*map.bucket[int8]int8<0>+0
	rel 48+8 t=1 type:.importpath..<0>+0
	rel 56+8 t=1 type:noalg.map.bucket[int8]int8<0>+80
	rel 80+8 t=1 type:.namedata.topbits-<0>+0
	rel 88+8 t=1 type:[8]uint8<0>+0
	rel 104+8 t=1 type:.namedata.keys-<0>+0
	rel 112+8 t=1 type:noalg.[8]int8<0>+0
	rel 128+8 t=1 type:.namedata.elems-<0>+0
	rel 136+8 t=1 type:noalg.[8]int8<0>+0
	rel 152+8 t=1 type:.namedata.overflow-<0>+0
	rel 160+8 t=1 type:uintptr<0>+0
type:.namedata.*map[int8]int8-<0> SRODATA dupok size=16
	0x0000 00 0e 2a 6d 61 70 5b 69 6e 74 38 5d 69 6e 74 38  ..*map[int8]int8
type:*map[int8]int8<0> SRODATA dupok size=56
	0x0000 08 00 00 00 00 00 00 00 08 00 00 00 00 00 00 00  ................
	0x0010 cb 33 0c 33 08 08 08 36 00 00 00 00 00 00 00 00  .3.3...6........
	0x0020 00 00 00 00 00 00 00 00 00 00 00 00 00 00 00 00  ................
	0x0030 00 00 00 00 00 00 00 00                          ........
	rel 24+8 t=1 runtime.memequal64·f<0>+0
	rel 32+8 t=1 runtime.gcbits.0100000000000000<0>+0
	rel 40+4 t=5 type:.namedata.*map[int8]int8-<0>+0
	rel 48+8 t=1 type:map[int8]int8<0>+0
type:map[int8]int8<0> SRODATA dupok size=88
	0x0000 08 00 00 00 00 00 00 00 08 00 00 00 00 00 00 00  ................
	0x0010 31 e7 19 b5 02 08 08 35 00 00 00 00 00 00 00 00  1......5........
	0x0020 00 00 00 00 00 00 00 00 00 00 00 00 00 00 00 00  ................
	0x0030 00 00 00 00 00 00 00 00 00 00 00 00 00 00 00 00  ................
	0x0040 00 00 00 00 00 00 00 00 00 00 00 00 00 00 00 00  ................
	0x0050 01 01 20 00 04 00 00 00                          .. .....
	rel 32+8 t=1 runtime.gcbits.0100000000000000<0>+0
	rel 40+4 t=5 type:.namedata.*map[int8]int8-<0>+0
	rel 44+4 t=-32763 type:*map[int8]int8<0>+0
	rel 48+8 t=1 type:int8<0>+0
	rel 56+8 t=1 type:int8<0>+0
	rel 64+8 t=1 type:noalg.map.bucket[int8]int8<0>+0
	rel 72+8 t=1 runtime.memhash8·f<0>+0
type:.namedata.*[8]string-<0> SRODATA dupok size=12
	0x0000 00 0a 2a 5b 38 5d 73 74 72 69 6e 67              ..*[8]string
type:*[8]string<0> SRODATA dupok size=56
	0x0000 08 00 00 00 00 00 00 00 08 00 00 00 00 00 00 00  ................
	0x0010 e3 bf d7 63 08 08 08 36 00 00 00 00 00 00 00 00  ...c...6........
	0x0020 00 00 00 00 00 00 00 00 00 00 00 00 00 00 00 00  ................
	0x0030 00 00 00 00 00 00 00 00                          ........
	rel 24+8 t=1 runtime.memequal64·f<0>+0
	rel 32+8 t=1 runtime.gcbits.0100000000000000<0>+0
	rel 40+4 t=5 type:.namedata.*[8]string-<0>+0
	rel 48+8 t=1 type:noalg.[8]string<0>+0
runtime.gcbits.5555000000000000<0> SRODATA dupok size=8
	0x0000 55 55 00 00 00 00 00 00                          UU......
type:noalg.[8]string<0> SRODATA dupok size=72
	0x0000 80 00 00 00 00 00 00 00 78 00 00 00 00 00 00 00  ........x.......
	0x0010 0c 1c ff 04 02 08 08 11 00 00 00 00 00 00 00 00  ................
	0x0020 00 00 00 00 00 00 00 00 00 00 00 00 00 00 00 00  ................
	0x0030 00 00 00 00 00 00 00 00 00 00 00 00 00 00 00 00  ................
	0x0040 08 00 00 00 00 00 00 00                          ........
	rel 32+8 t=1 runtime.gcbits.5555000000000000<0>+0
	rel 40+4 t=5 type:.namedata.*[8]string-<0>+0
	rel 44+4 t=-32763 type:*[8]string<0>+0
	rel 48+8 t=1 type:string<0>+0
	rel 56+8 t=1 type:[]string<0>+0
type:.namedata.*[][]string-<0> SRODATA dupok size=13
	0x0000 00 0b 2a 5b 5d 5b 5d 73 74 72 69 6e 67           ..*[][]string
type:*[][]string<0> SRODATA dupok size=56
	0x0000 08 00 00 00 00 00 00 00 08 00 00 00 00 00 00 00  ................
	0x0010 d3 48 0f da 08 08 08 36 00 00 00 00 00 00 00 00  .H.....6........
	0x0020 00 00 00 00 00 00 00 00 00 00 00 00 00 00 00 00  ................
	0x0030 00 00 00 00 00 00 00 00                          ........
	rel 24+8 t=1 runtime.memequal64·f<0>+0
	rel 32+8 t=1 runtime.gcbits.0100000000000000<0>+0
	rel 40+4 t=5 type:.namedata.*[][]string-<0>+0
	rel 48+8 t=1 type:[][]string<0>+0
type:[][]string<0> SRODATA dupok size=56
	0x0000 18 00 00 00 00 00 00 00 08 00 00 00 00 00 00 00  ................
	0x0010 44 22 2e 62 02 08 08 17 00 00 00 00 00 00 00 00  D".b............
	0x0020 00 00 00 00 00 00 00 00 00 00 00 00 00 00 00 00  ................
	0x0030 00 00 00 00 00 00 00 00                          ........
	rel 32+8 t=1 runtime.gcbits.0100000000000000<0>+0
	rel 40+4 t=5 type:.namedata.*[][]string-<0>+0
	rel 44+4 t=-32763 type:*[][]string<0>+0
	rel 48+8 t=1 type:[]string<0>+0
type:.namedata.*[8][]string-<0> SRODATA dupok size=14
	0x0000 00 0c 2a 5b 38 5d 5b 5d 73 74 72 69 6e 67        ..*[8][]string
type:*[8][]string<0> SRODATA dupok size=56
	0x0000 08 00 00 00 00 00 00 00 08 00 00 00 00 00 00 00  ................
	0x0010 16 f3 0b bf 08 08 08 36 00 00 00 00 00 00 00 00  .......6........
	0x0020 00 00 00 00 00 00 00 00 00 00 00 00 00 00 00 00  ................
	0x0030 00 00 00 00 00 00 00 00                          ........
	rel 24+8 t=1 runtime.memequal64·f<0>+0
	rel 32+8 t=1 runtime.gcbits.0100000000000000<0>+0
	rel 40+4 t=5 type:.namedata.*[8][]string-<0>+0
	rel 48+8 t=1 type:noalg.[8][]string<0>+0
type:noalg.[8][]string<0> SRODATA dupok size=72
	0x0000 c0 00 00 00 00 00 00 00 b0 00 00 00 00 00 00 00  ................
	0x0010 3b 07 0b 1c 02 08 08 11 00 00 00 00 00 00 00 00  ;...............
	0x0020 00 00 00 00 00 00 00 00 00 00 00 00 00 00 00 00  ................
	0x0030 00 00 00 00 00 00 00 00 00 00 00 00 00 00 00 00  ................
	0x0040 08 00 00 00 00 00 00 00                          ........
	rel 32+8 t=1 runtime.gcbits.4992240000000000<0>+0
	rel 40+4 t=5 type:.namedata.*[8][]string-<0>+0
	rel 44+4 t=-32763 type:*[8][]string<0>+0
	rel 48+8 t=1 type:[]string<0>+0
	rel 56+8 t=1 type:[][]string<0>+0
type:.namedata.*map.bucket[string][]string-<0> SRODATA dupok size=29
	0x0000 00 1b 2a 6d 61 70 2e 62 75 63 6b 65 74 5b 73 74  ..*map.bucket[st
	0x0010 72 69 6e 67 5d 5b 5d 73 74 72 69 6e 67           ring][]string
type:*map.bucket[string][]string<0> SRODATA dupok size=56
	0x0000 08 00 00 00 00 00 00 00 08 00 00 00 00 00 00 00  ................
	0x0010 94 ad 0c ff 08 08 08 36 00 00 00 00 00 00 00 00  .......6........
	0x0020 00 00 00 00 00 00 00 00 00 00 00 00 00 00 00 00  ................
	0x0030 00 00 00 00 00 00 00 00                          ........
	rel 24+8 t=1 runtime.memequal64·f<0>+0
	rel 32+8 t=1 runtime.gcbits.0100000000000000<0>+0
	rel 40+4 t=5 type:.namedata.*map.bucket[string][]string-<0>+0
	rel 48+8 t=1 type:noalg.map.bucket[string][]string<0>+0
runtime.gcbits.aaaa922449020000<0> SRODATA dupok size=8
	0x0000 aa aa 92 24 49 02 00 00                          ...$I...
type:noalg.map.bucket[string][]string<0> SRODATA dupok size=176
	0x0000 50 01 00 00 00 00 00 00 50 01 00 00 00 00 00 00  P.......P.......
	0x0010 28 87 60 f0 02 08 08 19 00 00 00 00 00 00 00 00  (.`.............
	0x0020 00 00 00 00 00 00 00 00 00 00 00 00 00 00 00 00  ................
	0x0030 00 00 00 00 00 00 00 00 00 00 00 00 00 00 00 00  ................
	0x0040 04 00 00 00 00 00 00 00 04 00 00 00 00 00 00 00  ................
	0x0050 00 00 00 00 00 00 00 00 00 00 00 00 00 00 00 00  ................
	0x0060 00 00 00 00 00 00 00 00 00 00 00 00 00 00 00 00  ................
	0x0070 00 00 00 00 00 00 00 00 08 00 00 00 00 00 00 00  ................
	0x0080 00 00 00 00 00 00 00 00 00 00 00 00 00 00 00 00  ................
	0x0090 88 00 00 00 00 00 00 00 00 00 00 00 00 00 00 00  ................
	0x00a0 00 00 00 00 00 00 00 00 48 01 00 00 00 00 00 00  ........H.......
	rel 32+8 t=1 runtime.gcbits.aaaa922449020000<0>+0
	rel 40+4 t=5 type:.namedata.*map.bucket[string][]string-<0>+0
	rel 44+4 t=-32763 type:*map.bucket[string][]string<0>+0
	rel 48+8 t=1 type:.importpath..<0>+0
	rel 56+8 t=1 type:noalg.map.bucket[string][]string<0>+80
	rel 80+8 t=1 type:.namedata.topbits-<0>+0
	rel 88+8 t=1 type:[8]uint8<0>+0
	rel 104+8 t=1 type:.namedata.keys-<0>+0
	rel 112+8 t=1 type:noalg.[8]string<0>+0
	rel 128+8 t=1 type:.namedata.elems-<0>+0
	rel 136+8 t=1 type:noalg.[8][]string<0>+0
	rel 152+8 t=1 type:.namedata.overflow-<0>+0
	rel 160+8 t=1 type:unsafe.Pointer<0>+0
runtime.strhash·f<0> SRODATA dupok size=8
	0x0000 00 00 00 00 00 00 00 00                          ........
	rel 0+8 t=1 runtime.strhash<1>+0
type:.namedata.*map[string][]string-<0> SRODATA dupok size=22
	0x0000 00 14 2a 6d 61 70 5b 73 74 72 69 6e 67 5d 5b 5d  ..*map[string][]
	0x0010 73 74 72 69 6e 67                                string
type:*map[string][]string<0> SRODATA dupok size=56
	0x0000 08 00 00 00 00 00 00 00 08 00 00 00 00 00 00 00  ................
	0x0010 7f a2 2c d1 08 08 08 36 00 00 00 00 00 00 00 00  ..,....6........
	0x0020 00 00 00 00 00 00 00 00 00 00 00 00 00 00 00 00  ................
	0x0030 00 00 00 00 00 00 00 00                          ........
	rel 24+8 t=1 runtime.memequal64·f<0>+0
	rel 32+8 t=1 runtime.gcbits.0100000000000000<0>+0
	rel 40+4 t=5 type:.namedata.*map[string][]string-<0>+0
	rel 48+8 t=1 type:map[string][]string<0>+0
type:map[string][]string<0> SRODATA dupok size=88
	0x0000 08 00 00 00 00 00 00 00 08 00 00 00 00 00 00 00  ................
	0x0010 3b 6c 42 47 02 08 08 35 00 00 00 00 00 00 00 00  ;lBG...5........
	0x0020 00 00 00 00 00 00 00 00 00 00 00 00 00 00 00 00  ................
	0x0030 00 00 00 00 00 00 00 00 00 00 00 00 00 00 00 00  ................
	0x0040 00 00 00 00 00 00 00 00 00 00 00 00 00 00 00 00  ................
	0x0050 10 18 50 01 0c 00 00 00                          ..P.....
	rel 32+8 t=1 runtime.gcbits.0100000000000000<0>+0
	rel 40+4 t=5 type:.namedata.*map[string][]string-<0>+0
	rel 44+4 t=-32763 type:*map[string][]string<0>+0
	rel 48+8 t=1 type:string<0>+0
	rel 56+8 t=1 type:[]string<0>+0
	rel 64+8 t=1 type:noalg.map.bucket[string][]string<0>+0
	rel 72+8 t=1 runtime.strhash·f<0>+0
type:.namedata.*map.bucket[string]string-<0> SRODATA dupok size=27
	0x0000 00 19 2a 6d 61 70 2e 62 75 63 6b 65 74 5b 73 74  ..*map.bucket[st
	0x0010 72 69 6e 67 5d 73 74 72 69 6e 67                 ring]string
type:*map.bucket[string]string<0> SRODATA dupok size=56
	0x0000 08 00 00 00 00 00 00 00 08 00 00 00 00 00 00 00  ................
	0x0010 40 92 79 ff 08 08 08 36 00 00 00 00 00 00 00 00  @.y....6........
	0x0020 00 00 00 00 00 00 00 00 00 00 00 00 00 00 00 00  ................
	0x0030 00 00 00 00 00 00 00 00                          ........
	rel 24+8 t=1 runtime.memequal64·f<0>+0
	rel 32+8 t=1 runtime.gcbits.0100000000000000<0>+0
	rel 40+4 t=5 type:.namedata.*map.bucket[string]string-<0>+0
	rel 48+8 t=1 type:noalg.map.bucket[string]string<0>+0
runtime.gcbits.aaaaaaaa02000000<0> SRODATA dupok size=8
	0x0000 aa aa aa aa 02 00 00 00                          ........
type:noalg.map.bucket[string]string<0> SRODATA dupok size=176
	0x0000 10 01 00 00 00 00 00 00 10 01 00 00 00 00 00 00  ................
	0x0010 4d c0 63 4d 02 08 08 19 00 00 00 00 00 00 00 00  M.cM............
	0x0020 00 00 00 00 00 00 00 00 00 00 00 00 00 00 00 00  ................
	0x0030 00 00 00 00 00 00 00 00 00 00 00 00 00 00 00 00  ................
	0x0040 04 00 00 00 00 00 00 00 04 00 00 00 00 00 00 00  ................
	0x0050 00 00 00 00 00 00 00 00 00 00 00 00 00 00 00 00  ................
	0x0060 00 00 00 00 00 00 00 00 00 00 00 00 00 00 00 00  ................
	0x0070 00 00 00 00 00 00 00 00 08 00 00 00 00 00 00 00  ................
	0x0080 00 00 00 00 00 00 00 00 00 00 00 00 00 00 00 00  ................
	0x0090 88 00 00 00 00 00 00 00 00 00 00 00 00 00 00 00  ................
	0x00a0 00 00 00 00 00 00 00 00 08 01 00 00 00 00 00 00  ................
	rel 32+8 t=1 runtime.gcbits.aaaaaaaa02000000<0>+0
	rel 40+4 t=5 type:.namedata.*map.bucket[string]string-<0>+0
	rel 44+4 t=-32763 type:*map.bucket[string]string<0>+0
	rel 48+8 t=1 type:.importpath..<0>+0
	rel 56+8 t=1 type:noalg.map.bucket[string]string<0>+80
	rel 80+8 t=1 type:.namedata.topbits-<0>+0
	rel 88+8 t=1 type:[8]uint8<0>+0
	rel 104+8 t=1 type:.namedata.keys-<0>+0
	rel 112+8 t=1 type:noalg.[8]string<0>+0
	rel 128+8 t=1 type:.namedata.elems-<0>+0
	rel 136+8 t=1 type:noalg.[8]string<0>+0
	rel 152+8 t=1 type:.namedata.overflow-<0>+0
	rel 160+8 t=1 type:unsafe.Pointer<0>+0
type:.namedata.*map[string]string-<0> SRODATA dupok size=20
	0x0000 00 12 2a 6d 61 70 5b 73 74 72 69 6e 67 5d 73 74  ..*map[string]st
	0x0010 72 69 6e 67                                      ring
type:*map[string]string<0> SRODATA dupok size=56
	0x0000 08 00 00 00 00 00 00 00 08 00 00 00 00 00 00 00  ................
	0x0010 d8 6c ad 45 08 08 08 36 00 00 00 00 00 00 00 00  .l.E...6........
	0x0020 00 00 00 00 00 00 00 00 00 00 00 00 00 00 00 00  ................
	0x0030 00 00 00 00 00 00 00 00                          ........
	rel 24+8 t=1 runtime.memequal64·f<0>+0
	rel 32+8 t=1 runtime.gcbits.0100000000000000<0>+0
	rel 40+4 t=5 type:.namedata.*map[string]string-<0>+0
	rel 48+8 t=1 type:map[string]string<0>+0
type:map[string]string<0> SRODATA dupok size=88
	0x0000 08 00 00 00 00 00 00 00 08 00 00 00 00 00 00 00  ................
	0x0010 de 62 2b 92 02 08 08 35 00 00 00 00 00 00 00 00  .b+....5........
	0x0020 00 00 00 00 00 00 00 00 00 00 00 00 00 00 00 00  ................
	0x0030 00 00 00 00 00 00 00 00 00 00 00 00 00 00 00 00  ................
	0x0040 00 00 00 00 00 00 00 00 00 00 00 00 00 00 00 00  ................
	0x0050 10 10 10 01 0c 00 00 00                          ........
	rel 32+8 t=1 runtime.gcbits.0100000000000000<0>+0
	rel 40+4 t=5 type:.namedata.*map[string]string-<0>+0
	rel 44+4 t=-32763 type:*map[string]string<0>+0
	rel 48+8 t=1 type:string<0>+0
	rel 56+8 t=1 type:string<0>+0
	rel 64+8 t=1 type:noalg.map.bucket[string]string<0>+0
	rel 72+8 t=1 runtime.strhash·f<0>+0
type:.namedata.*map.hdr[complex128][]complex128-<0> SRODATA dupok size=34
	0x0000 00 20 2a 6d 61 70 2e 68 64 72 5b 63 6f 6d 70 6c  . *map.hdr[compl
	0x0010 65 78 31 32 38 5d 5b 5d 63 6f 6d 70 6c 65 78 31  ex128][]complex1
	0x0020 32 38                                            28
type:*map.hdr[complex128][]complex128<0> SRODATA dupok size=56
	0x0000 08 00 00 00 00 00 00 00 08 00 00 00 00 00 00 00  ................
	0x0010 48 60 84 f8 08 08 08 36 00 00 00 00 00 00 00 00  H`.....6........
	0x0020 00 00 00 00 00 00 00 00 00 00 00 00 00 00 00 00  ................
	0x0030 00 00 00 00 00 00 00 00                          ........
	rel 24+8 t=1 runtime.memequal64·f<0>+0
	rel 32+8 t=1 runtime.gcbits.0100000000000000<0>+0
	rel 40+4 t=5 type:.namedata.*map.hdr[complex128][]complex128-<0>+0
	rel 48+8 t=1 type:noalg.map.hdr[complex128][]complex128<0>+0
runtime.gcbits.2c00000000000000<0> SRODATA dupok size=8
	0x0000 2c 00 00 00 00 00 00 00                          ,.......
type:.namedata.count-<0> SRODATA dupok size=7
	0x0000 00 05 63 6f 75 6e 74                             ..count
type:.namedata.flags-<0> SRODATA dupok size=7
	0x0000 00 05 66 6c 61 67 73                             ..flags
type:.namedata.B.<0> SRODATA dupok size=3
	0x0000 01 01 42                                         ..B
type:.namedata.noverflow-<0> SRODATA dupok size=11
	0x0000 00 09 6e 6f 76 65 72 66 6c 6f 77                 ..noverflow
type:.namedata.hash0-<0> SRODATA dupok size=7
	0x0000 00 05 68 61 73 68 30                             ..hash0
type:.namedata.buckets-<0> SRODATA dupok size=9
	0x0000 00 07 62 75 63 6b 65 74 73                       ..buckets
type:.namedata.oldbuckets-<0> SRODATA dupok size=12
	0x0000 00 0a 6f 6c 64 62 75 63 6b 65 74 73              ..oldbuckets
type:.namedata.nevacuate-<0> SRODATA dupok size=11
	0x0000 00 09 6e 65 76 61 63 75 61 74 65                 ..nevacuate
type:.namedata.extra-<0> SRODATA dupok size=7
	0x0000 00 05 65 78 74 72 61                             ..extra
type:noalg.map.hdr[complex128][]complex128<0> SRODATA dupok size=296
	0x0000 30 00 00 00 00 00 00 00 30 00 00 00 00 00 00 00  0.......0.......
	0x0010 42 20 85 f3 02 08 08 19 00 00 00 00 00 00 00 00  B ..............
	0x0020 00 00 00 00 00 00 00 00 00 00 00 00 00 00 00 00  ................
	0x0030 00 00 00 00 00 00 00 00 00 00 00 00 00 00 00 00  ................
	0x0040 09 00 00 00 00 00 00 00 09 00 00 00 00 00 00 00  ................
	0x0050 00 00 00 00 00 00 00 00 00 00 00 00 00 00 00 00  ................
	0x0060 00 00 00 00 00 00 00 00 00 00 00 00 00 00 00 00  ................
	0x0070 00 00 00 00 00 00 00 00 08 00 00 00 00 00 00 00  ................
	0x0080 00 00 00 00 00 00 00 00 00 00 00 00 00 00 00 00  ................
	0x0090 09 00 00 00 00 00 00 00 00 00 00 00 00 00 00 00  ................
	0x00a0 00 00 00 00 00 00 00 00 0a 00 00 00 00 00 00 00  ................
	0x00b0 00 00 00 00 00 00 00 00 00 00 00 00 00 00 00 00  ................
	0x00c0 0c 00 00 00 00 00 00 00 00 00 00 00 00 00 00 00  ................
	0x00d0 00 00 00 00 00 00 00 00 10 00 00 00 00 00 00 00  ................
	0x00e0 00 00 00 00 00 00 00 00 00 00 00 00 00 00 00 00  ................
	0x00f0 18 00 00 00 00 00 00 00 00 00 00 00 00 00 00 00  ................
	0x0100 00 00 00 00 00 00 00 00 20 00 00 00 00 00 00 00  ........ .......
	0x0110 00 00 00 00 00 00 00 00 00 00 00 00 00 00 00 00  ................
	0x0120 28 00 00 00 00 00 00 00                          (.......
	rel 32+8 t=1 runtime.gcbits.2c00000000000000<0>+0
	rel 40+4 t=5 type:.namedata.*map.hdr[complex128][]complex128-<0>+0
	rel 44+4 t=-32763 type:*map.hdr[complex128][]complex128<0>+0
	rel 48+8 t=1 type:.importpath..<0>+0
	rel 56+8 t=1 type:noalg.map.hdr[complex128][]complex128<0>+80
	rel 80+8 t=1 type:.namedata.count-<0>+0
	rel 88+8 t=1 type:int<0>+0
	rel 104+8 t=1 type:.namedata.flags-<0>+0
	rel 112+8 t=1 type:uint8<0>+0
	rel 128+8 t=1 type:.namedata.B.<0>+0
	rel 136+8 t=1 type:uint8<0>+0
	rel 152+8 t=1 type:.namedata.noverflow-<0>+0
	rel 160+8 t=1 type:uint16<0>+0
	rel 176+8 t=1 type:.namedata.hash0-<0>+0
	rel 184+8 t=1 type:uint32<0>+0
	rel 200+8 t=1 type:.namedata.buckets-<0>+0
	rel 208+8 t=1 type:*map.bucket[complex128][]complex128<0>+0
	rel 224+8 t=1 type:.namedata.oldbuckets-<0>+0
	rel 232+8 t=1 type:*map.bucket[complex128][]complex128<0>+0
	rel 248+8 t=1 type:.namedata.nevacuate-<0>+0
	rel 256+8 t=1 type:uintptr<0>+0
	rel 272+8 t=1 type:.namedata.extra-<0>+0
	rel 280+8 t=1 type:unsafe.Pointer<0>+0
type:.namedata.*map.hdr[complex128]complex128-<0> SRODATA dupok size=32
	0x0000 00 1e 2a 6d 61 70 2e 68 64 72 5b 63 6f 6d 70 6c  ..*map.hdr[compl
	0x0010 65 78 31 32 38 5d 63 6f 6d 70 6c 65 78 31 32 38  ex128]complex128
type:*map.hdr[complex128]complex128<0> SRODATA dupok size=56
	0x0000 08 00 00 00 00 00 00 00 08 00 00 00 00 00 00 00  ................
	0x0010 1f 6c ad bd 08 08 08 36 00 00 00 00 00 00 00 00  .l.....6........
	0x0020 00 00 00 00 00 00 00 00 00 00 00 00 00 00 00 00  ................
	0x0030 00 00 00 00 00 00 00 00                          ........
	rel 24+8 t=1 runtime.memequal64·f<0>+0
	rel 32+8 t=1 runtime.gcbits.0100000000000000<0>+0
	rel 40+4 t=5 type:.namedata.*map.hdr[complex128]complex128-<0>+0
	rel 48+8 t=1 type:noalg.map.hdr[complex128]complex128<0>+0
type:noalg.map.hdr[complex128]complex128<0> SRODATA dupok size=296
	0x0000 30 00 00 00 00 00 00 00 30 00 00 00 00 00 00 00  0.......0.......
	0x0010 f2 96 7d f9 02 08 08 19 00 00 00 00 00 00 00 00  ..}.............
	0x0020 00 00 00 00 00 00 00 00 00 00 00 00 00 00 00 00  ................
	0x0030 00 00 00 00 00 00 00 00 00 00 00 00 00 00 00 00  ................
	0x0040 09 00 00 00 00 00 00 00 09 00 00 00 00 00 00 00  ................
	0x0050 00 00 00 00 00 00 00 00 00 00 00 00 00 00 00 00  ................
	0x0060 00 00 00 00 00 00 00 00 00 00 00 00 00 00 00 00  ................
	0x0070 00 00 00 00 00 00 00 00 08 00 00 00 00 00 00 00  ................
	0x0080 00 00 00 00 00 00 00 00 00 00 00 00 00 00 00 00  ................
	0x0090 09 00 00 00 00 00 00 00 00 00 00 00 00 00 00 00  ................
	0x00a0 00 00 00 00 00 00 00 00 0a 00 00 00 00 00 00 00  ................
	0x00b0 00 00 00 00 00 00 00 00 00 00 00 00 00 00 00 00  ................
	0x00c0 0c 00 00 00 00 00 00 00 00 00 00 00 00 00 00 00  ................
	0x00d0 00 00 00 00 00 00 00 00 10 00 00 00 00 00 00 00  ................
	0x00e0 00 00 00 00 00 00 00 00 00 00 00 00 00 00 00 00  ................
	0x00f0 18 00 00 00 00 00 00 00 00 00 00 00 00 00 00 00  ................
	0x0100 00 00 00 00 00 00 00 00 20 00 00 00 00 00 00 00  ........ .......
	0x0110 00 00 00 00 00 00 00 00 00 00 00 00 00 00 00 00  ................
	0x0120 28 00 00 00 00 00 00 00                          (.......
	rel 32+8 t=1 runtime.gcbits.2c00000000000000<0>+0
	rel 40+4 t=5 type:.namedata.*map.hdr[complex128]complex128-<0>+0
	rel 44+4 t=-32763 type:*map.hdr[complex128]complex128<0>+0
	rel 48+8 t=1 type:.importpath..<0>+0
	rel 56+8 t=1 type:noalg.map.hdr[complex128]complex128<0>+80
	rel 80+8 t=1 type:.namedata.count-<0>+0
	rel 88+8 t=1 type:int<0>+0
	rel 104+8 t=1 type:.namedata.flags-<0>+0
	rel 112+8 t=1 type:uint8<0>+0
	rel 128+8 t=1 type:.namedata.B.<0>+0
	rel 136+8 t=1 type:uint8<0>+0
	rel 152+8 t=1 type:.namedata.noverflow-<0>+0
	rel 160+8 t=1 type:uint16<0>+0
	rel 176+8 t=1 type:.namedata.hash0-<0>+0
	rel 184+8 t=1 type:uint32<0>+0
	rel 200+8 t=1 type:.namedata.buckets-<0>+0
	rel 208+8 t=1 type:*map.bucket[complex128]complex128<0>+0
	rel 224+8 t=1 type:.namedata.oldbuckets-<0>+0
	rel 232+8 t=1 type:*map.bucket[complex128]complex128<0>+0
	rel 248+8 t=1 type:.namedata.nevacuate-<0>+0
	rel 256+8 t=1 type:uintptr<0>+0
	rel 272+8 t=1 type:.namedata.extra-<0>+0
	rel 280+8 t=1 type:unsafe.Pointer<0>+0
type:.namedata.*map.hdr[int32][]int32-<0> SRODATA dupok size=24
	0x0000 00 16 2a 6d 61 70 2e 68 64 72 5b 69 6e 74 33 32  ..*map.hdr[int32
	0x0010 5d 5b 5d 69 6e 74 33 32                          ][]int32
type:*map.hdr[int32][]int32<0> SRODATA dupok size=56
	0x0000 08 00 00 00 00 00 00 00 08 00 00 00 00 00 00 00  ................
	0x0010 53 58 7c e8 08 08 08 36 00 00 00 00 00 00 00 00  SX|....6........
	0x0020 00 00 00 00 00 00 00 00 00 00 00 00 00 00 00 00  ................
	0x0030 00 00 00 00 00 00 00 00                          ........
	rel 24+8 t=1 runtime.memequal64·f<0>+0
	rel 32+8 t=1 runtime.gcbits.0100000000000000<0>+0
	rel 40+4 t=5 type:.namedata.*map.hdr[int32][]int32-<0>+0
	rel 48+8 t=1 type:noalg.map.hdr[int32][]int32<0>+0
type:noalg.map.hdr[int32][]int32<0> SRODATA dupok size=296
	0x0000 30 00 00 00 00 00 00 00 30 00 00 00 00 00 00 00  0.......0.......
	0x0010 1c 04 07 96 02 08 08 19 00 00 00 00 00 00 00 00  ................
	0x0020 00 00 00 00 00 00 00 00 00 00 00 00 00 00 00 00  ................
	0x0030 00 00 00 00 00 00 00 00 00 00 00 00 00 00 00 00  ................
	0x0040 09 00 00 00 00 00 00 00 09 00 00 00 00 00 00 00  ................
	0x0050 00 00 00 00 00 00 00 00 00 00 00 00 00 00 00 00  ................
	0x0060 00 00 00 00 00 00 00 00 00 00 00 00 00 00 00 00  ................
	0x0070 00 00 00 00 00 00 00 00 08 00 00 00 00 00 00 00  ................
	0x0080 00 00 00 00 00 00 00 00 00 00 00 00 00 00 00 00  ................
	0x0090 09 00 00 00 00 00 00 00 00 00 00 00 00 00 00 00  ................
	0x00a0 00 00 00 00 00 00 00 00 0a 00 00 00 00 00 00 00  ................
	0x00b0 00 00 00 00 00 00 00 00 00 00 00 00 00 00 00 00  ................
	0x00c0 0c 00 00 00 00 00 00 00 00 00 00 00 00 00 00 00  ................
	0x00d0 00 00 00 00 00 00 00 00 10 00 00 00 00 00 00 00  ................
	0x00e0 00 00 00 00 00 00 00 00 00 00 00 00 00 00 00 00  ................
	0x00f0 18 00 00 00 00 00 00 00 00 00 00 00 00 00 00 00  ................
	0x0100 00 00 00 00 00 00 00 00 20 00 00 00 00 00 00 00  ........ .......
	0x0110 00 00 00 00 00 00 00 00 00 00 00 00 00 00 00 00  ................
	0x0120 28 00 00 00 00 00 00 00                          (.......
	rel 32+8 t=1 runtime.gcbits.2c00000000000000<0>+0
	rel 40+4 t=5 type:.namedata.*map.hdr[int32][]int32-<0>+0
	rel 44+4 t=-32763 type:*map.hdr[int32][]int32<0>+0
	rel 48+8 t=1 type:.importpath..<0>+0
	rel 56+8 t=1 type:noalg.map.hdr[int32][]int32<0>+80
	rel 80+8 t=1 type:.namedata.count-<0>+0
	rel 88+8 t=1 type:int<0>+0
	rel 104+8 t=1 type:.namedata.flags-<0>+0
	rel 112+8 t=1 type:uint8<0>+0
	rel 128+8 t=1 type:.namedata.B.<0>+0
	rel 136+8 t=1 type:uint8<0>+0
	rel 152+8 t=1 type:.namedata.noverflow-<0>+0
	rel 160+8 t=1 type:uint16<0>+0
	rel 176+8 t=1 type:.namedata.hash0-<0>+0
	rel 184+8 t=1 type:uint32<0>+0
	rel 200+8 t=1 type:.namedata.buckets-<0>+0
	rel 208+8 t=1 type:*map.bucket[int32][]int32<0>+0
	rel 224+8 t=1 type:.namedata.oldbuckets-<0>+0
	rel 232+8 t=1 type:*map.bucket[int32][]int32<0>+0
	rel 248+8 t=1 type:.namedata.nevacuate-<0>+0
	rel 256+8 t=1 type:uintptr<0>+0
	rel 272+8 t=1 type:.namedata.extra-<0>+0
	rel 280+8 t=1 type:unsafe.Pointer<0>+0
type:.namedata.*map.hdr[int32]int32-<0> SRODATA dupok size=22
	0x0000 00 14 2a 6d 61 70 2e 68 64 72 5b 69 6e 74 33 32  ..*map.hdr[int32
	0x0010 5d 69 6e 74 33 32                                ]int32
type:*map.hdr[int32]int32<0> SRODATA dupok size=56
	0x0000 08 00 00 00 00 00 00 00 08 00 00 00 00 00 00 00  ................
	0x0010 aa b2 38 d9 08 08 08 36 00 00 00 00 00 00 00 00  ..8....6........
	0x0020 00 00 00 00 00 00 00 00 00 00 00 00 00 00 00 00  ................
	0x0030 00 00 00 00 00 00 00 00                          ........
	rel 24+8 t=1 runtime.memequal64·f<0>+0
	rel 32+8 t=1 runtime.gcbits.0100000000000000<0>+0
	rel 40+4 t=5 type:.namedata.*map.hdr[int32]int32-<0>+0
	rel 48+8 t=1 type:noalg.map.hdr[int32]int32<0>+0
type:noalg.map.hdr[int32]int32<0> SRODATA dupok size=296
	0x0000 30 00 00 00 00 00 00 00 30 00 00 00 00 00 00 00  0.......0.......
	0x0010 04 1d c2 05 02 08 08 19 00 00 00 00 00 00 00 00  ................
	0x0020 00 00 00 00 00 00 00 00 00 00 00 00 00 00 00 00  ................
	0x0030 00 00 00 00 00 00 00 00 00 00 00 00 00 00 00 00  ................
	0x0040 09 00 00 00 00 00 00 00 09 00 00 00 00 00 00 00  ................
	0x0050 00 00 00 00 00 00 00 00 00 00 00 00 00 00 00 00  ................
	0x0060 00 00 00 00 00 00 00 00 00 00 00 00 00 00 00 00  ................
	0x0070 00 00 00 00 00 00 00 00 08 00 00 00 00 00 00 00  ................
	0x0080 00 00 00 00 00 00 00 00 00 00 00 00 00 00 00 00  ................
	0x0090 09 00 00 00 00 00 00 00 00 00 00 00 00 00 00 00  ................
	0x00a0 00 00 00 00 00 00 00 00 0a 00 00 00 00 00 00 00  ................
	0x00b0 00 00 00 00 00 00 00 00 00 00 00 00 00 00 00 00  ................
	0x00c0 0c 00 00 00 00 00 00 00 00 00 00 00 00 00 00 00  ................
	0x00d0 00 00 00 00 00 00 00 00 10 00 00 00 00 00 00 00  ................
	0x00e0 00 00 00 00 00 00 00 00 00 00 00 00 00 00 00 00  ................
	0x00f0 18 00 00 00 00 00 00 00 00 00 00 00 00 00 00 00  ................
	0x0100 00 00 00 00 00 00 00 00 20 00 00 00 00 00 00 00  ........ .......
	0x0110 00 00 00 00 00 00 00 00 00 00 00 00 00 00 00 00  ................
	0x0120 28 00 00 00 00 00 00 00                          (.......
	rel 32+8 t=1 runtime.gcbits.2c00000000000000<0>+0
	rel 40+4 t=5 type:.namedata.*map.hdr[int32]int32-<0>+0
	rel 44+4 t=-32763 type:*map.hdr[int32]int32<0>+0
	rel 48+8 t=1 type:.importpath..<0>+0
	rel 56+8 t=1 type:noalg.map.hdr[int32]int32<0>+80
	rel 80+8 t=1 type:.namedata.count-<0>+0
	rel 88+8 t=1 type:int<0>+0
	rel 104+8 t=1 type:.namedata.flags-<0>+0
	rel 112+8 t=1 type:uint8<0>+0
	rel 128+8 t=1 type:.namedata.B.<0>+0
	rel 136+8 t=1 type:uint8<0>+0
	rel 152+8 t=1 type:.namedata.noverflow-<0>+0
	rel 160+8 t=1 type:uint16<0>+0
	rel 176+8 t=1 type:.namedata.hash0-<0>+0
	rel 184+8 t=1 type:uint32<0>+0
	rel 200+8 t=1 type:.namedata.buckets-<0>+0
	rel 208+8 t=1 type:*map.bucket[int32]int32<0>+0
	rel 224+8 t=1 type:.namedata.oldbuckets-<0>+0
	rel 232+8 t=1 type:*map.bucket[int32]int32<0>+0
	rel 248+8 t=1 type:.namedata.nevacuate-<0>+0
	rel 256+8 t=1 type:uintptr<0>+0
	rel 272+8 t=1 type:.namedata.extra-<0>+0
	rel 280+8 t=1 type:unsafe.Pointer<0>+0
type:.namedata.*map.hdr[int64][]int64-<0> SRODATA dupok size=24
	0x0000 00 16 2a 6d 61 70 2e 68 64 72 5b 69 6e 74 36 34  ..*map.hdr[int64
	0x0010 5d 5b 5d 69 6e 74 36 34                          ][]int64
type:*map.hdr[int64][]int64<0> SRODATA dupok size=56
	0x0000 08 00 00 00 00 00 00 00 08 00 00 00 00 00 00 00  ................
	0x0010 3a 88 c4 9d 08 08 08 36 00 00 00 00 00 00 00 00  :......6........
	0x0020 00 00 00 00 00 00 00 00 00 00 00 00 00 00 00 00  ................
	0x0030 00 00 00 00 00 00 00 00                          ........
	rel 24+8 t=1 runtime.memequal64·f<0>+0
	rel 32+8 t=1 runtime.gcbits.0100000000000000<0>+0
	rel 40+4 t=5 type:.namedata.*map.hdr[int64][]int64-<0>+0
	rel 48+8 t=1 type:noalg.map.hdr[int64][]int64<0>+0
type:noalg.map.hdr[int64][]int64<0> SRODATA dupok size=296
	0x0000 30 00 00 00 00 00 00 00 30 00 00 00 00 00 00 00  0.......0.......
	0x0010 6b 34 6c 1e 02 08 08 19 00 00 00 00 00 00 00 00  k4l.............
	0x0020 00 00 00 00 00 00 00 00 00 00 00 00 00 00 00 00  ................
	0x0030 00 00 00 00 00 00 00 00 00 00 00 00 00 00 00 00  ................
	0x0040 09 00 00 00 00 00 00 00 09 00 00 00 00 00 00 00  ................
	0x0050 00 00 00 00 00 00 00 00 00 00 00 00 00 00 00 00  ................
	0x0060 00 00 00 00 00 00 00 00 00 00 00 00 00 00 00 00  ................
	0x0070 00 00 00 00 00 00 00 00 08 00 00 00 00 00 00 00  ................
	0x0080 00 00 00 00 00 00 00 00 00 00 00 00 00 00 00 00  ................
	0x0090 09 00 00 00 00 00 00 00 00 00 00 00 00 00 00 00  ................
	0x00a0 00 00 00 00 00 00 00 00 0a 00 00 00 00 00 00 00  ................
	0x00b0 00 00 00 00 00 00 00 00 00 00 00 00 00 00 00 00  ................
	0x00c0 0c 00 00 00 00 00 00 00 00 00 00 00 00 00 00 00  ................
	0x00d0 00 00 00 00 00 00 00 00 10 00 00 00 00 00 00 00  ................
	0x00e0 00 00 00 00 00 00 00 00 00 00 00 00 00 00 00 00  ................
	0x00f0 18 00 00 00 00 00 00 00 00 00 00 00 00 00 00 00  ................
	0x0100 00 00 00 00 00 00 00 00 20 00 00 00 00 00 00 00  ........ .......
	0x0110 00 00 00 00 00 00 00 00 00 00 00 00 00 00 00 00  ................
	0x0120 28 00 00 00 00 00 00 00                          (.......
	rel 32+8 t=1 runtime.gcbits.2c00000000000000<0>+0
	rel 40+4 t=5 type:.namedata.*map.hdr[int64][]int64-<0>+0
	rel 44+4 t=-32763 type:*map.hdr[int64][]int64<0>+0
	rel 48+8 t=1 type:.importpath..<0>+0
	rel 56+8 t=1 type:noalg.map.hdr[int64][]int64<0>+80
	rel 80+8 t=1 type:.namedata.count-<0>+0
	rel 88+8 t=1 type:int<0>+0
	rel 104+8 t=1 type:.namedata.flags-<0>+0
	rel 112+8 t=1 type:uint8<0>+0
	rel 128+8 t=1 type:.namedata.B.<0>+0
	rel 136+8 t=1 type:uint8<0>+0
	rel 152+8 t=1 type:.namedata.noverflow-<0>+0
	rel 160+8 t=1 type:uint16<0>+0
	rel 176+8 t=1 type:.namedata.hash0-<0>+0
	rel 184+8 t=1 type:uint32<0>+0
	rel 200+8 t=1 type:.namedata.buckets-<0>+0
	rel 208+8 t=1 type:*map.bucket[int64][]int64<0>+0
	rel 224+8 t=1 type:.namedata.oldbuckets-<0>+0
	rel 232+8 t=1 type:*map.bucket[int64][]int64<0>+0
	rel 248+8 t=1 type:.namedata.nevacuate-<0>+0
	rel 256+8 t=1 type:uintptr<0>+0
	rel 272+8 t=1 type:.namedata.extra-<0>+0
	rel 280+8 t=1 type:unsafe.Pointer<0>+0
type:.namedata.*map.hdr[int64]int64-<0> SRODATA dupok size=22
	0x0000 00 14 2a 6d 61 70 2e 68 64 72 5b 69 6e 74 36 34  ..*map.hdr[int64
	0x0010 5d 69 6e 74 36 34                                ]int64
type:*map.hdr[int64]int64<0> SRODATA dupok size=56
	0x0000 08 00 00 00 00 00 00 00 08 00 00 00 00 00 00 00  ................
	0x0010 61 f6 8d 9d 08 08 08 36 00 00 00 00 00 00 00 00  a......6........
	0x0020 00 00 00 00 00 00 00 00 00 00 00 00 00 00 00 00  ................
	0x0030 00 00 00 00 00 00 00 00                          ........
	rel 24+8 t=1 runtime.memequal64·f<0>+0
	rel 32+8 t=1 runtime.gcbits.0100000000000000<0>+0
	rel 40+4 t=5 type:.namedata.*map.hdr[int64]int64-<0>+0
	rel 48+8 t=1 type:noalg.map.hdr[int64]int64<0>+0
type:noalg.map.hdr[int64]int64<0> SRODATA dupok size=296
	0x0000 30 00 00 00 00 00 00 00 30 00 00 00 00 00 00 00  0.......0.......
	0x0010 ef 5e 29 0d 02 08 08 19 00 00 00 00 00 00 00 00  .^).............
	0x0020 00 00 00 00 00 00 00 00 00 00 00 00 00 00 00 00  ................
	0x0030 00 00 00 00 00 00 00 00 00 00 00 00 00 00 00 00  ................
	0x0040 09 00 00 00 00 00 00 00 09 00 00 00 00 00 00 00  ................
	0x0050 00 00 00 00 00 00 00 00 00 00 00 00 00 00 00 00  ................
	0x0060 00 00 00 00 00 00 00 00 00 00 00 00 00 00 00 00  ................
	0x0070 00 00 00 00 00 00 00 00 08 00 00 00 00 00 00 00  ................
	0x0080 00 00 00 00 00 00 00 00 00 00 00 00 00 00 00 00  ................
	0x0090 09 00 00 00 00 00 00 00 00 00 00 00 00 00 00 00  ................
	0x00a0 00 00 00 00 00 00 00 00 0a 00 00 00 00 00 00 00  ................
	0x00b0 00 00 00 00 00 00 00 00 00 00 00 00 00 00 00 00  ................
	0x00c0 0c 00 00 00 00 00 00 00 00 00 00 00 00 00 00 00  ................
	0x00d0 00 00 00 00 00 00 00 00 10 00 00 00 00 00 00 00  ................
	0x00e0 00 00 00 00 00 00 00 00 00 00 00 00 00 00 00 00  ................
	0x00f0 18 00 00 00 00 00 00 00 00 00 00 00 00 00 00 00  ................
	0x0100 00 00 00 00 00 00 00 00 20 00 00 00 00 00 00 00  ........ .......
	0x0110 00 00 00 00 00 00 00 00 00 00 00 00 00 00 00 00  ................
	0x0120 28 00 00 00 00 00 00 00                          (.......
	rel 32+8 t=1 runtime.gcbits.2c00000000000000<0>+0
	rel 40+4 t=5 type:.namedata.*map.hdr[int64]int64-<0>+0
	rel 44+4 t=-32763 type:*map.hdr[int64]int64<0>+0
	rel 48+8 t=1 type:.importpath..<0>+0
	rel 56+8 t=1 type:noalg.map.hdr[int64]int64<0>+80
	rel 80+8 t=1 type:.namedata.count-<0>+0
	rel 88+8 t=1 type:int<0>+0
	rel 104+8 t=1 type:.namedata.flags-<0>+0
	rel 112+8 t=1 type:uint8<0>+0
	rel 128+8 t=1 type:.namedata.B.<0>+0
	rel 136+8 t=1 type:uint8<0>+0
	rel 152+8 t=1 type:.namedata.noverflow-<0>+0
	rel 160+8 t=1 type:uint16<0>+0
	rel 176+8 t=1 type:.namedata.hash0-<0>+0
	rel 184+8 t=1 type:uint32<0>+0
	rel 200+8 t=1 type:.namedata.buckets-<0>+0
	rel 208+8 t=1 type:*map.bucket[int64]int64<0>+0
	rel 224+8 t=1 type:.namedata.oldbuckets-<0>+0
	rel 232+8 t=1 type:*map.bucket[int64]int64<0>+0
	rel 248+8 t=1 type:.namedata.nevacuate-<0>+0
	rel 256+8 t=1 type:uintptr<0>+0
	rel 272+8 t=1 type:.namedata.extra-<0>+0
	rel 280+8 t=1 type:unsafe.Pointer<0>+0
type:.namedata.*map.hdr[int8][]int8-<0> SRODATA dupok size=22
	0x0000 00 14 2a 6d 61 70 2e 68 64 72 5b 69 6e 74 38 5d  ..*map.hdr[int8]
	0x0010 5b 5d 69 6e 74 38                                []int8
type:*map.hdr[int8][]int8<0> SRODATA dupok size=56
	0x0000 08 00 00 00 00 00 00 00 08 00 00 00 00 00 00 00  ................
	0x0010 e5 54 4f 7d 08 08 08 36 00 00 00 00 00 00 00 00  .TO}...6........
	0x0020 00 00 00 00 00 00 00 00 00 00 00 00 00 00 00 00  ................
	0x0030 00 00 00 00 00 00 00 00                          ........
	rel 24+8 t=1 runtime.memequal64·f<0>+0
	rel 32+8 t=1 runtime.gcbits.0100000000000000<0>+0
	rel 40+4 t=5 type:.namedata.*map.hdr[int8][]int8-<0>+0
	rel 48+8 t=1 type:noalg.map.hdr[int8][]int8<0>+0
type:noalg.map.hdr[int8][]int8<0> SRODATA dupok size=296
	0x0000 30 00 00 00 00 00 00 00 30 00 00 00 00 00 00 00  0.......0.......
	0x0010 80 b5 19 2a 02 08 08 19 00 00 00 00 00 00 00 00  ...*............
	0x0020 00 00 00 00 00 00 00 00 00 00 00 00 00 00 00 00  ................
	0x0030 00 00 00 00 00 00 00 00 00 00 00 00 00 00 00 00  ................
	0x0040 09 00 00 00 00 00 00 00 09 00 00 00 00 00 00 00  ................
	0x0050 00 00 00 00 00 00 00 00 00 00 00 00 00 00 00 00  ................
	0x0060 00 00 00 00 00 00 00 00 00 00 00 00 00 00 00 00  ................
	0x0070 00 00 00 00 00 00 00 00 08 00 00 00 00 00 00 00  ................
	0x0080 00 00 00 00 00 00 00 00 00 00 00 00 00 00 00 00  ................
	0x0090 09 00 00 00 00 00 00 00 00 00 00 00 00 00 00 00  ................
	0x00a0 00 00 00 00 00 00 00 00 0a 00 00 00 00 00 00 00  ................
	0x00b0 00 00 00 00 00 00 00 00 00 00 00 00 00 00 00 00  ................
	0x00c0 0c 00 00 00 00 00 00 00 00 00 00 00 00 00 00 00  ................
	0x00d0 00 00 00 00 00 00 00 00 10 00 00 00 00 00 00 00  ................
	0x00e0 00 00 00 00 00 00 00 00 00 00 00 00 00 00 00 00  ................
	0x00f0 18 00 00 00 00 00 00 00 00 00 00 00 00 00 00 00  ................
	0x0100 00 00 00 00 00 00 00 00 20 00 00 00 00 00 00 00  ........ .......
	0x0110 00 00 00 00 00 00 00 00 00 00 00 00 00 00 00 00  ................
	0x0120 28 00 00 00 00 00 00 00                          (.......
	rel 32+8 t=1 runtime.gcbits.2c00000000000000<0>+0
	rel 40+4 t=5 type:.namedata.*map.hdr[int8][]int8-<0>+0
	rel 44+4 t=-32763 type:*map.hdr[int8][]int8<0>+0
	rel 48+8 t=1 type:.importpath..<0>+0
	rel 56+8 t=1 type:noalg.map.hdr[int8][]int8<0>+80
	rel 80+8 t=1 type:.namedata.count-<0>+0
	rel 88+8 t=1 type:int<0>+0
	rel 104+8 t=1 type:.namedata.flags-<0>+0
	rel 112+8 t=1 type:uint8<0>+0
	rel 128+8 t=1 type:.namedata.B.<0>+0
	rel 136+8 t=1 type:uint8<0>+0
	rel 152+8 t=1 type:.namedata.noverflow-<0>+0
	rel 160+8 t=1 type:uint16<0>+0
	rel 176+8 t=1 type:.namedata.hash0-<0>+0
	rel 184+8 t=1 type:uint32<0>+0
	rel 200+8 t=1 type:.namedata.buckets-<0>+0
	rel 208+8 t=1 type:*map.bucket[int8][]int8<0>+0
	rel 224+8 t=1 type:.namedata.oldbuckets-<0>+0
	rel 232+8 t=1 type:*map.bucket[int8][]int8<0>+0
	rel 248+8 t=1 type:.namedata.nevacuate-<0>+0
	rel 256+8 t=1 type:uintptr<0>+0
	rel 272+8 t=1 type:.namedata.extra-<0>+0
	rel 280+8 t=1 type:unsafe.Pointer<0>+0
type:.namedata.*map.hdr[int8]int8-<0> SRODATA dupok size=20
	0x0000 00 12 2a 6d 61 70 2e 68 64 72 5b 69 6e 74 38 5d  ..*map.hdr[int8]
	0x0010 69 6e 74 38                                      int8
type:*map.hdr[int8]int8<0> SRODATA dupok size=56
	0x0000 08 00 00 00 00 00 00 00 08 00 00 00 00 00 00 00  ................
	0x0010 66 c4 1a 2c 08 08 08 36 00 00 00 00 00 00 00 00  f..,...6........
	0x0020 00 00 00 00 00 00 00 00 00 00 00 00 00 00 00 00  ................
	0x0030 00 00 00 00 00 00 00 00                          ........
	rel 24+8 t=1 runtime.memequal64·f<0>+0
	rel 32+8 t=1 runtime.gcbits.0100000000000000<0>+0
	rel 40+4 t=5 type:.namedata.*map.hdr[int8]int8-<0>+0
	rel 48+8 t=1 type:noalg.map.hdr[int8]int8<0>+0
type:noalg.map.hdr[int8]int8<0> SRODATA dupok size=296
	0x0000 30 00 00 00 00 00 00 00 30 00 00 00 00 00 00 00  0.......0.......
	0x0010 d1 a5 f3 26 02 08 08 19 00 00 00 00 00 00 00 00  ...&............
	0x0020 00 00 00 00 00 00 00 00 00 00 00 00 00 00 00 00  ................
	0x0030 00 00 00 00 00 00 00 00 00 00 00 00 00 00 00 00  ................
	0x0040 09 00 00 00 00 00 00 00 09 00 00 00 00 00 00 00  ................
	0x0050 00 00 00 00 00 00 00 00 00 00 00 00 00 00 00 00  ................
	0x0060 00 00 00 00 00 00 00 00 00 00 00 00 00 00 00 00  ................
	0x0070 00 00 00 00 00 00 00 00 08 00 00 00 00 00 00 00  ................
	0x0080 00 00 00 00 00 00 00 00 00 00 00 00 00 00 00 00  ................
	0x0090 09 00 00 00 00 00 00 00 00 00 00 00 00 00 00 00  ................
	0x00a0 00 00 00 00 00 00 00 00 0a 00 00 00 00 00 00 00  ................
	0x00b0 00 00 00 00 00 00 00 00 00 00 00 00 00 00 00 00  ................
	0x00c0 0c 00 00 00 00 00 00 00 00 00 00 00 00 00 00 00  ................
	0x00d0 00 00 00 00 00 00 00 00 10 00 00 00 00 00 00 00  ................
	0x00e0 00 00 00 00 00 00 00 00 00 00 00 00 00 00 00 00  ................
	0x00f0 18 00 00 00 00 00 00 00 00 00 00 00 00 00 00 00  ................
	0x0100 00 00 00 00 00 00 00 00 20 00 00 00 00 00 00 00  ........ .......
	0x0110 00 00 00 00 00 00 00 00 00 00 00 00 00 00 00 00  ................
	0x0120 28 00 00 00 00 00 00 00                          (.......
	rel 32+8 t=1 runtime.gcbits.2c00000000000000<0>+0
	rel 40+4 t=5 type:.namedata.*map.hdr[int8]int8-<0>+0
	rel 44+4 t=-32763 type:*map.hdr[int8]int8<0>+0
	rel 48+8 t=1 type:.importpath..<0>+0
	rel 56+8 t=1 type:noalg.map.hdr[int8]int8<0>+80
	rel 80+8 t=1 type:.namedata.count-<0>+0
	rel 88+8 t=1 type:int<0>+0
	rel 104+8 t=1 type:.namedata.flags-<0>+0
	rel 112+8 t=1 type:uint8<0>+0
	rel 128+8 t=1 type:.namedata.B.<0>+0
	rel 136+8 t=1 type:uint8<0>+0
	rel 152+8 t=1 type:.namedata.noverflow-<0>+0
	rel 160+8 t=1 type:uint16<0>+0
	rel 176+8 t=1 type:.namedata.hash0-<0>+0
	rel 184+8 t=1 type:uint32<0>+0
	rel 200+8 t=1 type:.namedata.buckets-<0>+0
	rel 208+8 t=1 type:*map.bucket[int8]int8<0>+0
	rel 224+8 t=1 type:.namedata.oldbuckets-<0>+0
	rel 232+8 t=1 type:*map.bucket[int8]int8<0>+0
	rel 248+8 t=1 type:.namedata.nevacuate-<0>+0
	rel 256+8 t=1 type:uintptr<0>+0
	rel 272+8 t=1 type:.namedata.extra-<0>+0
	rel 280+8 t=1 type:unsafe.Pointer<0>+0
type:.namedata.*map.hdr[string][]string-<0> SRODATA dupok size=26
	0x0000 00 18 2a 6d 61 70 2e 68 64 72 5b 73 74 72 69 6e  ..*map.hdr[strin
	0x0010 67 5d 5b 5d 73 74 72 69 6e 67                    g][]string
type:*map.hdr[string][]string<0> SRODATA dupok size=56
	0x0000 08 00 00 00 00 00 00 00 08 00 00 00 00 00 00 00  ................
	0x0010 ea 73 f7 25 08 08 08 36 00 00 00 00 00 00 00 00  .s.%...6........
	0x0020 00 00 00 00 00 00 00 00 00 00 00 00 00 00 00 00  ................
	0x0030 00 00 00 00 00 00 00 00                          ........
	rel 24+8 t=1 runtime.memequal64·f<0>+0
	rel 32+8 t=1 runtime.gcbits.0100000000000000<0>+0
	rel 40+4 t=5 type:.namedata.*map.hdr[string][]string-<0>+0
	rel 48+8 t=1 type:noalg.map.hdr[string][]string<0>+0
type:noalg.map.hdr[string][]string<0> SRODATA dupok size=296
	0x0000 30 00 00 00 00 00 00 00 30 00 00 00 00 00 00 00  0.......0.......
	0x0010 a9 91 c2 74 02 08 08 19 00 00 00 00 00 00 00 00  ...t............
	0x0020 00 00 00 00 00 00 00 00 00 00 00 00 00 00 00 00  ................
	0x0030 00 00 00 00 00 00 00 00 00 00 00 00 00 00 00 00  ................
	0x0040 09 00 00 00 00 00 00 00 09 00 00 00 00 00 00 00  ................
	0x0050 00 00 00 00 00 00 00 00 00 00 00 00 00 00 00 00  ................
	0x0060 00 00 00 00 00 00 00 00 00 00 00 00 00 00 00 00  ................
	0x0070 00 00 00 00 00 00 00 00 08 00 00 00 00 00 00 00  ................
	0x0080 00 00 00 00 00 00 00 00 00 00 00 00 00 00 00 00  ................
	0x0090 09 00 00 00 00 00 00 00 00 00 00 00 00 00 00 00  ................
	0x00a0 00 00 00 00 00 00 00 00 0a 00 00 00 00 00 00 00  ................
	0x00b0 00 00 00 00 00 00 00 00 00 00 00 00 00 00 00 00  ................
	0x00c0 0c 00 00 00 00 00 00 00 00 00 00 00 00 00 00 00  ................
	0x00d0 00 00 00 00 00 00 00 00 10 00 00 00 00 00 00 00  ................
	0x00e0 00 00 00 00 00 00 00 00 00 00 00 00 00 00 00 00  ................
	0x00f0 18 00 00 00 00 00 00 00 00 00 00 00 00 00 00 00  ................
	0x0100 00 00 00 00 00 00 00 00 20 00 00 00 00 00 00 00  ........ .......
	0x0110 00 00 00 00 00 00 00 00 00 00 00 00 00 00 00 00  ................
	0x0120 28 00 00 00 00 00 00 00                          (.......
	rel 32+8 t=1 runtime.gcbits.2c00000000000000<0>+0
	rel 40+4 t=5 type:.namedata.*map.hdr[string][]string-<0>+0
	rel 44+4 t=-32763 type:*map.hdr[string][]string<0>+0
	rel 48+8 t=1 type:.importpath..<0>+0
	rel 56+8 t=1 type:noalg.map.hdr[string][]string<0>+80
	rel 80+8 t=1 type:.namedata.count-<0>+0
	rel 88+8 t=1 type:int<0>+0
	rel 104+8 t=1 type:.namedata.flags-<0>+0
	rel 112+8 t=1 type:uint8<0>+0
	rel 128+8 t=1 type:.namedata.B.<0>+0
	rel 136+8 t=1 type:uint8<0>+0
	rel 152+8 t=1 type:.namedata.noverflow-<0>+0
	rel 160+8 t=1 type:uint16<0>+0
	rel 176+8 t=1 type:.namedata.hash0-<0>+0
	rel 184+8 t=1 type:uint32<0>+0
	rel 200+8 t=1 type:.namedata.buckets-<0>+0
	rel 208+8 t=1 type:*map.bucket[string][]string<0>+0
	rel 224+8 t=1 type:.namedata.oldbuckets-<0>+0
	rel 232+8 t=1 type:*map.bucket[string][]string<0>+0
	rel 248+8 t=1 type:.namedata.nevacuate-<0>+0
	rel 256+8 t=1 type:uintptr<0>+0
	rel 272+8 t=1 type:.namedata.extra-<0>+0
	rel 280+8 t=1 type:unsafe.Pointer<0>+0
type:.namedata.*map.hdr[string]string-<0> SRODATA dupok size=24
	0x0000 00 16 2a 6d 61 70 2e 68 64 72 5b 73 74 72 69 6e  ..*map.hdr[strin
	0x0010 67 5d 73 74 72 69 6e 67                          g]string
type:*map.hdr[string]string<0> SRODATA dupok size=56
	0x0000 08 00 00 00 00 00 00 00 08 00 00 00 00 00 00 00  ................
	0x0010 2b 67 19 8f 08 08 08 36 00 00 00 00 00 00 00 00  +g.....6........
	0x0020 00 00 00 00 00 00 00 00 00 00 00 00 00 00 00 00  ................
	0x0030 00 00 00 00 00 00 00 00                          ........
	rel 24+8 t=1 runtime.memequal64·f<0>+0
	rel 32+8 t=1 runtime.gcbits.0100000000000000<0>+0
	rel 40+4 t=5 type:.namedata.*map.hdr[string]string-<0>+0
	rel 48+8 t=1 type:noalg.map.hdr[string]string<0>+0
type:noalg.map.hdr[string]string<0> SRODATA dupok size=296
	0x0000 30 00 00 00 00 00 00 00 30 00 00 00 00 00 00 00  0.......0.......
	0x0010 56 94 61 c5 02 08 08 19 00 00 00 00 00 00 00 00  V.a.............
	0x0020 00 00 00 00 00 00 00 00 00 00 00 00 00 00 00 00  ................
	0x0030 00 00 00 00 00 00 00 00 00 00 00 00 00 00 00 00  ................
	0x0040 09 00 00 00 00 00 00 00 09 00 00 00 00 00 00 00  ................
	0x0050 00 00 00 00 00 00 00 00 00 00 00 00 00 00 00 00  ................
	0x0060 00 00 00 00 00 00 00 00 00 00 00 00 00 00 00 00  ................
	0x0070 00 00 00 00 00 00 00 00 08 00 00 00 00 00 00 00  ................
	0x0080 00 00 00 00 00 00 00 00 00 00 00 00 00 00 00 00  ................
	0x0090 09 00 00 00 00 00 00 00 00 00 00 00 00 00 00 00  ................
	0x00a0 00 00 00 00 00 00 00 00 0a 00 00 00 00 00 00 00  ................
	0x00b0 00 00 00 00 00 00 00 00 00 00 00 00 00 00 00 00  ................
	0x00c0 0c 00 00 00 00 00 00 00 00 00 00 00 00 00 00 00  ................
	0x00d0 00 00 00 00 00 00 00 00 10 00 00 00 00 00 00 00  ................
	0x00e0 00 00 00 00 00 00 00 00 00 00 00 00 00 00 00 00  ................
	0x00f0 18 00 00 00 00 00 00 00 00 00 00 00 00 00 00 00  ................
	0x0100 00 00 00 00 00 00 00 00 20 00 00 00 00 00 00 00  ........ .......
	0x0110 00 00 00 00 00 00 00 00 00 00 00 00 00 00 00 00  ................
	0x0120 28 00 00 00 00 00 00 00                          (.......
	rel 32+8 t=1 runtime.gcbits.2c00000000000000<0>+0
	rel 40+4 t=5 type:.namedata.*map.hdr[string]string-<0>+0
	rel 44+4 t=-32763 type:*map.hdr[string]string<0>+0
	rel 48+8 t=1 type:.importpath..<0>+0
	rel 56+8 t=1 type:noalg.map.hdr[string]string<0>+80
	rel 80+8 t=1 type:.namedata.count-<0>+0
	rel 88+8 t=1 type:int<0>+0
	rel 104+8 t=1 type:.namedata.flags-<0>+0
	rel 112+8 t=1 type:uint8<0>+0
	rel 128+8 t=1 type:.namedata.B.<0>+0
	rel 136+8 t=1 type:uint8<0>+0
	rel 152+8 t=1 type:.namedata.noverflow-<0>+0
	rel 160+8 t=1 type:uint16<0>+0
	rel 176+8 t=1 type:.namedata.hash0-<0>+0
	rel 184+8 t=1 type:uint32<0>+0
	rel 200+8 t=1 type:.namedata.buckets-<0>+0
	rel 208+8 t=1 type:*map.bucket[string]string<0>+0
	rel 224+8 t=1 type:.namedata.oldbuckets-<0>+0
	rel 232+8 t=1 type:*map.bucket[string]string<0>+0
	rel 248+8 t=1 type:.namedata.nevacuate-<0>+0
	rel 256+8 t=1 type:uintptr<0>+0
	rel 272+8 t=1 type:.namedata.extra-<0>+0
	rel 280+8 t=1 type:unsafe.Pointer<0>+0
gclocals·J5F+7Qw7O7ve2QcWC7DpeQ==<0> SRODATA dupok size=8
	0x0000 02 00 00 00 00 00 00 00                          ........
gclocals·Gi+ewyUrOze142o4ULSYMg==<0> SRODATA dupok size=10
	0x0000 02 00 00 00 06 00 00 00 00 2c                    .........,
command-line-arguments.mapCompoundAssignmentInt8.stkobj<0> SRODATA static size=24
	0x0000 01 00 00 00 00 00 00 00 d0 ff ff ff 30 00 00 00  ............0...
	0x0010 30 00 00 00 00 00 00 00                          0.......
	rel 20+4 t=5 runtime.gcbits.2c00000000000000<0>+0
command-line-arguments.mapCompoundAssignmentInt32.stkobj<0> SRODATA static size=24
	0x0000 01 00 00 00 00 00 00 00 d0 ff ff ff 30 00 00 00  ............0...
	0x0010 30 00 00 00 00 00 00 00                          0.......
	rel 20+4 t=5 runtime.gcbits.2c00000000000000<0>+0
command-line-arguments.mapCompoundAssignmentInt64.stkobj<0> SRODATA static size=24
	0x0000 01 00 00 00 00 00 00 00 d0 ff ff ff 30 00 00 00  ............0...
	0x0010 30 00 00 00 00 00 00 00                          0.......
	rel 20+4 t=5 runtime.gcbits.2c00000000000000<0>+0
command-line-arguments.mapCompoundAssignmentComplex128.stkobj<0> SRODATA static size=24
	0x0000 01 00 00 00 00 00 00 00 d0 ff ff ff 30 00 00 00  ............0...
	0x0010 30 00 00 00 00 00 00 00                          0.......
	rel 20+4 t=5 runtime.gcbits.2c00000000000000<0>+0
gclocals·ykHN0vawYuq1dUW4zEe2gA==<0> SRODATA dupok size=8
	0x0000 03 00 00 00 00 00 00 00                          ........
gclocals·IgXLcjGnOTLM81NKbKpXQA==<0> SRODATA dupok size=26
	0x0000 03 00 00 00 29 00 00 00 00 00 00 00 00 00 58 00  ....).........X.
	0x0010 00 00 00 00 01 00 00 00 00 00                    ..........
command-line-arguments.mapCompoundAssignmentString.stkobj<0> SRODATA static size=40
	0x0000 02 00 00 00 00 00 00 00 c0 fe ff ff 30 00 00 00  ............0...
	0x0010 30 00 00 00 00 00 00 00 f0 fe ff ff 10 01 00 00  0...............
	0x0020 10 01 00 00 00 00 00 00                          ........
	rel 20+4 t=5 runtime.gcbits.2c00000000000000<0>+0
	rel 36+4 t=5 runtime.gcbits.aaaaaaaa02000000<0>+0
gclocals·Xu4NijPRinf///4s/1zhiQ==<0> SRODATA dupok size=8
	0x0000 0a 00 00 00 00 00 00 00                          ........
gclocals·rTrIRj9HGwiheagnE5GEbA==<0> SRODATA dupok size=68
	0x0000 0a 00 00 00 29 00 00 00 00 00 00 00 00 00 00 2c  ....)..........,
	0x0010 00 00 00 00 80 2c 00 00 00 00 40 2c 00 00 00 00  .....,....@,....
	0x0020 20 2c 00 00 00 00 30 2c 00 00 00 00 08 2c 00 00   ,....0,.....,..
	0x0030 00 00 04 2c 00 00 00 00 02 2c 00 00 00 00 01 00  ...,.....,......
	0x0040 00 00 00 00                                      ....
command-line-arguments.mapAppendAssignmentInt8.stkobj<0> SRODATA static size=40
	0x0000 02 00 00 00 00 00 00 00 f8 fe ff ff 30 00 00 00  ............0...
	0x0010 30 00 00 00 00 00 00 00 28 ff ff ff d8 00 00 00  0.......(.......
	0x0020 d8 00 00 00 00 00 00 00                          ........
	rel 20+4 t=5 runtime.gcbits.2c00000000000000<0>+0
	rel 36+4 t=5 runtime.gcbits.2449920400000000<0>+0
gclocals·EbTz5M5v/PJ7mHPb46iC8g==<0> SRODATA dupok size=68
	0x0000 0a 00 00 00 2b 00 00 00 00 00 00 00 00 00 00 16  ....+...........
	0x0010 00 00 00 00 40 16 00 00 00 00 20 16 00 00 00 00  ....@..... .....
	0x0020 10 16 00 00 00 00 18 16 00 00 00 00 14 16 00 00  ................
	0x0030 00 00 12 16 00 00 00 00 01 16 00 00 00 00 01 00  ................
	0x0040 00 00 00 00                                      ....
command-line-arguments.mapAppendAssignmentInt32.stkobj<0> SRODATA static size=40
	0x0000 02 00 00 00 00 00 00 00 e0 fe ff ff 30 00 00 00  ............0...
	0x0010 30 00 00 00 00 00 00 00 10 ff ff ff f0 00 00 00  0...............
	0x0020 f0 00 00 00 00 00 00 00                          ........
	rel 20+4 t=5 runtime.gcbits.2c00000000000000<0>+0
	rel 36+4 t=5 runtime.gcbits.2049922400000000<0>+0
gclocals·T0KMGW3T8ttpJDRmFT9xSg==<0> SRODATA dupok size=8
	0x0000 0d 00 00 00 00 00 00 00                          ........
gclocals·aVESEGXaL+PBVfQLRDBcFg==<0> SRODATA dupok size=86
	0x0000 0d 00 00 00 2f 00 00 00 00 00 00 00 00 00 00 16  ..../...........
	0x0010 00 00 00 00 40 16 00 00 00 00 20 16 00 00 00 00  ....@..... .....
	0x0020 10 16 00 00 00 00 18 16 00 00 00 00 1c 16 00 00  ................
	0x0030 00 00 12 16 00 00 00 00 16 16 00 00 00 00 11 16  ................
	0x0040 00 00 00 00 15 16 00 00 00 00 04 16 00 00 00 00  ................
	0x0050 04 00 00 00 00 00                                ......
command-line-arguments.mapAppendAssignmentInt64.stkobj<0> SRODATA static size=40
	0x0000 02 00 00 00 00 00 00 00 c0 fe ff ff 30 00 00 00  ............0...
	0x0010 30 00 00 00 00 00 00 00 f0 fe ff ff 10 01 00 00  0...............
	0x0020 10 01 00 00 00 00 00 00                          ........
	rel 20+4 t=5 runtime.gcbits.2c00000000000000<0>+0
	rel 36+4 t=5 runtime.gcbits.0092244902000000<0>+0
gclocals·oC5IYUIQaeZahulcQD2bSg==<0> SRODATA dupok size=8
	0x0000 0b 00 00 00 00 00 00 00                          ........
gclocals·xCdhfnAS8kTJgq+1YxLJQw==<0> SRODATA dupok size=96
	0x0000 0b 00 00 00 39 00 00 00 00 00 00 00 00 00 00 00  ....9...........
	0x0010 00 58 00 00 00 00 00 00 00 59 00 00 00 00 00 00  .X.......Y......
	0x0020 80 58 00 00 00 00 00 00 40 58 00 00 00 00 00 00  .X......@X......
	0x0030 60 58 00 00 00 00 00 00 70 58 00 00 00 00 00 00  `X......pX......
	0x0040 08 58 00 00 00 00 00 00 04 58 00 00 00 00 00 00  .X.......X......
	0x0050 02 58 00 00 00 00 00 00 01 00 00 00 00 00 00 00  .X..............
command-line-arguments.mapAppendAssignmentComplex128.stkobj<0> SRODATA static size=40
	0x0000 02 00 00 00 00 00 00 00 80 fe ff ff 30 00 00 00  ............0...
	0x0010 30 00 00 00 00 00 00 00 b0 fe ff ff 50 01 00 00  0...........P...
	0x0020 50 01 00 00 00 00 00 00                          P.......
	rel 20+4 t=5 runtime.gcbits.2c00000000000000<0>+0
	rel 36+4 t=5 runtime.gcbits.0000922449020000<0>+0
gclocals·NEKgZvOsl7KFGa9L8DSpqQ==<0> SRODATA dupok size=8
	0x0000 09 00 00 00 00 00 00 00                          ........
gclocals·9ngolYvJQEccK9YN2s+ZtA==<0> SRODATA dupok size=71
	0x0000 09 00 00 00 35 00 00 00 00 00 00 00 00 00 00 80  ....5...........
	0x0010 05 00 00 00 00 00 90 05 00 00 00 00 00 88 05 00  ................
	0x0020 00 00 00 00 84 05 00 00 00 00 00 86 05 00 00 00  ................
	0x0030 00 00 87 05 00 00 00 00 00 81 05 00 00 00 00 00  ................
	0x0040 01 00 00 00 00 00 00                             .......
command-line-arguments.mapAppendAssignmentString.stkobj<0> SRODATA static size=40
	0x0000 02 00 00 00 00 00 00 00 80 fe ff ff 30 00 00 00  ............0...
	0x0010 30 00 00 00 00 00 00 00 b0 fe ff ff 50 01 00 00  0...........P...
	0x0020 50 01 00 00 00 00 00 00                          P.......
	rel 20+4 t=5 runtime.gcbits.2c00000000000000<0>+0
	rel 36+4 t=5 runtime.gcbits.aaaa922449020000<0>+0
gclocals·g2BeySu+wFnoycgXfElmcg==<0> SRODATA dupok size=8
	0x0000 01 00 00 00 00 00 00 00                          ........
gclocals·TjPuuCwdlCpTaRQGRKTrYw==<0> SRODATA dupok size=10
	0x0000 02 00 00 00 02 00 00 00 03 00                    ..........
type:.eq.[4]complex128.arginfo1<0> SRODATA static dupok size=3
	0x0000 08 08 ff                                         ...
type:.eq.[4]complex128.argliveinfo<0> SRODATA static dupok size=2
	0x0000 00 00                                            ..
type:.eq.[4]string.arginfo1<0> SRODATA static dupok size=3
	0x0000 08 08 ff                                         ...
type:.eq.[4]string.argliveinfo<0> SRODATA static dupok size=2
	0x0000 00 00                                            ..
$f64.3ff0000000000000<0> SRODATA size=8
	0x0000 00 00 00 00 00 00 f0 3f                          .......?
$f64.4000000000000000<0> SRODATA size=8
	0x0000 00 00 00 00 00 00 00 40                          .......@
$f64.4008000000000000<0> SRODATA size=8
	0x0000 00 00 00 00 00 00 08 40                          .......@
$f64.401c000000000000<0> SRODATA size=8
	0x0000 00 00 00 00 00 00 1c 40                          .......@
$f64.4020000000000000<0> SRODATA size=8
	0x0000 00 00 00 00 00 00 20 40                          ...... @
$f64.4022000000000000<0> SRODATA size=8
	0x0000 00 00 00 00 00 00 22 40                          ......"@
$f64.4058c00000000000<0> SRODATA size=8
	0x0000 00 00 00 00 00 c0 58 40                          ......X@
$f64.4059000000000000<0> SRODATA size=8
	0x0000 00 00 00 00 00 00 59 40                          ......Y@
$f64.405ec00000000000<0> SRODATA size=8
	0x0000 00 00 00 00 00 c0 5e 40                          ......^@
$f64.407c800000000000<0> SRODATA size=8
	0x0000 00 00 00 00 00 80 7c 40                          ......|@
$f64.40f0932000000000<0> SRODATA size=8
	0x0000 00 00 00 00 20 93 f0 40                          .... ..@
aux for command-line-arguments.mapCompoundAssignmentInt8<0> SDWARFLINES size=123
	0x0000 00 09 02 00 00 00 00 00 00 00 00 04 02 03 06 14  ................
	0x0010 0a 73 9c 06 4b 06 08 ce 03 01 46 06 55 06 7d 06  .s..K.....F.U.}.
	0x0020 41 06 03 01 64 06 55 06 87 06 41 06 03 01 64 06  A...d.U...A...d.
	0x0030 55 06 87 06 41 06 03 01 82 06 55 06 73 06 41 06  U...A.....U.s.A.
	0x0040 03 01 64 06 55 06 7d 06 41 06 03 01 64 06 55 06  ..d.U.}.A...d.U.
	0x0050 87 06 41 06 03 01 32 06 55 06 73 06 41 06 03 01  ..A...2.U.s.A...
	0x0060 64 06 55 06 73 06 41 06 03 01 5a 06 55 06 73 06  d.U.s.A...Z.U.s.
	0x0070 41 06 56 03 4b 6f 02 0a 00 01 01                 A.V.Ko.....
	rel 3+8 t=1 command-line-arguments.mapCompoundAssignmentInt8<1>+0
aux for command-line-arguments.mapCompoundAssignmentInt8<0> SDWARFFCN size=92
	0x0000 03 63 6f 6d 6d 61 6e 64 2d 6c 69 6e 65 2d 61 72  .command-line-ar
	0x0010 67 75 6d 65 6e 74 73 2e 6d 61 70 43 6f 6d 70 6f  guments.mapCompo
	0x0020 75 6e 64 41 73 73 69 67 6e 6d 65 6e 74 49 6e 74  undAssignmentInt
	0x0030 38 00 00 00 00 00 00 00 00 00 00 00 00 00 00 00  8...............
	0x0040 00 00 01 9c 02 00 00 00 01 0c 6d 00 0d 00 00 00  ..........m.....
	0x0050 00 00 0c 6b 00 0e 00 00 00 00 00 00              ...k........
	rel 0+0 t=22 type:int8<0>+0
	rel 0+0 t=22 type:noalg.map.bucket[int8]int8<0>+0
	rel 0+0 t=22 type:noalg.map.hdr[int8]int8<0>+0
	rel 50+8 t=1 command-line-arguments.mapCompoundAssignmentInt8<1>+0
	rel 58+8 t=1 command-line-arguments.mapCompoundAssignmentInt8<1>+372
	rel 77+4 t=31 go:info.map[int8]int8<0>+0
	rel 86+4 t=31 go:info.int8<0>+0
aux for command-line-arguments.mapCompoundAssignmentInt32<0> SDWARFLINES size=124
	0x0000 00 09 02 00 00 00 00 00 00 00 00 04 02 03 c1 00  ................
	0x0010 14 0a a5 f6 06 4b 06 02 27 03 02 fa 06 55 06 55  .....K..'....U.U
	0x0020 06 41 06 03 01 50 06 55 06 55 06 41 06 03 01 32  .A...P.U.U.A...2
	0x0030 06 55 06 55 06 41 06 03 01 78 06 55 06 55 06 41  .U.U.A...x.U.U.A
	0x0040 06 03 01 32 06 55 06 55 06 41 06 03 01 32 06 55  ...2.U.U.A...2.U
	0x0050 06 55 06 41 06 03 01 5a 06 55 06 55 06 41 06 03  .U.A...Z.U.U.A..
	0x0060 01 5a 06 55 06 55 06 41 06 03 01 28 06 55 06 55  .Z.U.U.A...(.U.U
	0x0070 06 41 06 24 03 4b ab 02 0a 00 01 01              .A.$.K......
	rel 3+8 t=1 command-line-arguments.mapCompoundAssignmentInt32<1>+0
aux for command-line-arguments.mapCompoundAssignmentInt32<0> SDWARFFCN size=93
	0x0000 03 63 6f 6d 6d 61 6e 64 2d 6c 69 6e 65 2d 61 72  .command-line-ar
	0x0010 67 75 6d 65 6e 74 73 2e 6d 61 70 43 6f 6d 70 6f  guments.mapCompo
	0x0020 75 6e 64 41 73 73 69 67 6e 6d 65 6e 74 49 6e 74  undAssignmentInt
	0x0030 33 32 00 00 00 00 00 00 00 00 00 00 00 00 00 00  32..............
	0x0040 00 00 00 01 9c 02 00 00 00 01 0c 6d 00 48 00 00  ...........m.H..
	0x0050 00 00 00 0c 6b 00 49 00 00 00 00 00 00           ....k.I......
	rel 0+0 t=22 type:noalg.map.bucket[int32]int32<0>+0
	rel 0+0 t=22 type:noalg.map.hdr[int32]int32<0>+0
	rel 51+8 t=1 command-line-arguments.mapCompoundAssignmentInt32<1>+0
	rel 59+8 t=1 command-line-arguments.mapCompoundAssignmentInt32<1>+346
	rel 78+4 t=31 go:info.map[int32]int32<0>+0
	rel 87+4 t=31 go:info.int32<0>+0
aux for command-line-arguments.mapCompoundAssignmentInt64<0> SDWARFLINES size=124
	0x0000 00 09 02 00 00 00 00 00 00 00 00 04 02 03 fc 00  ................
	0x0010 14 0a a5 f6 06 69 06 02 30 03 02 fa 06 55 06 73  .....i..0....U.s
	0x0020 06 41 06 03 01 5a 06 55 06 73 06 41 06 03 01 3c  .A...Z.U.s.A...<
	0x0030 06 55 06 87 06 41 06 03 01 96 06 55 06 73 06 41  .U...A.....U.s.A
	0x0040 06 03 01 3c 06 55 06 91 06 41 06 03 01 3c 06 55  ...<.U...A...<.U
	0x0050 06 73 06 41 06 03 01 78 06 55 06 73 06 41 06 03  .s.A...x.U.s.A..
	0x0060 01 78 06 55 06 73 06 41 06 03 01 32 06 55 06 73  .x.U.s.A...2.U.s
	0x0070 06 41 06 2e 03 4b ab 02 0a 00 01 01              .A...K......
	rel 3+8 t=1 command-line-arguments.mapCompoundAssignmentInt64<1>+0
aux for command-line-arguments.mapCompoundAssignmentInt64<0> SDWARFFCN size=95
	0x0000 03 63 6f 6d 6d 61 6e 64 2d 6c 69 6e 65 2d 61 72  .command-line-ar
	0x0010 67 75 6d 65 6e 74 73 2e 6d 61 70 43 6f 6d 70 6f  guments.mapCompo
	0x0020 75 6e 64 41 73 73 69 67 6e 6d 65 6e 74 49 6e 74  undAssignmentInt
	0x0030 36 34 00 00 00 00 00 00 00 00 00 00 00 00 00 00  64..............
	0x0040 00 00 00 01 9c 02 00 00 00 01 0c 6d 00 83 01 00  ...........m....
	0x0050 00 00 00 00 0c 6b 00 84 01 00 00 00 00 00 00     .....k.........
	rel 0+0 t=22 type:noalg.map.bucket[int64]int64<0>+0
	rel 0+0 t=22 type:noalg.map.hdr[int64]int64<0>+0
	rel 51+8 t=1 command-line-arguments.mapCompoundAssignmentInt64<1>+0
	rel 59+8 t=1 command-line-arguments.mapCompoundAssignmentInt64<1>+405
	rel 79+4 t=31 go:info.map[int64]int64<0>+0
	rel 89+4 t=31 go:info.int64<0>+0
aux for command-line-arguments.mapCompoundAssignmentComplex128<0> SDWARFLINES size=98
	0x0000 00 09 02 00 00 00 00 00 00 00 00 04 02 03 b7 01  ................
	0x0010 14 0a c3 f6 06 69 06 02 43 f6 06 2d 06 03 01 8c  .....i..C..-....
	0x0020 06 55 06 91 06 41 06 08 03 01 6e 06 55 06 91 06  .U...A....n.U...
	0x0030 41 06 08 03 01 96 06 55 06 91 06 41 06 02 29 03  A......U...A..).
	0x0040 01 fa 06 55 06 91 06 41 06 08 03 01 96 06 55 06  ...U...A......U.
	0x0050 a5 06 41 06 08 92 03 63 ab 06 41 06 19 02 05 00  ..A....c..A.....
	0x0060 01 01                                            ..
	rel 3+8 t=1 command-line-arguments.mapCompoundAssignmentComplex128<1>+0
aux for command-line-arguments.mapCompoundAssignmentComplex128<0> SDWARFFCN size=100
	0x0000 03 63 6f 6d 6d 61 6e 64 2d 6c 69 6e 65 2d 61 72  .command-line-ar
	0x0010 67 75 6d 65 6e 74 73 2e 6d 61 70 43 6f 6d 70 6f  guments.mapCompo
	0x0020 75 6e 64 41 73 73 69 67 6e 6d 65 6e 74 43 6f 6d  undAssignmentCom
	0x0030 70 6c 65 78 31 32 38 00 00 00 00 00 00 00 00 00  plex128.........
	0x0040 00 00 00 00 00 00 00 00 01 9c 02 00 00 00 01 0c  ................
	0x0050 6d 00 be 01 00 00 00 00 00 0c 6b 00 bf 01 00 00  m.........k.....
	0x0060 00 00 00 00                                      ....
	rel 0+0 t=22 type:complex128<0>+0
	rel 0+0 t=22 type:noalg.map.bucket[complex128]complex128<0>+0
	rel 0+0 t=22 type:noalg.map.hdr[complex128]complex128<0>+0
	rel 56+8 t=1 command-line-arguments.mapCompoundAssignmentComplex128<1>+0
	rel 64+8 t=1 command-line-arguments.mapCompoundAssignmentComplex128<1>+517
	rel 84+4 t=31 go:info.map[complex128]complex128<0>+0
	rel 94+4 t=31 go:info.complex128<0>+0
aux for command-line-arguments.mapCompoundAssignmentString<0> SDWARFLINES size=46
	0x0000 00 09 02 00 00 00 00 00 00 00 00 04 02 03 da 01  ................
	0x0010 14 0a c3 f6 06 4b 06 02 24 03 02 fa 06 55 06 b9  .....K..$....U..
	0x0020 06 41 06 02 27 f6 03 7b ab 02 0a 00 01 01        .A..'..{......
	rel 3+8 t=1 command-line-arguments.mapCompoundAssignmentString<1>+0
aux for command-line-arguments.mapCompoundAssignmentString<0> SDWARFFCN size=96
	0x0000 03 63 6f 6d 6d 61 6e 64 2d 6c 69 6e 65 2d 61 72  .command-line-ar
	0x0010 67 75 6d 65 6e 74 73 2e 6d 61 70 43 6f 6d 70 6f  guments.mapCompo
	0x0020 75 6e 64 41 73 73 69 67 6e 6d 65 6e 74 53 74 72  undAssignmentStr
	0x0030 69 6e 67 00 00 00 00 00 00 00 00 00 00 00 00 00  ing.............
	0x0040 00 00 00 00 01 9c 02 00 00 00 01 0c 6d 00 e1 01  ............m...
	0x0050 00 00 00 00 00 0c 6b 00 e2 01 00 00 00 00 00 00  ......k.........
	rel 0+0 t=22 type:*string<0>+0
	rel 0+0 t=22 type:noalg.map.bucket[string]string<0>+0
	rel 0+0 t=22 type:noalg.map.hdr[string]string<0>+0
	rel 52+8 t=1 command-line-arguments.mapCompoundAssignmentString<1>+0
	rel 60+8 t=1 command-line-arguments.mapCompoundAssignmentString<1>+223
	rel 80+4 t=31 go:info.map[string]string<0>+0
	rel 90+4 t=31 go:info.string<0>+0
aux for command-line-arguments.mapAppendAssignmentInt8<0> SDWARFLOC size=84
	0x0000 ff ff ff ff ff ff ff ff 00 00 00 00 00 00 00 00  ................
	0x0010 a7 01 00 00 00 00 00 00 c9 01 00 00 00 00 00 00  ................
	0x0020 07 00 50 93 08 93 08 93 08 c9 01 00 00 00 00 00  ..P.............
	0x0030 00 a5 04 00 00 00 00 00 00 09 00 91 d0 7d 93 08  .............}..
	0x0040 93 08 93 08 00 00 00 00 00 00 00 00 00 00 00 00  ................
	0x0050 00 00 00 00                                      ....
	rel 8+8 t=1 command-line-arguments.mapAppendAssignmentInt8<1>+0
aux for command-line-arguments.mapAppendAssignmentInt8<0> SDWARFLINES size=114
	0x0000 00 09 02 00 00 00 00 00 00 00 00 04 02 03 e7 01  ................
	0x0010 14 0a c3 f6 06 69 06 02 46 f6 03 01 46 06 55 06  .....i..F...F.U.
	0x0020 91 06 41 06 02 50 03 01 fa 06 55 06 91 06 41 06  ..A..P....U...A.
	0x0030 02 57 f7 06 87 06 03 01 a0 06 5f 06 87 06 41 06  .W........_...A.
	0x0040 02 60 03 03 fa 06 55 06 91 06 41 06 02 b0 01 03  .`....U...A.....
	0x0050 01 fa 06 55 06 91 06 41 06 02 88 01 03 01 fa 06  ...U...A........
	0x0060 41 06 02 8f 01 f6 03 59 ab 06 41 06 2d 02 05 00  A......Y..A.-...
	0x0070 01 01                                            ..
	rel 3+8 t=1 command-line-arguments.mapAppendAssignmentInt8<1>+0
aux for command-line-arguments.mapAppendAssignmentInt8<0> SDWARFFCN size=105
	0x0000 03 63 6f 6d 6d 61 6e 64 2d 6c 69 6e 65 2d 61 72  .command-line-ar
	0x0010 67 75 6d 65 6e 74 73 2e 6d 61 70 41 70 70 65 6e  guments.mapAppen
	0x0020 64 41 73 73 69 67 6e 6d 65 6e 74 49 6e 74 38 00  dAssignmentInt8.
	0x0030 00 00 00 00 00 00 00 00 00 00 00 00 00 00 00 00  ................
	0x0040 01 9c 02 00 00 00 01 0c 6d 00 ee 01 00 00 00 00  ........m.......
	0x0050 00 0d 61 00 fd 01 00 00 00 00 00 00 00 00 0c 6b  ..a............k
	0x0060 00 ef 01 00 00 00 00 00 00                       .........
	rel 0+0 t=22 type:*[4]int8<0>+0
	rel 0+0 t=22 type:*[]int8<0>+0
	rel 0+0 t=22 type:*int8<0>+0
	rel 0+0 t=22 type:int<0>+0
	rel 0+0 t=22 type:int8<0>+0
	rel 0+0 t=22 type:noalg.map.bucket[int8][]int8<0>+0
	rel 0+0 t=22 type:noalg.map.hdr[int8][]int8<0>+0
	rel 48+8 t=1 command-line-arguments.mapAppendAssignmentInt8<1>+0
	rel 56+8 t=1 command-line-arguments.mapAppendAssignmentInt8<1>+1189
	rel 76+4 t=31 go:info.map[int8][]int8<0>+0
	rel 86+4 t=31 go:info.[]int8<0>+0
	rel 90+4 t=31 <0>+0
	rel 99+4 t=31 go:info.int8<0>+0
aux for command-line-arguments.mapAppendAssignmentInt32<0> SDWARFLOC size=84
	0x0000 ff ff ff ff ff ff ff ff 00 00 00 00 00 00 00 00  ................
	0x0010 9a 01 00 00 00 00 00 00 c5 01 00 00 00 00 00 00  ................
	0x0020 07 00 50 93 08 93 08 93 08 c5 01 00 00 00 00 00  ..P.............
	0x0030 00 9f 05 00 00 00 00 00 00 09 00 91 b8 7d 93 08  .............}..
	0x0040 93 08 93 08 00 00 00 00 00 00 00 00 00 00 00 00  ................
	0x0050 00 00 00 00                                      ....
	rel 8+8 t=1 command-line-arguments.mapAppendAssignmentInt32<1>+0
aux for command-line-arguments.mapAppendAssignmentInt32<0> SDWARFLINES size=136
	0x0000 00 09 02 00 00 00 00 00 00 00 00 04 02 03 94 02  ................
	0x0010 14 0a c3 f6 06 69 06 02 46 03 02 fa 06 55 06 73  .....i..F....U.s
	0x0020 06 41 06 02 4c 03 01 fa 06 55 06 73 06 41 06 02  .A..L....U.s.A..
	0x0030 59 f7 06 87 06 08 03 01 28 06 5f 06 69 06 41 06  Y.......(._.i.A.
	0x0040 02 5d 03 01 fa 06 55 06 91 06 41 06 02 5d 03 01  .]....U...A..]..
	0x0050 fa 06 55 06 9b 06 41 06 02 5d 03 03 fa 06 55 06  ..U...A..]....U.
	0x0060 73 06 41 06 02 b3 01 03 01 fa 06 55 06 73 06 41  s.A........U.s.A
	0x0070 06 02 7f 03 01 fa 06 55 06 91 06 41 06 02 70 f6  .......U...A..p.
	0x0080 03 4d ab 02 0a 00 01 01                          .M......
	rel 3+8 t=1 command-line-arguments.mapAppendAssignmentInt32<1>+0
aux for command-line-arguments.mapAppendAssignmentInt32<0> SDWARFFCN size=106
	0x0000 03 63 6f 6d 6d 61 6e 64 2d 6c 69 6e 65 2d 61 72  .command-line-ar
	0x0010 67 75 6d 65 6e 74 73 2e 6d 61 70 41 70 70 65 6e  guments.mapAppen
	0x0020 64 41 73 73 69 67 6e 6d 65 6e 74 49 6e 74 33 32  dAssignmentInt32
	0x0030 00 00 00 00 00 00 00 00 00 00 00 00 00 00 00 00  ................
	0x0040 00 01 9c 02 00 00 00 01 0c 6d 00 9b 02 00 00 00  .........m......
	0x0050 00 00 0c 6b 00 9c 02 00 00 00 00 00 0d 61 00 aa  ...k.........a..
	0x0060 02 00 00 00 00 00 00 00 00 00                    ..........
	rel 0+0 t=22 type:*[4]int32<0>+0
	rel 0+0 t=22 type:*[]int32<0>+0
	rel 0+0 t=22 type:*int32<0>+0
	rel 0+0 t=22 type:int<0>+0
	rel 0+0 t=22 type:noalg.map.bucket[int32][]int32<0>+0
	rel 0+0 t=22 type:noalg.map.hdr[int32][]int32<0>+0
	rel 49+8 t=1 command-line-arguments.mapAppendAssignmentInt32<1>+0
	rel 57+8 t=1 command-line-arguments.mapAppendAssignmentInt32<1>+1439
	rel 77+4 t=31 go:info.map[int32][]int32<0>+0
	rel 87+4 t=31 go:info.int32<0>+0
	rel 97+4 t=31 go:info.[]int32<0>+0
	rel 101+4 t=31 <0>+0
aux for command-line-arguments.mapAppendAssignmentInt64<0> SDWARFLOC size=84
	0x0000 ff ff ff ff ff ff ff ff 00 00 00 00 00 00 00 00  ................
	0x0010 99 01 00 00 00 00 00 00 ce 01 00 00 00 00 00 00  ................
	0x0020 07 00 50 93 08 93 08 93 08 ce 01 00 00 00 00 00  ..P.............
	0x0030 00 0a 06 00 00 00 00 00 00 09 00 91 98 7d 93 08  .............}..
	0x0040 93 08 93 08 00 00 00 00 00 00 00 00 00 00 00 00  ................
	0x0050 00 00 00 00                                      ....
	rel 8+8 t=1 command-line-arguments.mapAppendAssignmentInt64<1>+0
aux for command-line-arguments.mapAppendAssignmentInt64<0> SDWARFLINES size=139
	0x0000 00 09 02 00 00 00 00 00 00 00 00 04 02 03 cd 02  ................
	0x0010 14 0a c3 f6 06 69 06 02 46 03 02 fa 06 55 06 73  .....i..F....U.s
	0x0020 06 41 06 02 4d 03 01 fa 06 55 06 73 06 41 06 02  .A..M....U.s.A..
	0x0030 57 f7 06 87 06 08 03 01 8c 06 5f 06 69 06 41 06  W........._.i.A.
	0x0040 02 7f 03 01 fa 06 55 06 af 06 41 06 02 7f 03 01  ......U...A.....
	0x0050 fa 06 55 06 73 06 41 06 02 7f 03 03 fa 06 55 06  ..U.s.A.......U.
	0x0060 73 06 41 06 02 b1 01 03 01 fa 06 55 06 73 06 41  s.A........U.s.A
	0x0070 06 02 7d 03 01 fa 06 55 06 91 06 41 06 02 6d f6  ..}....U...A..m.
	0x0080 06 03 4d ab 06 37 02 0a 00 01 01                 ..M..7.....
	rel 3+8 t=1 command-line-arguments.mapAppendAssignmentInt64<1>+0
aux for command-line-arguments.mapAppendAssignmentInt64<0> SDWARFFCN size=106
	0x0000 03 63 6f 6d 6d 61 6e 64 2d 6c 69 6e 65 2d 61 72  .command-line-ar
	0x0010 67 75 6d 65 6e 74 73 2e 6d 61 70 41 70 70 65 6e  guments.mapAppen
	0x0020 64 41 73 73 69 67 6e 6d 65 6e 74 49 6e 74 36 34  dAssignmentInt64
	0x0030 00 00 00 00 00 00 00 00 00 00 00 00 00 00 00 00  ................
	0x0040 00 01 9c 02 00 00 00 01 0c 6d 00 d4 02 00 00 00  .........m......
	0x0050 00 00 0c 6b 00 d5 02 00 00 00 00 00 0d 61 00 e3  ...k.........a..
	0x0060 02 00 00 00 00 00 00 00 00 00                    ..........
	rel 0+0 t=22 type:*[4]int64<0>+0
	rel 0+0 t=22 type:*[]int64<0>+0
	rel 0+0 t=22 type:*int64<0>+0
	rel 0+0 t=22 type:int<0>+0
	rel 0+0 t=22 type:noalg.map.bucket[int64][]int64<0>+0
	rel 0+0 t=22 type:noalg.map.hdr[int64][]int64<0>+0
	rel 49+8 t=1 command-line-arguments.mapAppendAssignmentInt64<1>+0
	rel 57+8 t=1 command-line-arguments.mapAppendAssignmentInt64<1>+1546
	rel 77+4 t=31 go:info.map[int64][]int64<0>+0
	rel 87+4 t=31 go:info.int64<0>+0
	rel 97+4 t=31 go:info.[]int64<0>+0
	rel 101+4 t=31 <0>+0
aux for command-line-arguments.mapAppendAssignmentComplex128<0> SDWARFLOC size=84
	0x0000 ff ff ff ff ff ff ff ff 00 00 00 00 00 00 00 00  ................
	0x0010 f4 01 00 00 00 00 00 00 52 02 00 00 00 00 00 00  ........R.......
	0x0020 07 00 50 93 08 93 08 93 08 52 02 00 00 00 00 00  ..P......R......
	0x0030 00 e5 05 00 00 00 00 00 00 09 00 91 d8 7c 93 08  .............|..
	0x0040 93 08 93 08 00 00 00 00 00 00 00 00 00 00 00 00  ................
	0x0050 00 00 00 00                                      ....
	rel 8+8 t=1 command-line-arguments.mapAppendAssignmentComplex128<1>+0
aux for command-line-arguments.mapAppendAssignmentComplex128<0> SDWARFLINES size=127
	0x0000 00 09 02 00 00 00 00 00 00 00 00 04 02 03 86 03  ................
	0x0010 14 0a c3 f6 06 69 06 02 46 f6 06 2d 06 03 01 8c  .....i..F..-....
	0x0020 06 55 06 91 06 41 06 02 62 03 01 fa 06 55 06 91  .U...A..b....U..
	0x0030 06 41 06 02 88 01 f7 06 87 06 02 33 03 01 fa 06  .A.........3....
	0x0040 5f 06 87 06 41 06 02 97 01 03 03 fa 06 55 06 91  _...A........U..
	0x0050 06 41 06 02 c1 01 03 01 fa 06 55 06 91 06 41 06  .A........U...A.
	0x0060 02 b9 01 03 01 fa 06 4b 06 02 23 ff 06 41 06 02  .......K..#..A..
	0x0070 8e 01 f6 03 59 ab 06 41 06 19 02 05 00 01 01     ....Y..A.......
	rel 3+8 t=1 command-line-arguments.mapAppendAssignmentComplex128<1>+0
aux for command-line-arguments.mapAppendAssignmentComplex128<0> SDWARFFCN size=111
	0x0000 03 63 6f 6d 6d 61 6e 64 2d 6c 69 6e 65 2d 61 72  .command-line-ar
	0x0010 67 75 6d 65 6e 74 73 2e 6d 61 70 41 70 70 65 6e  guments.mapAppen
	0x0020 64 41 73 73 69 67 6e 6d 65 6e 74 43 6f 6d 70 6c  dAssignmentCompl
	0x0030 65 78 31 32 38 00 00 00 00 00 00 00 00 00 00 00  ex128...........
	0x0040 00 00 00 00 00 00 01 9c 02 00 00 00 01 0c 6d 00  ..............m.
	0x0050 8d 03 00 00 00 00 00 0d 61 00 9c 03 00 00 00 00  ........a.......
	0x0060 00 00 00 00 0c 6b 00 8e 03 00 00 00 00 00 00     .....k.........
	rel 0+0 t=22 type:*[4]complex128<0>+0
	rel 0+0 t=22 type:*[]complex128<0>+0
	rel 0+0 t=22 type:*complex128<0>+0
	rel 0+0 t=22 type:complex128<0>+0
	rel 0+0 t=22 type:int<0>+0
	rel 0+0 t=22 type:noalg.map.bucket[complex128][]complex128<0>+0
	rel 0+0 t=22 type:noalg.map.hdr[complex128][]complex128<0>+0
	rel 54+8 t=1 command-line-arguments.mapAppendAssignmentComplex128<1>+0
	rel 62+8 t=1 command-line-arguments.mapAppendAssignmentComplex128<1>+1509
	rel 82+4 t=31 go:info.map[complex128][]complex128<0>+0
	rel 92+4 t=31 go:info.[]complex128<0>+0
	rel 96+4 t=31 <0>+0
	rel 105+4 t=31 go:info.complex128<0>+0
aux for command-line-arguments.mapAppendAssignmentString<0> SDWARFLOC size=84
	0x0000 ff ff ff ff ff ff ff ff 00 00 00 00 00 00 00 00  ................
	0x0010 71 02 00 00 00 00 00 00 df 02 00 00 00 00 00 00  q...............
	0x0020 07 00 50 93 08 93 08 93 08 df 02 00 00 00 00 00  ..P.............
	0x0030 00 aa 06 00 00 00 00 00 00 09 00 91 d8 7c 93 08  .............|..
	0x0040 93 08 93 08 00 00 00 00 00 00 00 00 00 00 00 00  ................
	0x0050 00 00 00 00                                      ....
	rel 8+8 t=1 command-line-arguments.mapAppendAssignmentString<1>+0
aux for command-line-arguments.mapAppendAssignmentString<0> SDWARFLINES size=120
	0x0000 00 09 02 00 00 00 00 00 00 00 00 04 02 03 b3 03  ................
	0x0010 14 0a c3 f6 06 69 06 02 46 03 02 fa 06 55 06 d7  .....i..F....U..
	0x0020 06 41 06 02 7f 03 06 ff 06 55 06 d7 06 41 06 02  .A.......U...A..
	0x0030 e8 01 f7 06 87 06 02 3c 03 01 fa 06 5f 06 d7 06  .......<...._...
	0x0040 41 06 02 a2 01 03 03 fa 06 55 06 d7 06 41 06 02  A........U...A..
	0x0050 d0 01 03 01 fa 06 55 06 d7 06 41 06 02 b5 01 03  ......U...A.....
	0x0060 01 fa 06 41 06 ff 06 41 06 02 c5 01 f6 06 03 59  ...A...A.......Y
	0x0070 ab 06 19 02 0a 00 01 01                          ........
	rel 3+8 t=1 command-line-arguments.mapAppendAssignmentString<1>+0
aux for command-line-arguments.mapAppendAssignmentString<0> SDWARFFCN size=107
	0x0000 03 63 6f 6d 6d 61 6e 64 2d 6c 69 6e 65 2d 61 72  .command-line-ar
	0x0010 67 75 6d 65 6e 74 73 2e 6d 61 70 41 70 70 65 6e  guments.mapAppen
	0x0020 64 41 73 73 69 67 6e 6d 65 6e 74 53 74 72 69 6e  dAssignmentStrin
	0x0030 67 00 00 00 00 00 00 00 00 00 00 00 00 00 00 00  g...............
	0x0040 00 00 01 9c 02 00 00 00 01 0c 6d 00 ba 03 00 00  ..........m.....
	0x0050 00 00 00 0c 6b 00 bb 03 00 00 00 00 00 0d 61 00  ....k.........a.
	0x0060 c9 03 00 00 00 00 00 00 00 00 00                 ...........
	rel 0+0 t=22 type:*[4]string<0>+0
	rel 0+0 t=22 type:*[]string<0>+0
	rel 0+0 t=22 type:*string<0>+0
	rel 0+0 t=22 type:[32]uint8<0>+0
	rel 0+0 t=22 type:int<0>+0
	rel 0+0 t=22 type:noalg.map.bucket[string][]string<0>+0
	rel 0+0 t=22 type:noalg.map.hdr[string][]string<0>+0
	rel 50+8 t=1 command-line-arguments.mapAppendAssignmentString<1>+0
	rel 58+8 t=1 command-line-arguments.mapAppendAssignmentString<1>+1706
	rel 78+4 t=31 go:info.map[string][]string<0>+0
	rel 88+4 t=31 go:info.string<0>+0
	rel 98+4 t=31 go:info.[]string<0>+0
	rel 102+4 t=31 <0>+0
aux for command-line-arguments.init<0> SDWARFLINES size=22
	0x0000 00 09 02 00 00 00 00 00 00 00 00 04 02 03 e5 01  ................
	0x0010 14 02 01 00 01 01                                ......
	rel 3+8 t=1 command-line-arguments.init<1>+0
aux for command-line-arguments.init<0> SDWARFFCN size=53
	0x0000 03 63 6f 6d 6d 61 6e 64 2d 6c 69 6e 65 2d 61 72  .command-line-ar
	0x0010 67 75 6d 65 6e 74 73 2e 69 6e 69 74 00 00 00 00  guments.init....
	0x0020 00 00 00 00 00 00 00 00 00 00 00 00 00 01 9c 02  ................
	0x0030 00 00 00 01 00                                   .....
	rel 29+8 t=1 command-line-arguments.init<1>+0
	rel 37+8 t=1 command-line-arguments.init<1>+1
aux for type:.eq.[4]complex128<0> SDWARFLOC size=102
	0x0000 ff ff ff ff ff ff ff ff 00 00 00 00 00 00 00 00  ................
	0x0010 00 00 00 00 00 00 00 00 4f 00 00 00 00 00 00 00  ........O.......
	0x0020 01 00 50 00 00 00 00 00 00 00 00 00 00 00 00 00  ..P.............
	0x0030 00 00 00 ff ff ff ff ff ff ff ff 00 00 00 00 00  ................
	0x0040 00 00 00 00 00 00 00 00 00 00 00 56 00 00 00 00  ...........V....
	0x0050 00 00 00 01 00 53 00 00 00 00 00 00 00 00 00 00  .....S..........
	0x0060 00 00 00 00 00 00                                ......
	rel 8+8 t=1 type:.eq.[4]complex128<1>+0
	rel 59+8 t=1 type:.eq.[4]complex128<1>+0
aux for type:.eq.[4]complex128<0> SDWARFLINES size=35
	0x0000 00 09 02 00 00 00 00 00 00 00 00 04 01 0f 06 23  ...............#
	0x0010 06 4b 06 37 06 02 29 ff 06 23 06 19 06 41 02 01  .K.7..)..#...A..
	0x0020 00 01 01                                         ...
	rel 3+8 t=1 type:.eq.[4]complex128<1>+0
aux for type:.eq.[4]complex128<0> SDWARFFCN size=84
	0x0000 03 74 79 70 65 3a 2e 65 71 2e 5b 34 5d 63 6f 6d  .type:.eq.[4]com
	0x0010 70 6c 65 78 31 32 38 00 00 00 00 00 00 00 00 00  plex128.........
	0x0020 00 00 00 00 00 00 00 00 01 9c 01 00 00 00 01 12  ................
	0x0030 70 00 00 01 00 00 00 00 00 00 00 00 12 71 00 00  p............q..
	0x0040 01 00 00 00 00 00 00 00 00 11 72 00 01 01 00 00  ..........r.....
	0x0050 00 00 00 00                                      ....
	rel 0+0 t=22 type:bool<0>+0
	rel 24+8 t=1 type:.eq.[4]complex128<1>+0
	rel 32+8 t=1 type:.eq.[4]complex128<1>+86
	rel 52+4 t=31 go:info.*[4]complex128<0>+0
	rel 56+4 t=31 <0>+0
	rel 65+4 t=31 go:info.*[4]complex128<0>+0
	rel 69+4 t=31 <0>+51
	rel 78+4 t=31 go:info.bool<0>+0
aux for type:.eq.[4]string<0> SDWARFLOC size=141
	0x0000 ff ff ff ff ff ff ff ff 00 00 00 00 00 00 00 00  ................
	0x0010 00 00 00 00 00 00 00 00 54 00 00 00 00 00 00 00  ........T.......
	0x0020 01 00 50 61 00 00 00 00 00 00 00 c7 00 00 00 00  ..Pa............
	0x0030 00 00 00 01 00 9c 00 00 00 00 00 00 00 00 00 00  ................
	0x0040 00 00 00 00 00 00 ff ff ff ff ff ff ff ff 00 00  ................
	0x0050 00 00 00 00 00 00 00 00 00 00 00 00 00 00 54 00  ..............T.
	0x0060 00 00 00 00 00 00 01 00 53 61 00 00 00 00 00 00  ........Sa......
	0x0070 00 c7 00 00 00 00 00 00 00 02 00 91 08 00 00 00  ................
	0x0080 00 00 00 00 00 00 00 00 00 00 00 00 00           .............
	rel 8+8 t=1 type:.eq.[4]string<1>+0
	rel 78+8 t=1 type:.eq.[4]string<1>+0
aux for type:.eq.[4]string<0> SDWARFLINES size=41
	0x0000 00 09 02 00 00 00 00 00 00 00 00 04 01 0f 0a 73  ...............s
	0x0010 06 c3 06 02 22 ff 06 69 06 19 06 19 06 c3 06 37  ...."..i.......7
	0x0020 06 02 1a ff 02 1e 00 01 01                       .........
	rel 3+8 t=1 type:.eq.[4]string<1>+0
aux for type:.eq.[4]string<0> SDWARFFCN size=80
	0x0000 03 74 79 70 65 3a 2e 65 71 2e 5b 34 5d 73 74 72  .type:.eq.[4]str
	0x0010 69 6e 67 00 00 00 00 00 00 00 00 00 00 00 00 00  ing.............
	0x0020 00 00 00 00 01 9c 01 00 00 00 01 12 70 00 00 01  ............p...
	0x0030 00 00 00 00 00 00 00 00 12 71 00 00 01 00 00 00  .........q......
	0x0040 00 00 00 00 00 11 72 00 01 01 00 00 00 00 00 00  ......r.........
	rel 0+0 t=22 type:bool<0>+0
	rel 0+0 t=22 type:int<0>+0
	rel 20+8 t=1 type:.eq.[4]string<1>+0
	rel 28+8 t=1 type:.eq.[4]string<1>+199
	rel 48+4 t=31 go:info.*[4]string<0>+0
	rel 52+4 t=31 <0>+0
	rel 61+4 t=31 go:info.*[4]string<0>+0
	rel 65+4 t=31 <0>+70
	rel 74+4 t=31 go:info.bool<0>+0
